ARM GAS  /tmp/ccFOHW0v.s 			page 1


   1              		.cpu cortex-m7
   2              		.arch armv7e-m
   3              		.fpu fpv5-d16
   4              		.eabi_attribute 28, 1
   5              		.eabi_attribute 20, 1
   6              		.eabi_attribute 21, 1
   7              		.eabi_attribute 23, 3
   8              		.eabi_attribute 24, 1
   9              		.eabi_attribute 25, 1
  10              		.eabi_attribute 26, 1
  11              		.eabi_attribute 30, 1
  12              		.eabi_attribute 34, 1
  13              		.eabi_attribute 18, 4
  14              		.file	"adc_isr.c"
  15              		.text
  16              	.Ltext0:
  17              		.cfi_sections	.debug_frame
  18              		.file 1 "../Core/Src/adc_isr.c"
  19              		.section	.rodata.HAL_ADC_ConvCpltCallback.str1.4,"aMS",%progbits,1
  20              		.align	2
  21              	.LC0:
  22 0000 09436F6E 		.ascii	"\011Converting channel: %d\015\012\000"
  22      76657274 
  22      696E6720 
  22      6368616E 
  22      6E656C3A 
  23 001a 0000     		.align	2
  24              	.LC1:
  25 001c 4144435F 		.ascii	"ADC_SERVO_0: %d\015\012\000"
  25      53455256 
  25      4F5F303A 
  25      2025640D 
  25      0A00
  26 002e 0000     		.align	2
  27              	.LC2:
  28 0030 4144435F 		.ascii	"ADC_SERVO_1: %d\015\012\000"
  28      53455256 
  28      4F5F313A 
  28      2025640D 
  28      0A00
  29 0042 0000     		.align	2
  30              	.LC3:
  31 0044 4144435F 		.ascii	"ADC_SERVO_2: %d\015\012\000"
  31      53455256 
  31      4F5F323A 
  31      2025640D 
  31      0A00
  32 0056 0000     		.align	2
  33              	.LC4:
  34 0058 4144435F 		.ascii	"ADC_SERVO_3: %d\015\012\000"
  34      53455256 
  34      4F5F333A 
  34      2025640D 
  34      0A00
  35 006a 0000     		.align	2
  36              	.LC5:
  37 006c 4144435F 		.ascii	"ADC_SERVO_4: %d\015\012\000"
ARM GAS  /tmp/ccFOHW0v.s 			page 2


  37      53455256 
  37      4F5F343A 
  37      2025640D 
  37      0A00
  38              		.section	.text.HAL_ADC_ConvCpltCallback,"ax",%progbits
  39              		.align	1
  40              		.global	HAL_ADC_ConvCpltCallback
  41              		.syntax unified
  42              		.thumb
  43              		.thumb_func
  45              	HAL_ADC_ConvCpltCallback:
  46              	.LVL0:
  47              	.LFB398:
   1:../Core/Src/adc_isr.c **** #include "port_config.h"
   2:../Core/Src/adc_isr.c **** #include "globals.h"
   3:../Core/Src/adc_isr.c **** #include "FreeRTOS.h"
   4:../Core/Src/adc_isr.c **** #include "portmacro.h"
   5:../Core/Src/adc_isr.c **** #include "adc.h"
   6:../Core/Src/adc_isr.c **** #include "string.h"
   7:../Core/Src/adc_isr.c **** 
   8:../Core/Src/adc_isr.c **** /**
   9:../Core/Src/adc_isr.c ****  * This interrupt is called every time a single ADC conversion is completed.
  10:../Core/Src/adc_isr.c ****  * Through adc[1-3]_conv_ptr, we keep track of which channel we are currently
  11:../Core/Src/adc_isr.c ****  * converting. We then store the value in the appropriate field of the
  12:../Core/Src/adc_isr.c ****  * analog_feedback_data struct in the global state. If we have finished
  13:../Core/Src/adc_isr.c ****  * converting all channels in the sequence, we start the next ADC.
  14:../Core/Src/adc_isr.c ****  * 
  15:../Core/Src/adc_isr.c ****  * The sequence of channels for each ADC is defined in port_config.h as well
  16:../Core/Src/adc_isr.c ****  * as the sequence of ADCs to convert.
  17:../Core/Src/adc_isr.c ****  */
  18:../Core/Src/adc_isr.c **** void HAL_ADC_ConvCpltCallback(ADC_HandleTypeDef *hadc) {
  48              		.loc 1 18 56 view -0
  49              		.cfi_startproc
  50              		@ args = 0, pretend = 0, frame = 104
  51              		@ frame_needed = 0, uses_anonymous_args = 0
  52              		.loc 1 18 56 is_stmt 0 view .LVU1
  53 0000 F0B5     		push	{r4, r5, r6, r7, lr}
  54              	.LCFI0:
  55              		.cfi_def_cfa_offset 20
  56              		.cfi_offset 4, -20
  57              		.cfi_offset 5, -16
  58              		.cfi_offset 6, -12
  59              		.cfi_offset 7, -8
  60              		.cfi_offset 14, -4
  61 0002 9BB0     		sub	sp, sp, #108
  62              	.LCFI1:
  63              		.cfi_def_cfa_offset 128
  64 0004 0646     		mov	r6, r0
  65 0006 0024     		movs	r4, #0
  19:../Core/Src/adc_isr.c ****     static uint16_t adc1_conv_ptr = 0;
  66              		.loc 1 19 5 is_stmt 1 view .LVU2
  20:../Core/Src/adc_isr.c ****     static uint16_t adc2_conv_ptr = 0;
  67              		.loc 1 20 5 view .LVU3
  21:../Core/Src/adc_isr.c ****     static uint16_t adc3_conv_ptr = 0;
  68              		.loc 1 21 5 view .LVU4
  22:../Core/Src/adc_isr.c **** 
  23:../Core/Src/adc_isr.c ****     /* FreeRTOS boilerplate */
ARM GAS  /tmp/ccFOHW0v.s 			page 3


  24:../Core/Src/adc_isr.c ****     BaseType_t xHigherPriorityTaskWoken = pdFALSE;
  69              		.loc 1 24 5 view .LVU5
  70              	.LVL1:
  25:../Core/Src/adc_isr.c **** 
  26:../Core/Src/adc_isr.c ****     /* Value of the conversion */
  27:../Core/Src/adc_isr.c ****     uint16_t adc_val = HAL_ADC_GetValue(hadc);
  71              		.loc 1 27 5 view .LVU6
  72              		.loc 1 27 24 is_stmt 0 view .LVU7
  73 0008 FFF7FEFF 		bl	HAL_ADC_GetValue
  74              	.LVL2:
  75              		.loc 1 27 24 view .LVU8
  76 000c 0546     		mov	r5, r0
  77              		.loc 1 27 14 view .LVU9
  78 000e 87B2     		uxth	r7, r0
  79              	.LVL3:
  28:../Core/Src/adc_isr.c **** 
  29:../Core/Src/adc_isr.c ****     /* ID of the channel being converted */
  30:../Core/Src/adc_isr.c ****     ADC_Channel channel;
  80              		.loc 1 30 5 is_stmt 1 view .LVU10
  31:../Core/Src/adc_isr.c **** 
  32:../Core/Src/adc_isr.c ****     /* Pointer to the next ADC to start. NULL if the sequence is over */
  33:../Core/Src/adc_isr.c ****     ADC_HandleTypeDef *to_start = NULL;
  81              		.loc 1 33 5 view .LVU11
  34:../Core/Src/adc_isr.c ****     
  35:../Core/Src/adc_isr.c ****     /**
  36:../Core/Src/adc_isr.c ****      * For each ADC, get the channel being converted and increment the
  37:../Core/Src/adc_isr.c ****      * corresponding pointer. If the pointer is at the end of the sequence,
  38:../Core/Src/adc_isr.c ****      * set to_start to the next ADC to start.
  39:../Core/Src/adc_isr.c ****      */
  40:../Core/Src/adc_isr.c **** #ifdef USE_ADC1
  41:../Core/Src/adc_isr.c ****     if (hadc->Instance == hadc1.Instance) {
  82              		.loc 1 41 5 view .LVU12
  83              		.loc 1 41 13 is_stmt 0 view .LVU13
  84 0010 3368     		ldr	r3, [r6]
  85              		.loc 1 41 32 view .LVU14
  86 0012 544A     		ldr	r2, .L17
  87 0014 1268     		ldr	r2, [r2]
  88              		.loc 1 41 8 view .LVU15
  89 0016 9342     		cmp	r3, r2
  90 0018 1ED0     		beq	.L14
  91              	.LVL4:
  92              	.L2:
  42:../Core/Src/adc_isr.c ****         channel = ADC1_SEQUENCE[adc1_conv_ptr];
  43:../Core/Src/adc_isr.c ****         adc1_conv_ptr = (adc1_conv_ptr + 1) % ADC1_N_CHANNELS;
  44:../Core/Src/adc_isr.c **** 
  45:../Core/Src/adc_isr.c ****         if (adc1_conv_ptr == 0) {
  46:../Core/Src/adc_isr.c ****             to_start = ADC1_NEXT;
  47:../Core/Src/adc_isr.c ****         }
  48:../Core/Src/adc_isr.c ****     }
  49:../Core/Src/adc_isr.c **** #endif
  50:../Core/Src/adc_isr.c **** 
  51:../Core/Src/adc_isr.c **** #ifdef USE_ADC2
  52:../Core/Src/adc_isr.c ****     if (hadc->Instance == hadc2.Instance) {
  93              		.loc 1 52 5 is_stmt 1 view .LVU16
  94              		.loc 1 52 32 is_stmt 0 view .LVU17
  95 001a 534A     		ldr	r2, .L17+4
  96 001c 1268     		ldr	r2, [r2]
ARM GAS  /tmp/ccFOHW0v.s 			page 4


  97              		.loc 1 52 8 view .LVU18
  98 001e 9342     		cmp	r3, r2
  99 0020 27D0     		beq	.L15
 100              	.L3:
  53:../Core/Src/adc_isr.c ****         channel = ADC2_SEQUENCE[adc2_conv_ptr];
  54:../Core/Src/adc_isr.c ****         adc2_conv_ptr = (adc2_conv_ptr + 1) % ADC2_N_CHANNELS;
  55:../Core/Src/adc_isr.c **** 
  56:../Core/Src/adc_isr.c ****         if (adc2_conv_ptr == 0) {
  57:../Core/Src/adc_isr.c ****             to_start = ADC2_NEXT;
  58:../Core/Src/adc_isr.c ****         }
  59:../Core/Src/adc_isr.c ****     }
  60:../Core/Src/adc_isr.c **** #endif
  61:../Core/Src/adc_isr.c **** 
  62:../Core/Src/adc_isr.c **** #ifdef USE_ADC3
  63:../Core/Src/adc_isr.c ****     if (hadc->Instance == hadc3.Instance) {
 101              		.loc 1 63 5 is_stmt 1 view .LVU19
 102              		.loc 1 63 32 is_stmt 0 view .LVU20
 103 0022 524A     		ldr	r2, .L17+8
 104 0024 1268     		ldr	r2, [r2]
 105              		.loc 1 63 8 view .LVU21
 106 0026 9342     		cmp	r3, r2
 107 0028 2ED0     		beq	.L16
 108              	.L4:
  64:../Core/Src/adc_isr.c ****         channel = ADC3_SEQUENCE[adc3_conv_ptr];
  65:../Core/Src/adc_isr.c ****         adc3_conv_ptr = (adc3_conv_ptr + 1) % ADC3_N_CHANNELS;
  66:../Core/Src/adc_isr.c **** 
  67:../Core/Src/adc_isr.c ****         if (adc3_conv_ptr == 0) {
  68:../Core/Src/adc_isr.c ****             to_start = ADC3_NEXT;
  69:../Core/Src/adc_isr.c ****         }
  70:../Core/Src/adc_isr.c ****     }
  71:../Core/Src/adc_isr.c **** #endif
  72:../Core/Src/adc_isr.c **** 
  73:../Core/Src/adc_isr.c ****     /* Always use mutex with g_current_state */
  74:../Core/Src/adc_isr.c ****     //if (xSemaphoreTakeFromISR(g_state_mutex_handle, &xHigherPriorityTaskWoken) == pdTRUE) {
  75:../Core/Src/adc_isr.c ****         /* Update the appropriate field in g_current_state */
  76:../Core/Src/adc_isr.c ****         char buf[100];
 109              		.loc 1 76 9 is_stmt 1 view .LVU22
  77:../Core/Src/adc_isr.c **** 
  78:../Core/Src/adc_isr.c ****         sprintf(buf, "\tConverting channel: %d\r\n", channel);
 110              		.loc 1 78 9 view .LVU23
 111 002a 2246     		mov	r2, r4
 112 002c 5049     		ldr	r1, .L17+12
 113 002e 01A8     		add	r0, sp, #4
 114 0030 FFF7FEFF 		bl	sprintf
 115              	.LVL5:
  79:../Core/Src/adc_isr.c ****         HAL_UART_Transmit(&debug_uart, buf, strlen(buf), HAL_MAX_DELAY);
 116              		.loc 1 79 9 view .LVU24
 117              		.loc 1 79 45 is_stmt 0 view .LVU25
 118 0034 01A8     		add	r0, sp, #4
 119 0036 FFF7FEFF 		bl	strlen
 120              	.LVL6:
 121              		.loc 1 79 9 view .LVU26
 122 003a 4FF0FF33 		mov	r3, #-1
 123 003e 82B2     		uxth	r2, r0
 124 0040 01A9     		add	r1, sp, #4
 125 0042 4C48     		ldr	r0, .L17+16
 126 0044 FFF7FEFF 		bl	HAL_UART_Transmit
ARM GAS  /tmp/ccFOHW0v.s 			page 5


 127              	.LVL7:
  80:../Core/Src/adc_isr.c **** 
  81:../Core/Src/adc_isr.c ****         switch (channel) {
 128              		.loc 1 81 9 is_stmt 1 view .LVU27
 129 0048 043C     		subs	r4, r4, #4
 130              	.LVL8:
 131              		.loc 1 81 9 is_stmt 0 view .LVU28
 132 004a 042C     		cmp	r4, #4
 133 004c 3BD8     		bhi	.L5
 134 004e DFE804F0 		tbb	[pc, r4]
 135              	.L7:
 136 0052 29       		.byte	(.L11-.L7)/2
 137 0053 42       		.byte	(.L10-.L7)/2
 138 0054 54       		.byte	(.L9-.L7)/2
 139 0055 66       		.byte	(.L8-.L7)/2
 140 0056 78       		.byte	(.L6-.L7)/2
 141              	.LVL9:
 142 0057 00       		.p2align 1
 143              	.L14:
  42:../Core/Src/adc_isr.c ****         adc1_conv_ptr = (adc1_conv_ptr + 1) % ADC1_N_CHANNELS;
 144              		.loc 1 42 9 is_stmt 1 view .LVU29
  42:../Core/Src/adc_isr.c ****         adc1_conv_ptr = (adc1_conv_ptr + 1) % ADC1_N_CHANNELS;
 145              		.loc 1 42 32 is_stmt 0 view .LVU30
 146 0058 4748     		ldr	r0, .L17+20
 147 005a 0188     		ldrh	r1, [r0]
  42:../Core/Src/adc_isr.c ****         adc1_conv_ptr = (adc1_conv_ptr + 1) % ADC1_N_CHANNELS;
 148              		.loc 1 42 17 view .LVU31
 149 005c 474A     		ldr	r2, .L17+24
 150 005e 545C     		ldrb	r4, [r2, r1]	@ zero_extendqisi2
 151              	.LVL10:
  43:../Core/Src/adc_isr.c **** 
 152              		.loc 1 43 9 is_stmt 1 view .LVU32
  43:../Core/Src/adc_isr.c **** 
 153              		.loc 1 43 40 is_stmt 0 view .LVU33
 154 0060 0131     		adds	r1, r1, #1
  43:../Core/Src/adc_isr.c **** 
 155              		.loc 1 43 45 view .LVU34
 156 0062 474A     		ldr	r2, .L17+28
 157 0064 82FB0162 		smull	r6, r2, r2, r1
 158              	.LVL11:
  43:../Core/Src/adc_isr.c **** 
 159              		.loc 1 43 45 view .LVU35
 160 0068 02EB4202 		add	r2, r2, r2, lsl #1
 161 006c 8A1A     		subs	r2, r1, r2
  43:../Core/Src/adc_isr.c **** 
 162              		.loc 1 43 23 view .LVU36
 163 006e 0280     		strh	r2, [r0]	@ movhi
  45:../Core/Src/adc_isr.c ****             to_start = ADC1_NEXT;
 164              		.loc 1 45 9 is_stmt 1 view .LVU37
 165 0070 D3E7     		b	.L2
 166              	.L15:
  53:../Core/Src/adc_isr.c ****         adc2_conv_ptr = (adc2_conv_ptr + 1) % ADC2_N_CHANNELS;
 167              		.loc 1 53 9 view .LVU38
  53:../Core/Src/adc_isr.c ****         adc2_conv_ptr = (adc2_conv_ptr + 1) % ADC2_N_CHANNELS;
 168              		.loc 1 53 32 is_stmt 0 view .LVU39
 169 0072 4449     		ldr	r1, .L17+32
 170 0074 0A88     		ldrh	r2, [r1]
ARM GAS  /tmp/ccFOHW0v.s 			page 6


  53:../Core/Src/adc_isr.c ****         adc2_conv_ptr = (adc2_conv_ptr + 1) % ADC2_N_CHANNELS;
 171              		.loc 1 53 17 view .LVU40
 172 0076 4448     		ldr	r0, .L17+36
 173 0078 845C     		ldrb	r4, [r0, r2]	@ zero_extendqisi2
 174              	.LVL12:
  54:../Core/Src/adc_isr.c **** 
 175              		.loc 1 54 9 is_stmt 1 view .LVU41
  54:../Core/Src/adc_isr.c **** 
 176              		.loc 1 54 45 is_stmt 0 view .LVU42
 177 007a 0132     		adds	r2, r2, #1
 178 007c 02F00102 		and	r2, r2, #1
 179 0080 48BF     		it	mi
 180 0082 5242     		rsbmi	r2, r2, #0
  54:../Core/Src/adc_isr.c **** 
 181              		.loc 1 54 23 view .LVU43
 182 0084 0A80     		strh	r2, [r1]	@ movhi
  56:../Core/Src/adc_isr.c ****             to_start = ADC2_NEXT;
 183              		.loc 1 56 9 is_stmt 1 view .LVU44
 184 0086 CCE7     		b	.L3
 185              	.L16:
  64:../Core/Src/adc_isr.c ****         adc3_conv_ptr = (adc3_conv_ptr + 1) % ADC3_N_CHANNELS;
 186              		.loc 1 64 9 view .LVU45
  64:../Core/Src/adc_isr.c ****         adc3_conv_ptr = (adc3_conv_ptr + 1) % ADC3_N_CHANNELS;
 187              		.loc 1 64 32 is_stmt 0 view .LVU46
 188 0088 4049     		ldr	r1, .L17+40
 189 008a 0B88     		ldrh	r3, [r1]
  64:../Core/Src/adc_isr.c ****         adc3_conv_ptr = (adc3_conv_ptr + 1) % ADC3_N_CHANNELS;
 190              		.loc 1 64 17 view .LVU47
 191 008c 404A     		ldr	r2, .L17+44
 192 008e D45C     		ldrb	r4, [r2, r3]	@ zero_extendqisi2
 193              	.LVL13:
  65:../Core/Src/adc_isr.c **** 
 194              		.loc 1 65 9 is_stmt 1 view .LVU48
  65:../Core/Src/adc_isr.c **** 
 195              		.loc 1 65 40 is_stmt 0 view .LVU49
 196 0090 0133     		adds	r3, r3, #1
  65:../Core/Src/adc_isr.c **** 
 197              		.loc 1 65 45 view .LVU50
 198 0092 5A42     		rsbs	r2, r3, #0
 199 0094 03F00303 		and	r3, r3, #3
 200 0098 02F00302 		and	r2, r2, #3
 201 009c 58BF     		it	pl
 202 009e 5342     		rsbpl	r3, r2, #0
  65:../Core/Src/adc_isr.c **** 
 203              		.loc 1 65 23 view .LVU51
 204 00a0 0B80     		strh	r3, [r1]	@ movhi
  67:../Core/Src/adc_isr.c ****             to_start = ADC3_NEXT;
 205              		.loc 1 67 9 is_stmt 1 view .LVU52
 206 00a2 C2E7     		b	.L4
 207              	.LVL14:
 208              	.L11:
  82:../Core/Src/adc_isr.c **** #ifndef STATIC_FIRE
  83:../Core/Src/adc_isr.c ****             case ADC_PYRO_I_0:
  84:../Core/Src/adc_isr.c ****                 sprintf(buf, "ADC_PYRO_I_0: %d\r\n", adc_val);
  85:../Core/Src/adc_isr.c ****                 HAL_UART_Transmit(&debug_uart, (uint8_t *) buf, strlen(buf), HAL_MAX_DELAY);
  86:../Core/Src/adc_isr.c ****                 g_current_state.analog_feedback_data.pyro_0_cont = adc_val;
  87:../Core/Src/adc_isr.c ****                 break;
ARM GAS  /tmp/ccFOHW0v.s 			page 7


  88:../Core/Src/adc_isr.c ****             case ADC_PYRO_I_1:
  89:../Core/Src/adc_isr.c ****                 sprintf(buf, "ADC_PYRO_I_1: %d\r\n", adc_val);
  90:../Core/Src/adc_isr.c ****                 HAL_UART_Transmit(&debug_uart, (uint8_t *) buf, strlen(buf), HAL_MAX_DELAY);
  91:../Core/Src/adc_isr.c ****                 g_current_state.analog_feedback_data.pyro_1_cont = adc_val;
  92:../Core/Src/adc_isr.c ****                 break;
  93:../Core/Src/adc_isr.c ****             case ADC_PYRO_I_2:
  94:../Core/Src/adc_isr.c ****                 sprintf(buf, "ADC_PYRO_I_2: %d\r\n", adc_val);
  95:../Core/Src/adc_isr.c ****                 HAL_UART_Transmit(&debug_uart, (uint8_t *) buf, strlen(buf), HAL_MAX_DELAY);
  96:../Core/Src/adc_isr.c ****                 g_current_state.analog_feedback_data.pyro_2_cont = adc_val;
  97:../Core/Src/adc_isr.c ****                 break;
  98:../Core/Src/adc_isr.c ****             case ADC_VCC_I:
  99:../Core/Src/adc_isr.c ****                 sprintf(buf, "ADC_VCC_I: %d\r\n", adc_val);
 100:../Core/Src/adc_isr.c ****                 HAL_UART_Transmit(&debug_uart, (uint8_t *) buf, strlen(buf), HAL_MAX_DELAY);
 101:../Core/Src/adc_isr.c ****                 g_current_state.analog_feedback_data.current_fb_33 = adc_val;
 102:../Core/Src/adc_isr.c ****                 break;
 103:../Core/Src/adc_isr.c **** #endif
 104:../Core/Src/adc_isr.c ****             case ADC_SERVO_0:
 105:../Core/Src/adc_isr.c ****                 sprintf(buf, "ADC_SERVO_0: %d\r\n", adc_val);
 209              		.loc 1 105 17 view .LVU53
 210 00a4 AAB2     		uxth	r2, r5
 211 00a6 3B49     		ldr	r1, .L17+48
 212 00a8 01A8     		add	r0, sp, #4
 213 00aa FFF7FEFF 		bl	sprintf
 214              	.LVL15:
 106:../Core/Src/adc_isr.c ****                 HAL_UART_Transmit(&debug_uart, (uint8_t *) buf, strlen(buf), HAL_MAX_DELAY);
 215              		.loc 1 106 17 view .LVU54
 216              		.loc 1 106 65 is_stmt 0 view .LVU55
 217 00ae 01A8     		add	r0, sp, #4
 218 00b0 FFF7FEFF 		bl	strlen
 219              	.LVL16:
 220              		.loc 1 106 17 view .LVU56
 221 00b4 4FF0FF33 		mov	r3, #-1
 222 00b8 82B2     		uxth	r2, r0
 223 00ba 01A9     		add	r1, sp, #4
 224 00bc 2D48     		ldr	r0, .L17+16
 225 00be FFF7FEFF 		bl	HAL_UART_Transmit
 226              	.LVL17:
 107:../Core/Src/adc_isr.c ****                 g_current_state.servo_deflections.servo_1_actual = adc_val;
 227              		.loc 1 107 17 is_stmt 1 view .LVU57
 228              		.loc 1 107 66 is_stmt 0 view .LVU58
 229 00c2 354B     		ldr	r3, .L17+52
 230 00c4 5F80     		strh	r7, [r3, #2]	@ movhi
 108:../Core/Src/adc_isr.c ****                 break;
 231              		.loc 1 108 17 is_stmt 1 view .LVU59
 232              	.L5:
 109:../Core/Src/adc_isr.c ****             case ADC_SERVO_1:
 110:../Core/Src/adc_isr.c ****                 sprintf(buf, "ADC_SERVO_1: %d\r\n", adc_val);
 111:../Core/Src/adc_isr.c ****                 HAL_UART_Transmit(&debug_uart, (uint8_t *) buf, strlen(buf), HAL_MAX_DELAY);
 112:../Core/Src/adc_isr.c ****                 g_current_state.servo_deflections.servo_2_actual = adc_val;
 113:../Core/Src/adc_isr.c ****                 break;
 114:../Core/Src/adc_isr.c ****             case ADC_SERVO_2:
 115:../Core/Src/adc_isr.c ****                 sprintf(buf, "ADC_SERVO_2: %d\r\n", adc_val);
 116:../Core/Src/adc_isr.c ****                 HAL_UART_Transmit(&debug_uart, (uint8_t *) buf, strlen(buf), HAL_MAX_DELAY);
 117:../Core/Src/adc_isr.c ****                 g_current_state.servo_deflections.servo_3_actual = adc_val;
 118:../Core/Src/adc_isr.c ****                 break;
 119:../Core/Src/adc_isr.c ****             case ADC_SERVO_3:
 120:../Core/Src/adc_isr.c ****                 sprintf(buf, "ADC_SERVO_3: %d\r\n", adc_val);
ARM GAS  /tmp/ccFOHW0v.s 			page 8


 121:../Core/Src/adc_isr.c ****                 HAL_UART_Transmit(&debug_uart, (uint8_t *) buf, strlen(buf), HAL_MAX_DELAY);
 122:../Core/Src/adc_isr.c ****                 g_current_state.servo_deflections.servo_4_actual = adc_val;
 123:../Core/Src/adc_isr.c ****                 break;
 124:../Core/Src/adc_isr.c ****             case ADC_SERVO_4:
 125:../Core/Src/adc_isr.c ****                 sprintf(buf, "ADC_SERVO_4: %d\r\n", adc_val);
 126:../Core/Src/adc_isr.c ****                 HAL_UART_Transmit(&debug_uart, (uint8_t *) buf, strlen(buf), HAL_MAX_DELAY);
 127:../Core/Src/adc_isr.c ****                 break;
 128:../Core/Src/adc_isr.c ****         }
 129:../Core/Src/adc_isr.c **** 
 130:../Core/Src/adc_isr.c ****         /* Update timestamp */
 131:../Core/Src/adc_isr.c **** #ifndef STATIC_FIRE
 132:../Core/Src/adc_isr.c ****         g_current_state.analog_feedback_data.timestamp = xTaskGetTickCount();
 133:../Core/Src/adc_isr.c **** #endif
 134:../Core/Src/adc_isr.c ****         g_current_state.servo_deflections.timestamp = xTaskGetTickCount();
 233              		.loc 1 134 9 view .LVU60
 234              		.loc 1 134 55 is_stmt 0 view .LVU61
 235 00c6 FFF7FEFF 		bl	xTaskGetTickCount
 236              	.LVL18:
 237              		.loc 1 134 53 view .LVU62
 238 00ca 334B     		ldr	r3, .L17+52
 239 00cc 1861     		str	r0, [r3, #16]
 240 00ce 0022     		movs	r2, #0
 241 00d0 5A61     		str	r2, [r3, #20]
 135:../Core/Src/adc_isr.c **** 
 136:../Core/Src/adc_isr.c ****         //xSemaphoreGiveFromISR(g_state_mutex_handle, &xHigherPriorityTaskWoken);
 137:../Core/Src/adc_isr.c ****     //}
 138:../Core/Src/adc_isr.c **** 
 139:../Core/Src/adc_isr.c ****     /* Start next ADC */
 140:../Core/Src/adc_isr.c ****     if (to_start != NULL) {
 242              		.loc 1 140 5 is_stmt 1 view .LVU63
 141:../Core/Src/adc_isr.c ****         HAL_ADC_Start_IT(to_start);
 142:../Core/Src/adc_isr.c ****     }
 143:../Core/Src/adc_isr.c **** 
 144:../Core/Src/adc_isr.c ****     /* FreeRTOS boilerplate */
 145:../Core/Src/adc_isr.c ****     //portYIELD_FROM_ISR(xHigherPriorityTaskWoken);
 146:../Core/Src/adc_isr.c **** }
 243              		.loc 1 146 1 is_stmt 0 view .LVU64
 244 00d2 1BB0     		add	sp, sp, #108
 245              	.LCFI2:
 246              		.cfi_remember_state
 247              		.cfi_def_cfa_offset 20
 248              		@ sp needed
 249 00d4 F0BD     		pop	{r4, r5, r6, r7, pc}
 250              	.LVL19:
 251              	.L10:
 252              	.LCFI3:
 253              		.cfi_restore_state
 110:../Core/Src/adc_isr.c ****                 HAL_UART_Transmit(&debug_uart, (uint8_t *) buf, strlen(buf), HAL_MAX_DELAY);
 254              		.loc 1 110 17 is_stmt 1 view .LVU65
 255 00d6 AAB2     		uxth	r2, r5
 256 00d8 3049     		ldr	r1, .L17+56
 257 00da 01A8     		add	r0, sp, #4
 258 00dc FFF7FEFF 		bl	sprintf
 259              	.LVL20:
 111:../Core/Src/adc_isr.c ****                 g_current_state.servo_deflections.servo_2_actual = adc_val;
 260              		.loc 1 111 17 view .LVU66
 111:../Core/Src/adc_isr.c ****                 g_current_state.servo_deflections.servo_2_actual = adc_val;
ARM GAS  /tmp/ccFOHW0v.s 			page 9


 261              		.loc 1 111 65 is_stmt 0 view .LVU67
 262 00e0 01A8     		add	r0, sp, #4
 263 00e2 FFF7FEFF 		bl	strlen
 264              	.LVL21:
 111:../Core/Src/adc_isr.c ****                 g_current_state.servo_deflections.servo_2_actual = adc_val;
 265              		.loc 1 111 17 view .LVU68
 266 00e6 4FF0FF33 		mov	r3, #-1
 267 00ea 82B2     		uxth	r2, r0
 268 00ec 01A9     		add	r1, sp, #4
 269 00ee 2148     		ldr	r0, .L17+16
 270 00f0 FFF7FEFF 		bl	HAL_UART_Transmit
 271              	.LVL22:
 112:../Core/Src/adc_isr.c ****                 break;
 272              		.loc 1 112 17 is_stmt 1 view .LVU69
 112:../Core/Src/adc_isr.c ****                 break;
 273              		.loc 1 112 66 is_stmt 0 view .LVU70
 274 00f4 284B     		ldr	r3, .L17+52
 275 00f6 DF80     		strh	r7, [r3, #6]	@ movhi
 113:../Core/Src/adc_isr.c ****             case ADC_SERVO_2:
 276              		.loc 1 113 17 is_stmt 1 view .LVU71
 277 00f8 E5E7     		b	.L5
 278              	.L9:
 115:../Core/Src/adc_isr.c ****                 HAL_UART_Transmit(&debug_uart, (uint8_t *) buf, strlen(buf), HAL_MAX_DELAY);
 279              		.loc 1 115 17 view .LVU72
 280 00fa AAB2     		uxth	r2, r5
 281 00fc 2849     		ldr	r1, .L17+60
 282 00fe 01A8     		add	r0, sp, #4
 283 0100 FFF7FEFF 		bl	sprintf
 284              	.LVL23:
 116:../Core/Src/adc_isr.c ****                 g_current_state.servo_deflections.servo_3_actual = adc_val;
 285              		.loc 1 116 17 view .LVU73
 116:../Core/Src/adc_isr.c ****                 g_current_state.servo_deflections.servo_3_actual = adc_val;
 286              		.loc 1 116 65 is_stmt 0 view .LVU74
 287 0104 01A8     		add	r0, sp, #4
 288 0106 FFF7FEFF 		bl	strlen
 289              	.LVL24:
 116:../Core/Src/adc_isr.c ****                 g_current_state.servo_deflections.servo_3_actual = adc_val;
 290              		.loc 1 116 17 view .LVU75
 291 010a 4FF0FF33 		mov	r3, #-1
 292 010e 82B2     		uxth	r2, r0
 293 0110 01A9     		add	r1, sp, #4
 294 0112 1848     		ldr	r0, .L17+16
 295 0114 FFF7FEFF 		bl	HAL_UART_Transmit
 296              	.LVL25:
 117:../Core/Src/adc_isr.c ****                 break;
 297              		.loc 1 117 17 is_stmt 1 view .LVU76
 117:../Core/Src/adc_isr.c ****                 break;
 298              		.loc 1 117 66 is_stmt 0 view .LVU77
 299 0118 1F4B     		ldr	r3, .L17+52
 300 011a 5F81     		strh	r7, [r3, #10]	@ movhi
 118:../Core/Src/adc_isr.c ****             case ADC_SERVO_3:
 301              		.loc 1 118 17 is_stmt 1 view .LVU78
 302 011c D3E7     		b	.L5
 303              	.L8:
 120:../Core/Src/adc_isr.c ****                 HAL_UART_Transmit(&debug_uart, (uint8_t *) buf, strlen(buf), HAL_MAX_DELAY);
 304              		.loc 1 120 17 view .LVU79
 305 011e AAB2     		uxth	r2, r5
ARM GAS  /tmp/ccFOHW0v.s 			page 10


 306 0120 2049     		ldr	r1, .L17+64
 307 0122 01A8     		add	r0, sp, #4
 308 0124 FFF7FEFF 		bl	sprintf
 309              	.LVL26:
 121:../Core/Src/adc_isr.c ****                 g_current_state.servo_deflections.servo_4_actual = adc_val;
 310              		.loc 1 121 17 view .LVU80
 121:../Core/Src/adc_isr.c ****                 g_current_state.servo_deflections.servo_4_actual = adc_val;
 311              		.loc 1 121 65 is_stmt 0 view .LVU81
 312 0128 01A8     		add	r0, sp, #4
 313 012a FFF7FEFF 		bl	strlen
 314              	.LVL27:
 121:../Core/Src/adc_isr.c ****                 g_current_state.servo_deflections.servo_4_actual = adc_val;
 315              		.loc 1 121 17 view .LVU82
 316 012e 4FF0FF33 		mov	r3, #-1
 317 0132 82B2     		uxth	r2, r0
 318 0134 01A9     		add	r1, sp, #4
 319 0136 0F48     		ldr	r0, .L17+16
 320 0138 FFF7FEFF 		bl	HAL_UART_Transmit
 321              	.LVL28:
 122:../Core/Src/adc_isr.c ****                 break;
 322              		.loc 1 122 17 is_stmt 1 view .LVU83
 122:../Core/Src/adc_isr.c ****                 break;
 323              		.loc 1 122 66 is_stmt 0 view .LVU84
 324 013c 164B     		ldr	r3, .L17+52
 325 013e DF81     		strh	r7, [r3, #14]	@ movhi
 123:../Core/Src/adc_isr.c ****             case ADC_SERVO_4:
 326              		.loc 1 123 17 is_stmt 1 view .LVU85
 327 0140 C1E7     		b	.L5
 328              	.L6:
 125:../Core/Src/adc_isr.c ****                 HAL_UART_Transmit(&debug_uart, (uint8_t *) buf, strlen(buf), HAL_MAX_DELAY);
 329              		.loc 1 125 17 view .LVU86
 330 0142 AAB2     		uxth	r2, r5
 331 0144 1849     		ldr	r1, .L17+68
 332 0146 01A8     		add	r0, sp, #4
 333 0148 FFF7FEFF 		bl	sprintf
 334              	.LVL29:
 126:../Core/Src/adc_isr.c ****                 break;
 335              		.loc 1 126 17 view .LVU87
 126:../Core/Src/adc_isr.c ****                 break;
 336              		.loc 1 126 65 is_stmt 0 view .LVU88
 337 014c 01A8     		add	r0, sp, #4
 338 014e FFF7FEFF 		bl	strlen
 339              	.LVL30:
 126:../Core/Src/adc_isr.c ****                 break;
 340              		.loc 1 126 17 view .LVU89
 341 0152 4FF0FF33 		mov	r3, #-1
 342 0156 82B2     		uxth	r2, r0
 343 0158 01A9     		add	r1, sp, #4
 344 015a 0648     		ldr	r0, .L17+16
 345 015c FFF7FEFF 		bl	HAL_UART_Transmit
 346              	.LVL31:
 127:../Core/Src/adc_isr.c ****         }
 347              		.loc 1 127 17 is_stmt 1 view .LVU90
 348 0160 B1E7     		b	.L5
 349              	.L18:
 350 0162 00BF     		.align	2
 351              	.L17:
ARM GAS  /tmp/ccFOHW0v.s 			page 11


 352 0164 00000000 		.word	hadc1
 353 0168 00000000 		.word	hadc2
 354 016c 00000000 		.word	hadc3
 355 0170 00000000 		.word	.LC0
 356 0174 00000000 		.word	huart2
 357 0178 00000000 		.word	adc1_conv_ptr.2
 358 017c 00000000 		.word	ADC1_SEQUENCE
 359 0180 56555555 		.word	1431655766
 360 0184 00000000 		.word	adc2_conv_ptr.1
 361 0188 00000000 		.word	ADC2_SEQUENCE
 362 018c 00000000 		.word	adc3_conv_ptr.0
 363 0190 00000000 		.word	ADC3_SEQUENCE
 364 0194 1C000000 		.word	.LC1
 365 0198 00000000 		.word	g_current_state
 366 019c 30000000 		.word	.LC2
 367 01a0 44000000 		.word	.LC3
 368 01a4 58000000 		.word	.LC4
 369 01a8 6C000000 		.word	.LC5
 370              		.cfi_endproc
 371              	.LFE398:
 373              		.section	.bss.adc3_conv_ptr.0,"aw",%nobits
 374              		.align	1
 377              	adc3_conv_ptr.0:
 378 0000 0000     		.space	2
 379              		.section	.bss.adc2_conv_ptr.1,"aw",%nobits
 380              		.align	1
 383              	adc2_conv_ptr.1:
 384 0000 0000     		.space	2
 385              		.section	.bss.adc1_conv_ptr.2,"aw",%nobits
 386              		.align	1
 389              	adc1_conv_ptr.2:
 390 0000 0000     		.space	2
 391              		.section	.rodata.ADC3_SEQUENCE,"a"
 392              		.align	2
 395              	ADC3_SEQUENCE:
 396 0000 04       		.byte	4
 397 0001 00       		.byte	0
 398 0002 01       		.byte	1
 399 0003 03       		.byte	3
 400              		.section	.rodata.ADC2_SEQUENCE,"a"
 401              		.align	2
 404              	ADC2_SEQUENCE:
 405 0000 05       		.byte	5
 406 0001 02       		.byte	2
 407              		.section	.rodata.ADC1_SEQUENCE,"a"
 408              		.align	2
 411              	ADC1_SEQUENCE:
 412 0000 06       		.byte	6
 413 0001 07       		.byte	7
 414 0002 08       		.byte	8
 415              		.text
 416              	.Letext0:
 417              		.file 2 "/nix/store/lcj4nx7xv8c36cif7armkfa7b5cmfh74-gcc-arm-embedded-12.3.rel1/arm-none-eabi/incl
 418              		.file 3 "/nix/store/lcj4nx7xv8c36cif7armkfa7b5cmfh74-gcc-arm-embedded-12.3.rel1/arm-none-eabi/incl
 419              		.file 4 "Drivers/CMSIS/Device/ST/STM32H7xx/Include/stm32h725xx.h"
 420              		.file 5 "Drivers/CMSIS/Device/ST/STM32H7xx/Include/stm32h7xx.h"
 421              		.file 6 "/nix/store/lcj4nx7xv8c36cif7armkfa7b5cmfh74-gcc-arm-embedded-12.3.rel1/lib/gcc/arm-none-e
ARM GAS  /tmp/ccFOHW0v.s 			page 12


 422              		.file 7 "Drivers/STM32H7xx_HAL_Driver/Inc/stm32h7xx_hal_def.h"
 423              		.file 8 "Drivers/STM32H7xx_HAL_Driver/Inc/stm32h7xx_hal_dma.h"
 424              		.file 9 "Drivers/STM32H7xx_HAL_Driver/Inc/stm32h7xx_hal_adc.h"
 425              		.file 10 "Drivers/STM32H7xx_HAL_Driver/Inc/stm32h7xx_hal_uart.h"
 426              		.file 11 "../Core/Include/adc.h"
 427              		.file 12 "Core/Inc/port_config.h"
 428              		.file 13 "Core/Inc/portmacro.h"
 429              		.file 14 "../Core/Include/protocol.h"
 430              		.file 15 "../Core/Include/state.h"
 431              		.file 16 "../Core/Include/globals.h"
 432              		.file 17 "/nix/store/lcj4nx7xv8c36cif7armkfa7b5cmfh74-gcc-arm-embedded-12.3.rel1/arm-none-eabi/inc
 433              		.file 18 "/nix/store/lcj4nx7xv8c36cif7armkfa7b5cmfh74-gcc-arm-embedded-12.3.rel1/arm-none-eabi/inc
 434              		.file 19 "../Core/FreeRTOS-Kernel/include/task.h"
ARM GAS  /tmp/ccFOHW0v.s 			page 13

