ARM GAS  /tmp/cczPxs7Y.s 			page 1


   1              		.cpu cortex-m7
   2              		.arch armv7e-m
   3              		.fpu fpv5-d16
   4              		.eabi_attribute 28, 1
   5              		.eabi_attribute 20, 1
   6              		.eabi_attribute 21, 1
   7              		.eabi_attribute 23, 3
   8              		.eabi_attribute 24, 1
   9              		.eabi_attribute 25, 1
  10              		.eabi_attribute 26, 1
  11              		.eabi_attribute 30, 1
  12              		.eabi_attribute 34, 1
  13              		.eabi_attribute 18, 4
  14              		.file	"controls.c"
  15              		.text
  16              	.Ltext0:
  17              		.cfi_sections	.debug_frame
  18              		.file 1 "../Core/Src/controls.c"
  19              		.section	.text.LQR_gain_selector,"ax",%progbits
  20              		.align	1
  21              		.global	LQR_gain_selector
  22              		.syntax unified
  23              		.thumb
  24              		.thumb_func
  26              	LQR_gain_selector:
  27              	.LVL0:
  28              	.LFB148:
   1:../Core/Src/controls.c **** /**
   2:../Core/Src/controls.c ****  * @file controls.c
   3:../Core/Src/controls.c ****  * @author Patrick Barry, Karsten Caillet
   4:../Core/Src/controls.c ****  * @brief Source file for in-flight control algorithm of the jet vanes rocket
   5:../Core/Src/controls.c ****  *  
   6:../Core/Src/controls.c ****  * Copyright 2024 Georgia Tech. All rights reserved.
   7:../Core/Src/controls.c ****  * Copyrighted materials may not be further disseminated.
   8:../Core/Src/controls.c ****  * This file must not be made publicly available anywhere.
   9:../Core/Src/controls.c **** */
  10:../Core/Src/controls.c **** 
  11:../Core/Src/controls.c **** #include "controls.h"
  12:../Core/Src/controls.c **** #include "reference_data.h"
  13:../Core/Src/controls.c **** #include <math.h>
  14:../Core/Src/controls.c **** #include <stdio.h>
  15:../Core/Src/controls.c **** 
  16:../Core/Src/controls.c **** /**
  17:../Core/Src/controls.c ****  * @brief Takes into account current state estimate and time since launch and returns closest match
  18:../Core/Src/controls.c ****  * @param ctrl Takes controller struct, but uses current state and time
  19:../Core/Src/controls.c ****  * @return closest matching LQR gain
  20:../Core/Src/controls.c ****  * @note
  21:../Core/Src/controls.c **** */
  22:../Core/Src/controls.c **** void LQR_gain_selector(controller *ctrl){
  29              		.loc 1 22 41 view -0
  30              		.cfi_startproc
  31              		@ args = 0, pretend = 0, frame = 0
  32              		@ frame_needed = 0, uses_anonymous_args = 0
  33              		.loc 1 22 41 is_stmt 0 view .LVU1
  34 0000 10B5     		push	{r4, lr}
  35              	.LCFI0:
  36              		.cfi_def_cfa_offset 8
ARM GAS  /tmp/cczPxs7Y.s 			page 2


  37              		.cfi_offset 4, -8
  38              		.cfi_offset 14, -4
  39 0002 2DED028B 		vpush.64	{d8}
  40              	.LCFI1:
  41              		.cfi_def_cfa_offset 16
  42              		.cfi_offset 80, -16
  43              		.cfi_offset 81, -12
  44 0006 0446     		mov	r4, r0
  23:../Core/Src/controls.c ****     int t = (int)round(ctrl->time_since_launch);
  45              		.loc 1 23 5 is_stmt 1 view .LVU2
  46              		.loc 1 23 28 is_stmt 0 view .LVU3
  47 0008 90ED008A 		vldr.32	s16, [r0]
  48              		.loc 1 23 18 view .LVU4
  49 000c B7EEC88A 		vcvt.f64.f32	d8, s16
  50 0010 B8FE488B 		vrinta.f64	d8, d8
  51              		.loc 1 23 9 view .LVU5
  52 0014 BDEEC88B 		vcvt.s32.f64	s16, d8
  53              	.LVL1:
  24:../Core/Src/controls.c ****     float q3 = ctrl->x[8];
  54              		.loc 1 24 5 is_stmt 1 view .LVU6
  55              		.loc 1 24 11 is_stmt 0 view .LVU7
  56 0018 D0ED098A 		vldr.32	s17, [r0, #36]
  57              	.LVL2:
  25:../Core/Src/controls.c ****     float airspeed = sqrt(ctrl->x[0] * ctrl->x[0] + ctrl->x[1] * ctrl->x[1] + ctrl->x[2] * ctrl->x[
  58              		.loc 1 25 5 is_stmt 1 view .LVU8
  59              		.loc 1 25 34 is_stmt 0 view .LVU9
  60 001c D0ED017A 		vldr.32	s15, [r0, #4]
  61              		.loc 1 25 38 view .LVU10
  62 0020 27EEA70A 		vmul.f32	s0, s15, s15
  63              		.loc 1 25 60 view .LVU11
  64 0024 D0ED027A 		vldr.32	s15, [r0, #8]
  65              		.loc 1 25 64 view .LVU12
  66 0028 67EEA77A 		vmul.f32	s15, s15, s15
  67              		.loc 1 25 51 view .LVU13
  68 002c 30EE270A 		vadd.f32	s0, s0, s15
  69              		.loc 1 25 86 view .LVU14
  70 0030 D0ED037A 		vldr.32	s15, [r0, #12]
  71              		.loc 1 25 90 view .LVU15
  72 0034 67EEA77A 		vmul.f32	s15, s15, s15
  73              		.loc 1 25 77 view .LVU16
  74 0038 30EE270A 		vadd.f32	s0, s0, s15
  75              		.loc 1 25 22 view .LVU17
  76 003c B7EEC00A 		vcvt.f64.f32	d0, s0
  77 0040 FFF7FEFF 		bl	sqrt
  78              	.LVL3:
  26:../Core/Src/controls.c ****     float min_distance = 1e9;
  79              		.loc 1 26 5 is_stmt 1 view .LVU18
  27:../Core/Src/controls.c ****     float distance = 0.0;
  80              		.loc 1 27 5 view .LVU19
  28:../Core/Src/controls.c ****     int best_index = -1;
  81              		.loc 1 28 5 view .LVU20
  29:../Core/Src/controls.c **** 
  30:../Core/Src/controls.c ****     if (t < 1 || t > 12) {
  82              		.loc 1 30 5 view .LVU21
  83              		.loc 1 30 15 is_stmt 0 view .LVU22
  84 0044 18EE103A 		vmov	r3, s16	@ int
  85 0048 013B     		subs	r3, r3, #1
ARM GAS  /tmp/cczPxs7Y.s 			page 3


  86              		.loc 1 30 8 view .LVU23
  87 004a 0B2B     		cmp	r3, #11
  88 004c 11D8     		bhi	.L13
  89 004e B7EEC00B 		vcvt.f32.f64	s0, d0
  90              	.LVL4:
  91              	.LBB2:
  31:../Core/Src/controls.c ****         for (int i = 0; i < 36; i++) {
  32:../Core/Src/controls.c ****             ctrl->K[i] = 0.0;
  33:../Core/Src/controls.c ****         }
  34:../Core/Src/controls.c ****     } else {
  35:../Core/Src/controls.c ****         for (int i = 0; i < num_lqr_entries; i++) {
  92              		.loc 1 35 18 view .LVU24
  93 0052 0023     		movs	r3, #0
  94              	.LBE2:
  28:../Core/Src/controls.c **** 
  95              		.loc 1 28 9 view .LVU25
  96 0054 4FF0FF30 		mov	r0, #-1
  26:../Core/Src/controls.c ****     float distance = 0.0;
  97              		.loc 1 26 11 view .LVU26
  98 0058 DFED2D6A 		vldr.32	s13, .L21
  99 005c 13E0     		b	.L3
 100              	.LVL5:
 101              	.L4:
 102              	.LBB3:
  32:../Core/Src/controls.c ****         }
 103              		.loc 1 32 13 is_stmt 1 discriminator 3 view .LVU27
  32:../Core/Src/controls.c ****         }
 104              		.loc 1 32 24 is_stmt 0 discriminator 3 view .LVU28
 105 005e 03F11202 		add	r2, r3, #18
 106 0062 04EB8202 		add	r2, r4, r2, lsl #2
 107 0066 0021     		movs	r1, #0
 108 0068 5160     		str	r1, [r2, #4]	@ float
  31:../Core/Src/controls.c ****             ctrl->K[i] = 0.0;
 109              		.loc 1 31 34 is_stmt 1 discriminator 3 view .LVU29
 110 006a 0133     		adds	r3, r3, #1
 111              	.LVL6:
 112              	.L2:
  31:../Core/Src/controls.c ****             ctrl->K[i] = 0.0;
 113              		.loc 1 31 27 discriminator 1 view .LVU30
 114 006c 232B     		cmp	r3, #35
 115 006e F6DD     		ble	.L4
 116 0070 48E0     		b	.L1
 117              	.LVL7:
 118              	.L13:
  31:../Core/Src/controls.c ****             ctrl->K[i] = 0.0;
 119              		.loc 1 31 18 is_stmt 0 view .LVU31
 120 0072 0023     		movs	r3, #0
 121 0074 FAE7     		b	.L2
 122              	.LVL8:
 123              	.L20:
  31:../Core/Src/controls.c ****             ctrl->K[i] = 0.0;
 124              		.loc 1 31 18 view .LVU32
 125              	.LBE3:
 126              	.LBB4:
  36:../Core/Src/controls.c ****             if (t == lqr_data[i].time) {
  37:../Core/Src/controls.c ****                 if (best_index == -1) {
  38:../Core/Src/controls.c ****                     best_index = i;
ARM GAS  /tmp/cczPxs7Y.s 			page 4


 127              		.loc 1 38 32 view .LVU33
 128 0076 1846     		mov	r0, r3
 129              	.LVL9:
 130              		.loc 1 38 32 view .LVU34
 131 0078 17E0     		b	.L7
 132              	.LVL10:
 133              	.L6:
  39:../Core/Src/controls.c ****                 }
  40:../Core/Src/controls.c ****                 distance = fabs(airspeed - lqr_data[i].state[0]) + fabs(q3 - lqr_data[i].state[1]);
  41:../Core/Src/controls.c ****                 if (distance < min_distance) {
  42:../Core/Src/controls.c ****                     min_distance = distance;
  43:../Core/Src/controls.c ****                     best_index = i;
  44:../Core/Src/controls.c ****                 }
  45:../Core/Src/controls.c ****             } else if (lqr_data[i].time > t) {
 134              		.loc 1 45 20 is_stmt 1 view .LVU35
 135              		.loc 1 45 23 is_stmt 0 view .LVU36
 136 007a B4EEE77A 		vcmpe.f32	s14, s15
 137 007e F1EE10FA 		vmrs	APSR_nzcv, FPSCR
 138 0082 42D4     		bmi	.L18
 139              	.LVL11:
 140              	.L8:
  35:../Core/Src/controls.c ****             if (t == lqr_data[i].time) {
 141              		.loc 1 35 47 is_stmt 1 discriminator 2 view .LVU37
 142 0084 0133     		adds	r3, r3, #1
 143              	.LVL12:
 144              	.L3:
  35:../Core/Src/controls.c ****             if (t == lqr_data[i].time) {
 145              		.loc 1 35 27 discriminator 1 view .LVU38
 146 0086 292B     		cmp	r3, #41
 147 0088 2ADC     		bgt	.L19
  36:../Core/Src/controls.c ****             if (t == lqr_data[i].time) {
 148              		.loc 1 36 13 view .LVU39
  36:../Core/Src/controls.c ****             if (t == lqr_data[i].time) {
 149              		.loc 1 36 19 is_stmt 0 view .LVU40
 150 008a B8EEC87A 		vcvt.f32.s32	s14, s16
  36:../Core/Src/controls.c ****             if (t == lqr_data[i].time) {
 151              		.loc 1 36 33 view .LVU41
 152 008e 214A     		ldr	r2, .L21+4
 153 0090 B821     		movs	r1, #184
 154 0092 01FB0322 		mla	r2, r1, r3, r2
 155 0096 D2ED007A 		vldr.32	s15, [r2]
  36:../Core/Src/controls.c ****             if (t == lqr_data[i].time) {
 156              		.loc 1 36 16 view .LVU42
 157 009a B4EE677A 		vcmp.f32	s14, s15
 158 009e F1EE10FA 		vmrs	APSR_nzcv, FPSCR
 159 00a2 EAD1     		bne	.L6
  37:../Core/Src/controls.c ****                     best_index = i;
 160              		.loc 1 37 17 is_stmt 1 view .LVU43
  37:../Core/Src/controls.c ****                     best_index = i;
 161              		.loc 1 37 20 is_stmt 0 view .LVU44
 162 00a4 B0F1FF3F 		cmp	r0, #-1
 163 00a8 E5D0     		beq	.L20
 164              	.LVL13:
 165              	.L7:
  40:../Core/Src/controls.c ****                 if (distance < min_distance) {
 166              		.loc 1 40 17 is_stmt 1 view .LVU45
  40:../Core/Src/controls.c ****                 if (distance < min_distance) {
ARM GAS  /tmp/cczPxs7Y.s 			page 5


 167              		.loc 1 40 61 is_stmt 0 view .LVU46
 168 00aa 1A4A     		ldr	r2, .L21+4
 169 00ac B821     		movs	r1, #184
 170 00ae 01FB0322 		mla	r2, r1, r3, r2
 171 00b2 D2ED017A 		vldr.32	s15, [r2, #4]
  40:../Core/Src/controls.c ****                 if (distance < min_distance) {
 172              		.loc 1 40 42 view .LVU47
 173 00b6 70EE677A 		vsub.f32	s15, s0, s15
  40:../Core/Src/controls.c ****                 if (distance < min_distance) {
 174              		.loc 1 40 28 view .LVU48
 175 00ba F0EEE77A 		vabs.f32	s15, s15
  40:../Core/Src/controls.c ****                 if (distance < min_distance) {
 176              		.loc 1 40 95 view .LVU49
 177 00be 92ED027A 		vldr.32	s14, [r2, #8]
  40:../Core/Src/controls.c ****                 if (distance < min_distance) {
 178              		.loc 1 40 76 view .LVU50
 179 00c2 38EEC77A 		vsub.f32	s14, s17, s14
  40:../Core/Src/controls.c ****                 if (distance < min_distance) {
 180              		.loc 1 40 68 view .LVU51
 181 00c6 B0EEC77A 		vabs.f32	s14, s14
  40:../Core/Src/controls.c ****                 if (distance < min_distance) {
 182              		.loc 1 40 26 view .LVU52
 183 00ca 77EE877A 		vadd.f32	s15, s15, s14
 184              	.LVL14:
  41:../Core/Src/controls.c ****                     min_distance = distance;
 185              		.loc 1 41 17 is_stmt 1 view .LVU53
  41:../Core/Src/controls.c ****                     min_distance = distance;
 186              		.loc 1 41 20 is_stmt 0 view .LVU54
 187 00ce F4EEE76A 		vcmpe.f32	s13, s15
 188 00d2 F1EE10FA 		vmrs	APSR_nzcv, FPSCR
 189 00d6 D5DD     		ble	.L8
  43:../Core/Src/controls.c ****                 }
 190              		.loc 1 43 32 view .LVU55
 191 00d8 1846     		mov	r0, r3
 192              	.LVL15:
  42:../Core/Src/controls.c ****                     best_index = i;
 193              		.loc 1 42 34 view .LVU56
 194 00da F0EE676A 		vmov.f32	s13, s15
 195              	.LVL16:
  42:../Core/Src/controls.c ****                     best_index = i;
 196              		.loc 1 42 34 view .LVU57
 197 00de D1E7     		b	.L8
 198              	.LVL17:
 199              	.L19:
  42:../Core/Src/controls.c ****                     best_index = i;
 200              		.loc 1 42 34 view .LVU58
 201 00e0 0022     		movs	r2, #0
 202 00e2 0DE0     		b	.L11
 203              	.LVL18:
 204              	.L12:
  42:../Core/Src/controls.c ****                     best_index = i;
 205              		.loc 1 42 34 view .LVU59
 206              	.LBE4:
 207              	.LBB5:
  46:../Core/Src/controls.c ****                 break;
  47:../Core/Src/controls.c ****             }  
  48:../Core/Src/controls.c ****         }
ARM GAS  /tmp/cczPxs7Y.s 			page 6


  49:../Core/Src/controls.c ****         for (int i = 0; i < 36; i++) {
  50:../Core/Src/controls.c ****             ctrl->K[i] = lqr_data[best_index].gains[i];
 208              		.loc 1 50 13 is_stmt 1 discriminator 3 view .LVU60
 209              		.loc 1 50 52 is_stmt 0 discriminator 3 view .LVU61
 210 00e4 2E23     		movs	r3, #46
 211 00e6 03FB0023 		mla	r3, r3, r0, r2
 212 00ea 0A33     		adds	r3, r3, #10
 213 00ec 0949     		ldr	r1, .L21+4
 214 00ee 01EB8303 		add	r3, r1, r3, lsl #2
 215 00f2 1968     		ldr	r1, [r3]	@ float
 216              		.loc 1 50 24 discriminator 3 view .LVU62
 217 00f4 02F11203 		add	r3, r2, #18
 218 00f8 04EB8303 		add	r3, r4, r3, lsl #2
 219 00fc 5960     		str	r1, [r3, #4]	@ float
  49:../Core/Src/controls.c ****             ctrl->K[i] = lqr_data[best_index].gains[i];
 220              		.loc 1 49 34 is_stmt 1 discriminator 3 view .LVU63
 221 00fe 0132     		adds	r2, r2, #1
 222              	.LVL19:
 223              	.L11:
  49:../Core/Src/controls.c ****             ctrl->K[i] = lqr_data[best_index].gains[i];
 224              		.loc 1 49 27 discriminator 1 view .LVU64
 225 0100 232A     		cmp	r2, #35
 226 0102 EFDD     		ble	.L12
 227              	.LVL20:
 228              	.L1:
  49:../Core/Src/controls.c ****             ctrl->K[i] = lqr_data[best_index].gains[i];
 229              		.loc 1 49 27 is_stmt 0 discriminator 1 view .LVU65
 230              	.LBE5:
  51:../Core/Src/controls.c ****         }
  52:../Core/Src/controls.c ****     }
  53:../Core/Src/controls.c **** }
 231              		.loc 1 53 1 view .LVU66
 232 0104 BDEC028B 		vldm	sp!, {d8}
 233              	.LCFI2:
 234              		.cfi_remember_state
 235              		.cfi_restore 80
 236              		.cfi_restore 81
 237              		.cfi_def_cfa_offset 8
 238              	.LVL21:
 239              		.loc 1 53 1 view .LVU67
 240 0108 10BD     		pop	{r4, pc}
 241              	.LVL22:
 242              	.L18:
 243              	.LCFI3:
 244              		.cfi_restore_state
 245              	.LBB6:
 246              		.loc 1 53 1 view .LVU68
 247 010a 0022     		movs	r2, #0
 248 010c F8E7     		b	.L11
 249              	.L22:
 250 010e 00BF     		.align	2
 251              	.L21:
 252 0110 286B6E4E 		.word	1315859240
 253 0114 00000000 		.word	lqr_data
 254              	.LBE6:
 255              		.cfi_endproc
 256              	.LFE148:
ARM GAS  /tmp/cczPxs7Y.s 			page 7


 258              		.section	.text.reference_selector,"ax",%progbits
 259              		.align	1
 260              		.global	reference_selector
 261              		.syntax unified
 262              		.thumb
 263              		.thumb_func
 265              	reference_selector:
 266              	.LVL23:
 267              	.LFB149:
  54:../Core/Src/controls.c **** 
  55:../Core/Src/controls.c **** /**
  56:../Core/Src/controls.c ****  * @brief Takes in account current state estiate and time since launch and returns reference state
  57:../Core/Src/controls.c ****  * @param ctrl Takes controller struct, but uses current state and time
  58:../Core/Src/controls.c ****  * @return correct reference state
  59:../Core/Src/controls.c ****  * @note
  60:../Core/Src/controls.c **** */
  61:../Core/Src/controls.c **** void reference_selector(controller *ctrl){
 268              		.loc 1 61 42 is_stmt 1 view -0
 269              		.cfi_startproc
 270              		@ args = 0, pretend = 0, frame = 40
 271              		@ frame_needed = 0, uses_anonymous_args = 0
 272              		.loc 1 61 42 is_stmt 0 view .LVU70
 273 0000 30B5     		push	{r4, r5, lr}
 274              	.LCFI4:
 275              		.cfi_def_cfa_offset 12
 276              		.cfi_offset 4, -12
 277              		.cfi_offset 5, -8
 278              		.cfi_offset 14, -4
 279 0002 8BB0     		sub	sp, sp, #44
 280              	.LCFI5:
 281              		.cfi_def_cfa_offset 56
 282 0004 0546     		mov	r5, r0
  62:../Core/Src/controls.c ****     int t = (int)round(ctrl->time_since_launch);
 283              		.loc 1 62 5 is_stmt 1 view .LVU71
 284              		.loc 1 62 28 is_stmt 0 view .LVU72
 285 0006 90ED007A 		vldr.32	s14, [r0]
 286              		.loc 1 62 18 view .LVU73
 287 000a B7EEC77A 		vcvt.f64.f32	d7, s14
 288 000e B8FE477B 		vrinta.f64	d7, d7
 289              		.loc 1 62 9 view .LVU74
 290 0012 FDEEC77B 		vcvt.s32.f64	s15, d7
 291 0016 17EE904A 		vmov	r4, s15	@ int
 292              	.LVL24:
  63:../Core/Src/controls.c ****     float base_x0[9] = { 0, 0, 0, 0, 0, 0, 0, 0, 0 };
 293              		.loc 1 63 5 is_stmt 1 view .LVU75
 294              		.loc 1 63 11 is_stmt 0 view .LVU76
 295 001a 2422     		movs	r2, #36
 296 001c 0021     		movs	r1, #0
 297 001e 01A8     		add	r0, sp, #4
 298              	.LVL25:
 299              		.loc 1 63 11 view .LVU77
 300 0020 FFF7FEFF 		bl	memset
 301              	.LVL26:
  64:../Core/Src/controls.c **** 
  65:../Core/Src/controls.c ****     if (t > 13) {
 302              		.loc 1 65 5 is_stmt 1 view .LVU78
 303              		.loc 1 65 8 is_stmt 0 view .LVU79
ARM GAS  /tmp/cczPxs7Y.s 			page 8


 304 0024 0D2C     		cmp	r4, #13
 305 0026 0CDC     		bgt	.L29
 306              	.LBB7:
  66:../Core/Src/controls.c ****         for (int i = 0; i < 9; i++) {
  67:../Core/Src/controls.c ****             ctrl->x0[i] = base_x0[i];
  68:../Core/Src/controls.c ****         }
  69:../Core/Src/controls.c ****     } else {
  70:../Core/Src/controls.c ****         for (int i = 0; i < 9; i++) {
 307              		.loc 1 70 18 view .LVU80
 308 0028 0022     		movs	r2, #0
 309 002a 1BE0     		b	.L25
 310              	.LVL27:
 311              	.L26:
 312              		.loc 1 70 18 view .LVU81
 313              	.LBE7:
 314              	.LBB8:
  67:../Core/Src/controls.c ****         }
 315              		.loc 1 67 13 is_stmt 1 discriminator 3 view .LVU82
  67:../Core/Src/controls.c ****         }
 316              		.loc 1 67 25 is_stmt 0 discriminator 3 view .LVU83
 317 002c 03F10A02 		add	r2, r3, #10
 318 0030 05EB8202 		add	r2, r5, r2, lsl #2
 319 0034 0021     		movs	r1, #0
 320 0036 1160     		str	r1, [r2]	@ float
  66:../Core/Src/controls.c ****         for (int i = 0; i < 9; i++) {
 321              		.loc 1 66 33 is_stmt 1 discriminator 3 view .LVU84
 322 0038 0133     		adds	r3, r3, #1
 323              	.LVL28:
 324              	.L24:
  66:../Core/Src/controls.c ****         for (int i = 0; i < 9; i++) {
 325              		.loc 1 66 27 discriminator 1 view .LVU85
 326 003a 082B     		cmp	r3, #8
 327 003c F6DD     		ble	.L26
 328              	.LVL29:
 329              	.L23:
  66:../Core/Src/controls.c ****         for (int i = 0; i < 9; i++) {
 330              		.loc 1 66 27 is_stmt 0 discriminator 1 view .LVU86
 331              	.LBE8:
  71:../Core/Src/controls.c ****             ctrl->x0[i] = ref_state_data[t].state[i]; // time corresponds 1:1 to index
  72:../Core/Src/controls.c ****         }
  73:../Core/Src/controls.c ****     } 
  74:../Core/Src/controls.c **** }
 332              		.loc 1 74 1 view .LVU87
 333 003e 0BB0     		add	sp, sp, #44
 334              	.LCFI6:
 335              		.cfi_remember_state
 336              		.cfi_def_cfa_offset 12
 337              		@ sp needed
 338 0040 30BD     		pop	{r4, r5, pc}
 339              	.LVL30:
 340              	.L29:
 341              	.LCFI7:
 342              		.cfi_restore_state
 343              	.LBB9:
  66:../Core/Src/controls.c ****             ctrl->x0[i] = base_x0[i];
 344              		.loc 1 66 18 view .LVU88
 345 0042 0023     		movs	r3, #0
ARM GAS  /tmp/cczPxs7Y.s 			page 9


 346 0044 F9E7     		b	.L24
 347              	.LVL31:
 348              	.L28:
  66:../Core/Src/controls.c ****             ctrl->x0[i] = base_x0[i];
 349              		.loc 1 66 18 view .LVU89
 350              	.LBE9:
 351              	.LBB10:
  71:../Core/Src/controls.c ****             ctrl->x0[i] = ref_state_data[t].state[i]; // time corresponds 1:1 to index
 352              		.loc 1 71 13 is_stmt 1 discriminator 3 view .LVU90
  71:../Core/Src/controls.c ****             ctrl->x0[i] = ref_state_data[t].state[i]; // time corresponds 1:1 to index
 353              		.loc 1 71 50 is_stmt 0 discriminator 3 view .LVU91
 354 0046 04EB8403 		add	r3, r4, r4, lsl #2
 355 004a 04EB4303 		add	r3, r4, r3, lsl #1
 356 004e 1344     		add	r3, r3, r2
 357 0050 0649     		ldr	r1, .L31
 358 0052 01EB8303 		add	r3, r1, r3, lsl #2
 359 0056 5968     		ldr	r1, [r3, #4]	@ float
  71:../Core/Src/controls.c ****             ctrl->x0[i] = ref_state_data[t].state[i]; // time corresponds 1:1 to index
 360              		.loc 1 71 25 discriminator 3 view .LVU92
 361 0058 02F10A03 		add	r3, r2, #10
 362 005c 05EB8303 		add	r3, r5, r3, lsl #2
 363 0060 1960     		str	r1, [r3]	@ float
  70:../Core/Src/controls.c ****             ctrl->x0[i] = ref_state_data[t].state[i]; // time corresponds 1:1 to index
 364              		.loc 1 70 33 is_stmt 1 discriminator 3 view .LVU93
 365 0062 0132     		adds	r2, r2, #1
 366              	.LVL32:
 367              	.L25:
  70:../Core/Src/controls.c ****             ctrl->x0[i] = ref_state_data[t].state[i]; // time corresponds 1:1 to index
 368              		.loc 1 70 27 discriminator 1 view .LVU94
 369 0064 082A     		cmp	r2, #8
 370 0066 EEDD     		ble	.L28
 371 0068 E9E7     		b	.L23
 372              	.L32:
 373 006a 00BF     		.align	2
 374              	.L31:
 375 006c 00000000 		.word	ref_state_data
 376              	.LBE10:
 377              		.cfi_endproc
 378              	.LFE149:
 380              		.section	.text.initialize_controls,"ax",%progbits
 381              		.align	1
 382              		.global	initialize_controls
 383              		.syntax unified
 384              		.thumb
 385              		.thumb_func
 387              	initialize_controls:
 388              	.LVL33:
 389              	.LFB150:
  75:../Core/Src/controls.c **** 
  76:../Core/Src/controls.c **** /**
  77:../Core/Src/controls.c ****  * @brief Initializes the control struct with all default values
  78:../Core/Src/controls.c ****  * @param ctrl Takes controller struct, but uses all variables in the struct
  79:../Core/Src/controls.c ****  * @return Initializes all variables in the controller struct
  80:../Core/Src/controls.c ****  * @note 
  81:../Core/Src/controls.c **** */
  82:../Core/Src/controls.c **** void initialize_controls(controller *ctrl) {
 390              		.loc 1 82 44 view -0
ARM GAS  /tmp/cczPxs7Y.s 			page 10


 391              		.cfi_startproc
 392              		@ args = 0, pretend = 0, frame = 64
 393              		@ frame_needed = 0, uses_anonymous_args = 0
 394              		.loc 1 82 44 is_stmt 0 view .LVU96
 395 0000 10B5     		push	{r4, lr}
 396              	.LCFI8:
 397              		.cfi_def_cfa_offset 8
 398              		.cfi_offset 4, -8
 399              		.cfi_offset 14, -4
 400 0002 90B0     		sub	sp, sp, #64
 401              	.LCFI9:
 402              		.cfi_def_cfa_offset 72
 403 0004 8446     		mov	ip, r0
  83:../Core/Src/controls.c ****     for (int i = 0; i < 9; i++) {
 404              		.loc 1 83 5 is_stmt 1 view .LVU97
 405              	.LBB11:
 406              		.loc 1 83 10 view .LVU98
 407              	.LVL34:
 408              		.loc 1 83 14 is_stmt 0 view .LVU99
 409 0006 0023     		movs	r3, #0
 410              		.loc 1 83 5 view .LVU100
 411 0008 09E0     		b	.L34
 412              	.LVL35:
 413              	.L35:
  84:../Core/Src/controls.c ****         ctrl->x[i] = 0.0;
 414              		.loc 1 84 9 is_stmt 1 discriminator 3 view .LVU101
 415              		.loc 1 84 20 is_stmt 0 discriminator 3 view .LVU102
 416 000a 0CEB8302 		add	r2, ip, r3, lsl #2
 417 000e 0021     		movs	r1, #0
 418 0010 5160     		str	r1, [r2, #4]	@ float
  85:../Core/Src/controls.c ****         ctrl->x0[i] = 0.0;
 419              		.loc 1 85 9 is_stmt 1 discriminator 3 view .LVU103
 420              		.loc 1 85 21 is_stmt 0 discriminator 3 view .LVU104
 421 0012 03F10A02 		add	r2, r3, #10
 422 0016 0CEB8202 		add	r2, ip, r2, lsl #2
 423 001a 1160     		str	r1, [r2]	@ float
  83:../Core/Src/controls.c ****     for (int i = 0; i < 9; i++) {
 424              		.loc 1 83 29 is_stmt 1 discriminator 3 view .LVU105
 425 001c 0133     		adds	r3, r3, #1
 426              	.LVL36:
 427              	.L34:
  83:../Core/Src/controls.c ****     for (int i = 0; i < 9; i++) {
 428              		.loc 1 83 23 discriminator 1 view .LVU106
 429 001e 082B     		cmp	r3, #8
 430 0020 F3DD     		ble	.L35
 431              	.LBE11:
 432              	.LBB12:
  86:../Core/Src/controls.c ****     }
  87:../Core/Src/controls.c **** 
  88:../Core/Src/controls.c ****     for (int i = 0; i < 36; i++) {
 433              		.loc 1 88 14 is_stmt 0 view .LVU107
 434 0022 0023     		movs	r3, #0
 435              	.LVL37:
 436              		.loc 1 88 14 view .LVU108
 437 0024 06E0     		b	.L36
 438              	.LVL38:
 439              	.L37:
ARM GAS  /tmp/cczPxs7Y.s 			page 11


  89:../Core/Src/controls.c ****         ctrl->K[i] = 0.0;
 440              		.loc 1 89 9 is_stmt 1 discriminator 3 view .LVU109
 441              		.loc 1 89 20 is_stmt 0 discriminator 3 view .LVU110
 442 0026 03F11202 		add	r2, r3, #18
 443 002a 0CEB8202 		add	r2, ip, r2, lsl #2
 444 002e 0021     		movs	r1, #0
 445 0030 5160     		str	r1, [r2, #4]	@ float
  88:../Core/Src/controls.c ****         ctrl->K[i] = 0.0;
 446              		.loc 1 88 30 is_stmt 1 discriminator 3 view .LVU111
 447 0032 0133     		adds	r3, r3, #1
 448              	.LVL39:
 449              	.L36:
  88:../Core/Src/controls.c ****         ctrl->K[i] = 0.0;
 450              		.loc 1 88 23 discriminator 1 view .LVU112
 451 0034 232B     		cmp	r3, #35
 452 0036 F6DD     		ble	.L37
 453              	.LBE12:
  90:../Core/Src/controls.c ****     }
  91:../Core/Src/controls.c **** 
  92:../Core/Src/controls.c ****     ctrl->M_roll = 0.0;
 454              		.loc 1 92 5 view .LVU113
 455              		.loc 1 92 18 is_stmt 0 view .LVU114
 456 0038 0023     		movs	r3, #0
 457              	.LVL40:
 458              		.loc 1 92 18 view .LVU115
 459 003a CCF8DC30 		str	r3, [ip, #220]	@ float
  93:../Core/Src/controls.c ****     ctrl->M_pitch = 0.0;
 460              		.loc 1 93 5 is_stmt 1 view .LVU116
 461              		.loc 1 93 19 is_stmt 0 view .LVU117
 462 003e CCF8E030 		str	r3, [ip, #224]	@ float
  94:../Core/Src/controls.c ****     ctrl->M_yaw = 0.0;
 463              		.loc 1 94 5 is_stmt 1 view .LVU118
 464              		.loc 1 94 17 is_stmt 0 view .LVU119
 465 0042 CCF8E430 		str	r3, [ip, #228]	@ float
  95:../Core/Src/controls.c ****     ctrl->T = 0.0;
 466              		.loc 1 95 5 is_stmt 1 view .LVU120
 467              		.loc 1 95 13 is_stmt 0 view .LVU121
 468 0046 CCF8E830 		str	r3, [ip, #232]	@ float
  96:../Core/Src/controls.c **** 
  97:../Core/Src/controls.c ****     ctrl->yaw_moment_arm = 0.967;
 469              		.loc 1 97 5 is_stmt 1 view .LVU122
 470              		.loc 1 97 26 is_stmt 0 view .LVU123
 471 004a 204A     		ldr	r2, .L41
 472 004c CCF8EC20 		str	r2, [ip, #236]	@ float
  98:../Core/Src/controls.c ****     ctrl->roll_moment_arm = 0.1;
 473              		.loc 1 98 5 is_stmt 1 view .LVU124
 474              		.loc 1 98 27 is_stmt 0 view .LVU125
 475 0050 1F4A     		ldr	r2, .L41+4
 476 0052 CCF8F020 		str	r2, [ip, #240]	@ float
  99:../Core/Src/controls.c **** 
 100:../Core/Src/controls.c ****     ctrl->forces[0] = 0.0;
 477              		.loc 1 100 5 is_stmt 1 view .LVU126
 478              		.loc 1 100 21 is_stmt 0 view .LVU127
 479 0056 CCF8F430 		str	r3, [ip, #244]	@ float
 101:../Core/Src/controls.c ****     ctrl->forces[1] = 0.0;
 480              		.loc 1 101 5 is_stmt 1 view .LVU128
 481              		.loc 1 101 21 is_stmt 0 view .LVU129
ARM GAS  /tmp/cczPxs7Y.s 			page 12


 482 005a CCF8F830 		str	r3, [ip, #248]	@ float
 102:../Core/Src/controls.c **** 
 103:../Core/Src/controls.c ****     ctrl->vane_deflections[0] = 0.0;
 483              		.loc 1 103 5 is_stmt 1 view .LVU130
 484              		.loc 1 103 31 is_stmt 0 view .LVU131
 485 005e CCF8FC30 		str	r3, [ip, #252]	@ float
 104:../Core/Src/controls.c ****     ctrl->vane_deflections[1] = 0.0;
 486              		.loc 1 104 5 is_stmt 1 view .LVU132
 487              		.loc 1 104 31 is_stmt 0 view .LVU133
 488 0062 CCF80031 		str	r3, [ip, #256]	@ float
 105:../Core/Src/controls.c ****     ctrl->vane_deflections[2] = 0.0;
 489              		.loc 1 105 5 is_stmt 1 view .LVU134
 490              		.loc 1 105 31 is_stmt 0 view .LVU135
 491 0066 CCF80431 		str	r3, [ip, #260]	@ float
 106:../Core/Src/controls.c ****     ctrl->vane_deflections[3] = 0.0;
 492              		.loc 1 106 5 is_stmt 1 view .LVU136
 493              		.loc 1 106 31 is_stmt 0 view .LVU137
 494 006a CCF80831 		str	r3, [ip, #264]	@ float
 107:../Core/Src/controls.c **** 
 108:../Core/Src/controls.c ****     ctrl->servo_deflections[0] = 0.0;
 495              		.loc 1 108 5 is_stmt 1 view .LVU138
 496              		.loc 1 108 32 is_stmt 0 view .LVU139
 497 006e CCF80C31 		str	r3, [ip, #268]	@ float
 109:../Core/Src/controls.c ****     ctrl->servo_deflections[1] = 0.0;
 498              		.loc 1 109 5 is_stmt 1 view .LVU140
 499              		.loc 1 109 32 is_stmt 0 view .LVU141
 500 0072 CCF81031 		str	r3, [ip, #272]	@ float
 110:../Core/Src/controls.c ****     ctrl->servo_deflections[2] = 0.0;
 501              		.loc 1 110 5 is_stmt 1 view .LVU142
 502              		.loc 1 110 32 is_stmt 0 view .LVU143
 503 0076 CCF81431 		str	r3, [ip, #276]	@ float
 111:../Core/Src/controls.c ****     ctrl->servo_deflections[3] = 0.0;
 504              		.loc 1 111 5 is_stmt 1 view .LVU144
 505              		.loc 1 111 32 is_stmt 0 view .LVU145
 506 007a CCF81831 		str	r3, [ip, #280]	@ float
 112:../Core/Src/controls.c **** 
 113:../Core/Src/controls.c ****     ctrl->current_thrust = 0.0;
 507              		.loc 1 113 5 is_stmt 1 view .LVU146
 508              		.loc 1 113 26 is_stmt 0 view .LVU147
 509 007e CCF85831 		str	r3, [ip, #344]	@ float
 114:../Core/Src/controls.c **** 
 115:../Core/Src/controls.c ****     float32_t thrust_curve[15] = {2125.0, 1650.0, 1530.0, 1520.0, 1490.0, 1350.0, 1285.0, 1150.0, 9
 510              		.loc 1 115 5 is_stmt 1 view .LVU148
 511              		.loc 1 115 15 is_stmt 0 view .LVU149
 512 0082 0DF1040E 		add	lr, sp, #4
 513 0086 134C     		ldr	r4, .L41+8
 514 0088 0FCC     		ldmia	r4!, {r0, r1, r2, r3}
 515              	.LVL41:
 516              		.loc 1 115 15 view .LVU150
 517 008a AEE80F00 		stmia	lr!, {r0, r1, r2, r3}
 518 008e 0FCC     		ldmia	r4!, {r0, r1, r2, r3}
 519 0090 AEE80F00 		stmia	lr!, {r0, r1, r2, r3}
 520 0094 0FCC     		ldmia	r4!, {r0, r1, r2, r3}
 521 0096 AEE80F00 		stmia	lr!, {r0, r1, r2, r3}
 522 009a 94E80700 		ldm	r4, {r0, r1, r2}
 523 009e 8EE80700 		stm	lr, {r0, r1, r2}
 116:../Core/Src/controls.c ****     for (int i = 0; i < 15; i++) {
ARM GAS  /tmp/cczPxs7Y.s 			page 13


 524              		.loc 1 116 5 is_stmt 1 view .LVU151
 525              	.LBB13:
 526              		.loc 1 116 10 view .LVU152
 527              	.LVL42:
 528              		.loc 1 116 14 is_stmt 0 view .LVU153
 529 00a2 0023     		movs	r3, #0
 530              		.loc 1 116 5 view .LVU154
 531 00a4 0AE0     		b	.L38
 532              	.LVL43:
 533              	.L39:
 117:../Core/Src/controls.c ****         ctrl->thrust_curve[i] = thrust_curve[i];
 534              		.loc 1 117 9 is_stmt 1 discriminator 3 view .LVU155
 535              		.loc 1 117 45 is_stmt 0 discriminator 3 view .LVU156
 536 00a6 10AA     		add	r2, sp, #64
 537 00a8 02EB8302 		add	r2, r2, r3, lsl #2
 538 00ac 52F83C1C 		ldr	r1, [r2, #-60]	@ float
 539              		.loc 1 117 31 discriminator 3 view .LVU157
 540 00b0 03F14602 		add	r2, r3, #70
 541 00b4 0CEB8202 		add	r2, ip, r2, lsl #2
 542 00b8 5160     		str	r1, [r2, #4]	@ float
 116:../Core/Src/controls.c ****     for (int i = 0; i < 15; i++) {
 543              		.loc 1 116 30 is_stmt 1 discriminator 3 view .LVU158
 544 00ba 0133     		adds	r3, r3, #1
 545              	.LVL44:
 546              	.L38:
 116:../Core/Src/controls.c ****     for (int i = 0; i < 15; i++) {
 547              		.loc 1 116 23 discriminator 1 view .LVU159
 548 00bc 0E2B     		cmp	r3, #14
 549 00be F2DD     		ble	.L39
 550              	.LBE13:
 118:../Core/Src/controls.c ****     }
 119:../Core/Src/controls.c **** 
 120:../Core/Src/controls.c ****     ctrl->time_since_launch = 0.0;
 551              		.loc 1 120 5 view .LVU160
 552              		.loc 1 120 29 is_stmt 0 view .LVU161
 553 00c0 0023     		movs	r3, #0
 554              	.LVL45:
 555              		.loc 1 120 29 view .LVU162
 556 00c2 CCF80030 		str	r3, [ip]	@ float
 121:../Core/Src/controls.c **** }
 557              		.loc 1 121 1 view .LVU163
 558 00c6 10B0     		add	sp, sp, #64
 559              	.LCFI10:
 560              		.cfi_def_cfa_offset 8
 561              		@ sp needed
 562 00c8 10BD     		pop	{r4, pc}
 563              	.L42:
 564 00ca 00BF     		.align	2
 565              	.L41:
 566 00cc 508D773F 		.word	1064799568
 567 00d0 CDCCCC3D 		.word	1036831949
 568 00d4 00000000 		.word	.LANCHOR0
 569              		.cfi_endproc
 570              	.LFE150:
 572              		.section	.text.compute_controls,"ax",%progbits
 573              		.align	1
 574              		.global	compute_controls
ARM GAS  /tmp/cczPxs7Y.s 			page 14


 575              		.syntax unified
 576              		.thumb
 577              		.thumb_func
 579              	compute_controls:
 580              	.LVL46:
 581              	.LFB151:
 122:../Core/Src/controls.c **** 
 123:../Core/Src/controls.c **** /**
 124:../Core/Src/controls.c ****  * @brief Computes the control moments based on the LQR gain matrix and the difference between the 
 125:../Core/Src/controls.c ****  * @param ctrl Takes controller struct, but uses LQR gain matrix and current state
 126:../Core/Src/controls.c ****  * @return Updates the control moments in the controller struct
 127:../Core/Src/controls.c ****  * @note 
 128:../Core/Src/controls.c **** */
 129:../Core/Src/controls.c **** void compute_controls(controller *ctrl) {
 582              		.loc 1 129 41 is_stmt 1 view -0
 583              		.cfi_startproc
 584              		@ args = 0, pretend = 0, frame = 40
 585              		@ frame_needed = 0, uses_anonymous_args = 0
 586              		.loc 1 129 41 is_stmt 0 view .LVU165
 587 0000 10B5     		push	{r4, lr}
 588              	.LCFI11:
 589              		.cfi_def_cfa_offset 8
 590              		.cfi_offset 4, -8
 591              		.cfi_offset 14, -4
 592 0002 8AB0     		sub	sp, sp, #40
 593              	.LCFI12:
 594              		.cfi_def_cfa_offset 48
 595 0004 0446     		mov	r4, r0
 130:../Core/Src/controls.c ****     float del_x[9] = {0};
 596              		.loc 1 130 5 is_stmt 1 view .LVU166
 597              		.loc 1 130 11 is_stmt 0 view .LVU167
 598 0006 2422     		movs	r2, #36
 599 0008 0021     		movs	r1, #0
 600 000a 01A8     		add	r0, sp, #4
 601              	.LVL47:
 602              		.loc 1 130 11 view .LVU168
 603 000c FFF7FEFF 		bl	memset
 604              	.LVL48:
 131:../Core/Src/controls.c ****     float roll = 0.0;
 605              		.loc 1 131 5 is_stmt 1 view .LVU169
 132:../Core/Src/controls.c ****     float pitch = 0.0;
 606              		.loc 1 132 5 view .LVU170
 133:../Core/Src/controls.c ****     float yaw = 0.0;
 607              		.loc 1 133 5 view .LVU171
 134:../Core/Src/controls.c ****     float thrust = 0.0;
 608              		.loc 1 134 5 view .LVU172
 135:../Core/Src/controls.c **** 
 136:../Core/Src/controls.c ****     for (int i = 0; i < 9; i++) {
 609              		.loc 1 136 5 view .LVU173
 610              	.LBB14:
 611              		.loc 1 136 10 view .LVU174
 612              		.loc 1 136 14 is_stmt 0 view .LVU175
 613 0010 0023     		movs	r3, #0
 614              		.loc 1 136 5 view .LVU176
 615 0012 11E0     		b	.L44
 616              	.LVL49:
 617              	.L45:
ARM GAS  /tmp/cczPxs7Y.s 			page 15


 137:../Core/Src/controls.c ****         del_x[i] = ctrl->x[i] - ctrl->x0[i];
 618              		.loc 1 137 9 is_stmt 1 discriminator 3 view .LVU177
 619              		.loc 1 137 27 is_stmt 0 discriminator 3 view .LVU178
 620 0014 04EB8302 		add	r2, r4, r3, lsl #2
 621 0018 D2ED017A 		vldr.32	s15, [r2, #4]
 622              		.loc 1 137 41 discriminator 3 view .LVU179
 623 001c 03F10A02 		add	r2, r3, #10
 624 0020 04EB8202 		add	r2, r4, r2, lsl #2
 625 0024 92ED007A 		vldr.32	s14, [r2]
 626              		.loc 1 137 31 discriminator 3 view .LVU180
 627 0028 77EEC77A 		vsub.f32	s15, s15, s14
 628              		.loc 1 137 18 discriminator 3 view .LVU181
 629 002c 0AAA     		add	r2, sp, #40
 630 002e 02EB8302 		add	r2, r2, r3, lsl #2
 631 0032 42ED097A 		vstr.32	s15, [r2, #-36]
 136:../Core/Src/controls.c ****         del_x[i] = ctrl->x[i] - ctrl->x0[i];
 632              		.loc 1 136 29 is_stmt 1 discriminator 3 view .LVU182
 633 0036 0133     		adds	r3, r3, #1
 634              	.LVL50:
 635              	.L44:
 136:../Core/Src/controls.c ****         del_x[i] = ctrl->x[i] - ctrl->x0[i];
 636              		.loc 1 136 23 discriminator 1 view .LVU183
 637 0038 082B     		cmp	r3, #8
 638 003a EBDD     		ble	.L45
 639              	.LBE14:
 640              	.LBB15:
 138:../Core/Src/controls.c ****     }
 139:../Core/Src/controls.c **** 
 140:../Core/Src/controls.c ****     for (int j = 0; j < 4; j++) {
 641              		.loc 1 140 14 is_stmt 0 view .LVU184
 642 003c 0023     		movs	r3, #0
 643              	.LVL51:
 644              		.loc 1 140 14 view .LVU185
 645              	.LBE15:
 134:../Core/Src/controls.c **** 
 646              		.loc 1 134 11 view .LVU186
 647 003e 9FED3B7A 		vldr.32	s14, .L65
 133:../Core/Src/controls.c ****     float thrust = 0.0;
 648              		.loc 1 133 11 view .LVU187
 649 0042 F0EE476A 		vmov.f32	s13, s14
 132:../Core/Src/controls.c ****     float yaw = 0.0;
 650              		.loc 1 132 11 view .LVU188
 651 0046 B0EE476A 		vmov.f32	s12, s14
 131:../Core/Src/controls.c ****     float pitch = 0.0;
 652              		.loc 1 131 11 view .LVU189
 653 004a F0EE475A 		vmov.f32	s11, s14
 654 004e 14E0     		b	.L46
 655              	.LVL52:
 656              	.L53:
 657              	.LBB20:
 658              	.LBB16:
 141:../Core/Src/controls.c ****         if (j == 0) {
 142:../Core/Src/controls.c ****             for (int i = 0; i < 9; i++) {
 143:../Core/Src/controls.c ****                 roll += ctrl->K[j*9 + i] * del_x[i];
 659              		.loc 1 143 17 is_stmt 1 discriminator 3 view .LVU190
 660              		.loc 1 143 34 is_stmt 0 discriminator 3 view .LVU191
 661 0050 03EBC302 		add	r2, r3, r3, lsl #3
ARM GAS  /tmp/cczPxs7Y.s 			page 16


 662              		.loc 1 143 37 discriminator 3 view .LVU192
 663 0054 0A44     		add	r2, r2, r1
 664              		.loc 1 143 32 discriminator 3 view .LVU193
 665 0056 1232     		adds	r2, r2, #18
 666 0058 04EB8202 		add	r2, r4, r2, lsl #2
 667 005c D2ED017A 		vldr.32	s15, [r2, #4]
 668              		.loc 1 143 49 discriminator 3 view .LVU194
 669 0060 0AAA     		add	r2, sp, #40
 670 0062 02EB8102 		add	r2, r2, r1, lsl #2
 671 0066 12ED095A 		vldr.32	s10, [r2, #-36]
 672              		.loc 1 143 42 discriminator 3 view .LVU195
 673 006a 67EE857A 		vmul.f32	s15, s15, s10
 674              		.loc 1 143 22 discriminator 3 view .LVU196
 675 006e 75EEA75A 		vadd.f32	s11, s11, s15
 676              	.LVL53:
 142:../Core/Src/controls.c ****                 roll += ctrl->K[j*9 + i] * del_x[i];
 677              		.loc 1 142 37 is_stmt 1 discriminator 3 view .LVU197
 678 0072 0131     		adds	r1, r1, #1
 679              	.LVL54:
 680              	.L52:
 142:../Core/Src/controls.c ****                 roll += ctrl->K[j*9 + i] * del_x[i];
 681              		.loc 1 142 31 discriminator 1 view .LVU198
 682 0074 0829     		cmp	r1, #8
 683 0076 EBDD     		ble	.L53
 684              	.LVL55:
 685              	.L47:
 142:../Core/Src/controls.c ****                 roll += ctrl->K[j*9 + i] * del_x[i];
 686              		.loc 1 142 31 is_stmt 0 discriminator 1 view .LVU199
 687              	.LBE16:
 140:../Core/Src/controls.c ****         if (j == 0) {
 688              		.loc 1 140 29 is_stmt 1 discriminator 2 view .LVU200
 689 0078 0133     		adds	r3, r3, #1
 690              	.LVL56:
 691              	.L46:
 140:../Core/Src/controls.c ****         if (j == 0) {
 692              		.loc 1 140 23 discriminator 1 view .LVU201
 693 007a 032B     		cmp	r3, #3
 694 007c 4CDC     		bgt	.L64
 141:../Core/Src/controls.c ****         if (j == 0) {
 695              		.loc 1 141 9 view .LVU202
 696 007e 032B     		cmp	r3, #3
 697 0080 FAD8     		bhi	.L47
 698 0082 DFE803F0 		tbb	[pc, r3]
 699              	.L49:
 700 0086 02       		.byte	(.L58-.L49)/2
 701 0087 19       		.byte	(.L59-.L49)/2
 702 0088 30       		.byte	(.L60-.L49)/2
 703 0089 47       		.byte	(.L61-.L49)/2
 704              		.p2align 1
 705              	.L58:
 140:../Core/Src/controls.c ****         if (j == 0) {
 706              		.loc 1 140 23 is_stmt 0 view .LVU203
 707 008a 1946     		mov	r1, r3
 708 008c F2E7     		b	.L52
 709              	.LVL57:
 710              	.L54:
 711              	.LBB17:
ARM GAS  /tmp/cczPxs7Y.s 			page 17


 144:../Core/Src/controls.c ****             }
 145:../Core/Src/controls.c ****         } else if (j == 1) {
 146:../Core/Src/controls.c ****             for (int i = 0; i < 9; i++) {
 147:../Core/Src/controls.c ****                 pitch += ctrl->K[j*9 + i] * del_x[i];
 712              		.loc 1 147 17 is_stmt 1 discriminator 3 view .LVU204
 713              		.loc 1 147 35 is_stmt 0 discriminator 3 view .LVU205
 714 008e 03EBC302 		add	r2, r3, r3, lsl #3
 715              		.loc 1 147 38 discriminator 3 view .LVU206
 716 0092 0A44     		add	r2, r2, r1
 717              		.loc 1 147 33 discriminator 3 view .LVU207
 718 0094 1232     		adds	r2, r2, #18
 719 0096 04EB8202 		add	r2, r4, r2, lsl #2
 720 009a D2ED017A 		vldr.32	s15, [r2, #4]
 721              		.loc 1 147 50 discriminator 3 view .LVU208
 722 009e 0AAA     		add	r2, sp, #40
 723 00a0 02EB8102 		add	r2, r2, r1, lsl #2
 724 00a4 12ED095A 		vldr.32	s10, [r2, #-36]
 725              		.loc 1 147 43 discriminator 3 view .LVU209
 726 00a8 67EE857A 		vmul.f32	s15, s15, s10
 727              		.loc 1 147 23 discriminator 3 view .LVU210
 728 00ac 36EE276A 		vadd.f32	s12, s12, s15
 729              	.LVL58:
 146:../Core/Src/controls.c ****                 pitch += ctrl->K[j*9 + i] * del_x[i];
 730              		.loc 1 146 37 is_stmt 1 discriminator 3 view .LVU211
 731 00b0 0131     		adds	r1, r1, #1
 732              	.LVL59:
 733              	.L51:
 146:../Core/Src/controls.c ****                 pitch += ctrl->K[j*9 + i] * del_x[i];
 734              		.loc 1 146 31 discriminator 1 view .LVU212
 735 00b2 0829     		cmp	r1, #8
 736 00b4 EBDD     		ble	.L54
 146:../Core/Src/controls.c ****                 pitch += ctrl->K[j*9 + i] * del_x[i];
 737              		.loc 1 146 31 is_stmt 0 discriminator 1 view .LVU213
 738 00b6 DFE7     		b	.L47
 739              	.LVL60:
 740              	.L59:
 146:../Core/Src/controls.c ****                 pitch += ctrl->K[j*9 + i] * del_x[i];
 741              		.loc 1 146 31 discriminator 1 view .LVU214
 742              	.LBE17:
 140:../Core/Src/controls.c ****         if (j == 0) {
 743              		.loc 1 140 23 view .LVU215
 744 00b8 0021     		movs	r1, #0
 745 00ba FAE7     		b	.L51
 746              	.LVL61:
 747              	.L55:
 748              	.LBB18:
 148:../Core/Src/controls.c ****             }
 149:../Core/Src/controls.c ****         } else if (j == 2) {
 150:../Core/Src/controls.c ****             for (int i = 0; i < 9; i++) {
 151:../Core/Src/controls.c ****                 yaw += ctrl->K[j*9 + i] * del_x[i];
 749              		.loc 1 151 17 is_stmt 1 discriminator 3 view .LVU216
 750              		.loc 1 151 33 is_stmt 0 discriminator 3 view .LVU217
 751 00bc 03EBC302 		add	r2, r3, r3, lsl #3
 752              		.loc 1 151 36 discriminator 3 view .LVU218
 753 00c0 0A44     		add	r2, r2, r1
 754              		.loc 1 151 31 discriminator 3 view .LVU219
 755 00c2 1232     		adds	r2, r2, #18
ARM GAS  /tmp/cczPxs7Y.s 			page 18


 756 00c4 04EB8202 		add	r2, r4, r2, lsl #2
 757 00c8 D2ED017A 		vldr.32	s15, [r2, #4]
 758              		.loc 1 151 48 discriminator 3 view .LVU220
 759 00cc 0AAA     		add	r2, sp, #40
 760 00ce 02EB8102 		add	r2, r2, r1, lsl #2
 761 00d2 12ED095A 		vldr.32	s10, [r2, #-36]
 762              		.loc 1 151 41 discriminator 3 view .LVU221
 763 00d6 67EE857A 		vmul.f32	s15, s15, s10
 764              		.loc 1 151 21 discriminator 3 view .LVU222
 765 00da 76EEA76A 		vadd.f32	s13, s13, s15
 766              	.LVL62:
 150:../Core/Src/controls.c ****                 yaw += ctrl->K[j*9 + i] * del_x[i];
 767              		.loc 1 150 37 is_stmt 1 discriminator 3 view .LVU223
 768 00de 0131     		adds	r1, r1, #1
 769              	.LVL63:
 770              	.L50:
 150:../Core/Src/controls.c ****                 yaw += ctrl->K[j*9 + i] * del_x[i];
 771              		.loc 1 150 31 discriminator 1 view .LVU224
 772 00e0 0829     		cmp	r1, #8
 773 00e2 EBDD     		ble	.L55
 150:../Core/Src/controls.c ****                 yaw += ctrl->K[j*9 + i] * del_x[i];
 774              		.loc 1 150 31 is_stmt 0 discriminator 1 view .LVU225
 775 00e4 C8E7     		b	.L47
 776              	.LVL64:
 777              	.L60:
 150:../Core/Src/controls.c ****                 yaw += ctrl->K[j*9 + i] * del_x[i];
 778              		.loc 1 150 31 discriminator 1 view .LVU226
 779              	.LBE18:
 140:../Core/Src/controls.c ****         if (j == 0) {
 780              		.loc 1 140 23 view .LVU227
 781 00e6 0021     		movs	r1, #0
 782 00e8 FAE7     		b	.L50
 783              	.LVL65:
 784              	.L56:
 785              	.LBB19:
 152:../Core/Src/controls.c ****             }
 153:../Core/Src/controls.c ****         } else if (j == 3) {
 154:../Core/Src/controls.c ****             for (int i = 0; i < 9; i++) {
 155:../Core/Src/controls.c ****                 thrust += ctrl->K[j*9 + i] * del_x[i];
 786              		.loc 1 155 17 is_stmt 1 discriminator 3 view .LVU228
 787              		.loc 1 155 36 is_stmt 0 discriminator 3 view .LVU229
 788 00ea 03EBC302 		add	r2, r3, r3, lsl #3
 789              		.loc 1 155 39 discriminator 3 view .LVU230
 790 00ee 0A44     		add	r2, r2, r1
 791              		.loc 1 155 34 discriminator 3 view .LVU231
 792 00f0 1232     		adds	r2, r2, #18
 793 00f2 04EB8202 		add	r2, r4, r2, lsl #2
 794 00f6 D2ED017A 		vldr.32	s15, [r2, #4]
 795              		.loc 1 155 51 discriminator 3 view .LVU232
 796 00fa 0AAA     		add	r2, sp, #40
 797 00fc 02EB8102 		add	r2, r2, r1, lsl #2
 798 0100 12ED095A 		vldr.32	s10, [r2, #-36]
 799              		.loc 1 155 44 discriminator 3 view .LVU233
 800 0104 67EE857A 		vmul.f32	s15, s15, s10
 801              		.loc 1 155 24 discriminator 3 view .LVU234
 802 0108 37EE277A 		vadd.f32	s14, s14, s15
 803              	.LVL66:
ARM GAS  /tmp/cczPxs7Y.s 			page 19


 154:../Core/Src/controls.c ****                 thrust += ctrl->K[j*9 + i] * del_x[i];
 804              		.loc 1 154 37 is_stmt 1 discriminator 3 view .LVU235
 805 010c 0131     		adds	r1, r1, #1
 806              	.LVL67:
 807              	.L48:
 154:../Core/Src/controls.c ****                 thrust += ctrl->K[j*9 + i] * del_x[i];
 808              		.loc 1 154 31 discriminator 1 view .LVU236
 809 010e 0829     		cmp	r1, #8
 810 0110 EBDD     		ble	.L56
 154:../Core/Src/controls.c ****                 thrust += ctrl->K[j*9 + i] * del_x[i];
 811              		.loc 1 154 31 is_stmt 0 discriminator 1 view .LVU237
 812 0112 B1E7     		b	.L47
 813              	.LVL68:
 814              	.L61:
 154:../Core/Src/controls.c ****                 thrust += ctrl->K[j*9 + i] * del_x[i];
 815              		.loc 1 154 31 discriminator 1 view .LVU238
 816              	.LBE19:
 140:../Core/Src/controls.c ****         if (j == 0) {
 817              		.loc 1 140 23 view .LVU239
 818 0114 0021     		movs	r1, #0
 819 0116 FAE7     		b	.L48
 820              	.L64:
 821              	.LBE20:
 156:../Core/Src/controls.c ****             }
 157:../Core/Src/controls.c ****         }
 158:../Core/Src/controls.c ****     }
 159:../Core/Src/controls.c **** 
 160:../Core/Src/controls.c ****     ctrl->M_roll = roll;
 822              		.loc 1 160 5 is_stmt 1 view .LVU240
 823              		.loc 1 160 18 is_stmt 0 view .LVU241
 824 0118 C4ED375A 		vstr.32	s11, [r4, #220]
 161:../Core/Src/controls.c ****     ctrl->M_pitch = pitch;
 825              		.loc 1 161 5 is_stmt 1 view .LVU242
 826              		.loc 1 161 19 is_stmt 0 view .LVU243
 827 011c 84ED386A 		vstr.32	s12, [r4, #224]
 162:../Core/Src/controls.c ****     ctrl->M_yaw = yaw;
 828              		.loc 1 162 5 is_stmt 1 view .LVU244
 829              		.loc 1 162 17 is_stmt 0 view .LVU245
 830 0120 C4ED396A 		vstr.32	s13, [r4, #228]
 163:../Core/Src/controls.c ****     ctrl->T = thrust;
 831              		.loc 1 163 5 is_stmt 1 view .LVU246
 832              		.loc 1 163 13 is_stmt 0 view .LVU247
 833 0124 84ED3A7A 		vstr.32	s14, [r4, #232]
 164:../Core/Src/controls.c **** } 
 834              		.loc 1 164 1 view .LVU248
 835 0128 0AB0     		add	sp, sp, #40
 836              	.LCFI13:
 837              		.cfi_def_cfa_offset 8
 838              		@ sp needed
 839 012a 10BD     		pop	{r4, pc}
 840              	.LVL69:
 841              	.L66:
 842              		.loc 1 164 1 view .LVU249
 843              		.align	2
 844              	.L65:
 845 012c 00000000 		.word	0
 846              		.cfi_endproc
ARM GAS  /tmp/cczPxs7Y.s 			page 20


 847              	.LFE151:
 849              		.section	.text.update_yaw_moment_arm,"ax",%progbits
 850              		.align	1
 851              		.global	update_yaw_moment_arm
 852              		.syntax unified
 853              		.thumb
 854              		.thumb_func
 856              	update_yaw_moment_arm:
 857              	.LVL70:
 858              	.LFB152:
 165:../Core/Src/controls.c **** 
 166:../Core/Src/controls.c **** /**
 167:../Core/Src/controls.c ****  * @brief Function that updates the yaw moment arm in the struct since it shifts due to propellant 
 168:../Core/Src/controls.c ****  * @param ctrl Takes controller struct, but uses initial and final moment arms plus burn time
 169:../Core/Src/controls.c ****  * @return Updates yaw_moment_arm variable in controller struct
 170:../Core/Src/controls.c ****  * @note Uses linear interpolation
 171:../Core/Src/controls.c **** */
 172:../Core/Src/controls.c **** void update_yaw_moment_arm(controller *ctrl){
 859              		.loc 1 172 45 is_stmt 1 view -0
 860              		.cfi_startproc
 861              		@ args = 0, pretend = 0, frame = 0
 862              		@ frame_needed = 0, uses_anonymous_args = 0
 863              		@ link register save eliminated.
 173:../Core/Src/controls.c ****     float yaw_moment_arm_0 = 0.967; //initial yaw moment arm, m
 864              		.loc 1 173 5 view .LVU251
 174:../Core/Src/controls.c ****     float yaw_moment_arm_f = 1.06; //final yaw moment arm, m
 865              		.loc 1 174 5 view .LVU252
 175:../Core/Src/controls.c ****     
 176:../Core/Src/controls.c ****     float burn_time = 13.1;
 866              		.loc 1 176 5 view .LVU253
 177:../Core/Src/controls.c **** 
 178:../Core/Src/controls.c ****     ctrl->yaw_moment_arm = yaw_moment_arm_0 - ((yaw_moment_arm_0 - yaw_moment_arm_f)/burn_time)*ctr
 867              		.loc 1 178 5 view .LVU254
 868              		.loc 1 178 101 is_stmt 0 view .LVU255
 869 0000 90ED007A 		vldr.32	s14, [r0]
 870              		.loc 1 178 96 view .LVU256
 871 0004 DFED057A 		vldr.32	s15, .L68
 872 0008 27EE277A 		vmul.f32	s14, s14, s15
 873              		.loc 1 178 45 view .LVU257
 874 000c DFED047A 		vldr.32	s15, .L68+4
 875 0010 77EEC77A 		vsub.f32	s15, s15, s14
 876              		.loc 1 178 26 view .LVU258
 877 0014 C0ED3B7A 		vstr.32	s15, [r0, #236]
 179:../Core/Src/controls.c **** }
 878              		.loc 1 179 1 view .LVU259
 879 0018 7047     		bx	lr
 880              	.L69:
 881 001a 00BF     		.align	2
 882              	.L68:
 883 001c ACA0E8BB 		.word	-1142382420
 884 0020 508D773F 		.word	1064799568
 885              		.cfi_endproc
 886              	.LFE152:
 888              		.section	.text.moment_to_sideforce,"ax",%progbits
 889              		.align	1
 890              		.global	moment_to_sideforce
 891              		.syntax unified
ARM GAS  /tmp/cczPxs7Y.s 			page 21


 892              		.thumb
 893              		.thumb_func
 895              	moment_to_sideforce:
 896              	.LVL71:
 897              	.LFB153:
 180:../Core/Src/controls.c **** 
 181:../Core/Src/controls.c **** 
 182:../Core/Src/controls.c **** /**
 183:../Core/Src/controls.c ****  * @brief Converts desired control moments of roll and yaw into desired roll and yaw forces
 184:../Core/Src/controls.c ****  * @param ctrl Takes controller struct, uses desired roll and yaw moments, and current roll and yaw
 185:../Core/Src/controls.c ****  * @return Updates values of forces 1-D array, forces = [F_roll, F_pitch]
 186:../Core/Src/controls.c ****  * @note Uses the fact that M = F*d
 187:../Core/Src/controls.c **** */
 188:../Core/Src/controls.c **** void moment_to_sideforce(controller *ctrl){
 898              		.loc 1 188 43 is_stmt 1 view -0
 899              		.cfi_startproc
 900              		@ args = 0, pretend = 0, frame = 0
 901              		@ frame_needed = 0, uses_anonymous_args = 0
 902              		@ link register save eliminated.
 189:../Core/Src/controls.c ****     ctrl->forces[0] = ctrl->M_roll/ctrl->roll_moment_arm;
 903              		.loc 1 189 5 view .LVU261
 904              		.loc 1 189 27 is_stmt 0 view .LVU262
 905 0000 D0ED376A 		vldr.32	s13, [r0, #220]
 906              		.loc 1 189 40 view .LVU263
 907 0004 90ED3C7A 		vldr.32	s14, [r0, #240]
 908              		.loc 1 189 35 view .LVU264
 909 0008 C6EE877A 		vdiv.f32	s15, s13, s14
 910              		.loc 1 189 21 view .LVU265
 911 000c C0ED3D7A 		vstr.32	s15, [r0, #244]
 190:../Core/Src/controls.c ****     ctrl->forces[1] = ctrl->M_yaw/ctrl->yaw_moment_arm;
 912              		.loc 1 190 5 is_stmt 1 view .LVU266
 913              		.loc 1 190 27 is_stmt 0 view .LVU267
 914 0010 D0ED396A 		vldr.32	s13, [r0, #228]
 915              		.loc 1 190 39 view .LVU268
 916 0014 90ED3B7A 		vldr.32	s14, [r0, #236]
 917              		.loc 1 190 34 view .LVU269
 918 0018 C6EE877A 		vdiv.f32	s15, s13, s14
 919              		.loc 1 190 21 view .LVU270
 920 001c C0ED3E7A 		vstr.32	s15, [r0, #248]
 191:../Core/Src/controls.c **** }
 921              		.loc 1 191 1 view .LVU271
 922 0020 7047     		bx	lr
 923              		.cfi_endproc
 924              	.LFE153:
 926              		.section	.text.sideforce_to_vane_angle,"ax",%progbits
 927              		.align	1
 928              		.global	sideforce_to_vane_angle
 929              		.syntax unified
 930              		.thumb
 931              		.thumb_func
 933              	sideforce_to_vane_angle:
 934              	.LVL72:
 935              	.LFB154:
 192:../Core/Src/controls.c **** 
 193:../Core/Src/controls.c **** 
 194:../Core/Src/controls.c **** /**
 195:../Core/Src/controls.c ****  * @brief Finds current thrust value, computes max sideforce for that thrust, and then computes van
ARM GAS  /tmp/cczPxs7Y.s 			page 22


 196:../Core/Src/controls.c ****  * @param ctrl Takes controller struct, but uses thrust curve, time since launch, and forces 1-D ar
 197:../Core/Src/controls.c ****  * @return Updates vane_deflections 1-D array [roll1, roll2, yaw1, yaw2]
 198:../Core/Src/controls.c ****  * @note Sign conventions for vanes are important here!
 199:../Core/Src/controls.c **** */
 200:../Core/Src/controls.c **** void sideforce_to_vane_angle(controller *ctrl){ //TODO: UPDATE BASED ON ACTUAL SIDEFORCE MODEL
 936              		.loc 1 200 47 is_stmt 1 view -0
 937              		.cfi_startproc
 938              		@ args = 0, pretend = 0, frame = 0
 939              		@ frame_needed = 0, uses_anonymous_args = 0
 940              		@ link register save eliminated.
 201:../Core/Src/controls.c ****     int rounded_down_second = (int)floor(ctrl->time_since_launch);
 941              		.loc 1 201 5 view .LVU273
 942              		.loc 1 201 46 is_stmt 0 view .LVU274
 943 0000 90ED007A 		vldr.32	s14, [r0]
 944              		.loc 1 201 36 view .LVU275
 945 0004 B7EEC77A 		vcvt.f64.f32	d7, s14
 946 0008 BBFE474B 		vrintm.f64	d4, d7
 947              		.loc 1 201 9 view .LVU276
 948 000c FDEEC46B 		vcvt.s32.f64	s13, d4
 949 0010 16EE903A 		vmov	r3, s13	@ int
 950              	.LVL73:
 202:../Core/Src/controls.c **** 
 203:../Core/Src/controls.c ****     if (ctrl->time_since_launch >= 13.8){ //If more than 13.8 seconds has passed since launch, assu
 951              		.loc 1 203 5 is_stmt 1 view .LVU277
 952              		.loc 1 203 8 is_stmt 0 view .LVU278
 953 0014 9FED306B 		vldr.64	d6, .L81
 954 0018 B4EEC67B 		vcmpe.f64	d7, d6
 955 001c F1EE10FA 		vmrs	APSR_nzcv, FPSCR
 956 0020 37DB     		blt	.L80
 204:../Core/Src/controls.c ****         ctrl->current_thrust = 0;
 957              		.loc 1 204 9 is_stmt 1 view .LVU279
 958              		.loc 1 204 30 is_stmt 0 view .LVU280
 959 0022 0023     		movs	r3, #0
 960              	.LVL74:
 961              		.loc 1 204 30 view .LVU281
 962 0024 C0F85831 		str	r3, [r0, #344]	@ float
 963              	.L74:
 205:../Core/Src/controls.c ****     } else { //Use linear interpolation with thrust curve
 206:../Core/Src/controls.c ****         float T_1 = ctrl->thrust_curve[rounded_down_second];
 207:../Core/Src/controls.c ****         float T_2 = ctrl->thrust_curve[rounded_down_second + 1];
 208:../Core/Src/controls.c **** 
 209:../Core/Src/controls.c ****         ctrl->current_thrust = T_1 + (T_2 - T_1)*(ctrl->time_since_launch - floor(ctrl->time_since_
 210:../Core/Src/controls.c ****     } //Current thrust has been obtained
 211:../Core/Src/controls.c **** 
 212:../Core/Src/controls.c ****     float max_sideforce = 0.05*ctrl->current_thrust; //max sideforce per vane
 964              		.loc 1 212 5 is_stmt 1 view .LVU282
 965              		.loc 1 212 36 is_stmt 0 view .LVU283
 966 0028 90ED567A 		vldr.32	s14, [r0, #344]
 967 002c B7EEC77A 		vcvt.f64.f32	d7, s14
 968              		.loc 1 212 31 view .LVU284
 969 0030 9FED2B6B 		vldr.64	d6, .L81+8
 970 0034 27EE067B 		vmul.f64	d7, d7, d6
 971              		.loc 1 212 11 view .LVU285
 972 0038 B7EEC77B 		vcvt.f32.f64	s14, d7
 973              	.LVL75:
 213:../Core/Src/controls.c **** 
 214:../Core/Src/controls.c ****     float yaw_force_per_vane = ctrl->forces[0]/2.0;
ARM GAS  /tmp/cczPxs7Y.s 			page 23


 974              		.loc 1 214 5 is_stmt 1 view .LVU286
 975              		.loc 1 214 44 is_stmt 0 view .LVU287
 976 003c 90ED3D6A 		vldr.32	s12, [r0, #244]
 977              		.loc 1 214 11 view .LVU288
 978 0040 F6EE007A 		vmov.f32	s15, #5.0e-1
 979 0044 26EE276A 		vmul.f32	s12, s12, s15
 980              	.LVL76:
 215:../Core/Src/controls.c ****     float roll_force_per_vane = ctrl->forces[1]/2.0;
 981              		.loc 1 215 5 is_stmt 1 view .LVU289
 982              		.loc 1 215 45 is_stmt 0 view .LVU290
 983 0048 D0ED3E6A 		vldr.32	s13, [r0, #248]
 984              	.LVL77:
 985              		.loc 1 215 11 view .LVU291
 986 004c 66EEA76A 		vmul.f32	s13, s13, s15
 987              	.LVL78:
 216:../Core/Src/controls.c **** 
 217:../Core/Src/controls.c ****     float yaw_vane_angle; //degrees
 988              		.loc 1 217 5 is_stmt 1 view .LVU292
 218:../Core/Src/controls.c ****     float roll_vane_angle; //degrees
 989              		.loc 1 218 5 view .LVU293
 219:../Core/Src/controls.c **** 
 220:../Core/Src/controls.c ****     //Find vane angle for yaw
 221:../Core/Src/controls.c ****     if (yaw_force_per_vane >= max_sideforce){
 990              		.loc 1 221 5 view .LVU294
 991              		.loc 1 221 8 is_stmt 0 view .LVU295
 992 0050 B4EEC67A 		vcmpe.f32	s14, s12
 993 0054 F1EE10FA 		vmrs	APSR_nzcv, FPSCR
 994 0058 35D9     		bls	.L77
 222:../Core/Src/controls.c ****         yaw_vane_angle = 30.0; //degrees
 223:../Core/Src/controls.c ****     } else {
 224:../Core/Src/controls.c ****         yaw_vane_angle = (yaw_force_per_vane/max_sideforce)*30.0;
 995              		.loc 1 224 9 is_stmt 1 view .LVU296
 996              		.loc 1 224 45 is_stmt 0 view .LVU297
 997 005a C6EE077A 		vdiv.f32	s15, s12, s14
 998              		.loc 1 224 24 view .LVU298
 999 005e B3EE0E6A 		vmov.f32	s12, #3.0e+1
 1000              	.LVL79:
 1001              		.loc 1 224 24 view .LVU299
 1002 0062 67EE867A 		vmul.f32	s15, s15, s12
 1003              	.LVL80:
 1004              	.L75:
 225:../Core/Src/controls.c ****     }
 226:../Core/Src/controls.c **** 
 227:../Core/Src/controls.c ****     //Find vane angle to roll
 228:../Core/Src/controls.c ****     if (roll_force_per_vane >= max_sideforce){
 1005              		.loc 1 228 5 is_stmt 1 view .LVU300
 1006              		.loc 1 228 8 is_stmt 0 view .LVU301
 1007 0066 B4EEE67A 		vcmpe.f32	s14, s13
 1008 006a F1EE10FA 		vmrs	APSR_nzcv, FPSCR
 1009 006e 2DD9     		bls	.L78
 229:../Core/Src/controls.c ****         roll_vane_angle = 30.0; //degrees - 30 degrees is the maximum deflection
 230:../Core/Src/controls.c ****     } else {
 231:../Core/Src/controls.c ****         roll_vane_angle = (roll_force_per_vane/max_sideforce)*30.0;
 1010              		.loc 1 231 9 is_stmt 1 view .LVU302
 1011              		.loc 1 231 47 is_stmt 0 view .LVU303
 1012 0070 86EE876A 		vdiv.f32	s12, s13, s14
 1013              		.loc 1 231 25 view .LVU304
ARM GAS  /tmp/cczPxs7Y.s 			page 24


 1014 0074 B3EE0E7A 		vmov.f32	s14, #3.0e+1
 1015              	.LVL81:
 1016              		.loc 1 231 25 view .LVU305
 1017 0078 26EE077A 		vmul.f32	s14, s12, s14
 1018              	.LVL82:
 1019              	.L76:
 232:../Core/Src/controls.c ****     }
 233:../Core/Src/controls.c **** 
 234:../Core/Src/controls.c ****     ctrl->vane_deflections[0] = roll_vane_angle;
 1020              		.loc 1 234 5 is_stmt 1 view .LVU306
 1021              		.loc 1 234 31 is_stmt 0 view .LVU307
 1022 007c 80ED3F7A 		vstr.32	s14, [r0, #252]
 235:../Core/Src/controls.c ****     ctrl->vane_deflections[1] = roll_vane_angle; //Rolling vanes turn in same direction
 1023              		.loc 1 235 5 is_stmt 1 view .LVU308
 1024              		.loc 1 235 31 is_stmt 0 view .LVU309
 1025 0080 80ED407A 		vstr.32	s14, [r0, #256]
 236:../Core/Src/controls.c ****     ctrl->vane_deflections[2] = yaw_vane_angle;
 1026              		.loc 1 236 5 is_stmt 1 view .LVU310
 1027              		.loc 1 236 31 is_stmt 0 view .LVU311
 1028 0084 C0ED417A 		vstr.32	s15, [r0, #260]
 237:../Core/Src/controls.c ****     ctrl->vane_deflections[3] = -yaw_vane_angle; //Because the yawing vanes turn in opposite direct
 1029              		.loc 1 237 5 is_stmt 1 view .LVU312
 1030              		.loc 1 237 33 is_stmt 0 view .LVU313
 1031 0088 F1EE677A 		vneg.f32	s15, s15
 1032              	.LVL83:
 1033              		.loc 1 237 31 view .LVU314
 1034 008c C0ED427A 		vstr.32	s15, [r0, #264]
 238:../Core/Src/controls.c **** }
 1035              		.loc 1 238 1 view .LVU315
 1036 0090 7047     		bx	lr
 1037              	.LVL84:
 1038              	.L80:
 1039              	.LBB21:
 206:../Core/Src/controls.c ****         float T_2 = ctrl->thrust_curve[rounded_down_second + 1];
 1040              		.loc 1 206 9 is_stmt 1 view .LVU316
 206:../Core/Src/controls.c ****         float T_2 = ctrl->thrust_curve[rounded_down_second + 1];
 1041              		.loc 1 206 15 is_stmt 0 view .LVU317
 1042 0092 03F14602 		add	r2, r3, #70
 1043 0096 00EB8202 		add	r2, r0, r2, lsl #2
 1044 009a 92ED016A 		vldr.32	s12, [r2, #4]
 1045              	.LVL85:
 207:../Core/Src/controls.c **** 
 1046              		.loc 1 207 9 is_stmt 1 view .LVU318
 207:../Core/Src/controls.c **** 
 1047              		.loc 1 207 15 is_stmt 0 view .LVU319
 1048 009e 4733     		adds	r3, r3, #71
 1049              	.LVL86:
 207:../Core/Src/controls.c **** 
 1050              		.loc 1 207 15 view .LVU320
 1051 00a0 00EB8303 		add	r3, r0, r3, lsl #2
 1052 00a4 93ED015A 		vldr.32	s10, [r3, #4]
 1053              	.LVL87:
 209:../Core/Src/controls.c ****     } //Current thrust has been obtained
 1054              		.loc 1 209 9 is_stmt 1 view .LVU321
 209:../Core/Src/controls.c ****     } //Current thrust has been obtained
 1055              		.loc 1 209 43 is_stmt 0 view .LVU322
 1056 00a8 35EE465A 		vsub.f32	s10, s10, s12
ARM GAS  /tmp/cczPxs7Y.s 			page 25


 1057              	.LVL88:
 209:../Core/Src/controls.c ****     } //Current thrust has been obtained
 1058              		.loc 1 209 43 view .LVU323
 1059 00ac B7EEC55A 		vcvt.f64.f32	d5, s10
 209:../Core/Src/controls.c ****     } //Current thrust has been obtained
 1060              		.loc 1 209 75 view .LVU324
 1061 00b0 37EE447B 		vsub.f64	d7, d7, d4
 209:../Core/Src/controls.c ****     } //Current thrust has been obtained
 1062              		.loc 1 209 36 view .LVU325
 1063 00b4 B7EEC66A 		vcvt.f64.f32	d6, s12
 1064              	.LVL89:
 209:../Core/Src/controls.c ****     } //Current thrust has been obtained
 1065              		.loc 1 209 36 view .LVU326
 1066 00b8 05EE076B 		vmla.f64	d6, d5, d7
 1067 00bc B7EEC66B 		vcvt.f32.f64	s12, d6
 209:../Core/Src/controls.c ****     } //Current thrust has been obtained
 1068              		.loc 1 209 30 view .LVU327
 1069 00c0 80ED566A 		vstr.32	s12, [r0, #344]
 1070              	.LVL90:
 209:../Core/Src/controls.c ****     } //Current thrust has been obtained
 1071              		.loc 1 209 30 view .LVU328
 1072 00c4 B0E7     		b	.L74
 1073              	.LVL91:
 1074              	.L77:
 209:../Core/Src/controls.c ****     } //Current thrust has been obtained
 1075              		.loc 1 209 30 view .LVU329
 1076              	.LBE21:
 222:../Core/Src/controls.c ****     } else {
 1077              		.loc 1 222 24 view .LVU330
 1078 00c6 F3EE0E7A 		vmov.f32	s15, #3.0e+1
 1079 00ca CCE7     		b	.L75
 1080              	.LVL92:
 1081              	.L78:
 229:../Core/Src/controls.c ****     } else {
 1082              		.loc 1 229 25 view .LVU331
 1083 00cc B3EE0E7A 		vmov.f32	s14, #3.0e+1
 1084              	.LVL93:
 229:../Core/Src/controls.c ****     } else {
 1085              		.loc 1 229 25 view .LVU332
 1086 00d0 D4E7     		b	.L76
 1087              	.L82:
 1088 00d2 00BFAFF3 		.align	3
 1088      0080
 1089              	.L81:
 1090 00d8 9A999999 		.word	-1717986918
 1091 00dc 99992B40 		.word	1076599193
 1092 00e0 9A999999 		.word	-1717986918
 1093 00e4 9999A93F 		.word	1068079513
 1094              		.cfi_endproc
 1095              	.LFE154:
 1097              		.section	.text.vane_angle_to_servo_angle,"ax",%progbits
 1098              		.align	1
 1099              		.global	vane_angle_to_servo_angle
 1100              		.syntax unified
 1101              		.thumb
 1102              		.thumb_func
 1104              	vane_angle_to_servo_angle:
ARM GAS  /tmp/cczPxs7Y.s 			page 26


 1105              	.LVL94:
 1106              	.LFB155:
 239:../Core/Src/controls.c **** 
 240:../Core/Src/controls.c **** 
 241:../Core/Src/controls.c **** /**
 242:../Core/Src/controls.c ****  * @brief Turns vane angles until
 243:../Core/Src/controls.c ****  * @param ctrl Takes the controller struct, but uses the vane deflections 1-D array
 244:../Core/Src/controls.c ****  * @return Updates the servo_deflections 1-D array
 245:../Core/Src/controls.c ****  * @note Turn a vane by x degrees --> Turn the servo by (8/5)*x degrees according to the gear ratio
 246:../Core/Src/controls.c **** */
 247:../Core/Src/controls.c **** void vane_angle_to_servo_angle(controller *ctrl){
 1107              		.loc 1 247 49 is_stmt 1 view -0
 1108              		.cfi_startproc
 1109              		@ args = 0, pretend = 0, frame = 0
 1110              		@ frame_needed = 0, uses_anonymous_args = 0
 1111              		@ link register save eliminated.
 248:../Core/Src/controls.c **** 
 249:../Core/Src/controls.c ****     ctrl->servo_deflections[0] = ctrl->vane_deflections[0]*(8.0/5.0); //roll servo 1
 1112              		.loc 1 249 5 view .LVU334
 1113              		.loc 1 249 56 is_stmt 0 view .LVU335
 1114 0000 90ED3F7A 		vldr.32	s14, [r0, #252]
 1115 0004 B7EEC77A 		vcvt.f64.f32	d7, s14
 1116              		.loc 1 249 59 view .LVU336
 1117 0008 9FED136B 		vldr.64	d6, .L84
 1118 000c 27EE067B 		vmul.f64	d7, d7, d6
 1119 0010 B7EEC77B 		vcvt.f32.f64	s14, d7
 1120              		.loc 1 249 32 view .LVU337
 1121 0014 80ED437A 		vstr.32	s14, [r0, #268]
 250:../Core/Src/controls.c ****     ctrl->servo_deflections[1] = ctrl->vane_deflections[1]*(8.0/5.0); //roll servo 2
 1122              		.loc 1 250 5 is_stmt 1 view .LVU338
 1123              		.loc 1 250 56 is_stmt 0 view .LVU339
 1124 0018 90ED407A 		vldr.32	s14, [r0, #256]
 1125 001c B7EEC77A 		vcvt.f64.f32	d7, s14
 1126              		.loc 1 250 59 view .LVU340
 1127 0020 27EE067B 		vmul.f64	d7, d7, d6
 1128 0024 B7EEC77B 		vcvt.f32.f64	s14, d7
 1129              		.loc 1 250 32 view .LVU341
 1130 0028 80ED447A 		vstr.32	s14, [r0, #272]
 251:../Core/Src/controls.c ****     ctrl->servo_deflections[2] = ctrl->vane_deflections[2]*(8.0/5.0); //yaw servo 1
 1131              		.loc 1 251 5 is_stmt 1 view .LVU342
 1132              		.loc 1 251 56 is_stmt 0 view .LVU343
 1133 002c 90ED417A 		vldr.32	s14, [r0, #260]
 1134 0030 B7EEC77A 		vcvt.f64.f32	d7, s14
 1135              		.loc 1 251 59 view .LVU344
 1136 0034 27EE067B 		vmul.f64	d7, d7, d6
 1137 0038 B7EEC77B 		vcvt.f32.f64	s14, d7
 1138              		.loc 1 251 32 view .LVU345
 1139 003c 80ED457A 		vstr.32	s14, [r0, #276]
 252:../Core/Src/controls.c ****     ctrl->servo_deflections[3] = ctrl->vane_deflections[3]*(8.0/5.0); //yaw servo 2
 1140              		.loc 1 252 5 is_stmt 1 view .LVU346
 1141              		.loc 1 252 56 is_stmt 0 view .LVU347
 1142 0040 90ED427A 		vldr.32	s14, [r0, #264]
 1143 0044 B7EEC77A 		vcvt.f64.f32	d7, s14
 1144              		.loc 1 252 59 view .LVU348
 1145 0048 27EE067B 		vmul.f64	d7, d7, d6
 1146 004c B7EEC77B 		vcvt.f32.f64	s14, d7
 1147              		.loc 1 252 32 view .LVU349
ARM GAS  /tmp/cczPxs7Y.s 			page 27


 1148 0050 80ED467A 		vstr.32	s14, [r0, #280]
 253:../Core/Src/controls.c **** }
 1149              		.loc 1 253 1 view .LVU350
 1150 0054 7047     		bx	lr
 1151              	.L85:
 1152 0056 00BF     		.align	3
 1153              	.L84:
 1154 0058 9A999999 		.word	-1717986918
 1155 005c 9999F93F 		.word	1073322393
 1156              		.cfi_endproc
 1157              	.LFE155:
 1159              		.section	.text.run_controls,"ax",%progbits
 1160              		.align	1
 1161              		.global	run_controls
 1162              		.syntax unified
 1163              		.thumb
 1164              		.thumb_func
 1166              	run_controls:
 1167              	.LVL95:
 1168              	.LFB156:
 254:../Core/Src/controls.c **** 
 255:../Core/Src/controls.c **** /**
 256:../Core/Src/controls.c ****  * @brief Runs the control algorithm for the jet vanes rocket for a given time step
 257:../Core/Src/controls.c ****  * @param ctrl Takes the controller struct, the current state estimate, and the elapsed time since 
 258:../Core/Src/controls.c ****  * @param state 1-D array of current state estimate
 259:../Core/Src/controls.c ****  * @param elapsed_time Time since launch
 260:../Core/Src/controls.c ****  * @return
 261:../Core/Src/controls.c ****  * @note
 262:../Core/Src/controls.c **** */
 263:../Core/Src/controls.c **** void run_controls(controller *ctrl, float *state, float elapsed_time){
 1169              		.loc 1 263 70 is_stmt 1 view -0
 1170              		.cfi_startproc
 1171              		@ args = 0, pretend = 0, frame = 0
 1172              		@ frame_needed = 0, uses_anonymous_args = 0
 1173              		.loc 1 263 70 is_stmt 0 view .LVU352
 1174 0000 10B5     		push	{r4, lr}
 1175              	.LCFI14:
 1176              		.cfi_def_cfa_offset 8
 1177              		.cfi_offset 4, -8
 1178              		.cfi_offset 14, -4
 1179 0002 0446     		mov	r4, r0
 264:../Core/Src/controls.c ****     // Update time since launch
 265:../Core/Src/controls.c ****     ctrl->time_since_launch = elapsed_time;
 1180              		.loc 1 265 5 is_stmt 1 view .LVU353
 1181              		.loc 1 265 29 is_stmt 0 view .LVU354
 1182 0004 80ED000A 		vstr.32	s0, [r0]
 266:../Core/Src/controls.c **** 
 267:../Core/Src/controls.c ****     // Update state estimate
 268:../Core/Src/controls.c ****     for (int i = 0; i < 9; i++) {
 1183              		.loc 1 268 5 is_stmt 1 view .LVU355
 1184              	.LBB22:
 1185              		.loc 1 268 10 view .LVU356
 1186              	.LVL96:
 1187              		.loc 1 268 14 is_stmt 0 view .LVU357
 1188 0008 0023     		movs	r3, #0
 1189              		.loc 1 268 5 view .LVU358
 1190 000a 06E0     		b	.L87
ARM GAS  /tmp/cczPxs7Y.s 			page 28


 1191              	.LVL97:
 1192              	.L88:
 269:../Core/Src/controls.c ****         ctrl->x[i] = state[i];
 1193              		.loc 1 269 9 is_stmt 1 discriminator 3 view .LVU359
 1194              		.loc 1 269 27 is_stmt 0 discriminator 3 view .LVU360
 1195 000c 01EB8302 		add	r2, r1, r3, lsl #2
 1196 0010 1068     		ldr	r0, [r2]	@ float
 1197              		.loc 1 269 20 discriminator 3 view .LVU361
 1198 0012 04EB8302 		add	r2, r4, r3, lsl #2
 1199 0016 5060     		str	r0, [r2, #4]	@ float
 268:../Core/Src/controls.c ****         ctrl->x[i] = state[i];
 1200              		.loc 1 268 29 is_stmt 1 discriminator 3 view .LVU362
 1201 0018 0133     		adds	r3, r3, #1
 1202              	.LVL98:
 1203              	.L87:
 268:../Core/Src/controls.c ****         ctrl->x[i] = state[i];
 1204              		.loc 1 268 23 discriminator 1 view .LVU363
 1205 001a 082B     		cmp	r3, #8
 1206 001c F6DD     		ble	.L88
 1207              	.LBE22:
 270:../Core/Src/controls.c ****     }
 271:../Core/Src/controls.c **** 
 272:../Core/Src/controls.c ****     reference_selector(ctrl); // Update the reference state
 1208              		.loc 1 272 5 view .LVU364
 1209 001e 2046     		mov	r0, r4
 1210 0020 FFF7FEFF 		bl	reference_selector
 1211              	.LVL99:
 273:../Core/Src/controls.c ****     LQR_gain_selector(ctrl); // Update the LQR gain matrix
 1212              		.loc 1 273 5 view .LVU365
 1213 0024 2046     		mov	r0, r4
 1214 0026 FFF7FEFF 		bl	LQR_gain_selector
 1215              	.LVL100:
 274:../Core/Src/controls.c ****     compute_controls(ctrl); // Compute the control moments
 1216              		.loc 1 274 5 view .LVU366
 1217 002a 2046     		mov	r0, r4
 1218 002c FFF7FEFF 		bl	compute_controls
 1219              	.LVL101:
 275:../Core/Src/controls.c ****     update_yaw_moment_arm(ctrl); // Update the yaw moment arm
 1220              		.loc 1 275 5 view .LVU367
 1221 0030 2046     		mov	r0, r4
 1222 0032 FFF7FEFF 		bl	update_yaw_moment_arm
 1223              	.LVL102:
 276:../Core/Src/controls.c ****     moment_to_sideforce(ctrl); // Convert moments to side forces
 1224              		.loc 1 276 5 view .LVU368
 1225 0036 2046     		mov	r0, r4
 1226 0038 FFF7FEFF 		bl	moment_to_sideforce
 1227              	.LVL103:
 277:../Core/Src/controls.c ****     sideforce_to_vane_angle(ctrl); // Convert side forces to vane angles
 1228              		.loc 1 277 5 view .LVU369
 1229 003c 2046     		mov	r0, r4
 1230 003e FFF7FEFF 		bl	sideforce_to_vane_angle
 1231              	.LVL104:
 278:../Core/Src/controls.c ****     vane_angle_to_servo_angle(ctrl); // Convert vane angles to servo angles
 1232              		.loc 1 278 5 view .LVU370
 1233 0042 2046     		mov	r0, r4
 1234 0044 FFF7FEFF 		bl	vane_angle_to_servo_angle
 1235              	.LVL105:
ARM GAS  /tmp/cczPxs7Y.s 			page 29


 279:../Core/Src/controls.c **** 
 280:../Core/Src/controls.c ****     // TODO: Send servo_deflections to the servo controller
 281:../Core/Src/controls.c **** }...
 1236              		.loc 1 281 1 is_stmt 0 view .LVU371
 1237 0048 10BD     		pop	{r4, pc}
 1238              		.loc 1 281 1 view .LVU372
 1239              		.cfi_endproc
 1240              	.LFE156:
 1242              		.global	num_ref_state_entries
 1243              		.section	.rodata.num_ref_state_entries,"a"
 1244              		.align	2
 1247              	num_ref_state_entries:
 1248 0000 0E000000 		.word	14
 1249              		.global	ref_state_data
 1250              		.section	.rodata.ref_state_data,"a"
 1251              		.align	2
 1254              	ref_state_data:
 1255 0000 00000000 		.word	0
 1256 0004 00000000 		.word	0
 1257 0008 00000000 		.word	0
 1258 000c 00000000 		.word	0
 1259 0010 00000000 		.word	0
 1260 0014 00000000 		.word	0
 1261 0018 00000000 		.word	0
 1262 001c 00000000 		.word	0
 1263 0020 00000000 		.word	0
 1264 0024 00000000 		.word	0
 1265 0028 00000000 		.word	0
 1266 002c 0000803F 		.word	1065353216
 1267 0030 AC4BCC42 		.word	1120684972
 1268 0034 00000000 		.word	0
 1269 0038 00000000 		.word	0
 1270 003c 00000000 		.word	0
 1271 0040 00000000 		.word	0
 1272 0044 00000000 		.word	0
 1273 0048 00000000 		.word	0
 1274 004c 00000000 		.word	0
 1275 0050 00000000 		.word	0
 1276 0054 00000000 		.space	4
 1277 0058 00000040 		.word	1073741824
 1278 005c 8E851343 		.word	1125352846
 1279 0060 00000000 		.word	0
 1280 0064 00000000 		.word	0
 1281 0068 00000000 		.word	0
 1282 006c 00000000 		.word	0
 1283 0070 00000000 		.word	0
 1284 0074 00000000 		.word	0
 1285 0078 00000000 		.word	0
 1286 007c 00000000 		.word	0
 1287 0080 00000000 		.space	4
 1288 0084 00004040 		.word	1077936128
 1289 0088 93EA0143 		.word	1124199059
 1290 008c 00000000 		.word	0
 1291 0090 00000000 		.word	0
 1292 0094 00000000 		.word	0
 1293 0098 00000000 		.word	0
 1294 009c 00000000 		.word	0
ARM GAS  /tmp/cczPxs7Y.s 			page 30


 1295 00a0 00000000 		.word	0
 1296 00a4 00000000 		.word	0
 1297 00a8 00000000 		.word	0
 1298 00ac 00000000 		.space	4
 1299 00b0 00008040 		.word	1082130432
 1300 00b4 59A6E442 		.word	1122281049
 1301 00b8 00000000 		.word	0
 1302 00bc 00000000 		.word	0
 1303 00c0 00000000 		.word	0
 1304 00c4 00000000 		.word	0
 1305 00c8 00000000 		.word	0
 1306 00cc 00000000 		.word	0
 1307 00d0 00000000 		.word	0
 1308 00d4 00000000 		.word	0
 1309 00d8 00000000 		.space	4
 1310 00dc 0000A040 		.word	1084227584
 1311 00e0 A886C842 		.word	1120437928
 1312 00e4 00000000 		.word	0
 1313 00e8 00000000 		.word	0
 1314 00ec 00000000 		.word	0
 1315 00f0 00000000 		.word	0
 1316 00f4 00000000 		.word	0
 1317 00f8 00000000 		.word	0
 1318 00fc 00000000 		.word	0
 1319 0100 00000000 		.word	0
 1320 0104 00000000 		.space	4
 1321 0108 0000C040 		.word	1086324736
 1322 010c 20C1AE42 		.word	1118748960
 1323 0110 00000000 		.word	0
 1324 0114 00000000 		.word	0
 1325 0118 00000000 		.word	0
 1326 011c 00000000 		.word	0
 1327 0120 00000000 		.word	0
 1328 0124 00000000 		.word	0
 1329 0128 00000000 		.word	0
 1330 012c 00000000 		.word	0
 1331 0130 00000000 		.space	4
 1332              		.global	num_lqr_entries
 1333              		.section	.rodata.num_lqr_entries,"a"
 1334              		.align	2
 1337              	num_lqr_entries:
 1338 0000 2A000000 		.word	42
 1339              		.global	lqr_data
 1340              		.section	.rodata.lqr_data,"a"
 1341              		.align	2
 1344              	lqr_data:
 1345 0000 0000803F 		.word	1065353216
 1346 0004 4536B442 		.word	1119106629
 1347 0008 00000000 		.word	0
 1348 000c 00000000 		.space	28
 1348      00000000 
 1348      00000000 
 1348      00000000 
 1348      00000000 
 1349 0028 00000000 		.word	0
 1350 002c 00000000 		.word	0
 1351 0030 00000080 		.word	-2147483648
ARM GAS  /tmp/cczPxs7Y.s 			page 31


 1352 0034 7BD2FD41 		.word	1107153531
 1353 0038 00000000 		.word	0
 1354 003c 00000080 		.word	-2147483648
 1355 0040 73FBFC41 		.word	1107098483
 1356 0044 00000080 		.word	-2147483648
 1357 0048 00000000 		.word	0
 1358 004c 00000080 		.word	-2147483648
 1359 0050 00000080 		.word	-2147483648
 1360 0054 CDACA539 		.word	967158989
 1361 0058 00000000 		.word	0
 1362 005c 6C971040 		.word	1074829164
 1363 0060 00000080 		.word	-2147483648
 1364 0064 00000000 		.word	0
 1365 0068 1C0A3F3E 		.word	1044318748
 1366 006c 00000080 		.word	-2147483648
 1367 0070 00000000 		.word	0
 1368 0074 D2C8AFBE 		.word	-1095776046
 1369 0078 00000080 		.word	-2147483648
 1370 007c 00000000 		.word	0
 1371 0080 00000080 		.word	-2147483648
 1372 0084 DBD04742 		.word	1112002779
 1373 0088 00000000 		.word	0
 1374 008c 00000080 		.word	-2147483648
 1375 0090 2FB71741 		.word	1092073263
 1376 0094 00000000 		.word	0
 1377 0098 00000080 		.word	-2147483648
 1378 009c 00000080 		.word	-2147483648
 1379 00a0 00000080 		.word	-2147483648
 1380 00a4 00000000 		.word	0
 1381 00a8 00000000 		.word	0
 1382 00ac 00000080 		.word	-2147483648
 1383 00b0 00000080 		.word	-2147483648
 1384 00b4 00000000 		.word	0
 1385 00b8 0000803F 		.word	1065353216
 1386 00bc F5E4BB42 		.word	1119610101
 1387 00c0 00000000 		.word	0
 1388 00c4 00000000 		.space	28
 1388      00000000 
 1388      00000000 
 1388      00000000 
 1388      00000000 
 1389 00e0 00000080 		.word	-2147483648
 1390 00e4 00000000 		.word	0
 1391 00e8 00000080 		.word	-2147483648
 1392 00ec 7BD2FD41 		.word	1107153531
 1393 00f0 00000080 		.word	-2147483648
 1394 00f4 00000080 		.word	-2147483648
 1395 00f8 73FBFC41 		.word	1107098483
 1396 00fc 00000080 		.word	-2147483648
 1397 0100 00000000 		.word	0
 1398 0104 00000080 		.word	-2147483648
 1399 0108 00000000 		.word	0
 1400 010c CDACA539 		.word	967158989
 1401 0110 00000080 		.word	-2147483648
 1402 0114 07D11040 		.word	1074843911
 1403 0118 00000000 		.word	0
 1404 011c 00000080 		.word	-2147483648
ARM GAS  /tmp/cczPxs7Y.s 			page 32


 1405 0120 11543D3E 		.word	1044206609
 1406 0124 00000000 		.word	0
 1407 0128 00000000 		.word	0
 1408 012c 78CFB1BE 		.word	-1095643272
 1409 0130 00000000 		.word	0
 1410 0134 00000000 		.word	0
 1411 0138 00000000 		.word	0
 1412 013c 59594A42 		.word	1112168793
 1413 0140 00000000 		.word	0
 1414 0144 00000000 		.word	0
 1415 0148 6B3A1241 		.word	1091713643
 1416 014c 00000000 		.word	0
 1417 0150 00000080 		.word	-2147483648
 1418 0154 00000000 		.word	0
 1419 0158 00000000 		.word	0
 1420 015c 00000000 		.word	0
 1421 0160 00000080 		.word	-2147483648
 1422 0164 00000000 		.word	0
 1423 0168 00000000 		.word	0
 1424 016c 00000080 		.word	-2147483648
 1425 0170 0000803F 		.word	1065353216
 1426 0174 4BF1C342 		.word	1120137547
 1427 0178 00000000 		.word	0
 1428 017c 00000000 		.space	28
 1428      00000000 
 1428      00000000 
 1428      00000000 
 1428      00000000 
 1429 0198 00000000 		.word	0
 1430 019c 00000080 		.word	-2147483648
 1431 01a0 00000000 		.word	0
 1432 01a4 7BD2FD41 		.word	1107153531
 1433 01a8 00000000 		.word	0
 1434 01ac 00000000 		.word	0
 1435 01b0 73FBFC41 		.word	1107098483
 1436 01b4 00000000 		.word	0
 1437 01b8 00000000 		.word	0
 1438 01bc 00000080 		.word	-2147483648
 1439 01c0 00000000 		.word	0
 1440 01c4 CDACA539 		.word	967158989
 1441 01c8 00000000 		.word	0
 1442 01cc 880F1140 		.word	1074859912
 1443 01d0 00000080 		.word	-2147483648
 1444 01d4 00000000 		.word	0
 1445 01d8 2E913B3E 		.word	1044091182
 1446 01dc 00000080 		.word	-2147483648
 1447 01e0 00000080 		.word	-2147483648
 1448 01e4 5B06B4BE 		.word	-1095498149
 1449 01e8 00000080 		.word	-2147483648
 1450 01ec 00000080 		.word	-2147483648
 1451 01f0 00000080 		.word	-2147483648
 1452 01f4 35144D42 		.word	1112347701
 1453 01f8 00000080 		.word	-2147483648
 1454 01fc 00000080 		.word	-2147483648
 1455 0200 E4040D41 		.word	1091372260
 1456 0204 00000000 		.word	0
 1457 0208 00000000 		.word	0
ARM GAS  /tmp/cczPxs7Y.s 			page 33


 1458 020c 00000080 		.word	-2147483648
 1459 0210 00000080 		.word	-2147483648
 1460 0214 00000080 		.word	-2147483648
 1461 0218 00000000 		.word	0
 1462 021c 00000080 		.word	-2147483648
 1463 0220 00000080 		.word	-2147483648
 1464 0224 00000000 		.word	0
 1465 0228 0000803F 		.word	1065353216
 1466 022c AC4BCC42 		.word	1120684972
 1467 0230 00000000 		.word	0
 1468 0234 00000000 		.space	28
 1468      00000000 
 1468      00000000 
 1468      00000000 
 1468      00000000 
 1469 0250 00000080 		.word	-2147483648
 1470 0254 00000000 		.word	0
 1471 0258 00000000 		.word	0
 1472 025c 7BD2FD41 		.word	1107153531
 1473 0260 00000000 		.word	0
 1474 0264 00000000 		.word	0
 1475 0268 73FBFC41 		.word	1107098483
 1476 026c 00000000 		.word	0
 1477 0270 00000080 		.word	-2147483648
 1478 0274 00000080 		.word	-2147483648
 1479 0278 00000000 		.word	0
 1480 027c CDACA539 		.word	967158989
 1481 0280 00000000 		.word	0
 1482 0284 BD521140 		.word	1074877117
 1483 0288 00000000 		.word	0
 1484 028c 00000000 		.word	0
 1485 0290 61C5393E 		.word	1043973473
 1486 0294 00000080 		.word	-2147483648
 1487 0298 00000080 		.word	-2147483648
 1488 029c FD6AB6BE 		.word	-1095341315
 1489 02a0 00000000 		.word	0
 1490 02a4 00000080 		.word	-2147483648
 1491 02a8 00000000 		.word	0
 1492 02ac 61FD4F42 		.word	1112538465
 1493 02b0 00000080 		.word	-2147483648
 1494 02b4 00000000 		.word	0
 1495 02b8 6A1F0841 		.word	1091051370
 1496 02bc 00000000 		.word	0
 1497 02c0 00000000 		.word	0
 1498 02c4 00000080 		.word	-2147483648
 1499 02c8 00000080 		.word	-2147483648
 1500 02cc 00000000 		.word	0
 1501 02d0 00000000 		.word	0
 1502 02d4 00000080 		.word	-2147483648
 1503 02d8 00000080 		.word	-2147483648
 1504 02dc 00000000 		.word	0
 1505 02e0 0000803F 		.word	1065353216
 1506 02e4 0358D442 		.word	1121212419
 1507 02e8 00000000 		.word	0
 1508 02ec 00000000 		.space	28
 1508      00000000 
 1508      00000000 
ARM GAS  /tmp/cczPxs7Y.s 			page 34


 1508      00000000 
 1508      00000000 
 1509 0308 00000000 		.word	0
 1510 030c 00000000 		.word	0
 1511 0310 00000080 		.word	-2147483648
 1512 0314 7BD2FD41 		.word	1107153531
 1513 0318 00000080 		.word	-2147483648
 1514 031c 00000000 		.word	0
 1515 0320 73FBFC41 		.word	1107098483
 1516 0324 00000080 		.word	-2147483648
 1517 0328 00000000 		.word	0
 1518 032c 00000080 		.word	-2147483648
 1519 0330 00000000 		.word	0
 1520 0334 CDACA539 		.word	967158989
 1521 0338 00000000 		.word	0
 1522 033c A7951140 		.word	1074894247
 1523 0340 00000080 		.word	-2147483648
 1524 0344 00000000 		.word	0
 1525 0348 7B12383E 		.word	1043862139
 1526 034c 00000080 		.word	-2147483648
 1527 0350 00000000 		.word	0
 1528 0354 5BCFB8BE 		.word	-1095184549
 1529 0358 00000080 		.word	-2147483648
 1530 035c 00000080 		.word	-2147483648
 1531 0360 00000080 		.word	-2147483648
 1532 0364 73DD5242 		.word	1112726899
 1533 0368 00000080 		.word	-2147483648
 1534 036c 00000080 		.word	-2147483648
 1535 0370 F2D50341 		.word	1090770418
 1536 0374 00000000 		.word	0
 1537 0378 00000080 		.word	-2147483648
 1538 037c 00000080 		.word	-2147483648
 1539 0380 00000080 		.word	-2147483648
 1540 0384 00000080 		.word	-2147483648
 1541 0388 00000000 		.word	0
 1542 038c 00000000 		.word	0
 1543 0390 00000080 		.word	-2147483648
 1544 0394 00000080 		.word	-2147483648
 1545 0398 0000803F 		.word	1065353216
 1546 039c 64B2DC42 		.word	1121759844
 1547 03a0 00000000 		.word	0
 1548 03a4 00000000 		.space	28
 1548      00000000 
 1548      00000000 
 1548      00000000 
 1548      00000000 
 1549 03c0 00000080 		.word	-2147483648
 1550 03c4 00000000 		.word	0
 1551 03c8 00000000 		.word	0
 1552 03cc 7BD2FD41 		.word	1107153531
 1553 03d0 00000000 		.word	0
 1554 03d4 00000000 		.word	0
 1555 03d8 73FBFC41 		.word	1107098483
 1556 03dc 00000000 		.word	0
 1557 03e0 00000000 		.word	0
 1558 03e4 00000080 		.word	-2147483648
 1559 03e8 00000000 		.word	0
ARM GAS  /tmp/cczPxs7Y.s 			page 35


 1560 03ec CDACA539 		.word	967158989
 1561 03f0 00000080 		.word	-2147483648
 1562 03f4 55DD1140 		.word	1074912597
 1563 03f8 00000000 		.word	0
 1564 03fc 00000000 		.word	0
 1565 0400 3257363E 		.word	1043748658
 1566 0404 00000000 		.word	0
 1567 0408 00000080 		.word	-2147483648
 1568 040c F260BBBE 		.word	-1095016206
 1569 0410 00000000 		.word	0
 1570 0414 00000080 		.word	-2147483648
 1571 0418 00000000 		.word	0
 1572 041c 44EB5542 		.word	1112927044
 1573 0420 00000080 		.word	-2147483648
 1574 0424 00000000 		.word	0
 1575 0428 348FFF40 		.word	1090490164
 1576 042c 00000000 		.word	0
 1577 0430 00000080 		.word	-2147483648
 1578 0434 00000080 		.word	-2147483648
 1579 0438 00000000 		.word	0
 1580 043c 00000080 		.word	-2147483648
 1581 0440 00000000 		.word	0
 1582 0444 00000000 		.word	0
 1583 0448 00000080 		.word	-2147483648
 1584 044c 00000080 		.word	-2147483648
 1585 0450 0000803F 		.word	1065353216
 1586 0454 6C6AE542 		.word	1122331244
 1587 0458 00000000 		.word	0
 1588 045c 00000000 		.space	28
 1588      00000000 
 1588      00000000 
 1588      00000000 
 1588      00000000 
 1589 0478 00000080 		.word	-2147483648
 1590 047c 00000000 		.word	0
 1591 0480 00000000 		.word	0
 1592 0484 7BD2FD41 		.word	1107153531
 1593 0488 00000000 		.word	0
 1594 048c 00000080 		.word	-2147483648
 1595 0490 73FBFC41 		.word	1107098483
 1596 0494 00000000 		.word	0
 1597 0498 00000000 		.word	0
 1598 049c 00000000 		.word	0
 1599 04a0 00000000 		.word	0
 1600 04a4 CDACA539 		.word	967158989
 1601 04a8 00000080 		.word	-2147483648
 1602 04ac 7C2A1240 		.word	1074932348
 1603 04b0 00000080 		.word	-2147483648
 1604 04b4 00000000 		.word	0
 1605 04b8 2A91343E 		.word	1043632426
 1606 04bc 00000000 		.word	0
 1607 04c0 00000080 		.word	-2147483648
 1608 04c4 4E26BEBE 		.word	-1094834610
 1609 04c8 00000000 		.word	0
 1610 04cc 00000000 		.word	0
 1611 04d0 00000080 		.word	-2147483648
 1612 04d4 E42D5942 		.word	1113140708
ARM GAS  /tmp/cczPxs7Y.s 			page 36


 1613 04d8 00000000 		.word	0
 1614 04dc 00000080 		.word	-2147483648
 1615 04e0 BCD8F740 		.word	1089984700
 1616 04e4 00000000 		.word	0
 1617 04e8 00000000 		.word	0
 1618 04ec 00000000 		.word	0
 1619 04f0 00000080 		.word	-2147483648
 1620 04f4 00000000 		.word	0
 1621 04f8 00000080 		.word	-2147483648
 1622 04fc 00000000 		.word	0
 1623 0500 00000000 		.word	0
 1624 0504 00000000 		.word	0
 1625 0508 00000040 		.word	1073741824
 1626 050c 1A250243 		.word	1124214042
 1627 0510 00000000 		.word	0
 1628 0514 00000000 		.space	28
 1628      00000000 
 1628      00000000 
 1628      00000000 
 1628      00000000 
 1629 0530 00000080 		.word	-2147483648
 1630 0534 00000080 		.word	-2147483648
 1631 0538 00000000 		.word	0
 1632 053c E9D1FD41 		.word	1107153385
 1633 0540 00000000 		.word	0
 1634 0544 00000000 		.word	0
 1635 0548 73FBFC41 		.word	1107098483
 1636 054c 00000000 		.word	0
 1637 0550 00000080 		.word	-2147483648
 1638 0554 00000000 		.word	0
 1639 0558 00000000 		.word	0
 1640 055c CDACA539 		.word	967158989
 1641 0560 00000080 		.word	-2147483648
 1642 0564 75911240 		.word	1074958709
 1643 0568 00000080 		.word	-2147483648
 1644 056c 00000000 		.word	0
 1645 0570 44FA2D3E 		.word	1043200580
 1646 0574 00000080 		.word	-2147483648
 1647 0578 00000000 		.word	0
 1648 057c B69FCCBE 		.word	-1093886026
 1649 0580 00000080 		.word	-2147483648
 1650 0584 00000080 		.word	-2147483648
 1651 0588 00000080 		.word	-2147483648
 1652 058c 07206642 		.word	1113989127
 1653 0590 00000080 		.word	-2147483648
 1654 0594 00000080 		.word	-2147483648
 1655 0598 8FA6E140 		.word	1088530063
 1656 059c 00000000 		.word	0
 1657 05a0 00000000 		.word	0
 1658 05a4 00000080 		.word	-2147483648
 1659 05a8 00000000 		.word	0
 1660 05ac 00000080 		.word	-2147483648
 1661 05b0 00000080 		.word	-2147483648
 1662 05b4 00000080 		.word	-2147483648
 1663 05b8 00000080 		.word	-2147483648
 1664 05bc 00000000 		.word	0
 1665 05c0 00000040 		.word	1073741824
ARM GAS  /tmp/cczPxs7Y.s 			page 37


 1666 05c4 7CB10743 		.word	1124577660
 1667 05c8 00000000 		.word	0
 1668 05cc 00000000 		.space	28
 1668      00000000 
 1668      00000000 
 1668      00000000 
 1668      00000000 
 1669 05e8 00000080 		.word	-2147483648
 1670 05ec 00000080 		.word	-2147483648
 1671 05f0 00000000 		.word	0
 1672 05f4 E9D1FD41 		.word	1107153385
 1673 05f8 00000000 		.word	0
 1674 05fc 00000080 		.word	-2147483648
 1675 0600 73FBFC41 		.word	1107098483
 1676 0604 00000000 		.word	0
 1677 0608 00000000 		.word	0
 1678 060c 00000000 		.word	0
 1679 0610 00000000 		.word	0
 1680 0614 CDACA539 		.word	967158989
 1681 0618 00000080 		.word	-2147483648
 1682 061c DA001340 		.word	1074987226
 1683 0620 00000000 		.word	0
 1684 0624 00000000 		.word	0
 1685 0628 9EEB2B3E 		.word	1043065758
 1686 062c 00000080 		.word	-2147483648
 1687 0630 00000000 		.word	0
 1688 0634 59C4D0BE 		.word	-1093614503
 1689 0638 00000000 		.word	0
 1690 063c 00000000 		.word	0
 1691 0640 00000000 		.word	0
 1692 0644 E4B96A42 		.word	1114290660
 1693 0648 00000000 		.word	0
 1694 064c 00000000 		.word	0
 1695 0650 DC2ADB40 		.word	1088105180
 1696 0654 00000000 		.word	0
 1697 0658 00000000 		.word	0
 1698 065c 00000080 		.word	-2147483648
 1699 0660 00000080 		.word	-2147483648
 1700 0664 00000000 		.word	0
 1701 0668 00000080 		.word	-2147483648
 1702 066c 00000080 		.word	-2147483648
 1703 0670 00000000 		.word	0
 1704 0674 00000080 		.word	-2147483648
 1705 0678 00000040 		.word	1073741824
 1706 067c 4D7C0D43 		.word	1124957261
 1707 0680 00000000 		.word	0
 1708 0684 00000000 		.space	28
 1708      00000000 
 1708      00000000 
 1708      00000000 
 1708      00000000 
 1709 06a0 00000000 		.word	0
 1710 06a4 00000080 		.word	-2147483648
 1711 06a8 00000000 		.word	0
 1712 06ac E9D1FD41 		.word	1107153385
 1713 06b0 00000000 		.word	0
 1714 06b4 00000080 		.word	-2147483648
ARM GAS  /tmp/cczPxs7Y.s 			page 38


 1715 06b8 73FBFC41 		.word	1107098483
 1716 06bc 00000000 		.word	0
 1717 06c0 00000080 		.word	-2147483648
 1718 06c4 00000000 		.word	0
 1719 06c8 00000000 		.word	0
 1720 06cc CDACA539 		.word	967158989
 1721 06d0 00000080 		.word	-2147483648
 1722 06d4 AB781340 		.word	1075017899
 1723 06d8 00000080 		.word	-2147483648
 1724 06dc 00000000 		.word	0
 1725 06e0 89D3293E 		.word	1042928521
 1726 06e4 00000080 		.word	-2147483648
 1727 06e8 00000080 		.word	-2147483648
 1728 06ec 363CD5BE 		.word	-1093321674
 1729 06f0 00000000 		.word	0
 1730 06f4 00000000 		.word	0
 1731 06f8 00000080 		.word	-2147483648
 1732 06fc 52A36F42 		.word	1114612562
 1733 0700 00000000 		.word	0
 1734 0704 00000080 		.word	-2147483648
 1735 0708 5716D540 		.word	1087706711
 1736 070c 00000000 		.word	0
 1737 0710 00000080 		.word	-2147483648
 1738 0714 00000080 		.word	-2147483648
 1739 0718 00000000 		.word	0
 1740 071c 00000080 		.word	-2147483648
 1741 0720 00000000 		.word	0
 1742 0724 00000000 		.word	0
 1743 0728 00000080 		.word	-2147483648
 1744 072c 00000000 		.word	0
 1745 0730 00000040 		.word	1073741824
 1746 0734 8E851343 		.word	1125352846
 1747 0738 00000000 		.word	0
 1748 073c 00000000 		.space	28
 1748      00000000 
 1748      00000000 
 1748      00000000 
 1748      00000000 
 1749 0758 00000000 		.word	0
 1750 075c 00000080 		.word	-2147483648
 1751 0760 00000080 		.word	-2147483648
 1752 0764 E9D1FD41 		.word	1107153385
 1753 0768 00000080 		.word	-2147483648
 1754 076c 00000080 		.word	-2147483648
 1755 0770 73FBFC41 		.word	1107098483
 1756 0774 00000080 		.word	-2147483648
 1757 0778 00000080 		.word	-2147483648
 1758 077c 00000080 		.word	-2147483648
 1759 0780 00000080 		.word	-2147483648
 1760 0784 CDACA539 		.word	967158989
 1761 0788 00000080 		.word	-2147483648
 1762 078c 38F91340 		.word	1075050808
 1763 0790 00000000 		.word	0
 1764 0794 00000000 		.word	0
 1765 0798 53B3273E 		.word	1042789203
 1766 079c 00000080 		.word	-2147483648
 1767 07a0 00000080 		.word	-2147483648
ARM GAS  /tmp/cczPxs7Y.s 			page 39


 1768 07a4 A20BDABE 		.word	-1093006430
 1769 07a8 00000000 		.word	0
 1770 07ac 00000000 		.word	0
 1771 07b0 00000080 		.word	-2147483648
 1772 07b4 4EDF7442 		.word	1114955598
 1773 07b8 00000000 		.word	0
 1774 07bc 00000080 		.word	-2147483648
 1775 07c0 2368CF40 		.word	1087334435
 1776 07c4 00000000 		.word	0
 1777 07c8 00000000 		.word	0
 1778 07cc 00000080 		.word	-2147483648
 1779 07d0 00000080 		.word	-2147483648
 1780 07d4 00000080 		.word	-2147483648
 1781 07d8 00000080 		.word	-2147483648
 1782 07dc 00000000 		.word	0
 1783 07e0 00000080 		.word	-2147483648
 1784 07e4 00000080 		.word	-2147483648
 1785 07e8 00000040 		.word	1073741824
 1786 07ec 60501943 		.word	1125732448
 1787 07f0 00000000 		.word	0
 1788 07f4 00000000 		.space	28
 1788      00000000 
 1788      00000000 
 1788      00000000 
 1788      00000000 
 1789 0810 00000080 		.word	-2147483648
 1790 0814 00000080 		.word	-2147483648
 1791 0818 00000000 		.word	0
 1792 081c E9D1FD41 		.word	1107153385
 1793 0820 00000000 		.word	0
 1794 0824 00000080 		.word	-2147483648
 1795 0828 73FBFC41 		.word	1107098483
 1796 082c 00000000 		.word	0
 1797 0830 00000080 		.word	-2147483648
 1798 0834 00000000 		.word	0
 1799 0838 00000000 		.word	0
 1800 083c CDACA539 		.word	967158989
 1801 0840 00000000 		.word	0
 1802 0844 FB771440 		.word	1075083259
 1803 0848 00000080 		.word	-2147483648
 1804 084c 00000000 		.word	0
 1805 0850 C3B6253E 		.word	1042659011
 1806 0854 00000080 		.word	-2147483648
 1807 0858 00000000 		.word	0
 1808 085c 42CFDEBE 		.word	-1092694206
 1809 0860 00000000 		.word	0
 1810 0864 00000000 		.word	0
 1811 0868 00000000 		.word	0
 1812 086c 23017A42 		.word	1115291939
 1813 0870 00000000 		.word	0
 1814 0874 00000000 		.word	0
 1815 0878 8482CA40 		.word	1087013508
 1816 087c 00000000 		.word	0
 1817 0880 00000080 		.word	-2147483648
 1818 0884 00000000 		.word	0
 1819 0888 00000080 		.word	-2147483648
 1820 088c 00000080 		.word	-2147483648
ARM GAS  /tmp/cczPxs7Y.s 			page 40


 1821 0890 00000000 		.word	0
 1822 0894 00000000 		.word	0
 1823 0898 00000000 		.word	0
 1824 089c 00000000 		.word	0
 1825 08a0 00000040 		.word	1073741824
 1826 08a4 A0591F43 		.word	1126128032
 1827 08a8 00000000 		.word	0
 1828 08ac 00000000 		.space	28
 1828      00000000 
 1828      00000000 
 1828      00000000 
 1828      00000000 
 1829 08c8 00000000 		.word	0
 1830 08cc 00000000 		.word	0
 1831 08d0 00000000 		.word	0
 1832 08d4 E9D1FD41 		.word	1107153385
 1833 08d8 00000000 		.word	0
 1834 08dc 00000080 		.word	-2147483648
 1835 08e0 73FBFC41 		.word	1107098483
 1836 08e4 00000000 		.word	0
 1837 08e8 00000080 		.word	-2147483648
 1838 08ec 00000000 		.word	0
 1839 08f0 00000000 		.word	0
 1840 08f4 CDACA539 		.word	967158989
 1841 08f8 00000080 		.word	-2147483648
 1842 08fc 7AFF1440 		.word	1075117946
 1843 0900 00000080 		.word	-2147483648
 1844 0904 00000000 		.word	0
 1845 0908 9AB2233E 		.word	1042526874
 1846 090c 00000080 		.word	-2147483648
 1847 0910 00000080 		.word	-2147483648
 1848 0914 B7EDE3BE 		.word	-1092358729
 1849 0918 00000080 		.word	-2147483648
 1850 091c 00000000 		.word	0
 1851 0920 00000080 		.word	-2147483648
 1852 0924 2F777F42 		.word	1115649839
 1853 0928 00000000 		.word	0
 1854 092c 00000080 		.word	-2147483648
 1855 0930 D1EAC540 		.word	1086712529
 1856 0934 00000000 		.word	0
 1857 0938 00000080 		.word	-2147483648
 1858 093c 00000000 		.word	0
 1859 0940 00000000 		.word	0
 1860 0944 00000080 		.word	-2147483648
 1861 0948 00000000 		.word	0
 1862 094c 00000080 		.word	-2147483648
 1863 0950 00000080 		.word	-2147483648
 1864 0954 00000000 		.word	0
 1865 0958 00000040 		.word	1073741824
 1866 095c 50A12543 		.word	1126539600
 1867 0960 00000000 		.word	0
 1868 0964 00000000 		.space	28
 1868      00000000 
 1868      00000000 
 1868      00000000 
 1868      00000000 
 1869 0980 00000000 		.word	0
ARM GAS  /tmp/cczPxs7Y.s 			page 41


 1870 0984 00000080 		.word	-2147483648
 1871 0988 00000000 		.word	0
 1872 098c E9D1FD41 		.word	1107153385
 1873 0990 00000000 		.word	0
 1874 0994 00000080 		.word	-2147483648
 1875 0998 73FBFC41 		.word	1107098483
 1876 099c 00000000 		.word	0
 1877 09a0 00000080 		.word	-2147483648
 1878 09a4 00000080 		.word	-2147483648
 1879 09a8 00000000 		.word	0
 1880 09ac CDACA539 		.word	967158989
 1881 09b0 00000000 		.word	0
 1882 09b4 F78F1540 		.word	1075154935
 1883 09b8 00000080 		.word	-2147483648
 1884 09bc 00000000 		.word	0
 1885 09c0 E3A7213E 		.word	1042393059
 1886 09c4 00000080 		.word	-2147483648
 1887 09c8 00000000 		.word	0
 1888 09cc A46CE9BE 		.word	-1091998556
 1889 09d0 00000080 		.word	-2147483648
 1890 09d4 00000000 		.word	0
 1891 09d8 00000080 		.word	-2147483648
 1892 09dc 6FA28242 		.word	1115857519
 1893 09e0 00000000 		.word	0
 1894 09e4 00000080 		.word	-2147483648
 1895 09e8 68A1C140 		.word	1086431592
 1896 09ec 00000000 		.word	0
 1897 09f0 00000000 		.word	0
 1898 09f4 00000000 		.word	0
 1899 09f8 00000080 		.word	-2147483648
 1900 09fc 00000000 		.word	0
 1901 0a00 00000080 		.word	-2147483648
 1902 0a04 00000080 		.word	-2147483648
 1903 0a08 00000000 		.word	0
 1904 0a0c 00000080 		.word	-2147483648
 1905 0a10 00004040 		.word	1077936128
 1906 0a14 032AE542 		.word	1122314755
 1907 0a18 00000000 		.word	0
 1908 0a1c 00000000 		.space	28
 1908      00000000 
 1908      00000000 
 1908      00000000 
 1908      00000000 
 1909 0a38 00000080 		.word	-2147483648
 1910 0a3c 00000000 		.word	0
 1911 0a40 00000080 		.word	-2147483648
 1912 0a44 58D1FD41 		.word	1107153240
 1913 0a48 00000080 		.word	-2147483648
 1914 0a4c 00000000 		.word	0
 1915 0a50 73FBFC41 		.word	1107098483
 1916 0a54 00000080 		.word	-2147483648
 1917 0a58 00000000 		.word	0
 1918 0a5c 00000080 		.word	-2147483648
 1919 0a60 00000000 		.word	0
 1920 0a64 CDACA539 		.word	967158989
 1921 0a68 00000080 		.word	-2147483648
 1922 0a6c D1AE1040 		.word	1074835153
ARM GAS  /tmp/cczPxs7Y.s 			page 42


 1923 0a70 00000000 		.word	0
 1924 0a74 00000000 		.word	0
 1925 0a78 4870333E 		.word	1043558472
 1926 0a7c 00000080 		.word	-2147483648
 1927 0a80 00000080 		.word	-2147483648
 1928 0a84 9B8DC5BE 		.word	-1094349413
 1929 0a88 00000080 		.word	-2147483648
 1930 0a8c 00000080 		.word	-2147483648
 1931 0a90 00000000 		.word	0
 1932 0a94 A9845A42 		.word	1113228457
 1933 0a98 00000080 		.word	-2147483648
 1934 0a9c 00000000 		.word	0
 1935 0aa0 FE39F840 		.word	1090009598
 1936 0aa4 00000000 		.word	0
 1937 0aa8 00000080 		.word	-2147483648
 1938 0aac 00000080 		.word	-2147483648
 1939 0ab0 00000000 		.word	0
 1940 0ab4 00000000 		.word	0
 1941 0ab8 00000000 		.word	0
 1942 0abc 00000000 		.word	0
 1943 0ac0 00000000 		.word	0
 1944 0ac4 00000080 		.word	-2147483648
 1945 0ac8 00004040 		.word	1077936128
 1946 0acc 00FBEE42 		.word	1122958080
 1947 0ad0 00000000 		.word	0
 1948 0ad4 00000000 		.space	28
 1948      00000000 
 1948      00000000 
 1948      00000000 
 1948      00000000 
 1949 0af0 00000000 		.word	0
 1950 0af4 00000080 		.word	-2147483648
 1951 0af8 00000000 		.word	0
 1952 0afc 58D1FD41 		.word	1107153240
 1953 0b00 00000080 		.word	-2147483648
 1954 0b04 00000000 		.word	0
 1955 0b08 73FBFC41 		.word	1107098483
 1956 0b0c 00000080 		.word	-2147483648
 1957 0b10 00000080 		.word	-2147483648
 1958 0b14 00000000 		.word	0
 1959 0b18 00000000 		.word	0
 1960 0b1c CDACA539 		.word	967158989
 1961 0b20 00000080 		.word	-2147483648
 1962 0b24 4F081140 		.word	1074858063
 1963 0b28 00000000 		.word	0
 1964 0b2c 00000080 		.word	-2147483648
 1965 0b30 E57C313E 		.word	1043430629
 1966 0b34 00000080 		.word	-2147483648
 1967 0b38 00000000 		.word	0
 1968 0b3c E4F5C8BE 		.word	-1094126108
 1969 0b40 00000080 		.word	-2147483648
 1970 0b44 00000080 		.word	-2147483648
 1971 0b48 00000000 		.word	0
 1972 0b4c 765C5E42 		.word	1113480310
 1973 0b50 00000080 		.word	-2147483648
 1974 0b54 00000000 		.word	0
 1975 0b58 FD5DF040 		.word	1089494525
ARM GAS  /tmp/cczPxs7Y.s 			page 43


 1976 0b5c 00000000 		.word	0
 1977 0b60 00000080 		.word	-2147483648
 1978 0b64 00000080 		.word	-2147483648
 1979 0b68 00000080 		.word	-2147483648
 1980 0b6c 00000080 		.word	-2147483648
 1981 0b70 00000000 		.word	0
 1982 0b74 00000080 		.word	-2147483648
 1983 0b78 00000080 		.word	-2147483648
 1984 0b7c 00000080 		.word	-2147483648
 1985 0b80 00004040 		.word	1077936128
 1986 0b84 A329F942 		.word	1123625379
 1987 0b88 00000000 		.word	0
 1988 0b8c 00000000 		.space	28
 1988      00000000 
 1988      00000000 
 1988      00000000 
 1988      00000000 
 1989 0ba8 00000080 		.word	-2147483648
 1990 0bac 00000080 		.word	-2147483648
 1991 0bb0 00000000 		.word	0
 1992 0bb4 58D1FD41 		.word	1107153240
 1993 0bb8 00000000 		.word	0
 1994 0bbc 00000000 		.word	0
 1995 0bc0 73FBFC41 		.word	1107098483
 1996 0bc4 00000000 		.word	0
 1997 0bc8 00000000 		.word	0
 1998 0bcc 00000000 		.word	0
 1999 0bd0 00000000 		.word	0
 2000 0bd4 CDACA539 		.word	967158989
 2001 0bd8 00000000 		.word	0
 2002 0bdc 27681140 		.word	1074882599
 2003 0be0 00000080 		.word	-2147483648
 2004 0be4 00000000 		.word	0
 2005 0be8 E9812F3E 		.word	1043300841
 2006 0bec 00000080 		.word	-2147483648
 2007 0bf0 00000080 		.word	-2147483648
 2008 0bf4 7C9DCCBE 		.word	-1093886596
 2009 0bf8 00000000 		.word	0
 2010 0bfc 00000080 		.word	-2147483648
 2011 0c00 00000080 		.word	-2147483648
 2012 0c04 A0706242 		.word	1113747616
 2013 0c08 00000080 		.word	-2147483648
 2014 0c0c 00000080 		.word	-2147483648
 2015 0c10 7B03E940 		.word	1089012603
 2016 0c14 00000000 		.word	0
 2017 0c18 00000080 		.word	-2147483648
 2018 0c1c 00000000 		.word	0
 2019 0c20 00000080 		.word	-2147483648
 2020 0c24 00000000 		.word	0
 2021 0c28 00000000 		.word	0
 2022 0c2c 00000000 		.word	0
 2023 0c30 00000000 		.word	0
 2024 0c34 00000080 		.word	-2147483648
 2025 0c38 00004040 		.word	1077936128
 2026 0c3c 93EA0143 		.word	1124199059
 2027 0c40 00000000 		.word	0
 2028 0c44 00000000 		.space	28
ARM GAS  /tmp/cczPxs7Y.s 			page 44


 2028      00000000 
 2028      00000000 
 2028      00000000 
 2028      00000000 
 2029 0c60 00000000 		.word	0
 2030 0c64 00000000 		.word	0
 2031 0c68 00000000 		.word	0
 2032 0c6c 58D1FD41 		.word	1107153240
 2033 0c70 00000000 		.word	0
 2034 0c74 00000000 		.word	0
 2035 0c78 73FBFC41 		.word	1107098483
 2036 0c7c 00000000 		.word	0
 2037 0c80 00000080 		.word	-2147483648
 2038 0c84 00000080 		.word	-2147483648
 2039 0c88 00000000 		.word	0
 2040 0c8c CDACA539 		.word	967158989
 2041 0c90 00000000 		.word	0
 2042 0c94 D1CF1140 		.word	1074909137
 2043 0c98 00000000 		.word	0
 2044 0c9c 00000000 		.word	0
 2045 0ca0 637B2D3E 		.word	1043168099
 2046 0ca4 00000080 		.word	-2147483648
 2047 0ca8 00000000 		.word	0
 2048 0cac AB92D0BE 		.word	-1093627221
 2049 0cb0 00000000 		.word	0
 2050 0cb4 00000080 		.word	-2147483648
 2051 0cb8 00000000 		.word	0
 2052 0cbc D8CF6642 		.word	1114034136
 2053 0cc0 00000080 		.word	-2147483648
 2054 0cc4 00000000 		.word	0
 2055 0cc8 3A12E240 		.word	1088557626
 2056 0ccc 00000000 		.word	0
 2057 0cd0 00000080 		.word	-2147483648
 2058 0cd4 00000000 		.word	0
 2059 0cd8 00000000 		.word	0
 2060 0cdc 00000000 		.word	0
 2061 0ce0 00000000 		.word	0
 2062 0ce4 00000000 		.word	0
 2063 0ce8 00000000 		.word	0
 2064 0cec 00000080 		.word	-2147483648
 2065 0cf0 00004040 		.word	1077936128
 2066 0cf4 B2090743 		.word	1124534706
 2067 0cf8 00000000 		.word	0
 2068 0cfc 00000000 		.space	28
 2068      00000000 
 2068      00000000 
 2068      00000000 
 2068      00000000 
 2069 0d18 00000000 		.word	0
 2070 0d1c 00000000 		.word	0
 2071 0d20 00000000 		.word	0
 2072 0d24 58D1FD41 		.word	1107153240
 2073 0d28 00000000 		.word	0
 2074 0d2c 00000000 		.word	0
 2075 0d30 73FBFC41 		.word	1107098483
 2076 0d34 00000000 		.word	0
 2077 0d38 00000080 		.word	-2147483648
ARM GAS  /tmp/cczPxs7Y.s 			page 45


 2078 0d3c 00000000 		.word	0
 2079 0d40 00000000 		.word	0
 2080 0d44 CDACA539 		.word	967158989
 2081 0d48 00000080 		.word	-2147483648
 2082 0d4c 50361240 		.word	1074935376
 2083 0d50 00000000 		.word	0
 2084 0d54 00000000 		.word	0
 2085 0d58 D9942B3E 		.word	1043043545
 2086 0d5c 00000080 		.word	-2147483648
 2087 0d60 00000080 		.word	-2147483648
 2088 0d64 4A7ED4BE 		.word	-1093370294
 2089 0d68 00000000 		.word	0
 2090 0d6c 00000080 		.word	-2147483648
 2091 0d70 00000000 		.word	0
 2092 0d74 B4196B42 		.word	1114315188
 2093 0d78 00000080 		.word	-2147483648
 2094 0d7c 00000000 		.word	0
 2095 0d80 540DDC40 		.word	1088163156
 2096 0d84 00000000 		.word	0
 2097 0d88 00000080 		.word	-2147483648
 2098 0d8c 00000000 		.word	0
 2099 0d90 00000080 		.word	-2147483648
 2100 0d94 00000000 		.word	0
 2101 0d98 00000000 		.word	0
 2102 0d9c 00000080 		.word	-2147483648
 2103 0da0 00000000 		.word	0
 2104 0da4 00000000 		.word	0
 2105 0da8 00004040 		.word	1077936128
 2106 0dac A5570C43 		.word	1124882341
 2107 0db0 00000000 		.word	0
 2108 0db4 00000000 		.space	28
 2108      00000000 
 2108      00000000 
 2108      00000000 
 2108      00000000 
 2109 0dd0 00000080 		.word	-2147483648
 2110 0dd4 00000080 		.word	-2147483648
 2111 0dd8 00000000 		.word	0
 2112 0ddc 58D1FD41 		.word	1107153240
 2113 0de0 00000000 		.word	0
 2114 0de4 00000080 		.word	-2147483648
 2115 0de8 73FBFC41 		.word	1107098483
 2116 0dec 00000000 		.word	0
 2117 0df0 00000080 		.word	-2147483648
 2118 0df4 00000000 		.word	0
 2119 0df8 00000080 		.word	-2147483648
 2120 0dfc CDACA539 		.word	967158989
 2121 0e00 00000080 		.word	-2147483648
 2122 0e04 72A31240 		.word	1074963314
 2123 0e08 00000000 		.word	0
 2124 0e0c 00000000 		.word	0
 2125 0e10 8BA8293E 		.word	1042917515
 2126 0e14 00000080 		.word	-2147483648
 2127 0e18 00000000 		.word	0
 2128 0e1c 47ADD8BE 		.word	-1093096121
 2129 0e20 00000080 		.word	-2147483648
 2130 0e24 00000080 		.word	-2147483648
ARM GAS  /tmp/cczPxs7Y.s 			page 46


 2131 0e28 00000080 		.word	-2147483648
 2132 0e2c 60A26F42 		.word	1114612320
 2133 0e30 00000080 		.word	-2147483648
 2134 0e34 00000080 		.word	-2147483648
 2135 0e38 E667D640 		.word	1087793126
 2136 0e3c 00000000 		.word	0
 2137 0e40 00000000 		.word	0
 2138 0e44 00000000 		.word	0
 2139 0e48 00000000 		.word	0
 2140 0e4c 00000080 		.word	-2147483648
 2141 0e50 00000080 		.word	-2147483648
 2142 0e54 00000000 		.word	0
 2143 0e58 00000080 		.word	-2147483648
 2144 0e5c 00000080 		.word	-2147483648
 2145 0e60 00004040 		.word	1077936128
 2146 0e64 3ADC1143 		.word	1125243962
 2147 0e68 00000000 		.word	0
 2148 0e6c 00000000 		.space	28
 2148      00000000 
 2148      00000000 
 2148      00000000 
 2148      00000000 
 2149 0e88 00000080 		.word	-2147483648
 2150 0e8c 00000080 		.word	-2147483648
 2151 0e90 00000000 		.word	0
 2152 0e94 58D1FD41 		.word	1107153240
 2153 0e98 00000000 		.word	0
 2154 0e9c 00000080 		.word	-2147483648
 2155 0ea0 73FBFC41 		.word	1107098483
 2156 0ea4 00000000 		.word	0
 2157 0ea8 00000000 		.word	0
 2158 0eac 00000000 		.word	0
 2159 0eb0 00000080 		.word	-2147483648
 2160 0eb4 CDACA539 		.word	967158989
 2161 0eb8 00000000 		.word	0
 2162 0ebc 16181340 		.word	1074993174
 2163 0ec0 00000000 		.word	0
 2164 0ec4 00000000 		.word	0
 2165 0ec8 E5B4273E 		.word	1042789605
 2166 0ecc 00000080 		.word	-2147483648
 2167 0ed0 00000000 		.word	0
 2168 0ed4 3529DDBE 		.word	-1092802251
 2169 0ed8 00000000 		.word	0
 2170 0edc 00000000 		.word	0
 2171 0ee0 00000000 		.word	0
 2172 0ee4 BF727442 		.word	1114927807
 2173 0ee8 00000000 		.word	0
 2174 0eec 00000000 		.word	0
 2175 0ef0 3518D140 		.word	1087445045
 2176 0ef4 00000000 		.word	0
 2177 0ef8 00000000 		.word	0
 2178 0efc 00000080 		.word	-2147483648
 2179 0f00 00000080 		.word	-2147483648
 2180 0f04 00000080 		.word	-2147483648
 2181 0f08 00000080 		.word	-2147483648
 2182 0f0c 00000080 		.word	-2147483648
 2183 0f10 00000080 		.word	-2147483648
ARM GAS  /tmp/cczPxs7Y.s 			page 47


 2184 0f14 00000080 		.word	-2147483648
 2185 0f18 00008040 		.word	1082130432
 2186 0f1c 57B3C942 		.word	1120514903
 2187 0f20 00000000 		.word	0
 2188 0f24 00000000 		.space	28
 2188      00000000 
 2188      00000000 
 2188      00000000 
 2188      00000000 
 2189 0f40 00000080 		.word	-2147483648
 2190 0f44 00000000 		.word	0
 2191 0f48 00000080 		.word	-2147483648
 2192 0f4c C6D0FD41 		.word	1107153094
 2193 0f50 00000080 		.word	-2147483648
 2194 0f54 00000000 		.word	0
 2195 0f58 73FBFC41 		.word	1107098483
 2196 0f5c 00000080 		.word	-2147483648
 2197 0f60 00000000 		.word	0
 2198 0f64 00000000 		.word	0
 2199 0f68 00000000 		.word	0
 2200 0f6c CDACA539 		.word	967158989
 2201 0f70 00000000 		.word	0
 2202 0f74 21070F40 		.word	1074726689
 2203 0f78 00000080 		.word	-2147483648
 2204 0f7c 00000000 		.word	0
 2205 0f80 EC87383E 		.word	1043892204
 2206 0f84 00000080 		.word	-2147483648
 2207 0f88 00000000 		.word	0
 2208 0f8c 535DC0BE 		.word	-1094689453
 2209 0f90 00000000 		.word	0
 2210 0f94 00000080 		.word	-2147483648
 2211 0f98 00000080 		.word	-2147483648
 2212 0f9c 14E55042 		.word	1112597780
 2213 0fa0 00000080 		.word	-2147483648
 2214 0fa4 00000080 		.word	-2147483648
 2215 0fa8 00A60941 		.word	1091151360
 2216 0fac 00000000 		.word	0
 2217 0fb0 00000000 		.word	0
 2218 0fb4 00000000 		.word	0
 2219 0fb8 00000000 		.word	0
 2220 0fbc 00000000 		.word	0
 2221 0fc0 00000080 		.word	-2147483648
 2222 0fc4 00000000 		.word	0
 2223 0fc8 00000000 		.word	0
 2224 0fcc 00000000 		.word	0
 2225 0fd0 00008040 		.word	1082130432
 2226 0fd4 284CD242 		.word	1121078312
 2227 0fd8 00000000 		.word	0
 2228 0fdc 00000000 		.space	28
 2228      00000000 
 2228      00000000 
 2228      00000000 
 2228      00000000 
 2229 0ff8 00000000 		.word	0
 2230 0ffc 00000080 		.word	-2147483648
 2231 1000 00000080 		.word	-2147483648
 2232 1004 C6D0FD41 		.word	1107153094
ARM GAS  /tmp/cczPxs7Y.s 			page 48


 2233 1008 00000000 		.word	0
 2234 100c 00000080 		.word	-2147483648
 2235 1010 73FBFC41 		.word	1107098483
 2236 1014 00000000 		.word	0
 2237 1018 00000080 		.word	-2147483648
 2238 101c 00000080 		.word	-2147483648
 2239 1020 00000080 		.word	-2147483648
 2240 1024 CDACA539 		.word	967158989
 2241 1028 00000000 		.word	0
 2242 102c DB4D0F40 		.word	1074744795
 2243 1030 00000000 		.word	0
 2244 1034 00000000 		.word	0
 2245 1038 9EB6363E 		.word	1043773086
 2246 103c 00000080 		.word	-2147483648
 2247 1040 00000080 		.word	-2147483648
 2248 1044 681FC3BE 		.word	-1094508696
 2249 1048 00000080 		.word	-2147483648
 2250 104c 00000000 		.word	0
 2251 1050 00000080 		.word	-2147483648
 2252 1054 CC0F5442 		.word	1112805324
 2253 1058 00000000 		.word	0
 2254 105c 00000080 		.word	-2147483648
 2255 1060 35F80441 		.word	1090844725
 2256 1064 00000000 		.word	0
 2257 1068 00000080 		.word	-2147483648
 2258 106c 00000080 		.word	-2147483648
 2259 1070 00000080 		.word	-2147483648
 2260 1074 00000080 		.word	-2147483648
 2261 1078 00000000 		.word	0
 2262 107c 00000080 		.word	-2147483648
 2263 1080 00000080 		.word	-2147483648
 2264 1084 00000080 		.word	-2147483648
 2265 1088 00008040 		.word	1082130432
 2266 108c 9F42DB42 		.word	1121665695
 2267 1090 00000000 		.word	0
 2268 1094 00000000 		.space	28
 2268      00000000 
 2268      00000000 
 2268      00000000 
 2268      00000000 
 2269 10b0 00000080 		.word	-2147483648
 2270 10b4 00000080 		.word	-2147483648
 2271 10b8 00000080 		.word	-2147483648
 2272 10bc C6D0FD41 		.word	1107153094
 2273 10c0 00000000 		.word	0
 2274 10c4 00000000 		.word	0
 2275 10c8 73FBFC41 		.word	1107098483
 2276 10cc 00000000 		.word	0
 2277 10d0 00000000 		.word	0
 2278 10d4 00000080 		.word	-2147483648
 2279 10d8 00000000 		.word	0
 2280 10dc CDACA539 		.word	967158989
 2281 10e0 00000000 		.word	0
 2282 10e4 249A0F40 		.word	1074764324
 2283 10e8 00000080 		.word	-2147483648
 2284 10ec 00000000 		.word	0
 2285 10f0 16DB343E 		.word	1043651350
ARM GAS  /tmp/cczPxs7Y.s 			page 49


 2286 10f4 00000080 		.word	-2147483648
 2287 10f8 00000080 		.word	-2147483648
 2288 10fc C51AC6BE 		.word	-1094313275
 2289 1100 00000080 		.word	-2147483648
 2290 1104 00000000 		.word	0
 2291 1108 00000080 		.word	-2147483648
 2292 110c 05725742 		.word	1113027077
 2293 1110 00000000 		.word	0
 2294 1114 00000080 		.word	-2147483648
 2295 1118 7E8E0041 		.word	1090555518
 2296 111c 00000000 		.word	0
 2297 1120 00000080 		.word	-2147483648
 2298 1124 00000000 		.word	0
 2299 1128 00000080 		.word	-2147483648
 2300 112c 00000000 		.word	0
 2301 1130 00000000 		.word	0
 2302 1134 00000000 		.word	0
 2303 1138 00000000 		.word	0
 2304 113c 00000080 		.word	-2147483648
 2305 1140 00008040 		.word	1082130432
 2306 1144 59A6E442 		.word	1122281049
 2307 1148 00000000 		.word	0
 2308 114c 00000000 		.space	28
 2308      00000000 
 2308      00000000 
 2308      00000000 
 2308      00000000 
 2309 1168 00000080 		.word	-2147483648
 2310 116c 00000000 		.word	0
 2311 1170 00000080 		.word	-2147483648
 2312 1174 C6D0FD41 		.word	1107153094
 2313 1178 00000080 		.word	-2147483648
 2314 117c 00000080 		.word	-2147483648
 2315 1180 73FBFC41 		.word	1107098483
 2316 1184 00000080 		.word	-2147483648
 2317 1188 00000080 		.word	-2147483648
 2318 118c 00000000 		.word	0
 2319 1190 00000000 		.word	0
 2320 1194 CDACA539 		.word	967158989
 2321 1198 00000080 		.word	-2147483648
 2322 119c C4EC0F40 		.word	1074785476
 2323 11a0 00000000 		.word	0
 2324 11a4 00000080 		.word	-2147483648
 2325 11a8 B6F2323E 		.word	1043526326
 2326 11ac 00000080 		.word	-2147483648
 2327 11b0 00000000 		.word	0
 2328 11b4 E256C9BE 		.word	-1094101278
 2329 11b8 00000000 		.word	0
 2330 11bc 00000000 		.word	0
 2331 11c0 00000000 		.word	0
 2332 11c4 6B135B42 		.word	1113265003
 2333 11c8 00000000 		.word	0
 2334 11cc 00000000 		.word	0
 2335 11d0 D5C1F840 		.word	1090044373
 2336 11d4 00000000 		.word	0
 2337 11d8 00000000 		.word	0
 2338 11dc 00000000 		.word	0
ARM GAS  /tmp/cczPxs7Y.s 			page 50


 2339 11e0 00000080 		.word	-2147483648
 2340 11e4 00000000 		.word	0
 2341 11e8 00000080 		.word	-2147483648
 2342 11ec 00000080 		.word	-2147483648
 2343 11f0 00000000 		.word	0
 2344 11f4 00000000 		.word	0
 2345 11f8 00008040 		.word	1082130432
 2346 11fc 6CACED42 		.word	1122872428
 2347 1200 00000000 		.word	0
 2348 1204 00000000 		.space	28
 2348      00000000 
 2348      00000000 
 2348      00000000 
 2348      00000000 
 2349 1220 00000000 		.word	0
 2350 1224 00000000 		.word	0
 2351 1228 00000080 		.word	-2147483648
 2352 122c C6D0FD41 		.word	1107153094
 2353 1230 00000080 		.word	-2147483648
 2354 1234 00000000 		.word	0
 2355 1238 73FBFC41 		.word	1107098483
 2356 123c 00000080 		.word	-2147483648
 2357 1240 00000000 		.word	0
 2358 1244 00000000 		.word	0
 2359 1248 00000000 		.word	0
 2360 124c CDACA539 		.word	967158989
 2361 1250 00000080 		.word	-2147483648
 2362 1254 BC3E1040 		.word	1074806460
 2363 1258 00000080 		.word	-2147483648
 2364 125c 00000080 		.word	-2147483648
 2365 1260 2D27313E 		.word	1043408685
 2366 1264 00000080 		.word	-2147483648
 2367 1268 00000080 		.word	-2147483648
 2368 126c 5C8DCCBE 		.word	-1093890724
 2369 1270 00000000 		.word	0
 2370 1274 00000080 		.word	-2147483648
 2371 1278 00000000 		.word	0
 2372 127c E2A45E42 		.word	1113498850
 2373 1280 00000080 		.word	-2147483648
 2374 1284 00000000 		.word	0
 2375 1288 B97AF140 		.word	1089567417
 2376 128c 00000000 		.word	0
 2377 1290 00000080 		.word	-2147483648
 2378 1294 00000000 		.word	0
 2379 1298 00000000 		.word	0
 2380 129c 00000080 		.word	-2147483648
 2381 12a0 00000000 		.word	0
 2382 12a4 00000080 		.word	-2147483648
 2383 12a8 00000080 		.word	-2147483648
 2384 12ac 00000080 		.word	-2147483648
 2385 12b0 00008040 		.word	1082130432
 2386 12b4 8B00F742 		.word	1123483787
 2387 12b8 00000000 		.word	0
 2388 12bc 00000000 		.space	28
 2388      00000000 
 2388      00000000 
 2388      00000000 
ARM GAS  /tmp/cczPxs7Y.s 			page 51


 2388      00000000 
 2389 12d8 00000080 		.word	-2147483648
 2390 12dc 00000080 		.word	-2147483648
 2391 12e0 00000080 		.word	-2147483648
 2392 12e4 C6D0FD41 		.word	1107153094
 2393 12e8 00000080 		.word	-2147483648
 2394 12ec 00000000 		.word	0
 2395 12f0 73FBFC41 		.word	1107098483
 2396 12f4 00000080 		.word	-2147483648
 2397 12f8 00000000 		.word	0
 2398 12fc 00000000 		.word	0
 2399 1300 00000000 		.word	0
 2400 1304 CDACA539 		.word	967158989
 2401 1308 00000080 		.word	-2147483648
 2402 130c 07961040 		.word	1074828807
 2403 1310 00000080 		.word	-2147483648
 2404 1314 00000080 		.word	-2147483648
 2405 1318 DE552F3E 		.word	1043289566
 2406 131c 00000080 		.word	-2147483648
 2407 1320 00000000 		.word	0
 2408 1324 3CFACFBE 		.word	-1093666244
 2409 1328 00000080 		.word	-2147483648
 2410 132c 00000080 		.word	-2147483648
 2411 1330 00000080 		.word	-2147483648
 2412 1334 57696242 		.word	1113745751
 2413 1338 00000080 		.word	-2147483648
 2414 133c 00000080 		.word	-2147483648
 2415 1340 7BA3EA40 		.word	1089119099
 2416 1344 00000000 		.word	0
 2417 1348 00000080 		.word	-2147483648
 2418 134c 00000080 		.word	-2147483648
 2419 1350 00000000 		.word	0
 2420 1354 00000080 		.word	-2147483648
 2421 1358 00000000 		.word	0
 2422 135c 00000000 		.word	0
 2423 1360 00000080 		.word	-2147483648
 2424 1364 00000080 		.word	-2147483648
 2425 1368 00008040 		.word	1082130432
 2426 136c 28590043 		.word	1124096296
 2427 1370 00000000 		.word	0
 2428 1374 00000000 		.space	28
 2428      00000000 
 2428      00000000 
 2428      00000000 
 2428      00000000 
 2429 1390 00000080 		.word	-2147483648
 2430 1394 00000000 		.word	0
 2431 1398 00000080 		.word	-2147483648
 2432 139c C6D0FD41 		.word	1107153094
 2433 13a0 00000080 		.word	-2147483648
 2434 13a4 00000000 		.word	0
 2435 13a8 73FBFC41 		.word	1107098483
 2436 13ac 00000080 		.word	-2147483648
 2437 13b0 00000080 		.word	-2147483648
 2438 13b4 00000000 		.word	0
 2439 13b8 00000000 		.word	0
 2440 13bc CDACA539 		.word	967158989
ARM GAS  /tmp/cczPxs7Y.s 			page 52


 2441 13c0 00000000 		.word	0
 2442 13c4 67F31040 		.word	1074852711
 2443 13c8 00000000 		.word	0
 2444 13cc 00000000 		.word	0
 2445 13d0 707C2D3E 		.word	1043168368
 2446 13d4 00000080 		.word	-2147483648
 2447 13d8 00000000 		.word	0
 2448 13dc 5DA5D3BE 		.word	-1093425827
 2449 13e0 00000000 		.word	0
 2450 13e4 00000080 		.word	-2147483648
 2451 13e8 00000000 		.word	0
 2452 13ec A0686642 		.word	1114007712
 2453 13f0 00000000 		.word	0
 2454 13f4 00000000 		.word	0
 2455 13f8 082EE440 		.word	1088695816
 2456 13fc 00000000 		.word	0
 2457 1400 00000000 		.word	0
 2458 1404 00000080 		.word	-2147483648
 2459 1408 00000080 		.word	-2147483648
 2460 140c 00000080 		.word	-2147483648
 2461 1410 00000080 		.word	-2147483648
 2462 1414 00000080 		.word	-2147483648
 2463 1418 00000080 		.word	-2147483648
 2464 141c 00000000 		.word	0
 2465 1420 0000A040 		.word	1084227584
 2466 1424 83DEB042 		.word	1118887555
 2467 1428 00000000 		.word	0
 2468 142c 00000000 		.space	28
 2468      00000000 
 2468      00000000 
 2468      00000000 
 2468      00000000 
 2469 1448 00000080 		.word	-2147483648
 2470 144c 00000080 		.word	-2147483648
 2471 1450 00000000 		.word	0
 2472 1454 D810C842 		.word	1120407768
 2473 1458 00000000 		.word	0
 2474 145c 00000000 		.word	0
 2475 1460 73FBFC41 		.word	1107098483
 2476 1464 00000000 		.word	0
 2477 1468 00000080 		.word	-2147483648
 2478 146c 00000080 		.word	-2147483648
 2479 1470 00000000 		.word	0
 2480 1474 6F12833A 		.word	981668463
 2481 1478 00000000 		.word	0
 2482 147c 1BD55340 		.word	1079235867
 2483 1480 00000080 		.word	-2147483648
 2484 1484 00000080 		.word	-2147483648
 2485 1488 ACA8B93E 		.word	1052354732
 2486 148c 00000000 		.word	0
 2487 1490 00000000 		.word	0
 2488 1494 73487DC1 		.word	-1048754061
 2489 1498 00000000 		.word	0
 2490 149c 00000080 		.word	-2147483648
 2491 14a0 00000080 		.word	-2147483648
 2492 14a4 CD298044 		.word	1149249997
 2493 14a8 00000080 		.word	-2147483648
ARM GAS  /tmp/cczPxs7Y.s 			page 53


 2494 14ac 00000000 		.word	0
 2495 14b0 D4FC89C3 		.word	-1014367020
 2496 14b4 9C534936 		.word	910775196
 2497 14b8 00000080 		.word	-2147483648
 2498 14bc 00000080 		.word	-2147483648
 2499 14c0 00000080 		.word	-2147483648
 2500 14c4 00000080 		.word	-2147483648
 2501 14c8 00000000 		.word	0
 2502 14cc 00000000 		.word	0
 2503 14d0 00000080 		.word	-2147483648
 2504 14d4 00000000 		.word	0
 2505 14d8 0000A040 		.word	1084227584
 2506 14dc FB6DB842 		.word	1119383035
 2507 14e0 00000000 		.word	0
 2508 14e4 00000000 		.space	28
 2508      00000000 
 2508      00000000 
 2508      00000000 
 2508      00000000 
 2509 1500 00000080 		.word	-2147483648
 2510 1504 00000080 		.word	-2147483648
 2511 1508 00000080 		.word	-2147483648
 2512 150c D810C842 		.word	1120407768
 2513 1510 00000080 		.word	-2147483648
 2514 1514 00000080 		.word	-2147483648
 2515 1518 73FBFC41 		.word	1107098483
 2516 151c 00000080 		.word	-2147483648
 2517 1520 00000080 		.word	-2147483648
 2518 1524 00000080 		.word	-2147483648
 2519 1528 00000000 		.word	0
 2520 152c 6F12833A 		.word	981668463
 2521 1530 00000080 		.word	-2147483648
 2522 1534 F2775440 		.word	1079277554
 2523 1538 00000080 		.word	-2147483648
 2524 153c 00000000 		.word	0
 2525 1540 F772B73E 		.word	1052209911
 2526 1544 00000000 		.word	0
 2527 1548 00000000 		.word	0
 2528 154c BA2F79C1 		.word	-1049022534
 2529 1550 00000080 		.word	-2147483648
 2530 1554 00000080 		.word	-2147483648
 2531 1558 00000080 		.word	-2147483648
 2532 155c C5378044 		.word	1149253573
 2533 1560 00000080 		.word	-2147483648
 2534 1564 00000080 		.word	-2147483648
 2535 1568 752C98C3 		.word	-1013437323
 2536 156c 9C534936 		.word	910775196
 2537 1570 00000000 		.word	0
 2538 1574 00000080 		.word	-2147483648
 2539 1578 00000080 		.word	-2147483648
 2540 157c 00000080 		.word	-2147483648
 2541 1580 00000080 		.word	-2147483648
 2542 1584 00000000 		.word	0
 2543 1588 00000080 		.word	-2147483648
 2544 158c 00000000 		.word	0
 2545 1590 0000A040 		.word	1084227584
 2546 1594 7E4BC042 		.word	1119898494
ARM GAS  /tmp/cczPxs7Y.s 			page 54


 2547 1598 00000000 		.word	0
 2548 159c 00000000 		.space	28
 2548      00000000 
 2548      00000000 
 2548      00000000 
 2548      00000000 
 2549 15b8 00000000 		.word	0
 2550 15bc 00000080 		.word	-2147483648
 2551 15c0 00000080 		.word	-2147483648
 2552 15c4 D810C842 		.word	1120407768
 2553 15c8 00000080 		.word	-2147483648
 2554 15cc 00000000 		.word	0
 2555 15d0 73FBFC41 		.word	1107098483
 2556 15d4 00000080 		.word	-2147483648
 2557 15d8 00000080 		.word	-2147483648
 2558 15dc 00000080 		.word	-2147483648
 2559 15e0 00000080 		.word	-2147483648
 2560 15e4 6F12833A 		.word	981668463
 2561 15e8 00000080 		.word	-2147483648
 2562 15ec 7C265540 		.word	1079322236
 2563 15f0 00000080 		.word	-2147483648
 2564 15f4 00000000 		.word	0
 2565 15f8 6535B53E 		.word	1052063077
 2566 15fc 00000080 		.word	-2147483648
 2567 1600 00000000 		.word	0
 2568 1604 7E0B75C1 		.word	-1049293954
 2569 1608 00000000 		.word	0
 2570 160c 00000080 		.word	-2147483648
 2571 1610 00000000 		.word	0
 2572 1614 45468044 		.word	1149257285
 2573 1618 00000080 		.word	-2147483648
 2574 161c 00000000 		.word	0
 2575 1620 0CA3A5C3 		.word	-1012554996
 2576 1624 9C534936 		.word	910775196
 2577 1628 00000000 		.word	0
 2578 162c 00000080 		.word	-2147483648
 2579 1630 00000080 		.word	-2147483648
 2580 1634 00000000 		.word	0
 2581 1638 00000000 		.word	0
 2582 163c 00000000 		.word	0
 2583 1640 00000000 		.word	0
 2584 1644 00000000 		.word	0
 2585 1648 0000A040 		.word	1084227584
 2586 164c A886C842 		.word	1120437928
 2587 1650 00000000 		.word	0
 2588 1654 00000000 		.space	28
 2588      00000000 
 2588      00000000 
 2588      00000000 
 2588      00000000 
 2589 1670 00000000 		.word	0
 2590 1674 00000080 		.word	-2147483648
 2591 1678 00000080 		.word	-2147483648
 2592 167c D810C842 		.word	1120407768
 2593 1680 00000080 		.word	-2147483648
 2594 1684 00000080 		.word	-2147483648
 2595 1688 73FBFC41 		.word	1107098483
ARM GAS  /tmp/cczPxs7Y.s 			page 55


 2596 168c 00000080 		.word	-2147483648
 2597 1690 00000080 		.word	-2147483648
 2598 1694 00000080 		.word	-2147483648
 2599 1698 00000000 		.word	0
 2600 169c 6F12833A 		.word	981668463
 2601 16a0 00000080 		.word	-2147483648
 2602 16a4 8BE25540 		.word	1079370379
 2603 16a8 00000080 		.word	-2147483648
 2604 16ac 00000000 		.word	0
 2605 16b0 D0ECB23E 		.word	1051913424
 2606 16b4 00000000 		.word	0
 2607 16b8 00000000 		.word	0
 2608 16bc 40DC70C1 		.word	-1049568192
 2609 16c0 00000000 		.word	0
 2610 16c4 00000080 		.word	-2147483648
 2611 16c8 00000000 		.word	0
 2612 16cc 74558044 		.word	1149261172
 2613 16d0 00000080 		.word	-2147483648
 2614 16d4 00000000 		.word	0
 2615 16d8 8976B2C3 		.word	-1011714423
 2616 16dc 9C534936 		.word	910775196
 2617 16e0 00000080 		.word	-2147483648
 2618 16e4 00000000 		.word	0
 2619 16e8 00000080 		.word	-2147483648
 2620 16ec 00000080 		.word	-2147483648
 2621 16f0 00000000 		.word	0
 2622 16f4 00000080 		.word	-2147483648
 2623 16f8 00000000 		.word	0
 2624 16fc 00000080 		.word	-2147483648
 2625 1700 0000A040 		.word	1084227584
 2626 1704 C773D042 		.word	1120957383
 2627 1708 00000000 		.word	0
 2628 170c 00000000 		.space	28
 2628      00000000 
 2628      00000000 
 2628      00000000 
 2628      00000000 
 2629 1728 00000080 		.word	-2147483648
 2630 172c 00000000 		.word	0
 2631 1730 00000000 		.word	0
 2632 1734 D810C842 		.word	1120407768
 2633 1738 00000000 		.word	0
 2634 173c 00000080 		.word	-2147483648
 2635 1740 73FBFC41 		.word	1107098483
 2636 1744 00000000 		.word	0
 2637 1748 00000000 		.word	0
 2638 174c 00000080 		.word	-2147483648
 2639 1750 00000000 		.word	0
 2640 1754 6F12833A 		.word	981668463
 2641 1758 00000080 		.word	-2147483648
 2642 175c A29C5640 		.word	1079418018
 2643 1760 00000000 		.word	0
 2644 1764 00000000 		.word	0
 2645 1768 CDC8B03E 		.word	1051773133
 2646 176c 00000000 		.word	0
 2647 1770 00000080 		.word	-2147483648
 2648 1774 A5FC6CC1 		.word	-1049822043
ARM GAS  /tmp/cczPxs7Y.s 			page 56


 2649 1778 00000080 		.word	-2147483648
 2650 177c 00000000 		.word	0
 2651 1780 00000000 		.word	0
 2652 1784 1D648044 		.word	1149264925
 2653 1788 00000000 		.word	0
 2654 178c 00000080 		.word	-2147483648
 2655 1790 51B9BDC3 		.word	-1010976431
 2656 1794 9C534936 		.word	910775196
 2657 1798 00000080 		.word	-2147483648
 2658 179c 00000080 		.word	-2147483648
 2659 17a0 00000080 		.word	-2147483648
 2660 17a4 00000080 		.word	-2147483648
 2661 17a8 00000000 		.word	0
 2662 17ac 00000080 		.word	-2147483648
 2663 17b0 00000080 		.word	-2147483648
 2664 17b4 00000080 		.word	-2147483648
 2665 17b8 0000A040 		.word	1084227584
 2666 17bc F0AED842 		.word	1121496816
 2667 17c0 00000000 		.word	0
 2668 17c4 00000000 		.space	28
 2668      00000000 
 2668      00000000 
 2668      00000000 
 2668      00000000 
 2669 17e0 00000080 		.word	-2147483648
 2670 17e4 00000000 		.word	0
 2671 17e8 00000000 		.word	0
 2672 17ec D810C842 		.word	1120407768
 2673 17f0 00000000 		.word	0
 2674 17f4 00000080 		.word	-2147483648
 2675 17f8 73FBFC41 		.word	1107098483
 2676 17fc 00000000 		.word	0
 2677 1800 00000000 		.word	0
 2678 1804 00000080 		.word	-2147483648
 2679 1808 00000000 		.word	0
 2680 180c 6F12833A 		.word	981668463
 2681 1810 00000080 		.word	-2147483648
 2682 1814 D4625740 		.word	1079468756
 2683 1818 00000080 		.word	-2147483648
 2684 181c 00000080 		.word	-2147483648
 2685 1820 809EAE3E 		.word	1051631232
 2686 1824 00000000 		.word	0
 2687 1828 00000080 		.word	-2147483648
 2688 182c 242269C1 		.word	-1050074588
 2689 1830 00000080 		.word	-2147483648
 2690 1834 00000000 		.word	0
 2691 1838 00000080 		.word	-2147483648
 2692 183c 69738044 		.word	1149268841
 2693 1840 00000000 		.word	0
 2694 1844 00000080 		.word	-2147483648
 2695 1848 5468C8C3 		.word	-1010276268
 2696 184c 9C534936 		.word	910775196
 2697 1850 00000080 		.word	-2147483648
 2698 1854 00000000 		.word	0
 2699 1858 00000080 		.word	-2147483648
 2700 185c 00000000 		.word	0
 2701 1860 00000000 		.word	0
ARM GAS  /tmp/cczPxs7Y.s 			page 57


 2702 1864 00000080 		.word	-2147483648
 2703 1868 00000000 		.word	0
 2704 186c 00000080 		.word	-2147483648
 2705 1870 0000A040 		.word	1084227584
 2706 1874 2538E142 		.word	1122056229
 2707 1878 00000000 		.word	0
 2708 187c 00000000 		.space	28
 2708      00000000 
 2708      00000000 
 2708      00000000 
 2708      00000000 
 2709 1898 00000080 		.word	-2147483648
 2710 189c 00000080 		.word	-2147483648
 2711 18a0 00000080 		.word	-2147483648
 2712 18a4 D810C842 		.word	1120407768
 2713 18a8 00000080 		.word	-2147483648
 2714 18ac 00000000 		.word	0
 2715 18b0 73FBFC41 		.word	1107098483
 2716 18b4 00000080 		.word	-2147483648
 2717 18b8 00000000 		.word	0
 2718 18bc 00000080 		.word	-2147483648
 2719 18c0 00000080 		.word	-2147483648
 2720 18c4 6F12833A 		.word	981668463
 2721 18c8 00000000 		.word	0
 2722 18cc 7E355840 		.word	1079522686
 2723 18d0 00000080 		.word	-2147483648
 2724 18d4 00000080 		.word	-2147483648
 2725 18d8 586FAC3E 		.word	1051488088
 2726 18dc 00000080 		.word	-2147483648
 2727 18e0 00000080 		.word	-2147483648
 2728 18e4 625265C1 		.word	-1050324382
 2729 18e8 00000080 		.word	-2147483648
 2730 18ec 00000000 		.word	0
 2731 18f0 00000080 		.word	-2147483648
 2732 18f4 60838044 		.word	1149272928
 2733 18f8 00000000 		.word	0
 2734 18fc 00000080 		.word	-2147483648
 2735 1900 2D84D2C3 		.word	-1009613779
 2736 1904 9C534936 		.word	910775196
 2737 1908 00000000 		.word	0
 2738 190c 00000080 		.word	-2147483648
 2739 1910 00000000 		.word	0
 2740 1914 00000000 		.word	0
 2741 1918 00000080 		.word	-2147483648
 2742 191c 00000000 		.word	0
 2743 1920 00000080 		.word	-2147483648
 2744 1924 00000000 		.word	0
 2745 1928 0000C040 		.word	1086324736
 2746 192c CE159A42 		.word	1117394382
 2747 1930 00000000 		.word	0
 2748 1934 00000000 		.space	28
 2748      00000000 
 2748      00000000 
 2748      00000000 
 2748      00000000 
 2749 1950 00000080 		.word	-2147483648
 2750 1954 00000080 		.word	-2147483648
ARM GAS  /tmp/cczPxs7Y.s 			page 58


 2751 1958 00000000 		.word	0
 2752 195c CD10C842 		.word	1120407757
 2753 1960 00000000 		.word	0
 2754 1964 00000080 		.word	-2147483648
 2755 1968 73FBFC41 		.word	1107098483
 2756 196c 00000000 		.word	0
 2757 1970 00000080 		.word	-2147483648
 2758 1974 00000080 		.word	-2147483648
 2759 1978 00000000 		.word	0
 2760 197c 6F12833A 		.word	981668463
 2761 1980 00000000 		.word	0
 2762 1984 F5F15040 		.word	1079046645
 2763 1988 00000000 		.word	0
 2764 198c 00000080 		.word	-2147483648
 2765 1990 CD03C03E 		.word	1052771277
 2766 1994 00000080 		.word	-2147483648
 2767 1998 00000000 		.word	0
 2768 199c 011487C1 		.word	-1048112127
 2769 19a0 00000000 		.word	0
 2770 19a4 00000080 		.word	-2147483648
 2771 19a8 00000000 		.word	0
 2772 19ac 35048044 		.word	1149240373
 2773 19b0 00000000 		.word	0
 2774 19b4 00000000 		.word	0
 2775 19b8 5AF130C3 		.word	-1020202662
 2776 19bc BD378636 		.word	914765757
 2777 19c0 00000000 		.word	0
 2778 19c4 00000000 		.word	0
 2779 19c8 00000000 		.word	0
 2780 19cc 00000000 		.word	0
 2781 19d0 00000080 		.word	-2147483648
 2782 19d4 00000000 		.word	0
 2783 19d8 00000000 		.word	0
 2784 19dc 00000080 		.word	-2147483648
 2785 19e0 0000C040 		.word	1086324736
 2786 19e4 89ABA042 		.word	1117825929
 2787 19e8 00000000 		.word	0
 2788 19ec 00000000 		.space	28
 2788      00000000 
 2788      00000000 
 2788      00000000 
 2788      00000000 
 2789 1a08 00000080 		.word	-2147483648
 2790 1a0c 00000080 		.word	-2147483648
 2791 1a10 00000080 		.word	-2147483648
 2792 1a14 CD10C842 		.word	1120407757
 2793 1a18 00000080 		.word	-2147483648
 2794 1a1c 00000000 		.word	0
 2795 1a20 73FBFC41 		.word	1107098483
 2796 1a24 00000080 		.word	-2147483648
 2797 1a28 00000080 		.word	-2147483648
 2798 1a2c 00000080 		.word	-2147483648
 2799 1a30 00000000 		.word	0
 2800 1a34 6F12833A 		.word	981668463
 2801 1a38 00000000 		.word	0
 2802 1a3c BD715140 		.word	1079079357
 2803 1a40 00000080 		.word	-2147483648
ARM GAS  /tmp/cczPxs7Y.s 			page 59


 2804 1a44 00000000 		.word	0
 2805 1a48 6FF0BD3E 		.word	1052635247
 2806 1a4c 00000000 		.word	0
 2807 1a50 00000080 		.word	-2147483648
 2808 1a54 F73285C1 		.word	-1048235273
 2809 1a58 00000000 		.word	0
 2810 1a5c 00000000 		.word	0
 2811 1a60 00000000 		.word	0
 2812 1a64 FB108044 		.word	1149243643
 2813 1a68 00000000 		.word	0
 2814 1a6c 00000000 		.word	0
 2815 1a70 00C951C3 		.word	-1018050304
 2816 1a74 BD378636 		.word	914765757
 2817 1a78 00000000 		.word	0
 2818 1a7c 00000000 		.word	0
 2819 1a80 00000000 		.word	0
 2820 1a84 00000000 		.word	0
 2821 1a88 00000080 		.word	-2147483648
 2822 1a8c 00000080 		.word	-2147483648
 2823 1a90 00000000 		.word	0
 2824 1a94 00000000 		.word	0
 2825 1a98 0000C040 		.word	1086324736
 2826 1a9c 4F8FA742 		.word	1118277455
 2827 1aa0 00000000 		.word	0
 2828 1aa4 00000000 		.space	28
 2828      00000000 
 2828      00000000 
 2828      00000000 
 2828      00000000 
 2829 1ac0 00000080 		.word	-2147483648
 2830 1ac4 00000080 		.word	-2147483648
 2831 1ac8 00000080 		.word	-2147483648
 2832 1acc CD10C842 		.word	1120407757
 2833 1ad0 00000000 		.word	0
 2834 1ad4 00000000 		.word	0
 2835 1ad8 73FBFC41 		.word	1107098483
 2836 1adc 00000000 		.word	0
 2837 1ae0 00000080 		.word	-2147483648
 2838 1ae4 00000000 		.word	0
 2839 1ae8 00000080 		.word	-2147483648
 2840 1aec 6F12833A 		.word	981668463
 2841 1af0 00000000 		.word	0
 2842 1af4 D2FB5140 		.word	1079114706
 2843 1af8 00000000 		.word	0
 2844 1afc 00000080 		.word	-2147483648
 2845 1b00 C0D0BB3E 		.word	1052496064
 2846 1b04 00000080 		.word	-2147483648
 2847 1b08 00000000 		.word	0
 2848 1b0c FA3C83C1 		.word	-1048363782
 2849 1b10 00000000 		.word	0
 2850 1b14 00000000 		.word	0
 2851 1b18 00000000 		.word	0
 2852 1b1c 361E8044 		.word	1149247030
 2853 1b20 00000000 		.word	0
 2854 1b24 00000000 		.word	0
 2855 1b28 AD5C71C3 		.word	-1015980883
 2856 1b2c BD378636 		.word	914765757
ARM GAS  /tmp/cczPxs7Y.s 			page 60


 2857 1b30 00000080 		.word	-2147483648
 2858 1b34 00000000 		.word	0
 2859 1b38 00000080 		.word	-2147483648
 2860 1b3c 00000080 		.word	-2147483648
 2861 1b40 00000000 		.word	0
 2862 1b44 00000000 		.word	0
 2863 1b48 00000080 		.word	-2147483648
 2864 1b4c 00000000 		.word	0
 2865 1b50 0000C040 		.word	1086324736
 2866 1b54 20C1AE42 		.word	1118748960
 2867 1b58 00000000 		.word	0
 2868 1b5c 00000000 		.space	28
 2868      00000000 
 2868      00000000 
 2868      00000000 
 2868      00000000 
 2869 1b78 00000080 		.word	-2147483648
 2870 1b7c 00000000 		.word	0
 2871 1b80 00000000 		.word	0
 2872 1b84 CD10C842 		.word	1120407757
 2873 1b88 00000000 		.word	0
 2874 1b8c 00000000 		.word	0
 2875 1b90 73FBFC41 		.word	1107098483
 2876 1b94 00000000 		.word	0
 2877 1b98 00000000 		.word	0
 2878 1b9c 00000080 		.word	-2147483648
 2879 1ba0 00000000 		.word	0
 2880 1ba4 6F12833A 		.word	981668463
 2881 1ba8 00000080 		.word	-2147483648
 2882 1bac A8905240 		.word	1079152808
 2883 1bb0 00000080 		.word	-2147483648
 2884 1bb4 00000000 		.word	0
 2885 1bb8 2FA6B93E 		.word	1052354095
 2886 1bbc 00000000 		.word	0
 2887 1bc0 00000080 		.word	-2147483648
 2888 1bc4 D53681C1 		.word	-1048496427
 2889 1bc8 00000000 		.word	0
 2890 1bcc 00000000 		.word	0
 2891 1bd0 00000000 		.word	0
 2892 1bd4 EB2B8044 		.word	1149250539
 2893 1bd8 00000000 		.word	0
 2894 1bdc 00000000 		.word	0
 2895 1be0 ACCA87C3 		.word	-1014510932
 2896 1be4 9C534936 		.word	910775196
 2897 1be8 00000080 		.word	-2147483648
 2898 1bec 00000000 		.word	0
 2899 1bf0 00000080 		.word	-2147483648
 2900 1bf4 00000080 		.word	-2147483648
 2901 1bf8 00000000 		.word	0
 2902 1bfc 00000000 		.word	0
 2903 1c00 00000000 		.word	0
 2904 1c04 00000080 		.word	-2147483648
 2905 1c08 0000C040 		.word	1086324736
 2906 1c0c E6A4B542 		.word	1119200486
 2907 1c10 00000000 		.word	0
 2908 1c14 00000000 		.space	28
 2908      00000000 
ARM GAS  /tmp/cczPxs7Y.s 			page 61


 2908      00000000 
 2908      00000000 
 2908      00000000 
 2909 1c30 00000080 		.word	-2147483648
 2910 1c34 00000080 		.word	-2147483648
 2911 1c38 00000000 		.word	0
 2912 1c3c CD10C842 		.word	1120407757
 2913 1c40 00000000 		.word	0
 2914 1c44 00000000 		.word	0
 2915 1c48 73FBFC41 		.word	1107098483
 2916 1c4c 00000000 		.word	0
 2917 1c50 00000080 		.word	-2147483648
 2918 1c54 00000080 		.word	-2147483648
 2919 1c58 00000000 		.word	0
 2920 1c5c 6F12833A 		.word	981668463
 2921 1c60 00000080 		.word	-2147483648
 2922 1c64 79235340 		.word	1079190393
 2923 1c68 00000080 		.word	-2147483648
 2924 1c6c 00000000 		.word	0
 2925 1c70 669FB73E 		.word	1052221286
 2926 1c74 00000000 		.word	0
 2927 1c78 00000000 		.word	0
 2928 1c7c AC9F7EC1 		.word	-1048666196
 2929 1c80 00000080 		.word	-2147483648
 2930 1c84 00000080 		.word	-2147483648
 2931 1c88 00000080 		.word	-2147483648
 2932 1c8c F8388044 		.word	1149253880
 2933 1c90 00000080 		.word	-2147483648
 2934 1c94 00000080 		.word	-2147483648
 2935 1c98 2E1295C3 		.word	-1013640658
 2936 1c9c 9C534936 		.word	910775196
 2937 1ca0 00000000 		.word	0
 2938 1ca4 00000000 		.word	0
 2939 1ca8 00000000 		.word	0
 2940 1cac 00000000 		.word	0
 2941 1cb0 00000080 		.word	-2147483648
 2942 1cb4 00000000 		.word	0
 2943 1cb8 00000000 		.word	0
 2944 1cbc 00000000 		.word	0
 2945 1cc0 0000C040 		.word	1086324736
 2946 1cc4 1CC7BC42 		.word	1119667996
 2947 1cc8 00000000 		.word	0
 2948 1ccc 00000000 		.space	28
 2948      00000000 
 2948      00000000 
 2948      00000000 
 2948      00000000 
 2949 1ce8 00000080 		.word	-2147483648
 2950 1cec 00000000 		.word	0
 2951 1cf0 00000080 		.word	-2147483648
 2952 1cf4 CD10C842 		.word	1120407757
 2953 1cf8 00000080 		.word	-2147483648
 2954 1cfc 00000000 		.word	0
 2955 1d00 73FBFC41 		.word	1107098483
 2956 1d04 00000080 		.word	-2147483648
 2957 1d08 00000080 		.word	-2147483648
 2958 1d0c 00000000 		.word	0
ARM GAS  /tmp/cczPxs7Y.s 			page 62


 2959 1d10 00000000 		.word	0
 2960 1d14 6F12833A 		.word	981668463
 2961 1d18 00000080 		.word	-2147483648
 2962 1d1c C6BF5340 		.word	1079230406
 2963 1d20 00000000 		.word	0
 2964 1d24 00000000 		.word	0
 2965 1d28 7592B53E 		.word	1052086901
 2966 1d2c 00000000 		.word	0
 2967 1d30 00000000 		.word	0
 2968 1d34 5AC77AC1 		.word	-1048918182
 2969 1d38 00000080 		.word	-2147483648
 2970 1d3c 00000000 		.word	0
 2971 1d40 00000080 		.word	-2147483648
 2972 1d44 70468044 		.word	1149257328
 2973 1d48 00000080 		.word	-2147483648
 2974 1d4c 00000080 		.word	-2147483648
 2975 1d50 3CB6A1C3 		.word	-1012812228
 2976 1d54 9C534936 		.word	910775196
 2977 1d58 00000000 		.word	0
 2978 1d5c 00000080 		.word	-2147483648
 2979 1d60 00000000 		.word	0
 2980 1d64 00000000 		.word	0
 2981 1d68 00000080 		.word	-2147483648
 2982 1d6c 00000000 		.word	0
 2983 1d70 00000000 		.word	0
 2984 1d74 00000000 		.word	0
 2985 1d78 0000C040 		.word	1086324736
 2986 1d7c 5C37C442 		.word	1120155484
 2987 1d80 00000000 		.word	0
 2988 1d84 00000000 		.space	28
 2988      00000000 
 2988      00000000 
 2988      00000000 
 2988      00000000 
 2989 1da0 00000000 		.word	0
 2990 1da4 00000080 		.word	-2147483648
 2991 1da8 00000080 		.word	-2147483648
 2992 1dac CD10C842 		.word	1120407757
 2993 1db0 00000080 		.word	-2147483648
 2994 1db4 00000000 		.word	0
 2995 1db8 73FBFC41 		.word	1107098483
 2996 1dbc 00000080 		.word	-2147483648
 2997 1dc0 00000000 		.word	0
 2998 1dc4 00000000 		.word	0
 2999 1dc8 00000000 		.word	0
 3000 1dcc 6F12833A 		.word	981668463
 3001 1dd0 00000080 		.word	-2147483648
 3002 1dd4 3C675440 		.word	1079273276
 3003 1dd8 00000080 		.word	-2147483648
 3004 1ddc 00000000 		.word	0
 3005 1de0 357CB33E 		.word	1051950133
 3006 1de4 00000000 		.word	0
 3007 1de8 00000000 		.word	0
 3008 1dec 36E376C1 		.word	-1049173194
 3009 1df0 00000080 		.word	-2147483648
 3010 1df4 00000080 		.word	-2147483648
 3011 1df8 00000080 		.word	-2147483648
ARM GAS  /tmp/cczPxs7Y.s 			page 63


 3012 1dfc 78548044 		.word	1149260920
 3013 1e00 00000000 		.word	0
 3014 1e04 00000080 		.word	-2147483648
 3015 1e08 1FCFADC3 		.word	-1012019425
 3016 1e0c 9C534936 		.word	910775196
 3017 1e10 00000000 		.word	0
 3018 1e14 00000080 		.word	-2147483648
 3019 1e18 00000080 		.word	-2147483648
 3020 1e1c 00000080 		.word	-2147483648
 3021 1e20 00000000 		.word	0
 3022 1e24 00000080 		.word	-2147483648
 3023 1e28 00000080 		.word	-2147483648
 3024 1e2c 00000000 		.word	0
 3025              		.section	.rodata
 3026              		.align	2
 3027              		.set	.LANCHOR0,. + 0
 3028              	.LC0:
 3029 0000 00D00445 		.word	1157943296
 3030 0004 0040CE44 		.word	1154367488
 3031 0008 0040BF44 		.word	1153384448
 3032 000c 0000BE44 		.word	1153302528
 3033 0010 0040BA44 		.word	1153056768
 3034 0014 00C0A844 		.word	1151909888
 3035 0018 00A0A044 		.word	1151377408
 3036 001c 00C08F44 		.word	1150271488
 3037 0020 00807744 		.word	1148682240
 3038 0024 00003E44 		.word	1144913920
 3039 0028 00801844 		.word	1142456320
 3040 002c 0000C843 		.word	1137180672
 3041 0030 00008743 		.word	1132920832
 3042 0034 00001643 		.word	1125515264
 3043 0038 00000000 		.word	0
 3044              		.text
 3045              	.Letext0:
 3046              		.file 2 "../Core/Include/controls.h"
 3047              		.file 3 "Drivers/CMSIS/DSP/Include/arm_math.h"
 3048              		.file 4 "../Core/Include/reference_data.h"
 3049              		.file 5 "/nix/store/lcj4nx7xv8c36cif7armkfa7b5cmfh74-gcc-arm-embedded-12.3.rel1/arm-none-eabi/incl
 3050              		.file 6 "<built-in>"
ARM GAS  /tmp/cczPxs7Y.s 			page 64

