ARM GAS  /tmp/ccIT7oWX.s 			page 1


   1              		.cpu cortex-m7
   2              		.arch armv7e-m
   3              		.fpu fpv5-d16
   4              		.eabi_attribute 28, 1
   5              		.eabi_attribute 20, 1
   6              		.eabi_attribute 21, 1
   7              		.eabi_attribute 23, 3
   8              		.eabi_attribute 24, 1
   9              		.eabi_attribute 25, 1
  10              		.eabi_attribute 26, 1
  11              		.eabi_attribute 30, 1
  12              		.eabi_attribute 34, 1
  13              		.eabi_attribute 18, 4
  14              		.file	"crc_hash.c"
  15              		.text
  16              	.Ltext0:
  17              		.cfi_sections	.debug_frame
  18              		.file 1 "../Core/Src/crc_hash.c"
  19              		.section	.text.calculate_crc8_hash,"ax",%progbits
  20              		.align	1
  21              		.global	calculate_crc8_hash
  22              		.syntax unified
  23              		.thumb
  24              		.thumb_func
  26              	calculate_crc8_hash:
  27              	.LVL0:
  28              	.LFB3:
   1:../Core/Src/crc_hash.c **** #include <stdint.h>
   2:../Core/Src/crc_hash.c **** #include <stdio.h>
   3:../Core/Src/crc_hash.c **** #include <stdbool.h>
   4:../Core/Src/crc_hash.c **** #include <stddef.h>
   5:../Core/Src/crc_hash.c **** 
   6:../Core/Src/crc_hash.c **** 
   7:../Core/Src/crc_hash.c **** // Precompute all hashes for 0xe7
   8:../Core/Src/crc_hash.c **** uint8_t crctable[256] = {0, 231, 41, 206, 82, 181, 123, 156, 164, 67, 141, 106, 246, 17,
   9:../Core/Src/crc_hash.c ****  223, 56, 175, 72, 134, 97, 253, 26, 212, 51, 11, 236, 34, 197, 89, 190, 112, 151, 185, 94, 
  10:../Core/Src/crc_hash.c ****  144, 119, 235, 12, 194, 37, 29, 250, 52, 211, 79, 168, 102, 129, 22, 241, 63, 216, 68, 163, 
  11:../Core/Src/crc_hash.c ****  109, 138, 178, 85, 155, 124, 224, 7, 201, 46, 149, 114, 188, 91, 199, 32, 238, 9, 49, 214, 24, 
  12:../Core/Src/crc_hash.c ****  255, 99, 132, 74, 173, 58, 221, 19, 244, 104, 143, 65, 166, 158, 121, 183, 80, 204, 43, 229, 2, 
  13:../Core/Src/crc_hash.c ****  44, 203, 5, 226, 126, 153, 87, 176, 136, 111, 161, 70, 218, 61, 243, 20, 131, 100, 170, 77, 209, 
  14:../Core/Src/crc_hash.c ****  54, 248, 31, 39, 192, 14, 233, 117, 146, 92, 187, 205, 42, 228, 3, 159, 120, 182, 81, 105, 142, 64
  15:../Core/Src/crc_hash.c ****  167, 59, 220, 18, 245, 98, 133, 75, 172, 48, 215, 25, 254, 198, 33, 239, 8, 148, 115, 189, 90, 116
  16:../Core/Src/crc_hash.c ****  147, 93, 186, 38, 193, 15, 232, 208, 55, 249, 30, 130, 101, 171, 76, 219, 60, 242, 21, 137, 110, 1
  17:../Core/Src/crc_hash.c ****  127, 152, 86, 177, 45, 202, 4, 227, 88, 191, 113, 150, 10, 237, 35, 196, 252, 27, 213, 50, 174, 73
  18:../Core/Src/crc_hash.c ****  247, 16, 222, 57, 165, 66, 140, 107, 83, 180, 122, 157, 1, 230, 40, 207, 225, 6, 200, 47, 179, 84,
  19:../Core/Src/crc_hash.c ****  162, 108, 139, 23, 240, 62, 217, 78, 169, 103, 128, 28, 251, 53, 210, 234, 13, 195, 36, 184, 95, 1
  20:../Core/Src/crc_hash.c **** };
  21:../Core/Src/crc_hash.c **** 
  22:../Core/Src/crc_hash.c **** /** 
  23:../Core/Src/crc_hash.c ****  * Returns the 8-bit CRC hash of this data
  24:../Core/Src/crc_hash.c ****  * 
  25:../Core/Src/crc_hash.c ****  * @param rawData   pointer to the data that the hash should be calculated for
  26:../Core/Src/crc_hash.c ****  * @param dataSize  size of the data in bytes
  27:../Core/Src/crc_hash.c ****  * 
  28:../Core/Src/crc_hash.c ****  * @return the CRC8 hash of the data
  29:../Core/Src/crc_hash.c ****  */
  30:../Core/Src/crc_hash.c **** uint8_t calculate_crc8_hash(const uint8_t *raw_data, const size_t data_size) {
ARM GAS  /tmp/ccIT7oWX.s 			page 2


  29              		.loc 1 30 78 view -0
  30              		.cfi_startproc
  31              		@ args = 0, pretend = 0, frame = 0
  32              		@ frame_needed = 0, uses_anonymous_args = 0
  33              		@ link register save eliminated.
  34              		.loc 1 30 78 is_stmt 0 view .LVU1
  35 0000 8446     		mov	ip, r0
  31:../Core/Src/crc_hash.c ****     uint8_t crc = 0;
  36              		.loc 1 31 5 is_stmt 1 view .LVU2
  37              	.LVL1:
  32:../Core/Src/crc_hash.c ****     for (size_t i = 0; i < data_size; i++)
  38              		.loc 1 32 5 view .LVU3
  39              	.LBB2:
  40              		.loc 1 32 10 view .LVU4
  41              		.loc 1 32 17 is_stmt 0 view .LVU5
  42 0002 0023     		movs	r3, #0
  43              	.LBE2:
  31:../Core/Src/crc_hash.c ****     uint8_t crc = 0;
  44              		.loc 1 31 13 view .LVU6
  45 0004 1846     		mov	r0, r3
  46              	.LVL2:
  47              	.LBB3:
  48              		.loc 1 32 26 is_stmt 1 view .LVU7
  49 0006 8B42     		cmp	r3, r1
  50 0008 0BD2     		bcs	.L8
  51              	.LBE3:
  30:../Core/Src/crc_hash.c ****     uint8_t crc = 0;
  52              		.loc 1 30 78 is_stmt 0 view .LVU8
  53 000a 10B4     		push	{r4}
  54              	.LCFI0:
  55              		.cfi_def_cfa_offset 4
  56              		.cfi_offset 4, -4
  57              	.LVL3:
  58              	.L3:
  59              	.LBB4:
  33:../Core/Src/crc_hash.c ****     {
  34:../Core/Src/crc_hash.c ****         // XOR-in next input byte and get current CRC value = remainder 
  35:../Core/Src/crc_hash.c ****         crc = crctable[raw_data[i] ^ crc];
  60              		.loc 1 35 9 is_stmt 1 discriminator 3 view .LVU9
  61              		.loc 1 35 32 is_stmt 0 discriminator 3 view .LVU10
  62 000c 1CF80320 		ldrb	r2, [ip, r3]	@ zero_extendqisi2
  63              		.loc 1 35 36 discriminator 3 view .LVU11
  64 0010 4240     		eors	r2, r2, r0
  65              		.loc 1 35 13 discriminator 3 view .LVU12
  66 0012 044C     		ldr	r4, .L9
  67 0014 A05C     		ldrb	r0, [r4, r2]	@ zero_extendqisi2
  68              	.LVL4:
  32:../Core/Src/crc_hash.c ****     {
  69              		.loc 1 32 40 is_stmt 1 discriminator 3 view .LVU13
  70 0016 0133     		adds	r3, r3, #1
  71              	.LVL5:
  32:../Core/Src/crc_hash.c ****     {
  72              		.loc 1 32 26 discriminator 3 view .LVU14
  73 0018 8B42     		cmp	r3, r1
  74 001a F7D3     		bcc	.L3
  75              	.LBE4:
  36:../Core/Src/crc_hash.c ****     }
ARM GAS  /tmp/ccIT7oWX.s 			page 3


  37:../Core/Src/crc_hash.c **** 
  38:../Core/Src/crc_hash.c ****     return crc;
  76              		.loc 1 38 5 view .LVU15
  39:../Core/Src/crc_hash.c **** }
  77              		.loc 1 39 1 is_stmt 0 view .LVU16
  78 001c 5DF8044B 		ldr	r4, [sp], #4
  79              	.LCFI1:
  80              		.cfi_restore 4
  81              		.cfi_def_cfa_offset 0
  82 0020 7047     		bx	lr
  83              	.LVL6:
  84              	.L8:
  85              		.loc 1 39 1 view .LVU17
  86 0022 7047     		bx	lr
  87              	.L10:
  88              		.align	2
  89              	.L9:
  90 0024 00000000 		.word	crctable
  91              		.cfi_endproc
  92              	.LFE3:
  94              		.section	.text.verify_crc8_hash,"ax",%progbits
  95              		.align	1
  96              		.global	verify_crc8_hash
  97              		.syntax unified
  98              		.thumb
  99              		.thumb_func
 101              	verify_crc8_hash:
 102              	.LVL7:
 103              	.LFB4:
  40:../Core/Src/crc_hash.c **** 
  41:../Core/Src/crc_hash.c **** /**
  42:../Core/Src/crc_hash.c ****  * Returns true if the crc8 hash is valid for this data. It assumes that the 8-bit crc hash immedia
  43:../Core/Src/crc_hash.c ****  * 
  44:../Core/Src/crc_hash.c ****  * @param rawData   pointer to the data that the hash should be verified for (last byte should be t
  45:../Core/Src/crc_hash.c ****  * @param dataSize  size of the data in bytes (including the hash byte)
  46:../Core/Src/crc_hash.c ****  * 
  47:../Core/Src/crc_hash.c ****  * Note that size includes the hash byte. In other words, if you want to verify the hash of n bytes
  48:../Core/Src/crc_hash.c ****  * an n+1 byte array where the first n bytes are the data and the n+1-th byte is the hash. 
  49:../Core/Src/crc_hash.c ****  * data_size should also equal n+1.
  50:../Core/Src/crc_hash.c ****  * 
  51:../Core/Src/crc_hash.c ****  * @return true if the hash was valid, and false otherwise
  52:../Core/Src/crc_hash.c ****  */
  53:../Core/Src/crc_hash.c **** bool verify_crc8_hash(const uint8_t *data, const size_t data_size) {
 104              		.loc 1 53 68 is_stmt 1 view -0
 105              		.cfi_startproc
 106              		@ args = 0, pretend = 0, frame = 0
 107              		@ frame_needed = 0, uses_anonymous_args = 0
 108              		.loc 1 53 68 is_stmt 0 view .LVU19
 109 0000 08B5     		push	{r3, lr}
 110              	.LCFI2:
 111              		.cfi_def_cfa_offset 8
 112              		.cfi_offset 3, -8
 113              		.cfi_offset 14, -4
  54:../Core/Src/crc_hash.c ****     return 0 == calculate_crc8_hash(data, data_size);
 114              		.loc 1 54 5 is_stmt 1 view .LVU20
 115              		.loc 1 54 17 is_stmt 0 view .LVU21
 116 0002 FFF7FEFF 		bl	calculate_crc8_hash
ARM GAS  /tmp/ccIT7oWX.s 			page 4


 117              	.LVL8:
  55:../Core/Src/crc_hash.c **** }...
 118              		.loc 1 55 1 view .LVU22
 119 0006 B0FA80F0 		clz	r0, r0
 120 000a 4009     		lsrs	r0, r0, #5
 121 000c 08BD     		pop	{r3, pc}
 122              		.cfi_endproc
 123              	.LFE4:
 125              		.global	crctable
 126              		.section	.data.crctable,"aw"
 127              		.align	2
 130              	crctable:
 131 0000 00E729CE 		.ascii	"\000\347)\316R\265{\234\244C\215j\366\021\3378\257H"
 131      52B57B9C 
 131      A4438D6A 
 131      F611DF38 
 131      AF48
 132 0012 8661FD1A 		.ascii	"\206a\375\032\3243\013\354\"\305Y\276p\227\271^\220"
 132      D4330BEC 
 132      22C559BE 
 132      7097B95E 
 132      90
 133 0023 77EB0CC2 		.ascii	"w\353\014\302%\035\3724\323O\250f\201\026\361?\330D"
 133      251DFA34 
 133      D34FA866 
 133      8116F13F 
 133      D844
 134 0035 A36D8AB2 		.ascii	"\243m\212\262U\233|\340\007\311.\225r\274[\307 \356"
 134      559B7CE0 
 134      07C92E95 
 134      72BC5BC7 
 134      20EE
 135 0047 0931D618 		.ascii	"\0111\326\030\377c\204J\255:\335\023\364h\217A\246\236"
 135      FF63844A 
 135      AD3ADD13 
 135      F4688F41 
 135      A69E
 136 0059 79B750CC 		.ascii	"y\267P\314+\345\002,\313\005\342~\231W\260\210o\241"
 136      2BE5022C 
 136      CB05E27E 
 136      9957B088 
 136      6FA1
 137 006b 46DA3DF3 		.ascii	"F\332=\363\024\203d\252M\3216\370\037'\300\016\351u"
 137      148364AA 
 137      4DD136F8 
 137      1F27C00E 
 137      E975
 138 007d 925CBBCD 		.ascii	"\222\\\273\315*\344\003\237x\266Qi\216@\247;\334\022"
 138      2AE4039F 
 138      78B65169 
 138      8E40A73B 
 138      DC12
 139 008f F562854B 		.ascii	"\365b\205K\2540\327\031\376\306!\357\010\224s\275Zt"
 139      AC30D719 
 139      FEC621EF 
 139      089473BD 
 139      5A74
ARM GAS  /tmp/ccIT7oWX.s 			page 5


 140 00a1 935DBA26 		.ascii	"\223]\272&\301\017\350\3207\371\036\202e\253L\333<\362"
 140      C10FE8D0 
 140      37F91E82 
 140      65AB4CDB 
 140      3CF2
 141 00b3 15896EA0 		.ascii	"\025\211n\240G\177\230V\261-\312\004\343X\277q\226\012"
 141      477F9856 
 141      B12DCA04 
 141      E358BF71 
 141      960A
 142 00c5 ED23C4FC 		.ascii	"\355#\304\374\033\3252\256I\207`\367\020\3369\245B\214"
 142      1BD532AE 
 142      498760F7 
 142      10DE39A5 
 142      428C
 143 00d7 6B53B47A 		.ascii	"kS\264z\235\001\346(\317\341\006\310/\263T\232}E\242"
 143      9D01E628 
 143      CFE106C8 
 143      2FB3549A 
 143      7D45A2
 144 00ea 6C8B17F0 		.ascii	"l\213\027\360>\331N\251g\200\034\3735\322\352\015\303"
 144      3ED94EA9 
 144      67801CFB 
 144      35D2EA0D 
 144      C3
 145 00fb 24B85F91 		.ascii	"$\270_\221v"
 145      76
 146              		.text
 147              	.Letext0:
 148              		.file 2 "/nix/store/lcj4nx7xv8c36cif7armkfa7b5cmfh74-gcc-arm-embedded-12.3.rel1/arm-none-eabi/incl
 149              		.file 3 "/nix/store/lcj4nx7xv8c36cif7armkfa7b5cmfh74-gcc-arm-embedded-12.3.rel1/arm-none-eabi/incl
 150              		.file 4 "/nix/store/lcj4nx7xv8c36cif7armkfa7b5cmfh74-gcc-arm-embedded-12.3.rel1/lib/gcc/arm-none-e
ARM GAS  /tmp/ccIT7oWX.s 			page 6

