ARM GAS  /tmp/cccIhoVk.s 			page 1


   1              		.cpu cortex-m7
   2              		.arch armv7e-m
   3              		.fpu fpv5-d16
   4              		.eabi_attribute 28, 1
   5              		.eabi_attribute 20, 1
   6              		.eabi_attribute 21, 1
   7              		.eabi_attribute 23, 3
   8              		.eabi_attribute 24, 1
   9              		.eabi_attribute 25, 1
  10              		.eabi_attribute 26, 1
  11              		.eabi_attribute 30, 1
  12              		.eabi_attribute 34, 1
  13              		.eabi_attribute 18, 4
  14              		.file	"main.c"
  15              		.text
  16              	.Ltext0:
  17              		.cfi_sections	.debug_frame
  18              		.file 1 "Core/Src/main.c"
  19              		.section	.text.MX_GPIO_Init,"ax",%progbits
  20              		.align	1
  21              		.syntax unified
  22              		.thumb
  23              		.thumb_func
  25              	MX_GPIO_Init:
  26              	.LFB412:
   1:Core/Src/main.c **** /* USER CODE BEGIN Header */
   2:Core/Src/main.c **** /**
   3:Core/Src/main.c ****   ******************************************************************************
   4:Core/Src/main.c ****   * @file           : main.c
   5:Core/Src/main.c ****   * @brief          : Main program body
   6:Core/Src/main.c ****   ******************************************************************************
   7:Core/Src/main.c ****   * @attention
   8:Core/Src/main.c ****   *
   9:Core/Src/main.c ****   * Copyright (c) 2024 STMicroelectronics.
  10:Core/Src/main.c ****   * All rights reserved.
  11:Core/Src/main.c ****   *
  12:Core/Src/main.c ****   * This software is licensed under terms that can be found in the LICENSE file
  13:Core/Src/main.c ****   * in the root directory of this software component.
  14:Core/Src/main.c ****   * If no LICENSE file comes with this software, it is provided AS-IS.
  15:Core/Src/main.c ****   *
  16:Core/Src/main.c ****   ******************************************************************************
  17:Core/Src/main.c ****   */
  18:Core/Src/main.c **** /* USER CODE END Header */
  19:Core/Src/main.c **** /* Includes ------------------------------------------------------------------*/
  20:Core/Src/main.c **** #include "main.h"
  21:Core/Src/main.c **** #include "fatfs.h"
  22:Core/Src/main.c **** 
  23:Core/Src/main.c **** /* Private includes ----------------------------------------------------------*/
  24:Core/Src/main.c **** /* USER CODE BEGIN Includes */
  25:Core/Src/main.c **** #include "port_layer.h"
  26:Core/Src/main.c **** #include "servo.h"
  27:Core/Src/main.c **** /* USER CODE END Includes */
  28:Core/Src/main.c **** 
  29:Core/Src/main.c **** /* Private typedef -----------------------------------------------------------*/
  30:Core/Src/main.c **** /* USER CODE BEGIN PTD */
  31:Core/Src/main.c **** 
  32:Core/Src/main.c **** /* USER CODE END PTD */
ARM GAS  /tmp/cccIhoVk.s 			page 2


  33:Core/Src/main.c **** 
  34:Core/Src/main.c **** /* Private define ------------------------------------------------------------*/
  35:Core/Src/main.c **** /* USER CODE BEGIN PD */
  36:Core/Src/main.c **** 
  37:Core/Src/main.c **** /* USER CODE END PD */
  38:Core/Src/main.c **** 
  39:Core/Src/main.c **** /* Private macro -------------------------------------------------------------*/
  40:Core/Src/main.c **** /* USER CODE BEGIN PM */
  41:Core/Src/main.c **** 
  42:Core/Src/main.c **** /* USER CODE END PM */
  43:Core/Src/main.c **** 
  44:Core/Src/main.c **** /* Private variables ---------------------------------------------------------*/
  45:Core/Src/main.c **** ADC_HandleTypeDef hadc1;
  46:Core/Src/main.c **** ADC_HandleTypeDef hadc2;
  47:Core/Src/main.c **** ADC_HandleTypeDef hadc3;
  48:Core/Src/main.c **** 
  49:Core/Src/main.c **** OSPI_HandleTypeDef hospi1;
  50:Core/Src/main.c **** 
  51:Core/Src/main.c **** SPI_HandleTypeDef hspi1;
  52:Core/Src/main.c **** 
  53:Core/Src/main.c **** TIM_HandleTypeDef htim2;
  54:Core/Src/main.c **** TIM_HandleTypeDef htim3;
  55:Core/Src/main.c **** TIM_HandleTypeDef htim4;
  56:Core/Src/main.c **** 
  57:Core/Src/main.c **** UART_HandleTypeDef huart4;
  58:Core/Src/main.c **** UART_HandleTypeDef huart5;
  59:Core/Src/main.c **** UART_HandleTypeDef huart2;
  60:Core/Src/main.c **** 
  61:Core/Src/main.c **** /* USER CODE BEGIN PV */
  62:Core/Src/main.c **** 
  63:Core/Src/main.c **** /* USER CODE END PV */
  64:Core/Src/main.c **** 
  65:Core/Src/main.c **** /* Private function prototypes -----------------------------------------------*/
  66:Core/Src/main.c **** void SystemClock_Config(void);
  67:Core/Src/main.c **** void PeriphCommonClock_Config(void);
  68:Core/Src/main.c **** static void MX_GPIO_Init(void);
  69:Core/Src/main.c **** static void MX_SPI1_Init(void);
  70:Core/Src/main.c **** static void MX_UART4_Init(void);
  71:Core/Src/main.c **** static void MX_UART5_Init(void);
  72:Core/Src/main.c **** static void MX_USART2_UART_Init(void);
  73:Core/Src/main.c **** static void MX_OCTOSPI1_Init(void);
  74:Core/Src/main.c **** static void MX_ADC2_Init(void);
  75:Core/Src/main.c **** static void MX_ADC3_Init(void);
  76:Core/Src/main.c **** static void MX_ADC1_Init(void);
  77:Core/Src/main.c **** static void MX_TIM2_Init(void);
  78:Core/Src/main.c **** static void MX_TIM4_Init(void);
  79:Core/Src/main.c **** static void MX_TIM3_Init(void);
  80:Core/Src/main.c **** /* USER CODE BEGIN PFP */
  81:Core/Src/main.c **** 
  82:Core/Src/main.c **** /* USER CODE END PFP */
  83:Core/Src/main.c **** 
  84:Core/Src/main.c **** /* Private user code ---------------------------------------------------------*/
  85:Core/Src/main.c **** /* USER CODE BEGIN 0 */
  86:Core/Src/main.c **** double servo_angle = 0.0;
  87:Core/Src/main.c **** Servo_T servo;
  88:Core/Src/main.c **** /* USER CODE END 0 */
  89:Core/Src/main.c **** 
ARM GAS  /tmp/cccIhoVk.s 			page 3


  90:Core/Src/main.c **** /**
  91:Core/Src/main.c ****   * @brief  The application entry point.
  92:Core/Src/main.c ****   * @retval int
  93:Core/Src/main.c ****   */
  94:Core/Src/main.c **** int main(void)
  95:Core/Src/main.c **** {
  96:Core/Src/main.c **** 
  97:Core/Src/main.c ****   /* USER CODE BEGIN 1 */
  98:Core/Src/main.c **** 
  99:Core/Src/main.c ****   /* USER CODE END 1 */
 100:Core/Src/main.c **** 
 101:Core/Src/main.c ****   /* MCU Configuration--------------------------------------------------------*/
 102:Core/Src/main.c **** 
 103:Core/Src/main.c ****   /* Reset of all peripherals, Initializes the Flash interface and the Systick. */
 104:Core/Src/main.c ****   HAL_Init();
 105:Core/Src/main.c **** 
 106:Core/Src/main.c ****   /* USER CODE BEGIN Init */
 107:Core/Src/main.c **** 
 108:Core/Src/main.c ****   /* USER CODE END Init */
 109:Core/Src/main.c **** 
 110:Core/Src/main.c ****   /* Configure the system clock */
 111:Core/Src/main.c ****   SystemClock_Config();
 112:Core/Src/main.c **** 
 113:Core/Src/main.c ****   /* Configure the peripherals common clocks */
 114:Core/Src/main.c ****   PeriphCommonClock_Config();
 115:Core/Src/main.c **** 
 116:Core/Src/main.c ****   /* USER CODE BEGIN SysInit */
 117:Core/Src/main.c **** 
 118:Core/Src/main.c ****   /* USER CODE END SysInit */
 119:Core/Src/main.c **** 
 120:Core/Src/main.c ****   /* Initialize all configured peripherals */
 121:Core/Src/main.c ****   MX_GPIO_Init();
 122:Core/Src/main.c ****   MX_SPI1_Init();
 123:Core/Src/main.c ****   MX_UART4_Init();
 124:Core/Src/main.c ****   MX_UART5_Init();
 125:Core/Src/main.c ****   MX_USART2_UART_Init();
 126:Core/Src/main.c ****   MX_FATFS_Init();
 127:Core/Src/main.c ****   MX_OCTOSPI1_Init();
 128:Core/Src/main.c ****   MX_ADC2_Init();
 129:Core/Src/main.c ****   MX_ADC3_Init();
 130:Core/Src/main.c ****   MX_ADC1_Init();
 131:Core/Src/main.c ****   MX_TIM2_Init();
 132:Core/Src/main.c ****   MX_TIM4_Init();
 133:Core/Src/main.c ****   MX_TIM3_Init();
 134:Core/Src/main.c ****   /* USER CODE BEGIN 2 */
 135:Core/Src/main.c ****   uint8_t tmp;
 136:Core/Src/main.c ****   while(HAL_TIMEOUT != HAL_UART_Receive(&state_uart, &tmp, 1, 10));
 137:Core/Src/main.c ****   
 138:Core/Src/main.c ****   if (port_init()) {
 139:Core/Src/main.c ****     HAL_UART_Transmit(&debug_uart, (uint8_t *) "Port initialized\r\n", 18, HAL_MAX_DELAY);
 140:Core/Src/main.c ****   } else {
 141:Core/Src/main.c ****     HAL_UART_Transmit(&debug_uart, (uint8_t *) "Port not initialized\r\n", 22, HAL_MAX_DELAY);
 142:Core/Src/main.c ****   }
 143:Core/Src/main.c **** 
 144:Core/Src/main.c ****   port_start();
 145:Core/Src/main.c **** 
 146:Core/Src/main.c ****   /* USER CODE END 2 */
ARM GAS  /tmp/cccIhoVk.s 			page 4


 147:Core/Src/main.c **** 
 148:Core/Src/main.c ****   /* Infinite loop */
 149:Core/Src/main.c ****   /* USER CODE BEGIN WHILE */
 150:Core/Src/main.c ****   while (1)
 151:Core/Src/main.c ****   {
 152:Core/Src/main.c ****     /* USER CODE END WHILE */
 153:Core/Src/main.c **** 
 154:Core/Src/main.c ****     /* USER CODE BEGIN 3 */
 155:Core/Src/main.c ****   }
 156:Core/Src/main.c ****   /* USER CODE END 3 */
 157:Core/Src/main.c **** }
 158:Core/Src/main.c **** 
 159:Core/Src/main.c **** /**
 160:Core/Src/main.c ****   * @brief System Clock Configuration
 161:Core/Src/main.c ****   * @retval None
 162:Core/Src/main.c ****   */
 163:Core/Src/main.c **** void SystemClock_Config(void)
 164:Core/Src/main.c **** {
 165:Core/Src/main.c ****   RCC_OscInitTypeDef RCC_OscInitStruct = {0};
 166:Core/Src/main.c ****   RCC_ClkInitTypeDef RCC_ClkInitStruct = {0};
 167:Core/Src/main.c **** 
 168:Core/Src/main.c ****   /** Supply configuration update enable
 169:Core/Src/main.c ****   */
 170:Core/Src/main.c ****   HAL_PWREx_ConfigSupply(PWR_LDO_SUPPLY);
 171:Core/Src/main.c **** 
 172:Core/Src/main.c ****   /** Configure the main internal regulator output voltage
 173:Core/Src/main.c ****   */
 174:Core/Src/main.c ****   __HAL_PWR_VOLTAGESCALING_CONFIG(PWR_REGULATOR_VOLTAGE_SCALE2);
 175:Core/Src/main.c **** 
 176:Core/Src/main.c ****   while(!__HAL_PWR_GET_FLAG(PWR_FLAG_VOSRDY)) {}
 177:Core/Src/main.c **** 
 178:Core/Src/main.c ****   /** Initializes the RCC Oscillators according to the specified parameters
 179:Core/Src/main.c ****   * in the RCC_OscInitTypeDef structure.
 180:Core/Src/main.c ****   */
 181:Core/Src/main.c ****   RCC_OscInitStruct.OscillatorType = RCC_OSCILLATORTYPE_HSE;
 182:Core/Src/main.c ****   RCC_OscInitStruct.HSEState = RCC_HSE_ON;
 183:Core/Src/main.c ****   RCC_OscInitStruct.PLL.PLLState = RCC_PLL_ON;
 184:Core/Src/main.c ****   RCC_OscInitStruct.PLL.PLLSource = RCC_PLLSOURCE_HSE;
 185:Core/Src/main.c ****   RCC_OscInitStruct.PLL.PLLM = 1;
 186:Core/Src/main.c ****   RCC_OscInitStruct.PLL.PLLN = 24;
 187:Core/Src/main.c ****   RCC_OscInitStruct.PLL.PLLP = 1;
 188:Core/Src/main.c ****   RCC_OscInitStruct.PLL.PLLQ = 2;
 189:Core/Src/main.c ****   RCC_OscInitStruct.PLL.PLLR = 2;
 190:Core/Src/main.c ****   RCC_OscInitStruct.PLL.PLLRGE = RCC_PLL1VCIRANGE_3;
 191:Core/Src/main.c ****   RCC_OscInitStruct.PLL.PLLVCOSEL = RCC_PLL1VCOWIDE;
 192:Core/Src/main.c ****   RCC_OscInitStruct.PLL.PLLFRACN = 0;
 193:Core/Src/main.c ****   if (HAL_RCC_OscConfig(&RCC_OscInitStruct) != HAL_OK)
 194:Core/Src/main.c ****   {
 195:Core/Src/main.c ****     Error_Handler();
 196:Core/Src/main.c ****   }
 197:Core/Src/main.c **** 
 198:Core/Src/main.c ****   /** Initializes the CPU, AHB and APB buses clocks
 199:Core/Src/main.c ****   */
 200:Core/Src/main.c ****   RCC_ClkInitStruct.ClockType = RCC_CLOCKTYPE_HCLK|RCC_CLOCKTYPE_SYSCLK
 201:Core/Src/main.c ****                               |RCC_CLOCKTYPE_PCLK1|RCC_CLOCKTYPE_PCLK2
 202:Core/Src/main.c ****                               |RCC_CLOCKTYPE_D3PCLK1|RCC_CLOCKTYPE_D1PCLK1;
 203:Core/Src/main.c ****   RCC_ClkInitStruct.SYSCLKSource = RCC_SYSCLKSOURCE_PLLCLK;
ARM GAS  /tmp/cccIhoVk.s 			page 5


 204:Core/Src/main.c ****   RCC_ClkInitStruct.SYSCLKDivider = RCC_SYSCLK_DIV1;
 205:Core/Src/main.c ****   RCC_ClkInitStruct.AHBCLKDivider = RCC_HCLK_DIV2;
 206:Core/Src/main.c ****   RCC_ClkInitStruct.APB3CLKDivider = RCC_APB3_DIV1;
 207:Core/Src/main.c ****   RCC_ClkInitStruct.APB1CLKDivider = RCC_APB1_DIV2;
 208:Core/Src/main.c ****   RCC_ClkInitStruct.APB2CLKDivider = RCC_APB2_DIV1;
 209:Core/Src/main.c ****   RCC_ClkInitStruct.APB4CLKDivider = RCC_APB4_DIV1;
 210:Core/Src/main.c **** 
 211:Core/Src/main.c ****   if (HAL_RCC_ClockConfig(&RCC_ClkInitStruct, FLASH_LATENCY_1) != HAL_OK)
 212:Core/Src/main.c ****   {
 213:Core/Src/main.c ****     Error_Handler();
 214:Core/Src/main.c ****   }
 215:Core/Src/main.c **** }
 216:Core/Src/main.c **** 
 217:Core/Src/main.c **** /**
 218:Core/Src/main.c ****   * @brief Peripherals Common Clock Configuration
 219:Core/Src/main.c ****   * @retval None
 220:Core/Src/main.c ****   */
 221:Core/Src/main.c **** void PeriphCommonClock_Config(void)
 222:Core/Src/main.c **** {
 223:Core/Src/main.c ****   RCC_PeriphCLKInitTypeDef PeriphClkInitStruct = {0};
 224:Core/Src/main.c **** 
 225:Core/Src/main.c ****   /** Initializes the peripherals clock
 226:Core/Src/main.c ****   */
 227:Core/Src/main.c ****   PeriphClkInitStruct.PeriphClockSelection = RCC_PERIPHCLK_ADC;
 228:Core/Src/main.c ****   PeriphClkInitStruct.PLL2.PLL2M = 1;
 229:Core/Src/main.c ****   PeriphClkInitStruct.PLL2.PLL2N = 32;
 230:Core/Src/main.c ****   PeriphClkInitStruct.PLL2.PLL2P = 8;
 231:Core/Src/main.c ****   PeriphClkInitStruct.PLL2.PLL2Q = 2;
 232:Core/Src/main.c ****   PeriphClkInitStruct.PLL2.PLL2R = 2;
 233:Core/Src/main.c ****   PeriphClkInitStruct.PLL2.PLL2RGE = RCC_PLL2VCIRANGE_3;
 234:Core/Src/main.c ****   PeriphClkInitStruct.PLL2.PLL2VCOSEL = RCC_PLL2VCOWIDE;
 235:Core/Src/main.c ****   PeriphClkInitStruct.PLL2.PLL2FRACN = 0;
 236:Core/Src/main.c ****   PeriphClkInitStruct.AdcClockSelection = RCC_ADCCLKSOURCE_PLL2;
 237:Core/Src/main.c ****   if (HAL_RCCEx_PeriphCLKConfig(&PeriphClkInitStruct) != HAL_OK)
 238:Core/Src/main.c ****   {
 239:Core/Src/main.c ****     Error_Handler();
 240:Core/Src/main.c ****   }
 241:Core/Src/main.c **** }
 242:Core/Src/main.c **** 
 243:Core/Src/main.c **** /**
 244:Core/Src/main.c ****   * @brief ADC1 Initialization Function
 245:Core/Src/main.c ****   * @param None
 246:Core/Src/main.c ****   * @retval None
 247:Core/Src/main.c ****   */
 248:Core/Src/main.c **** static void MX_ADC1_Init(void)
 249:Core/Src/main.c **** {
 250:Core/Src/main.c **** 
 251:Core/Src/main.c ****   /* USER CODE BEGIN ADC1_Init 0 */
 252:Core/Src/main.c **** 
 253:Core/Src/main.c ****   /* USER CODE END ADC1_Init 0 */
 254:Core/Src/main.c **** 
 255:Core/Src/main.c ****   ADC_MultiModeTypeDef multimode = {0};
 256:Core/Src/main.c ****   ADC_ChannelConfTypeDef sConfig = {0};
 257:Core/Src/main.c **** 
 258:Core/Src/main.c ****   /* USER CODE BEGIN ADC1_Init 1 */
 259:Core/Src/main.c **** 
 260:Core/Src/main.c ****   /* USER CODE END ADC1_Init 1 */
ARM GAS  /tmp/cccIhoVk.s 			page 6


 261:Core/Src/main.c **** 
 262:Core/Src/main.c ****   /** Common config
 263:Core/Src/main.c ****   */
 264:Core/Src/main.c ****   hadc1.Instance = ADC1;
 265:Core/Src/main.c ****   hadc1.Init.ClockPrescaler = ADC_CLOCK_ASYNC_DIV1;
 266:Core/Src/main.c ****   hadc1.Init.Resolution = ADC_RESOLUTION_14B;
 267:Core/Src/main.c ****   hadc1.Init.ScanConvMode = ADC_SCAN_DISABLE;
 268:Core/Src/main.c ****   hadc1.Init.EOCSelection = ADC_EOC_SINGLE_CONV;
 269:Core/Src/main.c ****   hadc1.Init.LowPowerAutoWait = DISABLE;
 270:Core/Src/main.c ****   hadc1.Init.ContinuousConvMode = DISABLE;
 271:Core/Src/main.c ****   hadc1.Init.NbrOfConversion = 1;
 272:Core/Src/main.c ****   hadc1.Init.DiscontinuousConvMode = DISABLE;
 273:Core/Src/main.c ****   hadc1.Init.ExternalTrigConv = ADC_SOFTWARE_START;
 274:Core/Src/main.c ****   hadc1.Init.ExternalTrigConvEdge = ADC_EXTERNALTRIGCONVEDGE_NONE;
 275:Core/Src/main.c ****   hadc1.Init.ConversionDataManagement = ADC_CONVERSIONDATA_DR;
 276:Core/Src/main.c ****   hadc1.Init.Overrun = ADC_OVR_DATA_PRESERVED;
 277:Core/Src/main.c ****   hadc1.Init.LeftBitShift = ADC_LEFTBITSHIFT_NONE;
 278:Core/Src/main.c ****   hadc1.Init.OversamplingMode = DISABLE;
 279:Core/Src/main.c ****   hadc1.Init.Oversampling.Ratio = 1;
 280:Core/Src/main.c ****   if (HAL_ADC_Init(&hadc1) != HAL_OK)
 281:Core/Src/main.c ****   {
 282:Core/Src/main.c ****     Error_Handler();
 283:Core/Src/main.c ****   }
 284:Core/Src/main.c **** 
 285:Core/Src/main.c ****   /** Configure the ADC multi-mode
 286:Core/Src/main.c ****   */
 287:Core/Src/main.c ****   multimode.Mode = ADC_MODE_INDEPENDENT;
 288:Core/Src/main.c ****   if (HAL_ADCEx_MultiModeConfigChannel(&hadc1, &multimode) != HAL_OK)
 289:Core/Src/main.c ****   {
 290:Core/Src/main.c ****     Error_Handler();
 291:Core/Src/main.c ****   }
 292:Core/Src/main.c **** 
 293:Core/Src/main.c ****   /** Configure Regular Channel
 294:Core/Src/main.c ****   */
 295:Core/Src/main.c ****   sConfig.Channel = ADC_CHANNEL_2;
 296:Core/Src/main.c ****   sConfig.Rank = ADC_REGULAR_RANK_1;
 297:Core/Src/main.c ****   sConfig.SamplingTime = ADC_SAMPLETIME_810CYCLES_5;
 298:Core/Src/main.c ****   sConfig.SingleDiff = ADC_SINGLE_ENDED;
 299:Core/Src/main.c ****   sConfig.OffsetNumber = ADC_OFFSET_NONE;
 300:Core/Src/main.c ****   sConfig.Offset = 0;
 301:Core/Src/main.c ****   sConfig.OffsetSignedSaturation = DISABLE;
 302:Core/Src/main.c ****   if (HAL_ADC_ConfigChannel(&hadc1, &sConfig) != HAL_OK)
 303:Core/Src/main.c ****   {
 304:Core/Src/main.c ****     Error_Handler();
 305:Core/Src/main.c ****   }
 306:Core/Src/main.c ****   /* USER CODE BEGIN ADC1_Init 2 */
 307:Core/Src/main.c **** 
 308:Core/Src/main.c ****   /* USER CODE END ADC1_Init 2 */
 309:Core/Src/main.c **** 
 310:Core/Src/main.c **** }
 311:Core/Src/main.c **** 
 312:Core/Src/main.c **** /**
 313:Core/Src/main.c ****   * @brief ADC2 Initialization Function
 314:Core/Src/main.c ****   * @param None
 315:Core/Src/main.c ****   * @retval None
 316:Core/Src/main.c ****   */
 317:Core/Src/main.c **** static void MX_ADC2_Init(void)
ARM GAS  /tmp/cccIhoVk.s 			page 7


 318:Core/Src/main.c **** {
 319:Core/Src/main.c **** 
 320:Core/Src/main.c ****   /* USER CODE BEGIN ADC2_Init 0 */
 321:Core/Src/main.c **** 
 322:Core/Src/main.c ****   /* USER CODE END ADC2_Init 0 */
 323:Core/Src/main.c **** 
 324:Core/Src/main.c ****   ADC_ChannelConfTypeDef sConfig = {0};
 325:Core/Src/main.c **** 
 326:Core/Src/main.c ****   /* USER CODE BEGIN ADC2_Init 1 */
 327:Core/Src/main.c **** 
 328:Core/Src/main.c ****   /* USER CODE END ADC2_Init 1 */
 329:Core/Src/main.c **** 
 330:Core/Src/main.c ****   /** Common config
 331:Core/Src/main.c ****   */
 332:Core/Src/main.c ****   hadc2.Instance = ADC2;
 333:Core/Src/main.c ****   hadc2.Init.ClockPrescaler = ADC_CLOCK_ASYNC_DIV1;
 334:Core/Src/main.c ****   hadc2.Init.Resolution = ADC_RESOLUTION_14B;
 335:Core/Src/main.c ****   hadc2.Init.ScanConvMode = ADC_SCAN_DISABLE;
 336:Core/Src/main.c ****   hadc2.Init.EOCSelection = ADC_EOC_SINGLE_CONV;
 337:Core/Src/main.c ****   hadc2.Init.LowPowerAutoWait = DISABLE;
 338:Core/Src/main.c ****   hadc2.Init.ContinuousConvMode = DISABLE;
 339:Core/Src/main.c ****   hadc2.Init.NbrOfConversion = 1;
 340:Core/Src/main.c ****   hadc2.Init.DiscontinuousConvMode = DISABLE;
 341:Core/Src/main.c ****   hadc2.Init.ExternalTrigConv = ADC_SOFTWARE_START;
 342:Core/Src/main.c ****   hadc2.Init.ExternalTrigConvEdge = ADC_EXTERNALTRIGCONVEDGE_NONE;
 343:Core/Src/main.c ****   hadc2.Init.ConversionDataManagement = ADC_CONVERSIONDATA_DR;
 344:Core/Src/main.c ****   hadc2.Init.Overrun = ADC_OVR_DATA_PRESERVED;
 345:Core/Src/main.c ****   hadc2.Init.LeftBitShift = ADC_LEFTBITSHIFT_NONE;
 346:Core/Src/main.c ****   hadc2.Init.OversamplingMode = DISABLE;
 347:Core/Src/main.c ****   hadc2.Init.Oversampling.Ratio = 1;
 348:Core/Src/main.c ****   if (HAL_ADC_Init(&hadc2) != HAL_OK)
 349:Core/Src/main.c ****   {
 350:Core/Src/main.c ****     Error_Handler();
 351:Core/Src/main.c ****   }
 352:Core/Src/main.c **** 
 353:Core/Src/main.c ****   /** Configure Regular Channel
 354:Core/Src/main.c ****   */
 355:Core/Src/main.c ****   sConfig.Channel = ADC_CHANNEL_6;
 356:Core/Src/main.c ****   sConfig.Rank = ADC_REGULAR_RANK_1;
 357:Core/Src/main.c ****   sConfig.SamplingTime = ADC_SAMPLETIME_810CYCLES_5;
 358:Core/Src/main.c ****   sConfig.SingleDiff = ADC_SINGLE_ENDED;
 359:Core/Src/main.c ****   sConfig.OffsetNumber = ADC_OFFSET_NONE;
 360:Core/Src/main.c ****   sConfig.Offset = 0;
 361:Core/Src/main.c ****   sConfig.OffsetSignedSaturation = DISABLE;
 362:Core/Src/main.c ****   if (HAL_ADC_ConfigChannel(&hadc2, &sConfig) != HAL_OK)
 363:Core/Src/main.c ****   {
 364:Core/Src/main.c ****     Error_Handler();
 365:Core/Src/main.c ****   }
 366:Core/Src/main.c ****   /* USER CODE BEGIN ADC2_Init 2 */
 367:Core/Src/main.c **** 
 368:Core/Src/main.c ****   /* USER CODE END ADC2_Init 2 */
 369:Core/Src/main.c **** 
 370:Core/Src/main.c **** }
 371:Core/Src/main.c **** 
 372:Core/Src/main.c **** /**
 373:Core/Src/main.c ****   * @brief ADC3 Initialization Function
 374:Core/Src/main.c ****   * @param None
ARM GAS  /tmp/cccIhoVk.s 			page 8


 375:Core/Src/main.c ****   * @retval None
 376:Core/Src/main.c ****   */
 377:Core/Src/main.c **** static void MX_ADC3_Init(void)
 378:Core/Src/main.c **** {
 379:Core/Src/main.c **** 
 380:Core/Src/main.c ****   /* USER CODE BEGIN ADC3_Init 0 */
 381:Core/Src/main.c **** 
 382:Core/Src/main.c ****   /* USER CODE END ADC3_Init 0 */
 383:Core/Src/main.c **** 
 384:Core/Src/main.c ****   ADC_ChannelConfTypeDef sConfig = {0};
 385:Core/Src/main.c **** 
 386:Core/Src/main.c ****   /* USER CODE BEGIN ADC3_Init 1 */
 387:Core/Src/main.c **** 
 388:Core/Src/main.c ****   /* USER CODE END ADC3_Init 1 */
 389:Core/Src/main.c **** 
 390:Core/Src/main.c ****   /** Common config
 391:Core/Src/main.c ****   */
 392:Core/Src/main.c ****   hadc3.Instance = ADC3;
 393:Core/Src/main.c ****   hadc3.Init.ClockPrescaler = ADC_CLOCK_SYNC_PCLK_DIV4;
 394:Core/Src/main.c ****   hadc3.Init.Resolution = ADC_RESOLUTION_12B;
 395:Core/Src/main.c ****   hadc3.Init.DataAlign = ADC3_DATAALIGN_RIGHT;
 396:Core/Src/main.c ****   hadc3.Init.ScanConvMode = ADC_SCAN_DISABLE;
 397:Core/Src/main.c ****   hadc3.Init.EOCSelection = ADC_EOC_SINGLE_CONV;
 398:Core/Src/main.c ****   hadc3.Init.LowPowerAutoWait = DISABLE;
 399:Core/Src/main.c ****   hadc3.Init.ContinuousConvMode = DISABLE;
 400:Core/Src/main.c ****   hadc3.Init.NbrOfConversion = 1;
 401:Core/Src/main.c ****   hadc3.Init.DiscontinuousConvMode = DISABLE;
 402:Core/Src/main.c ****   hadc3.Init.ExternalTrigConv = ADC_SOFTWARE_START;
 403:Core/Src/main.c ****   hadc3.Init.ExternalTrigConvEdge = ADC_EXTERNALTRIGCONVEDGE_NONE;
 404:Core/Src/main.c ****   hadc3.Init.DMAContinuousRequests = DISABLE;
 405:Core/Src/main.c ****   hadc3.Init.SamplingMode = ADC_SAMPLING_MODE_NORMAL;
 406:Core/Src/main.c ****   hadc3.Init.ConversionDataManagement = ADC_CONVERSIONDATA_DR;
 407:Core/Src/main.c ****   hadc3.Init.Overrun = ADC_OVR_DATA_PRESERVED;
 408:Core/Src/main.c ****   hadc3.Init.LeftBitShift = ADC_LEFTBITSHIFT_NONE;
 409:Core/Src/main.c ****   hadc3.Init.OversamplingMode = DISABLE;
 410:Core/Src/main.c ****   hadc3.Init.Oversampling.Ratio = ADC3_OVERSAMPLING_RATIO_2;
 411:Core/Src/main.c ****   if (HAL_ADC_Init(&hadc3) != HAL_OK)
 412:Core/Src/main.c ****   {
 413:Core/Src/main.c ****     Error_Handler();
 414:Core/Src/main.c ****   }
 415:Core/Src/main.c **** 
 416:Core/Src/main.c ****   /** Configure Regular Channel
 417:Core/Src/main.c ****   */
 418:Core/Src/main.c ****   sConfig.Channel = ADC_CHANNEL_0;
 419:Core/Src/main.c ****   sConfig.Rank = ADC_REGULAR_RANK_1;
 420:Core/Src/main.c ****   sConfig.SamplingTime = ADC3_SAMPLETIME_640CYCLES_5;
 421:Core/Src/main.c ****   sConfig.SingleDiff = ADC_SINGLE_ENDED;
 422:Core/Src/main.c ****   sConfig.OffsetNumber = ADC_OFFSET_NONE;
 423:Core/Src/main.c ****   sConfig.Offset = 0;
 424:Core/Src/main.c ****   sConfig.OffsetSign = ADC3_OFFSET_SIGN_NEGATIVE;
 425:Core/Src/main.c ****   if (HAL_ADC_ConfigChannel(&hadc3, &sConfig) != HAL_OK)
 426:Core/Src/main.c ****   {
 427:Core/Src/main.c ****     Error_Handler();
 428:Core/Src/main.c ****   }
 429:Core/Src/main.c ****   /* USER CODE BEGIN ADC3_Init 2 */
 430:Core/Src/main.c **** 
 431:Core/Src/main.c ****   /* USER CODE END ADC3_Init 2 */
ARM GAS  /tmp/cccIhoVk.s 			page 9


 432:Core/Src/main.c **** 
 433:Core/Src/main.c **** }
 434:Core/Src/main.c **** 
 435:Core/Src/main.c **** /**
 436:Core/Src/main.c ****   * @brief OCTOSPI1 Initialization Function
 437:Core/Src/main.c ****   * @param None
 438:Core/Src/main.c ****   * @retval None
 439:Core/Src/main.c ****   */
 440:Core/Src/main.c **** static void MX_OCTOSPI1_Init(void)
 441:Core/Src/main.c **** {
 442:Core/Src/main.c **** 
 443:Core/Src/main.c ****   /* USER CODE BEGIN OCTOSPI1_Init 0 */
 444:Core/Src/main.c **** 
 445:Core/Src/main.c ****   /* USER CODE END OCTOSPI1_Init 0 */
 446:Core/Src/main.c **** 
 447:Core/Src/main.c ****   OSPIM_CfgTypeDef sOspiManagerCfg = {0};
 448:Core/Src/main.c **** 
 449:Core/Src/main.c ****   /* USER CODE BEGIN OCTOSPI1_Init 1 */
 450:Core/Src/main.c **** 
 451:Core/Src/main.c ****   /* USER CODE END OCTOSPI1_Init 1 */
 452:Core/Src/main.c ****   /* OCTOSPI1 parameter configuration*/
 453:Core/Src/main.c ****   hospi1.Instance = OCTOSPI1;
 454:Core/Src/main.c ****   hospi1.Init.FifoThreshold = 1;
 455:Core/Src/main.c ****   hospi1.Init.DualQuad = HAL_OSPI_DUALQUAD_DISABLE;
 456:Core/Src/main.c ****   hospi1.Init.MemoryType = HAL_OSPI_MEMTYPE_MICRON;
 457:Core/Src/main.c ****   hospi1.Init.DeviceSize = 24;
 458:Core/Src/main.c ****   hospi1.Init.ChipSelectHighTime = 1;
 459:Core/Src/main.c ****   hospi1.Init.FreeRunningClock = HAL_OSPI_FREERUNCLK_DISABLE;
 460:Core/Src/main.c ****   hospi1.Init.ClockMode = HAL_OSPI_CLOCK_MODE_0;
 461:Core/Src/main.c ****   hospi1.Init.WrapSize = HAL_OSPI_WRAP_NOT_SUPPORTED;
 462:Core/Src/main.c ****   hospi1.Init.ClockPrescaler = 2;
 463:Core/Src/main.c ****   hospi1.Init.SampleShifting = HAL_OSPI_SAMPLE_SHIFTING_NONE;
 464:Core/Src/main.c ****   hospi1.Init.DelayHoldQuarterCycle = HAL_OSPI_DHQC_DISABLE;
 465:Core/Src/main.c ****   hospi1.Init.ChipSelectBoundary = 0;
 466:Core/Src/main.c ****   hospi1.Init.DelayBlockBypass = HAL_OSPI_DELAY_BLOCK_BYPASSED;
 467:Core/Src/main.c ****   hospi1.Init.MaxTran = 0;
 468:Core/Src/main.c ****   hospi1.Init.Refresh = 0;
 469:Core/Src/main.c ****   if (HAL_OSPI_Init(&hospi1) != HAL_OK)
 470:Core/Src/main.c ****   {
 471:Core/Src/main.c ****     Error_Handler();
 472:Core/Src/main.c ****   }
 473:Core/Src/main.c ****   sOspiManagerCfg.ClkPort = 1;
 474:Core/Src/main.c ****   sOspiManagerCfg.IOLowPort = HAL_OSPIM_IOPORT_1_LOW;
 475:Core/Src/main.c ****   if (HAL_OSPIM_Config(&hospi1, &sOspiManagerCfg, HAL_OSPI_TIMEOUT_DEFAULT_VALUE) != HAL_OK)
 476:Core/Src/main.c ****   {
 477:Core/Src/main.c ****     Error_Handler();
 478:Core/Src/main.c ****   }
 479:Core/Src/main.c ****   /* USER CODE BEGIN OCTOSPI1_Init 2 */
 480:Core/Src/main.c **** 
 481:Core/Src/main.c ****   /* USER CODE END OCTOSPI1_Init 2 */
 482:Core/Src/main.c **** 
 483:Core/Src/main.c **** }
 484:Core/Src/main.c **** 
 485:Core/Src/main.c **** /**
 486:Core/Src/main.c ****   * @brief SPI1 Initialization Function
 487:Core/Src/main.c ****   * @param None
 488:Core/Src/main.c ****   * @retval None
ARM GAS  /tmp/cccIhoVk.s 			page 10


 489:Core/Src/main.c ****   */
 490:Core/Src/main.c **** static void MX_SPI1_Init(void)
 491:Core/Src/main.c **** {
 492:Core/Src/main.c **** 
 493:Core/Src/main.c ****   /* USER CODE BEGIN SPI1_Init 0 */
 494:Core/Src/main.c **** 
 495:Core/Src/main.c ****   /* USER CODE END SPI1_Init 0 */
 496:Core/Src/main.c **** 
 497:Core/Src/main.c ****   /* USER CODE BEGIN SPI1_Init 1 */
 498:Core/Src/main.c **** 
 499:Core/Src/main.c ****   /* USER CODE END SPI1_Init 1 */
 500:Core/Src/main.c ****   /* SPI1 parameter configuration*/
 501:Core/Src/main.c ****   hspi1.Instance = SPI1;
 502:Core/Src/main.c ****   hspi1.Init.Mode = SPI_MODE_MASTER;
 503:Core/Src/main.c ****   hspi1.Init.Direction = SPI_DIRECTION_2LINES;
 504:Core/Src/main.c ****   hspi1.Init.DataSize = SPI_DATASIZE_8BIT;
 505:Core/Src/main.c ****   hspi1.Init.CLKPolarity = SPI_POLARITY_LOW;
 506:Core/Src/main.c ****   hspi1.Init.CLKPhase = SPI_PHASE_1EDGE;
 507:Core/Src/main.c ****   hspi1.Init.NSS = SPI_NSS_SOFT;
 508:Core/Src/main.c ****   hspi1.Init.BaudRatePrescaler = SPI_BAUDRATEPRESCALER_16;
 509:Core/Src/main.c ****   hspi1.Init.FirstBit = SPI_FIRSTBIT_MSB;
 510:Core/Src/main.c ****   hspi1.Init.TIMode = SPI_TIMODE_DISABLE;
 511:Core/Src/main.c ****   hspi1.Init.CRCCalculation = SPI_CRCCALCULATION_DISABLE;
 512:Core/Src/main.c ****   hspi1.Init.CRCPolynomial = 0x0;
 513:Core/Src/main.c ****   hspi1.Init.NSSPMode = SPI_NSS_PULSE_ENABLE;
 514:Core/Src/main.c ****   hspi1.Init.NSSPolarity = SPI_NSS_POLARITY_LOW;
 515:Core/Src/main.c ****   hspi1.Init.FifoThreshold = SPI_FIFO_THRESHOLD_01DATA;
 516:Core/Src/main.c ****   hspi1.Init.TxCRCInitializationPattern = SPI_CRC_INITIALIZATION_ALL_ZERO_PATTERN;
 517:Core/Src/main.c ****   hspi1.Init.RxCRCInitializationPattern = SPI_CRC_INITIALIZATION_ALL_ZERO_PATTERN;
 518:Core/Src/main.c ****   hspi1.Init.MasterSSIdleness = SPI_MASTER_SS_IDLENESS_00CYCLE;
 519:Core/Src/main.c ****   hspi1.Init.MasterInterDataIdleness = SPI_MASTER_INTERDATA_IDLENESS_00CYCLE;
 520:Core/Src/main.c ****   hspi1.Init.MasterReceiverAutoSusp = SPI_MASTER_RX_AUTOSUSP_DISABLE;
 521:Core/Src/main.c ****   hspi1.Init.MasterKeepIOState = SPI_MASTER_KEEP_IO_STATE_DISABLE;
 522:Core/Src/main.c ****   hspi1.Init.IOSwap = SPI_IO_SWAP_DISABLE;
 523:Core/Src/main.c ****   if (HAL_SPI_Init(&hspi1) != HAL_OK)
 524:Core/Src/main.c ****   {
 525:Core/Src/main.c ****     Error_Handler();
 526:Core/Src/main.c ****   }
 527:Core/Src/main.c ****   /* USER CODE BEGIN SPI1_Init 2 */
 528:Core/Src/main.c **** 
 529:Core/Src/main.c ****   /* USER CODE END SPI1_Init 2 */
 530:Core/Src/main.c **** 
 531:Core/Src/main.c **** }
 532:Core/Src/main.c **** 
 533:Core/Src/main.c **** /**
 534:Core/Src/main.c ****   * @brief TIM2 Initialization Function
 535:Core/Src/main.c ****   * @param None
 536:Core/Src/main.c ****   * @retval None
 537:Core/Src/main.c ****   */
 538:Core/Src/main.c **** static void MX_TIM2_Init(void)
 539:Core/Src/main.c **** {
 540:Core/Src/main.c **** 
 541:Core/Src/main.c ****   /* USER CODE BEGIN TIM2_Init 0 */
 542:Core/Src/main.c **** 
 543:Core/Src/main.c ****   /* USER CODE END TIM2_Init 0 */
 544:Core/Src/main.c **** 
 545:Core/Src/main.c ****   TIM_MasterConfigTypeDef sMasterConfig = {0};
ARM GAS  /tmp/cccIhoVk.s 			page 11


 546:Core/Src/main.c ****   TIM_OC_InitTypeDef sConfigOC = {0};
 547:Core/Src/main.c **** 
 548:Core/Src/main.c ****   /* USER CODE BEGIN TIM2_Init 1 */
 549:Core/Src/main.c **** 
 550:Core/Src/main.c ****   /* USER CODE END TIM2_Init 1 */
 551:Core/Src/main.c ****   htim2.Instance = TIM2;
 552:Core/Src/main.c ****   htim2.Init.Prescaler = 29;
 553:Core/Src/main.c ****   htim2.Init.CounterMode = TIM_COUNTERMODE_UP;
 554:Core/Src/main.c ****   htim2.Init.Period = 64000;
 555:Core/Src/main.c ****   htim2.Init.ClockDivision = TIM_CLOCKDIVISION_DIV1;
 556:Core/Src/main.c ****   htim2.Init.AutoReloadPreload = TIM_AUTORELOAD_PRELOAD_DISABLE;
 557:Core/Src/main.c ****   if (HAL_TIM_PWM_Init(&htim2) != HAL_OK)
 558:Core/Src/main.c ****   {
 559:Core/Src/main.c ****     Error_Handler();
 560:Core/Src/main.c ****   }
 561:Core/Src/main.c ****   sMasterConfig.MasterOutputTrigger = TIM_TRGO_RESET;
 562:Core/Src/main.c ****   sMasterConfig.MasterSlaveMode = TIM_MASTERSLAVEMODE_DISABLE;
 563:Core/Src/main.c ****   if (HAL_TIMEx_MasterConfigSynchronization(&htim2, &sMasterConfig) != HAL_OK)
 564:Core/Src/main.c ****   {
 565:Core/Src/main.c ****     Error_Handler();
 566:Core/Src/main.c ****   }
 567:Core/Src/main.c ****   sConfigOC.OCMode = TIM_OCMODE_PWM1;
 568:Core/Src/main.c ****   sConfigOC.Pulse = 0;
 569:Core/Src/main.c ****   sConfigOC.OCPolarity = TIM_OCPOLARITY_HIGH;
 570:Core/Src/main.c ****   sConfigOC.OCFastMode = TIM_OCFAST_DISABLE;
 571:Core/Src/main.c ****   if (HAL_TIM_PWM_ConfigChannel(&htim2, &sConfigOC, TIM_CHANNEL_1) != HAL_OK)
 572:Core/Src/main.c ****   {
 573:Core/Src/main.c ****     Error_Handler();
 574:Core/Src/main.c ****   }
 575:Core/Src/main.c ****   if (HAL_TIM_PWM_ConfigChannel(&htim2, &sConfigOC, TIM_CHANNEL_2) != HAL_OK)
 576:Core/Src/main.c ****   {
 577:Core/Src/main.c ****     Error_Handler();
 578:Core/Src/main.c ****   }
 579:Core/Src/main.c ****   if (HAL_TIM_PWM_ConfigChannel(&htim2, &sConfigOC, TIM_CHANNEL_3) != HAL_OK)
 580:Core/Src/main.c ****   {
 581:Core/Src/main.c ****     Error_Handler();
 582:Core/Src/main.c ****   }
 583:Core/Src/main.c ****   /* USER CODE BEGIN TIM2_Init 2 */
 584:Core/Src/main.c **** 
 585:Core/Src/main.c ****   /* USER CODE END TIM2_Init 2 */
 586:Core/Src/main.c ****   HAL_TIM_MspPostInit(&htim2);
 587:Core/Src/main.c **** 
 588:Core/Src/main.c **** }
 589:Core/Src/main.c **** 
 590:Core/Src/main.c **** /**
 591:Core/Src/main.c ****   * @brief TIM3 Initialization Function
 592:Core/Src/main.c ****   * @param None
 593:Core/Src/main.c ****   * @retval None
 594:Core/Src/main.c ****   */
 595:Core/Src/main.c **** static void MX_TIM3_Init(void)
 596:Core/Src/main.c **** {
 597:Core/Src/main.c **** 
 598:Core/Src/main.c ****   /* USER CODE BEGIN TIM3_Init 0 */
 599:Core/Src/main.c **** 
 600:Core/Src/main.c ****   /* USER CODE END TIM3_Init 0 */
 601:Core/Src/main.c **** 
 602:Core/Src/main.c ****   TIM_MasterConfigTypeDef sMasterConfig = {0};
ARM GAS  /tmp/cccIhoVk.s 			page 12


 603:Core/Src/main.c ****   TIM_OC_InitTypeDef sConfigOC = {0};
 604:Core/Src/main.c **** 
 605:Core/Src/main.c ****   /* USER CODE BEGIN TIM3_Init 1 */
 606:Core/Src/main.c **** 
 607:Core/Src/main.c ****   /* USER CODE END TIM3_Init 1 */
 608:Core/Src/main.c ****   htim3.Instance = TIM3;
 609:Core/Src/main.c ****   htim3.Init.Prescaler = 29;
 610:Core/Src/main.c ****   htim3.Init.CounterMode = TIM_COUNTERMODE_UP;
 611:Core/Src/main.c ****   htim3.Init.Period = 64000;
 612:Core/Src/main.c ****   htim3.Init.ClockDivision = TIM_CLOCKDIVISION_DIV1;
 613:Core/Src/main.c ****   htim3.Init.AutoReloadPreload = TIM_AUTORELOAD_PRELOAD_DISABLE;
 614:Core/Src/main.c ****   if (HAL_TIM_PWM_Init(&htim3) != HAL_OK)
 615:Core/Src/main.c ****   {
 616:Core/Src/main.c ****     Error_Handler();
 617:Core/Src/main.c ****   }
 618:Core/Src/main.c ****   sMasterConfig.MasterOutputTrigger = TIM_TRGO_RESET;
 619:Core/Src/main.c ****   sMasterConfig.MasterSlaveMode = TIM_MASTERSLAVEMODE_DISABLE;
 620:Core/Src/main.c ****   if (HAL_TIMEx_MasterConfigSynchronization(&htim3, &sMasterConfig) != HAL_OK)
 621:Core/Src/main.c ****   {
 622:Core/Src/main.c ****     Error_Handler();
 623:Core/Src/main.c ****   }
 624:Core/Src/main.c ****   sConfigOC.OCMode = TIM_OCMODE_PWM1;
 625:Core/Src/main.c ****   sConfigOC.Pulse = 6400;
 626:Core/Src/main.c ****   sConfigOC.OCPolarity = TIM_OCPOLARITY_HIGH;
 627:Core/Src/main.c ****   sConfigOC.OCFastMode = TIM_OCFAST_DISABLE;
 628:Core/Src/main.c ****   if (HAL_TIM_PWM_ConfigChannel(&htim3, &sConfigOC, TIM_CHANNEL_2) != HAL_OK)
 629:Core/Src/main.c ****   {
 630:Core/Src/main.c ****     Error_Handler();
 631:Core/Src/main.c ****   }
 632:Core/Src/main.c ****   /* USER CODE BEGIN TIM3_Init 2 */
 633:Core/Src/main.c **** 
 634:Core/Src/main.c ****   /* USER CODE END TIM3_Init 2 */
 635:Core/Src/main.c ****   HAL_TIM_MspPostInit(&htim3);
 636:Core/Src/main.c **** 
 637:Core/Src/main.c **** }
 638:Core/Src/main.c **** 
 639:Core/Src/main.c **** /**
 640:Core/Src/main.c ****   * @brief TIM4 Initialization Function
 641:Core/Src/main.c ****   * @param None
 642:Core/Src/main.c ****   * @retval None
 643:Core/Src/main.c ****   */
 644:Core/Src/main.c **** static void MX_TIM4_Init(void)
 645:Core/Src/main.c **** {
 646:Core/Src/main.c **** 
 647:Core/Src/main.c ****   /* USER CODE BEGIN TIM4_Init 0 */
 648:Core/Src/main.c **** 
 649:Core/Src/main.c ****   /* USER CODE END TIM4_Init 0 */
 650:Core/Src/main.c **** 
 651:Core/Src/main.c ****   TIM_MasterConfigTypeDef sMasterConfig = {0};
 652:Core/Src/main.c ****   TIM_OC_InitTypeDef sConfigOC = {0};
 653:Core/Src/main.c **** 
 654:Core/Src/main.c ****   /* USER CODE BEGIN TIM4_Init 1 */
 655:Core/Src/main.c **** 
 656:Core/Src/main.c ****   /* USER CODE END TIM4_Init 1 */
 657:Core/Src/main.c ****   htim4.Instance = TIM4;
 658:Core/Src/main.c ****   htim4.Init.Prescaler = 29;
 659:Core/Src/main.c ****   htim4.Init.CounterMode = TIM_COUNTERMODE_UP;
ARM GAS  /tmp/cccIhoVk.s 			page 13


 660:Core/Src/main.c ****   htim4.Init.Period = 64000;
 661:Core/Src/main.c ****   htim4.Init.ClockDivision = TIM_CLOCKDIVISION_DIV1;
 662:Core/Src/main.c ****   htim4.Init.AutoReloadPreload = TIM_AUTORELOAD_PRELOAD_DISABLE;
 663:Core/Src/main.c ****   if (HAL_TIM_PWM_Init(&htim4) != HAL_OK)
 664:Core/Src/main.c ****   {
 665:Core/Src/main.c ****     Error_Handler();
 666:Core/Src/main.c ****   }
 667:Core/Src/main.c ****   sMasterConfig.MasterOutputTrigger = TIM_TRGO_RESET;
 668:Core/Src/main.c ****   sMasterConfig.MasterSlaveMode = TIM_MASTERSLAVEMODE_DISABLE;
 669:Core/Src/main.c ****   if (HAL_TIMEx_MasterConfigSynchronization(&htim4, &sMasterConfig) != HAL_OK)
 670:Core/Src/main.c ****   {
 671:Core/Src/main.c ****     Error_Handler();
 672:Core/Src/main.c ****   }
 673:Core/Src/main.c ****   sConfigOC.OCMode = TIM_OCMODE_PWM1;
 674:Core/Src/main.c ****   sConfigOC.Pulse = 0;
 675:Core/Src/main.c ****   sConfigOC.OCPolarity = TIM_OCPOLARITY_HIGH;
 676:Core/Src/main.c ****   sConfigOC.OCFastMode = TIM_OCFAST_DISABLE;
 677:Core/Src/main.c ****   if (HAL_TIM_PWM_ConfigChannel(&htim4, &sConfigOC, TIM_CHANNEL_2) != HAL_OK)
 678:Core/Src/main.c ****   {
 679:Core/Src/main.c ****     Error_Handler();
 680:Core/Src/main.c ****   }
 681:Core/Src/main.c ****   /* USER CODE BEGIN TIM4_Init 2 */
 682:Core/Src/main.c **** 
 683:Core/Src/main.c ****   /* USER CODE END TIM4_Init 2 */
 684:Core/Src/main.c ****   HAL_TIM_MspPostInit(&htim4);
 685:Core/Src/main.c **** 
 686:Core/Src/main.c **** }
 687:Core/Src/main.c **** 
 688:Core/Src/main.c **** /**
 689:Core/Src/main.c ****   * @brief UART4 Initialization Function
 690:Core/Src/main.c ****   * @param None
 691:Core/Src/main.c ****   * @retval None
 692:Core/Src/main.c ****   */
 693:Core/Src/main.c **** static void MX_UART4_Init(void)
 694:Core/Src/main.c **** {
 695:Core/Src/main.c **** 
 696:Core/Src/main.c ****   /* USER CODE BEGIN UART4_Init 0 */
 697:Core/Src/main.c **** 
 698:Core/Src/main.c ****   /* USER CODE END UART4_Init 0 */
 699:Core/Src/main.c **** 
 700:Core/Src/main.c ****   /* USER CODE BEGIN UART4_Init 1 */
 701:Core/Src/main.c **** 
 702:Core/Src/main.c ****   /* USER CODE END UART4_Init 1 */
 703:Core/Src/main.c ****   huart4.Instance = UART4;
 704:Core/Src/main.c ****   huart4.Init.BaudRate = 57600;
 705:Core/Src/main.c ****   huart4.Init.WordLength = UART_WORDLENGTH_8B;
 706:Core/Src/main.c ****   huart4.Init.StopBits = UART_STOPBITS_1;
 707:Core/Src/main.c ****   huart4.Init.Parity = UART_PARITY_NONE;
 708:Core/Src/main.c ****   huart4.Init.Mode = UART_MODE_TX_RX;
 709:Core/Src/main.c ****   huart4.Init.HwFlowCtl = UART_HWCONTROL_NONE;
 710:Core/Src/main.c ****   huart4.Init.OverSampling = UART_OVERSAMPLING_16;
 711:Core/Src/main.c ****   huart4.Init.OneBitSampling = UART_ONE_BIT_SAMPLE_DISABLE;
 712:Core/Src/main.c ****   huart4.Init.ClockPrescaler = UART_PRESCALER_DIV1;
 713:Core/Src/main.c ****   huart4.AdvancedInit.AdvFeatureInit = UART_ADVFEATURE_NO_INIT;
 714:Core/Src/main.c ****   if (HAL_UART_Init(&huart4) != HAL_OK)
 715:Core/Src/main.c ****   {
 716:Core/Src/main.c ****     Error_Handler();
ARM GAS  /tmp/cccIhoVk.s 			page 14


 717:Core/Src/main.c ****   }
 718:Core/Src/main.c ****   if (HAL_UARTEx_SetTxFifoThreshold(&huart4, UART_TXFIFO_THRESHOLD_1_8) != HAL_OK)
 719:Core/Src/main.c ****   {
 720:Core/Src/main.c ****     Error_Handler();
 721:Core/Src/main.c ****   }
 722:Core/Src/main.c ****   if (HAL_UARTEx_SetRxFifoThreshold(&huart4, UART_RXFIFO_THRESHOLD_1_8) != HAL_OK)
 723:Core/Src/main.c ****   {
 724:Core/Src/main.c ****     Error_Handler();
 725:Core/Src/main.c ****   }
 726:Core/Src/main.c ****   if (HAL_UARTEx_DisableFifoMode(&huart4) != HAL_OK)
 727:Core/Src/main.c ****   {
 728:Core/Src/main.c ****     Error_Handler();
 729:Core/Src/main.c ****   }
 730:Core/Src/main.c ****   /* USER CODE BEGIN UART4_Init 2 */
 731:Core/Src/main.c **** 
 732:Core/Src/main.c ****   /* USER CODE END UART4_Init 2 */
 733:Core/Src/main.c **** 
 734:Core/Src/main.c **** }
 735:Core/Src/main.c **** 
 736:Core/Src/main.c **** /**
 737:Core/Src/main.c ****   * @brief UART5 Initialization Function
 738:Core/Src/main.c ****   * @param None
 739:Core/Src/main.c ****   * @retval None
 740:Core/Src/main.c ****   */
 741:Core/Src/main.c **** static void MX_UART5_Init(void)
 742:Core/Src/main.c **** {
 743:Core/Src/main.c **** 
 744:Core/Src/main.c ****   /* USER CODE BEGIN UART5_Init 0 */
 745:Core/Src/main.c **** 
 746:Core/Src/main.c ****   /* USER CODE END UART5_Init 0 */
 747:Core/Src/main.c **** 
 748:Core/Src/main.c ****   /* USER CODE BEGIN UART5_Init 1 */
 749:Core/Src/main.c **** 
 750:Core/Src/main.c ****   /* USER CODE END UART5_Init 1 */
 751:Core/Src/main.c ****   huart5.Instance = UART5;
 752:Core/Src/main.c ****   huart5.Init.BaudRate = 115200;
 753:Core/Src/main.c ****   huart5.Init.WordLength = UART_WORDLENGTH_8B;
 754:Core/Src/main.c ****   huart5.Init.StopBits = UART_STOPBITS_1;
 755:Core/Src/main.c ****   huart5.Init.Parity = UART_PARITY_NONE;
 756:Core/Src/main.c ****   huart5.Init.Mode = UART_MODE_TX_RX;
 757:Core/Src/main.c ****   huart5.Init.HwFlowCtl = UART_HWCONTROL_NONE;
 758:Core/Src/main.c ****   huart5.Init.OverSampling = UART_OVERSAMPLING_16;
 759:Core/Src/main.c ****   huart5.Init.OneBitSampling = UART_ONE_BIT_SAMPLE_DISABLE;
 760:Core/Src/main.c ****   huart5.Init.ClockPrescaler = UART_PRESCALER_DIV1;
 761:Core/Src/main.c ****   huart5.AdvancedInit.AdvFeatureInit = UART_ADVFEATURE_NO_INIT;
 762:Core/Src/main.c ****   if (HAL_UART_Init(&huart5) != HAL_OK)
 763:Core/Src/main.c ****   {
 764:Core/Src/main.c ****     Error_Handler();
 765:Core/Src/main.c ****   }
 766:Core/Src/main.c ****   if (HAL_UARTEx_SetTxFifoThreshold(&huart5, UART_TXFIFO_THRESHOLD_1_8) != HAL_OK)
 767:Core/Src/main.c ****   {
 768:Core/Src/main.c ****     Error_Handler();
 769:Core/Src/main.c ****   }
 770:Core/Src/main.c ****   if (HAL_UARTEx_SetRxFifoThreshold(&huart5, UART_RXFIFO_THRESHOLD_1_8) != HAL_OK)
 771:Core/Src/main.c ****   {
 772:Core/Src/main.c ****     Error_Handler();
 773:Core/Src/main.c ****   }
ARM GAS  /tmp/cccIhoVk.s 			page 15


 774:Core/Src/main.c ****   if (HAL_UARTEx_DisableFifoMode(&huart5) != HAL_OK)
 775:Core/Src/main.c ****   {
 776:Core/Src/main.c ****     Error_Handler();
 777:Core/Src/main.c ****   }
 778:Core/Src/main.c ****   /* USER CODE BEGIN UART5_Init 2 */
 779:Core/Src/main.c **** 
 780:Core/Src/main.c ****   /* USER CODE END UART5_Init 2 */
 781:Core/Src/main.c **** 
 782:Core/Src/main.c **** }
 783:Core/Src/main.c **** 
 784:Core/Src/main.c **** /**
 785:Core/Src/main.c ****   * @brief USART2 Initialization Function
 786:Core/Src/main.c ****   * @param None
 787:Core/Src/main.c ****   * @retval None
 788:Core/Src/main.c ****   */
 789:Core/Src/main.c **** static void MX_USART2_UART_Init(void)
 790:Core/Src/main.c **** {
 791:Core/Src/main.c **** 
 792:Core/Src/main.c ****   /* USER CODE BEGIN USART2_Init 0 */
 793:Core/Src/main.c **** 
 794:Core/Src/main.c ****   /* USER CODE END USART2_Init 0 */
 795:Core/Src/main.c **** 
 796:Core/Src/main.c ****   /* USER CODE BEGIN USART2_Init 1 */
 797:Core/Src/main.c **** 
 798:Core/Src/main.c ****   /* USER CODE END USART2_Init 1 */
 799:Core/Src/main.c ****   huart2.Instance = USART2;
 800:Core/Src/main.c ****   huart2.Init.BaudRate = 115200;
 801:Core/Src/main.c ****   huart2.Init.WordLength = UART_WORDLENGTH_8B;
 802:Core/Src/main.c ****   huart2.Init.StopBits = UART_STOPBITS_1;
 803:Core/Src/main.c ****   huart2.Init.Parity = UART_PARITY_NONE;
 804:Core/Src/main.c ****   huart2.Init.Mode = UART_MODE_TX_RX;
 805:Core/Src/main.c ****   huart2.Init.HwFlowCtl = UART_HWCONTROL_NONE;
 806:Core/Src/main.c ****   huart2.Init.OverSampling = UART_OVERSAMPLING_16;
 807:Core/Src/main.c ****   huart2.Init.OneBitSampling = UART_ONE_BIT_SAMPLE_DISABLE;
 808:Core/Src/main.c ****   huart2.Init.ClockPrescaler = UART_PRESCALER_DIV1;
 809:Core/Src/main.c ****   huart2.AdvancedInit.AdvFeatureInit = UART_ADVFEATURE_NO_INIT;
 810:Core/Src/main.c ****   if (HAL_UART_Init(&huart2) != HAL_OK)
 811:Core/Src/main.c ****   {
 812:Core/Src/main.c ****     Error_Handler();
 813:Core/Src/main.c ****   }
 814:Core/Src/main.c ****   if (HAL_UARTEx_SetTxFifoThreshold(&huart2, UART_TXFIFO_THRESHOLD_1_8) != HAL_OK)
 815:Core/Src/main.c ****   {
 816:Core/Src/main.c ****     Error_Handler();
 817:Core/Src/main.c ****   }
 818:Core/Src/main.c ****   if (HAL_UARTEx_SetRxFifoThreshold(&huart2, UART_RXFIFO_THRESHOLD_1_8) != HAL_OK)
 819:Core/Src/main.c ****   {
 820:Core/Src/main.c ****     Error_Handler();
 821:Core/Src/main.c ****   }
 822:Core/Src/main.c ****   if (HAL_UARTEx_DisableFifoMode(&huart2) != HAL_OK)
 823:Core/Src/main.c ****   {
 824:Core/Src/main.c ****     Error_Handler();
 825:Core/Src/main.c ****   }
 826:Core/Src/main.c ****   /* USER CODE BEGIN USART2_Init 2 */
 827:Core/Src/main.c **** 
 828:Core/Src/main.c ****   /* USER CODE END USART2_Init 2 */
 829:Core/Src/main.c **** 
 830:Core/Src/main.c **** }
ARM GAS  /tmp/cccIhoVk.s 			page 16


 831:Core/Src/main.c **** 
 832:Core/Src/main.c **** /**
 833:Core/Src/main.c ****   * @brief GPIO Initialization Function
 834:Core/Src/main.c ****   * @param None
 835:Core/Src/main.c ****   * @retval None
 836:Core/Src/main.c ****   */
 837:Core/Src/main.c **** static void MX_GPIO_Init(void)
 838:Core/Src/main.c **** {
  27              		.loc 1 838 1 view -0
  28              		.cfi_startproc
  29              		@ args = 0, pretend = 0, frame = 56
  30              		@ frame_needed = 0, uses_anonymous_args = 0
  31 0000 F0B5     		push	{r4, r5, r6, r7, lr}
  32              	.LCFI0:
  33              		.cfi_def_cfa_offset 20
  34              		.cfi_offset 4, -20
  35              		.cfi_offset 5, -16
  36              		.cfi_offset 6, -12
  37              		.cfi_offset 7, -8
  38              		.cfi_offset 14, -4
  39 0002 8FB0     		sub	sp, sp, #60
  40              	.LCFI1:
  41              		.cfi_def_cfa_offset 80
 839:Core/Src/main.c ****   GPIO_InitTypeDef GPIO_InitStruct = {0};
  42              		.loc 1 839 3 view .LVU1
  43              		.loc 1 839 20 is_stmt 0 view .LVU2
  44 0004 0024     		movs	r4, #0
  45 0006 0994     		str	r4, [sp, #36]
  46 0008 0A94     		str	r4, [sp, #40]
  47 000a 0B94     		str	r4, [sp, #44]
  48 000c 0C94     		str	r4, [sp, #48]
  49 000e 0D94     		str	r4, [sp, #52]
 840:Core/Src/main.c **** /* USER CODE BEGIN MX_GPIO_Init_1 */
 841:Core/Src/main.c **** /* USER CODE END MX_GPIO_Init_1 */
 842:Core/Src/main.c **** 
 843:Core/Src/main.c ****   /* GPIO Ports Clock Enable */
 844:Core/Src/main.c ****   __HAL_RCC_GPIOE_CLK_ENABLE();
  50              		.loc 1 844 3 is_stmt 1 view .LVU3
  51              	.LBB4:
  52              		.loc 1 844 3 view .LVU4
  53              		.loc 1 844 3 view .LVU5
  54 0010 434B     		ldr	r3, .L3
  55 0012 D3F8E020 		ldr	r2, [r3, #224]
  56 0016 42F01002 		orr	r2, r2, #16
  57 001a C3F8E020 		str	r2, [r3, #224]
  58              		.loc 1 844 3 view .LVU6
  59 001e D3F8E020 		ldr	r2, [r3, #224]
  60 0022 02F01002 		and	r2, r2, #16
  61 0026 0192     		str	r2, [sp, #4]
  62              		.loc 1 844 3 view .LVU7
  63 0028 019A     		ldr	r2, [sp, #4]
  64              	.LBE4:
  65              		.loc 1 844 3 view .LVU8
 845:Core/Src/main.c ****   __HAL_RCC_GPIOF_CLK_ENABLE();
  66              		.loc 1 845 3 view .LVU9
  67              	.LBB5:
  68              		.loc 1 845 3 view .LVU10
ARM GAS  /tmp/cccIhoVk.s 			page 17


  69              		.loc 1 845 3 view .LVU11
  70 002a D3F8E020 		ldr	r2, [r3, #224]
  71 002e 42F02002 		orr	r2, r2, #32
  72 0032 C3F8E020 		str	r2, [r3, #224]
  73              		.loc 1 845 3 view .LVU12
  74 0036 D3F8E020 		ldr	r2, [r3, #224]
  75 003a 02F02002 		and	r2, r2, #32
  76 003e 0292     		str	r2, [sp, #8]
  77              		.loc 1 845 3 view .LVU13
  78 0040 029A     		ldr	r2, [sp, #8]
  79              	.LBE5:
  80              		.loc 1 845 3 view .LVU14
 846:Core/Src/main.c ****   __HAL_RCC_GPIOH_CLK_ENABLE();
  81              		.loc 1 846 3 view .LVU15
  82              	.LBB6:
  83              		.loc 1 846 3 view .LVU16
  84              		.loc 1 846 3 view .LVU17
  85 0042 D3F8E020 		ldr	r2, [r3, #224]
  86 0046 42F08002 		orr	r2, r2, #128
  87 004a C3F8E020 		str	r2, [r3, #224]
  88              		.loc 1 846 3 view .LVU18
  89 004e D3F8E020 		ldr	r2, [r3, #224]
  90 0052 02F08002 		and	r2, r2, #128
  91 0056 0392     		str	r2, [sp, #12]
  92              		.loc 1 846 3 view .LVU19
  93 0058 039A     		ldr	r2, [sp, #12]
  94              	.LBE6:
  95              		.loc 1 846 3 view .LVU20
 847:Core/Src/main.c ****   __HAL_RCC_GPIOC_CLK_ENABLE();
  96              		.loc 1 847 3 view .LVU21
  97              	.LBB7:
  98              		.loc 1 847 3 view .LVU22
  99              		.loc 1 847 3 view .LVU23
 100 005a D3F8E020 		ldr	r2, [r3, #224]
 101 005e 42F00402 		orr	r2, r2, #4
 102 0062 C3F8E020 		str	r2, [r3, #224]
 103              		.loc 1 847 3 view .LVU24
 104 0066 D3F8E020 		ldr	r2, [r3, #224]
 105 006a 02F00402 		and	r2, r2, #4
 106 006e 0492     		str	r2, [sp, #16]
 107              		.loc 1 847 3 view .LVU25
 108 0070 049A     		ldr	r2, [sp, #16]
 109              	.LBE7:
 110              		.loc 1 847 3 view .LVU26
 848:Core/Src/main.c ****   __HAL_RCC_GPIOB_CLK_ENABLE();
 111              		.loc 1 848 3 view .LVU27
 112              	.LBB8:
 113              		.loc 1 848 3 view .LVU28
 114              		.loc 1 848 3 view .LVU29
 115 0072 D3F8E020 		ldr	r2, [r3, #224]
 116 0076 42F00202 		orr	r2, r2, #2
 117 007a C3F8E020 		str	r2, [r3, #224]
 118              		.loc 1 848 3 view .LVU30
 119 007e D3F8E020 		ldr	r2, [r3, #224]
 120 0082 02F00202 		and	r2, r2, #2
 121 0086 0592     		str	r2, [sp, #20]
 122              		.loc 1 848 3 view .LVU31
ARM GAS  /tmp/cccIhoVk.s 			page 18


 123 0088 059A     		ldr	r2, [sp, #20]
 124              	.LBE8:
 125              		.loc 1 848 3 view .LVU32
 849:Core/Src/main.c ****   __HAL_RCC_GPIOD_CLK_ENABLE();
 126              		.loc 1 849 3 view .LVU33
 127              	.LBB9:
 128              		.loc 1 849 3 view .LVU34
 129              		.loc 1 849 3 view .LVU35
 130 008a D3F8E020 		ldr	r2, [r3, #224]
 131 008e 42F00802 		orr	r2, r2, #8
 132 0092 C3F8E020 		str	r2, [r3, #224]
 133              		.loc 1 849 3 view .LVU36
 134 0096 D3F8E020 		ldr	r2, [r3, #224]
 135 009a 02F00802 		and	r2, r2, #8
 136 009e 0692     		str	r2, [sp, #24]
 137              		.loc 1 849 3 view .LVU37
 138 00a0 069A     		ldr	r2, [sp, #24]
 139              	.LBE9:
 140              		.loc 1 849 3 view .LVU38
 850:Core/Src/main.c ****   __HAL_RCC_GPIOG_CLK_ENABLE();
 141              		.loc 1 850 3 view .LVU39
 142              	.LBB10:
 143              		.loc 1 850 3 view .LVU40
 144              		.loc 1 850 3 view .LVU41
 145 00a2 D3F8E020 		ldr	r2, [r3, #224]
 146 00a6 42F04002 		orr	r2, r2, #64
 147 00aa C3F8E020 		str	r2, [r3, #224]
 148              		.loc 1 850 3 view .LVU42
 149 00ae D3F8E020 		ldr	r2, [r3, #224]
 150 00b2 02F04002 		and	r2, r2, #64
 151 00b6 0792     		str	r2, [sp, #28]
 152              		.loc 1 850 3 view .LVU43
 153 00b8 079A     		ldr	r2, [sp, #28]
 154              	.LBE10:
 155              		.loc 1 850 3 view .LVU44
 851:Core/Src/main.c ****   __HAL_RCC_GPIOA_CLK_ENABLE();
 156              		.loc 1 851 3 view .LVU45
 157              	.LBB11:
 158              		.loc 1 851 3 view .LVU46
 159              		.loc 1 851 3 view .LVU47
 160 00ba D3F8E020 		ldr	r2, [r3, #224]
 161 00be 42F00102 		orr	r2, r2, #1
 162 00c2 C3F8E020 		str	r2, [r3, #224]
 163              		.loc 1 851 3 view .LVU48
 164 00c6 D3F8E030 		ldr	r3, [r3, #224]
 165 00ca 03F00103 		and	r3, r3, #1
 166 00ce 0893     		str	r3, [sp, #32]
 167              		.loc 1 851 3 view .LVU49
 168 00d0 089B     		ldr	r3, [sp, #32]
 169              	.LBE11:
 170              		.loc 1 851 3 view .LVU50
 852:Core/Src/main.c **** 
 853:Core/Src/main.c ****   /*Configure GPIO pin Output Level */
 854:Core/Src/main.c ****   HAL_GPIO_WritePin(GPIOE, PYRO_0_Pin|PYRO_1_Pin|PYRO_2_Pin, GPIO_PIN_RESET);
 171              		.loc 1 854 3 view .LVU51
 172 00d2 144F     		ldr	r7, .L3+4
 173 00d4 2246     		mov	r2, r4
ARM GAS  /tmp/cccIhoVk.s 			page 19


 174 00d6 4FF46071 		mov	r1, #896
 175 00da 3846     		mov	r0, r7
 176 00dc FFF7FEFF 		bl	HAL_GPIO_WritePin
 177              	.LVL0:
 855:Core/Src/main.c **** 
 856:Core/Src/main.c ****   /*Configure GPIO pin Output Level */
 857:Core/Src/main.c ****   HAL_GPIO_WritePin(GPIOG, FLASH_CS_Pin|SD_CS_Pin, GPIO_PIN_SET);
 178              		.loc 1 857 3 view .LVU52
 179 00e0 114D     		ldr	r5, .L3+8
 180 00e2 0122     		movs	r2, #1
 181 00e4 4FF48861 		mov	r1, #1088
 182 00e8 2846     		mov	r0, r5
 183 00ea FFF7FEFF 		bl	HAL_GPIO_WritePin
 184              	.LVL1:
 858:Core/Src/main.c **** 
 859:Core/Src/main.c ****   /*Configure GPIO pins : PYRO_0_Pin PYRO_1_Pin PYRO_2_Pin */
 860:Core/Src/main.c ****   GPIO_InitStruct.Pin = PYRO_0_Pin|PYRO_1_Pin|PYRO_2_Pin;
 185              		.loc 1 860 3 view .LVU53
 186              		.loc 1 860 23 is_stmt 0 view .LVU54
 187 00ee 4FF46073 		mov	r3, #896
 188 00f2 0993     		str	r3, [sp, #36]
 861:Core/Src/main.c ****   GPIO_InitStruct.Mode = GPIO_MODE_OUTPUT_PP;
 189              		.loc 1 861 3 is_stmt 1 view .LVU55
 190              		.loc 1 861 24 is_stmt 0 view .LVU56
 191 00f4 0126     		movs	r6, #1
 192 00f6 0A96     		str	r6, [sp, #40]
 862:Core/Src/main.c ****   GPIO_InitStruct.Pull = GPIO_PULLDOWN;
 193              		.loc 1 862 3 is_stmt 1 view .LVU57
 194              		.loc 1 862 24 is_stmt 0 view .LVU58
 195 00f8 0223     		movs	r3, #2
 196 00fa 0B93     		str	r3, [sp, #44]
 863:Core/Src/main.c ****   GPIO_InitStruct.Speed = GPIO_SPEED_FREQ_LOW;
 197              		.loc 1 863 3 is_stmt 1 view .LVU59
 198              		.loc 1 863 25 is_stmt 0 view .LVU60
 199 00fc 0C94     		str	r4, [sp, #48]
 864:Core/Src/main.c ****   HAL_GPIO_Init(GPIOE, &GPIO_InitStruct);
 200              		.loc 1 864 3 is_stmt 1 view .LVU61
 201 00fe 09A9     		add	r1, sp, #36
 202 0100 3846     		mov	r0, r7
 203 0102 FFF7FEFF 		bl	HAL_GPIO_Init
 204              	.LVL2:
 865:Core/Src/main.c **** 
 866:Core/Src/main.c ****   /*Configure GPIO pins : FLASH_CS_Pin SD_CS_Pin */
 867:Core/Src/main.c ****   GPIO_InitStruct.Pin = FLASH_CS_Pin|SD_CS_Pin;
 205              		.loc 1 867 3 view .LVU62
 206              		.loc 1 867 23 is_stmt 0 view .LVU63
 207 0106 4FF48863 		mov	r3, #1088
 208 010a 0993     		str	r3, [sp, #36]
 868:Core/Src/main.c ****   GPIO_InitStruct.Mode = GPIO_MODE_OUTPUT_PP;
 209              		.loc 1 868 3 is_stmt 1 view .LVU64
 210              		.loc 1 868 24 is_stmt 0 view .LVU65
 211 010c 0A96     		str	r6, [sp, #40]
 869:Core/Src/main.c ****   GPIO_InitStruct.Pull = GPIO_NOPULL;
 212              		.loc 1 869 3 is_stmt 1 view .LVU66
 213              		.loc 1 869 24 is_stmt 0 view .LVU67
 214 010e 0B94     		str	r4, [sp, #44]
 870:Core/Src/main.c ****   GPIO_InitStruct.Speed = GPIO_SPEED_FREQ_LOW;
ARM GAS  /tmp/cccIhoVk.s 			page 20


 215              		.loc 1 870 3 is_stmt 1 view .LVU68
 216              		.loc 1 870 25 is_stmt 0 view .LVU69
 217 0110 0C94     		str	r4, [sp, #48]
 871:Core/Src/main.c ****   HAL_GPIO_Init(GPIOG, &GPIO_InitStruct);
 218              		.loc 1 871 3 is_stmt 1 view .LVU70
 219 0112 09A9     		add	r1, sp, #36
 220 0114 2846     		mov	r0, r5
 221 0116 FFF7FEFF 		bl	HAL_GPIO_Init
 222              	.LVL3:
 872:Core/Src/main.c **** 
 873:Core/Src/main.c **** /* USER CODE BEGIN MX_GPIO_Init_2 */
 874:Core/Src/main.c **** /* USER CODE END MX_GPIO_Init_2 */
 875:Core/Src/main.c **** }
 223              		.loc 1 875 1 is_stmt 0 view .LVU71
 224 011a 0FB0     		add	sp, sp, #60
 225              	.LCFI2:
 226              		.cfi_def_cfa_offset 20
 227              		@ sp needed
 228 011c F0BD     		pop	{r4, r5, r6, r7, pc}
 229              	.L4:
 230 011e 00BF     		.align	2
 231              	.L3:
 232 0120 00440258 		.word	1476543488
 233 0124 00100258 		.word	1476530176
 234 0128 00180258 		.word	1476532224
 235              		.cfi_endproc
 236              	.LFE412:
 238              		.section	.text.HAL_TIM_PeriodElapsedCallback,"ax",%progbits
 239              		.align	1
 240              		.global	HAL_TIM_PeriodElapsedCallback
 241              		.syntax unified
 242              		.thumb
 243              		.thumb_func
 245              	HAL_TIM_PeriodElapsedCallback:
 246              	.LVL4:
 247              	.LFB413:
 876:Core/Src/main.c **** 
 877:Core/Src/main.c **** /* USER CODE BEGIN 4 */
 878:Core/Src/main.c **** 
 879:Core/Src/main.c **** /* USER CODE END 4 */
 880:Core/Src/main.c **** 
 881:Core/Src/main.c **** /**
 882:Core/Src/main.c ****   * @brief  Period elapsed callback in non blocking mode
 883:Core/Src/main.c ****   * @note   This function is called  when TIM1 interrupt took place, inside
 884:Core/Src/main.c ****   * HAL_TIM_IRQHandler(). It makes a direct call to HAL_IncTick() to increment
 885:Core/Src/main.c ****   * a global variable "uwTick" used as application time base.
 886:Core/Src/main.c ****   * @param  htim : TIM handle
 887:Core/Src/main.c ****   * @retval None
 888:Core/Src/main.c ****   */
 889:Core/Src/main.c **** void HAL_TIM_PeriodElapsedCallback(TIM_HandleTypeDef *htim)
 890:Core/Src/main.c **** {
 248              		.loc 1 890 1 is_stmt 1 view -0
 249              		.cfi_startproc
 250              		@ args = 0, pretend = 0, frame = 0
 251              		@ frame_needed = 0, uses_anonymous_args = 0
 252              		.loc 1 890 1 is_stmt 0 view .LVU73
 253 0000 08B5     		push	{r3, lr}
ARM GAS  /tmp/cccIhoVk.s 			page 21


 254              	.LCFI3:
 255              		.cfi_def_cfa_offset 8
 256              		.cfi_offset 3, -8
 257              		.cfi_offset 14, -4
 891:Core/Src/main.c ****   /* USER CODE BEGIN Callback 0 */
 892:Core/Src/main.c ****   /* USER CODE END Callback 0 */
 893:Core/Src/main.c ****   if (htim->Instance == TIM1) {
 258              		.loc 1 893 3 is_stmt 1 view .LVU74
 259              		.loc 1 893 11 is_stmt 0 view .LVU75
 260 0002 0268     		ldr	r2, [r0]
 261              		.loc 1 893 6 view .LVU76
 262 0004 034B     		ldr	r3, .L9
 263 0006 9A42     		cmp	r2, r3
 264 0008 00D0     		beq	.L8
 265              	.LVL5:
 266              	.L5:
 894:Core/Src/main.c ****     HAL_IncTick();
 895:Core/Src/main.c ****   }
 896:Core/Src/main.c ****   /* USER CODE BEGIN Callback 1 */
 897:Core/Src/main.c **** 
 898:Core/Src/main.c ****   /* USER CODE END Callback 1 */
 899:Core/Src/main.c **** }
 267              		.loc 1 899 1 view .LVU77
 268 000a 08BD     		pop	{r3, pc}
 269              	.LVL6:
 270              	.L8:
 894:Core/Src/main.c ****     HAL_IncTick();
 271              		.loc 1 894 5 is_stmt 1 view .LVU78
 272 000c FFF7FEFF 		bl	HAL_IncTick
 273              	.LVL7:
 274              		.loc 1 899 1 is_stmt 0 view .LVU79
 275 0010 FBE7     		b	.L5
 276              	.L10:
 277 0012 00BF     		.align	2
 278              	.L9:
 279 0014 00000140 		.word	1073807360
 280              		.cfi_endproc
 281              	.LFE413:
 283              		.section	.text.Error_Handler,"ax",%progbits
 284              		.align	1
 285              		.global	Error_Handler
 286              		.syntax unified
 287              		.thumb
 288              		.thumb_func
 290              	Error_Handler:
 291              	.LFB414:
 900:Core/Src/main.c **** 
 901:Core/Src/main.c **** /**
 902:Core/Src/main.c ****   * @brief  This function is executed in case of error occurrence.
 903:Core/Src/main.c ****   * @retval None
 904:Core/Src/main.c ****   */
 905:Core/Src/main.c **** void Error_Handler(void)
 906:Core/Src/main.c **** {
 292              		.loc 1 906 1 is_stmt 1 view -0
 293              		.cfi_startproc
 294              		@ Volatile: function does not return.
 295              		@ args = 0, pretend = 0, frame = 0
ARM GAS  /tmp/cccIhoVk.s 			page 22


 296              		@ frame_needed = 0, uses_anonymous_args = 0
 297              		@ link register save eliminated.
 907:Core/Src/main.c ****   /* USER CODE BEGIN Error_Handler_Debug */
 908:Core/Src/main.c ****   /* User can add his own implementation to report the HAL error return state */
 909:Core/Src/main.c ****   __disable_irq();
 298              		.loc 1 909 3 view .LVU81
 299              	.LBB12:
 300              	.LBI12:
 301              		.file 2 "Drivers/CMSIS/Include/cmsis_gcc.h"
   1:Drivers/CMSIS/Include/cmsis_gcc.h **** /**************************************************************************//**
   2:Drivers/CMSIS/Include/cmsis_gcc.h ****  * @file     cmsis_gcc.h
   3:Drivers/CMSIS/Include/cmsis_gcc.h ****  * @brief    CMSIS compiler GCC header file
   4:Drivers/CMSIS/Include/cmsis_gcc.h ****  * @version  V5.2.0
   5:Drivers/CMSIS/Include/cmsis_gcc.h ****  * @date     08. May 2019
   6:Drivers/CMSIS/Include/cmsis_gcc.h ****  ******************************************************************************/
   7:Drivers/CMSIS/Include/cmsis_gcc.h **** /*
   8:Drivers/CMSIS/Include/cmsis_gcc.h ****  * Copyright (c) 2009-2019 Arm Limited. All rights reserved.
   9:Drivers/CMSIS/Include/cmsis_gcc.h ****  *
  10:Drivers/CMSIS/Include/cmsis_gcc.h ****  * SPDX-License-Identifier: Apache-2.0
  11:Drivers/CMSIS/Include/cmsis_gcc.h ****  *
  12:Drivers/CMSIS/Include/cmsis_gcc.h ****  * Licensed under the Apache License, Version 2.0 (the License); you may
  13:Drivers/CMSIS/Include/cmsis_gcc.h ****  * not use this file except in compliance with the License.
  14:Drivers/CMSIS/Include/cmsis_gcc.h ****  * You may obtain a copy of the License at
  15:Drivers/CMSIS/Include/cmsis_gcc.h ****  *
  16:Drivers/CMSIS/Include/cmsis_gcc.h ****  * www.apache.org/licenses/LICENSE-2.0
  17:Drivers/CMSIS/Include/cmsis_gcc.h ****  *
  18:Drivers/CMSIS/Include/cmsis_gcc.h ****  * Unless required by applicable law or agreed to in writing, software
  19:Drivers/CMSIS/Include/cmsis_gcc.h ****  * distributed under the License is distributed on an AS IS BASIS, WITHOUT
  20:Drivers/CMSIS/Include/cmsis_gcc.h ****  * WARRANTIES OR CONDITIONS OF ANY KIND, either express or implied.
  21:Drivers/CMSIS/Include/cmsis_gcc.h ****  * See the License for the specific language governing permissions and
  22:Drivers/CMSIS/Include/cmsis_gcc.h ****  * limitations under the License.
  23:Drivers/CMSIS/Include/cmsis_gcc.h ****  */
  24:Drivers/CMSIS/Include/cmsis_gcc.h **** 
  25:Drivers/CMSIS/Include/cmsis_gcc.h **** #ifndef __CMSIS_GCC_H
  26:Drivers/CMSIS/Include/cmsis_gcc.h **** #define __CMSIS_GCC_H
  27:Drivers/CMSIS/Include/cmsis_gcc.h **** 
  28:Drivers/CMSIS/Include/cmsis_gcc.h **** /* ignore some GCC warnings */
  29:Drivers/CMSIS/Include/cmsis_gcc.h **** #pragma GCC diagnostic push
  30:Drivers/CMSIS/Include/cmsis_gcc.h **** #pragma GCC diagnostic ignored "-Wsign-conversion"
  31:Drivers/CMSIS/Include/cmsis_gcc.h **** #pragma GCC diagnostic ignored "-Wconversion"
  32:Drivers/CMSIS/Include/cmsis_gcc.h **** #pragma GCC diagnostic ignored "-Wunused-parameter"
  33:Drivers/CMSIS/Include/cmsis_gcc.h **** 
  34:Drivers/CMSIS/Include/cmsis_gcc.h **** /* Fallback for __has_builtin */
  35:Drivers/CMSIS/Include/cmsis_gcc.h **** #ifndef __has_builtin
  36:Drivers/CMSIS/Include/cmsis_gcc.h ****   #define __has_builtin(x) (0)
  37:Drivers/CMSIS/Include/cmsis_gcc.h **** #endif
  38:Drivers/CMSIS/Include/cmsis_gcc.h **** 
  39:Drivers/CMSIS/Include/cmsis_gcc.h **** /* CMSIS compiler specific defines */
  40:Drivers/CMSIS/Include/cmsis_gcc.h **** #ifndef   __ASM
  41:Drivers/CMSIS/Include/cmsis_gcc.h ****   #define __ASM                                  __asm
  42:Drivers/CMSIS/Include/cmsis_gcc.h **** #endif
  43:Drivers/CMSIS/Include/cmsis_gcc.h **** #ifndef   __INLINE
  44:Drivers/CMSIS/Include/cmsis_gcc.h ****   #define __INLINE                               inline
  45:Drivers/CMSIS/Include/cmsis_gcc.h **** #endif
  46:Drivers/CMSIS/Include/cmsis_gcc.h **** #ifndef   __STATIC_INLINE
  47:Drivers/CMSIS/Include/cmsis_gcc.h ****   #define __STATIC_INLINE                        static inline
  48:Drivers/CMSIS/Include/cmsis_gcc.h **** #endif
ARM GAS  /tmp/cccIhoVk.s 			page 23


  49:Drivers/CMSIS/Include/cmsis_gcc.h **** #ifndef   __STATIC_FORCEINLINE                 
  50:Drivers/CMSIS/Include/cmsis_gcc.h ****   #define __STATIC_FORCEINLINE                   __attribute__((always_inline)) static inline
  51:Drivers/CMSIS/Include/cmsis_gcc.h **** #endif                                           
  52:Drivers/CMSIS/Include/cmsis_gcc.h **** #ifndef   __NO_RETURN
  53:Drivers/CMSIS/Include/cmsis_gcc.h ****   #define __NO_RETURN                            __attribute__((__noreturn__))
  54:Drivers/CMSIS/Include/cmsis_gcc.h **** #endif
  55:Drivers/CMSIS/Include/cmsis_gcc.h **** #ifndef   __USED
  56:Drivers/CMSIS/Include/cmsis_gcc.h ****   #define __USED                                 __attribute__((used))
  57:Drivers/CMSIS/Include/cmsis_gcc.h **** #endif
  58:Drivers/CMSIS/Include/cmsis_gcc.h **** #ifndef   __WEAK
  59:Drivers/CMSIS/Include/cmsis_gcc.h ****   #define __WEAK                                 __attribute__((weak))
  60:Drivers/CMSIS/Include/cmsis_gcc.h **** #endif
  61:Drivers/CMSIS/Include/cmsis_gcc.h **** #ifndef   __PACKED
  62:Drivers/CMSIS/Include/cmsis_gcc.h ****   #define __PACKED                               __attribute__((packed, aligned(1)))
  63:Drivers/CMSIS/Include/cmsis_gcc.h **** #endif
  64:Drivers/CMSIS/Include/cmsis_gcc.h **** #ifndef   __PACKED_STRUCT
  65:Drivers/CMSIS/Include/cmsis_gcc.h ****   #define __PACKED_STRUCT                        struct __attribute__((packed, aligned(1)))
  66:Drivers/CMSIS/Include/cmsis_gcc.h **** #endif
  67:Drivers/CMSIS/Include/cmsis_gcc.h **** #ifndef   __PACKED_UNION
  68:Drivers/CMSIS/Include/cmsis_gcc.h ****   #define __PACKED_UNION                         union __attribute__((packed, aligned(1)))
  69:Drivers/CMSIS/Include/cmsis_gcc.h **** #endif
  70:Drivers/CMSIS/Include/cmsis_gcc.h **** #ifndef   __UNALIGNED_UINT32        /* deprecated */
  71:Drivers/CMSIS/Include/cmsis_gcc.h ****   #pragma GCC diagnostic push
  72:Drivers/CMSIS/Include/cmsis_gcc.h ****   #pragma GCC diagnostic ignored "-Wpacked"
  73:Drivers/CMSIS/Include/cmsis_gcc.h ****   #pragma GCC diagnostic ignored "-Wattributes"
  74:Drivers/CMSIS/Include/cmsis_gcc.h ****   struct __attribute__((packed)) T_UINT32 { uint32_t v; };
  75:Drivers/CMSIS/Include/cmsis_gcc.h ****   #pragma GCC diagnostic pop
  76:Drivers/CMSIS/Include/cmsis_gcc.h ****   #define __UNALIGNED_UINT32(x)                  (((struct T_UINT32 *)(x))->v)
  77:Drivers/CMSIS/Include/cmsis_gcc.h **** #endif
  78:Drivers/CMSIS/Include/cmsis_gcc.h **** #ifndef   __UNALIGNED_UINT16_WRITE
  79:Drivers/CMSIS/Include/cmsis_gcc.h ****   #pragma GCC diagnostic push
  80:Drivers/CMSIS/Include/cmsis_gcc.h ****   #pragma GCC diagnostic ignored "-Wpacked"
  81:Drivers/CMSIS/Include/cmsis_gcc.h ****   #pragma GCC diagnostic ignored "-Wattributes"
  82:Drivers/CMSIS/Include/cmsis_gcc.h ****   __PACKED_STRUCT T_UINT16_WRITE { uint16_t v; };
  83:Drivers/CMSIS/Include/cmsis_gcc.h ****   #pragma GCC diagnostic pop
  84:Drivers/CMSIS/Include/cmsis_gcc.h ****   #define __UNALIGNED_UINT16_WRITE(addr, val)    (void)((((struct T_UINT16_WRITE *)(void *)(addr))-
  85:Drivers/CMSIS/Include/cmsis_gcc.h **** #endif
  86:Drivers/CMSIS/Include/cmsis_gcc.h **** #ifndef   __UNALIGNED_UINT16_READ
  87:Drivers/CMSIS/Include/cmsis_gcc.h ****   #pragma GCC diagnostic push
  88:Drivers/CMSIS/Include/cmsis_gcc.h ****   #pragma GCC diagnostic ignored "-Wpacked"
  89:Drivers/CMSIS/Include/cmsis_gcc.h ****   #pragma GCC diagnostic ignored "-Wattributes"
  90:Drivers/CMSIS/Include/cmsis_gcc.h ****   __PACKED_STRUCT T_UINT16_READ { uint16_t v; };
  91:Drivers/CMSIS/Include/cmsis_gcc.h ****   #pragma GCC diagnostic pop
  92:Drivers/CMSIS/Include/cmsis_gcc.h ****   #define __UNALIGNED_UINT16_READ(addr)          (((const struct T_UINT16_READ *)(const void *)(add
  93:Drivers/CMSIS/Include/cmsis_gcc.h **** #endif
  94:Drivers/CMSIS/Include/cmsis_gcc.h **** #ifndef   __UNALIGNED_UINT32_WRITE
  95:Drivers/CMSIS/Include/cmsis_gcc.h ****   #pragma GCC diagnostic push
  96:Drivers/CMSIS/Include/cmsis_gcc.h ****   #pragma GCC diagnostic ignored "-Wpacked"
  97:Drivers/CMSIS/Include/cmsis_gcc.h ****   #pragma GCC diagnostic ignored "-Wattributes"
  98:Drivers/CMSIS/Include/cmsis_gcc.h ****   __PACKED_STRUCT T_UINT32_WRITE { uint32_t v; };
  99:Drivers/CMSIS/Include/cmsis_gcc.h ****   #pragma GCC diagnostic pop
 100:Drivers/CMSIS/Include/cmsis_gcc.h ****   #define __UNALIGNED_UINT32_WRITE(addr, val)    (void)((((struct T_UINT32_WRITE *)(void *)(addr))-
 101:Drivers/CMSIS/Include/cmsis_gcc.h **** #endif
 102:Drivers/CMSIS/Include/cmsis_gcc.h **** #ifndef   __UNALIGNED_UINT32_READ
 103:Drivers/CMSIS/Include/cmsis_gcc.h ****   #pragma GCC diagnostic push
 104:Drivers/CMSIS/Include/cmsis_gcc.h ****   #pragma GCC diagnostic ignored "-Wpacked"
 105:Drivers/CMSIS/Include/cmsis_gcc.h ****   #pragma GCC diagnostic ignored "-Wattributes"
ARM GAS  /tmp/cccIhoVk.s 			page 24


 106:Drivers/CMSIS/Include/cmsis_gcc.h ****   __PACKED_STRUCT T_UINT32_READ { uint32_t v; };
 107:Drivers/CMSIS/Include/cmsis_gcc.h ****   #pragma GCC diagnostic pop
 108:Drivers/CMSIS/Include/cmsis_gcc.h ****   #define __UNALIGNED_UINT32_READ(addr)          (((const struct T_UINT32_READ *)(const void *)(add
 109:Drivers/CMSIS/Include/cmsis_gcc.h **** #endif
 110:Drivers/CMSIS/Include/cmsis_gcc.h **** #ifndef   __ALIGNED
 111:Drivers/CMSIS/Include/cmsis_gcc.h ****   #define __ALIGNED(x)                           __attribute__((aligned(x)))
 112:Drivers/CMSIS/Include/cmsis_gcc.h **** #endif
 113:Drivers/CMSIS/Include/cmsis_gcc.h **** #ifndef   __RESTRICT
 114:Drivers/CMSIS/Include/cmsis_gcc.h ****   #define __RESTRICT                             __restrict
 115:Drivers/CMSIS/Include/cmsis_gcc.h **** #endif
 116:Drivers/CMSIS/Include/cmsis_gcc.h **** #ifndef   __COMPILER_BARRIER
 117:Drivers/CMSIS/Include/cmsis_gcc.h ****   #define __COMPILER_BARRIER()                   __ASM volatile("":::"memory")
 118:Drivers/CMSIS/Include/cmsis_gcc.h **** #endif
 119:Drivers/CMSIS/Include/cmsis_gcc.h **** 
 120:Drivers/CMSIS/Include/cmsis_gcc.h **** /* #########################  Startup and Lowlevel Init  ######################## */
 121:Drivers/CMSIS/Include/cmsis_gcc.h **** 
 122:Drivers/CMSIS/Include/cmsis_gcc.h **** #ifndef __PROGRAM_START
 123:Drivers/CMSIS/Include/cmsis_gcc.h **** 
 124:Drivers/CMSIS/Include/cmsis_gcc.h **** /**
 125:Drivers/CMSIS/Include/cmsis_gcc.h ****   \brief   Initializes data and bss sections
 126:Drivers/CMSIS/Include/cmsis_gcc.h ****   \details This default implementations initialized all data and additional bss
 127:Drivers/CMSIS/Include/cmsis_gcc.h ****            sections relying on .copy.table and .zero.table specified properly
 128:Drivers/CMSIS/Include/cmsis_gcc.h ****            in the used linker script.
 129:Drivers/CMSIS/Include/cmsis_gcc.h ****   
 130:Drivers/CMSIS/Include/cmsis_gcc.h ****  */
 131:Drivers/CMSIS/Include/cmsis_gcc.h **** __STATIC_FORCEINLINE __NO_RETURN void __cmsis_start(void)
 132:Drivers/CMSIS/Include/cmsis_gcc.h **** {
 133:Drivers/CMSIS/Include/cmsis_gcc.h ****   extern void _start(void) __NO_RETURN;
 134:Drivers/CMSIS/Include/cmsis_gcc.h ****   
 135:Drivers/CMSIS/Include/cmsis_gcc.h ****   typedef struct {
 136:Drivers/CMSIS/Include/cmsis_gcc.h ****     uint32_t const* src;
 137:Drivers/CMSIS/Include/cmsis_gcc.h ****     uint32_t* dest;
 138:Drivers/CMSIS/Include/cmsis_gcc.h ****     uint32_t  wlen;
 139:Drivers/CMSIS/Include/cmsis_gcc.h ****   } __copy_table_t;
 140:Drivers/CMSIS/Include/cmsis_gcc.h ****   
 141:Drivers/CMSIS/Include/cmsis_gcc.h ****   typedef struct {
 142:Drivers/CMSIS/Include/cmsis_gcc.h ****     uint32_t* dest;
 143:Drivers/CMSIS/Include/cmsis_gcc.h ****     uint32_t  wlen;
 144:Drivers/CMSIS/Include/cmsis_gcc.h ****   } __zero_table_t;
 145:Drivers/CMSIS/Include/cmsis_gcc.h ****   
 146:Drivers/CMSIS/Include/cmsis_gcc.h ****   extern const __copy_table_t __copy_table_start__;
 147:Drivers/CMSIS/Include/cmsis_gcc.h ****   extern const __copy_table_t __copy_table_end__;
 148:Drivers/CMSIS/Include/cmsis_gcc.h ****   extern const __zero_table_t __zero_table_start__;
 149:Drivers/CMSIS/Include/cmsis_gcc.h ****   extern const __zero_table_t __zero_table_end__;
 150:Drivers/CMSIS/Include/cmsis_gcc.h **** 
 151:Drivers/CMSIS/Include/cmsis_gcc.h ****   for (__copy_table_t const* pTable = &__copy_table_start__; pTable < &__copy_table_end__; ++pTable
 152:Drivers/CMSIS/Include/cmsis_gcc.h ****     for(uint32_t i=0u; i<pTable->wlen; ++i) {
 153:Drivers/CMSIS/Include/cmsis_gcc.h ****       pTable->dest[i] = pTable->src[i];
 154:Drivers/CMSIS/Include/cmsis_gcc.h ****     }
 155:Drivers/CMSIS/Include/cmsis_gcc.h ****   }
 156:Drivers/CMSIS/Include/cmsis_gcc.h ****  
 157:Drivers/CMSIS/Include/cmsis_gcc.h ****   for (__zero_table_t const* pTable = &__zero_table_start__; pTable < &__zero_table_end__; ++pTable
 158:Drivers/CMSIS/Include/cmsis_gcc.h ****     for(uint32_t i=0u; i<pTable->wlen; ++i) {
 159:Drivers/CMSIS/Include/cmsis_gcc.h ****       pTable->dest[i] = 0u;
 160:Drivers/CMSIS/Include/cmsis_gcc.h ****     }
 161:Drivers/CMSIS/Include/cmsis_gcc.h ****   }
 162:Drivers/CMSIS/Include/cmsis_gcc.h ****  
ARM GAS  /tmp/cccIhoVk.s 			page 25


 163:Drivers/CMSIS/Include/cmsis_gcc.h ****   _start();
 164:Drivers/CMSIS/Include/cmsis_gcc.h **** }
 165:Drivers/CMSIS/Include/cmsis_gcc.h ****   
 166:Drivers/CMSIS/Include/cmsis_gcc.h **** #define __PROGRAM_START           __cmsis_start
 167:Drivers/CMSIS/Include/cmsis_gcc.h **** #endif
 168:Drivers/CMSIS/Include/cmsis_gcc.h **** 
 169:Drivers/CMSIS/Include/cmsis_gcc.h **** #ifndef __INITIAL_SP
 170:Drivers/CMSIS/Include/cmsis_gcc.h **** #define __INITIAL_SP              __StackTop
 171:Drivers/CMSIS/Include/cmsis_gcc.h **** #endif
 172:Drivers/CMSIS/Include/cmsis_gcc.h **** 
 173:Drivers/CMSIS/Include/cmsis_gcc.h **** #ifndef __STACK_LIMIT
 174:Drivers/CMSIS/Include/cmsis_gcc.h **** #define __STACK_LIMIT             __StackLimit
 175:Drivers/CMSIS/Include/cmsis_gcc.h **** #endif
 176:Drivers/CMSIS/Include/cmsis_gcc.h **** 
 177:Drivers/CMSIS/Include/cmsis_gcc.h **** #ifndef __VECTOR_TABLE
 178:Drivers/CMSIS/Include/cmsis_gcc.h **** #define __VECTOR_TABLE            __Vectors
 179:Drivers/CMSIS/Include/cmsis_gcc.h **** #endif
 180:Drivers/CMSIS/Include/cmsis_gcc.h **** 
 181:Drivers/CMSIS/Include/cmsis_gcc.h **** #ifndef __VECTOR_TABLE_ATTRIBUTE
 182:Drivers/CMSIS/Include/cmsis_gcc.h **** #define __VECTOR_TABLE_ATTRIBUTE  __attribute((used, section(".vectors")))
 183:Drivers/CMSIS/Include/cmsis_gcc.h **** #endif
 184:Drivers/CMSIS/Include/cmsis_gcc.h **** 
 185:Drivers/CMSIS/Include/cmsis_gcc.h **** /* ###########################  Core Function Access  ########################### */
 186:Drivers/CMSIS/Include/cmsis_gcc.h **** /** \ingroup  CMSIS_Core_FunctionInterface
 187:Drivers/CMSIS/Include/cmsis_gcc.h ****     \defgroup CMSIS_Core_RegAccFunctions CMSIS Core Register Access Functions
 188:Drivers/CMSIS/Include/cmsis_gcc.h ****   @{
 189:Drivers/CMSIS/Include/cmsis_gcc.h ****  */
 190:Drivers/CMSIS/Include/cmsis_gcc.h **** 
 191:Drivers/CMSIS/Include/cmsis_gcc.h **** /**
 192:Drivers/CMSIS/Include/cmsis_gcc.h ****   \brief   Enable IRQ Interrupts
 193:Drivers/CMSIS/Include/cmsis_gcc.h ****   \details Enables IRQ interrupts by clearing the I-bit in the CPSR.
 194:Drivers/CMSIS/Include/cmsis_gcc.h ****            Can only be executed in Privileged modes.
 195:Drivers/CMSIS/Include/cmsis_gcc.h ****  */
 196:Drivers/CMSIS/Include/cmsis_gcc.h **** __STATIC_FORCEINLINE void __enable_irq(void)
 197:Drivers/CMSIS/Include/cmsis_gcc.h **** {
 198:Drivers/CMSIS/Include/cmsis_gcc.h ****   __ASM volatile ("cpsie i" : : : "memory");
 199:Drivers/CMSIS/Include/cmsis_gcc.h **** }
 200:Drivers/CMSIS/Include/cmsis_gcc.h **** 
 201:Drivers/CMSIS/Include/cmsis_gcc.h **** 
 202:Drivers/CMSIS/Include/cmsis_gcc.h **** /**
 203:Drivers/CMSIS/Include/cmsis_gcc.h ****   \brief   Disable IRQ Interrupts
 204:Drivers/CMSIS/Include/cmsis_gcc.h ****   \details Disables IRQ interrupts by setting the I-bit in the CPSR.
 205:Drivers/CMSIS/Include/cmsis_gcc.h ****            Can only be executed in Privileged modes.
 206:Drivers/CMSIS/Include/cmsis_gcc.h ****  */
 207:Drivers/CMSIS/Include/cmsis_gcc.h **** __STATIC_FORCEINLINE void __disable_irq(void)
 302              		.loc 2 207 27 view .LVU82
 303              	.LBB13:
 208:Drivers/CMSIS/Include/cmsis_gcc.h **** {
 209:Drivers/CMSIS/Include/cmsis_gcc.h ****   __ASM volatile ("cpsid i" : : : "memory");
 304              		.loc 2 209 3 view .LVU83
 305              		.syntax unified
 306              	@ 209 "Drivers/CMSIS/Include/cmsis_gcc.h" 1
 307 0000 72B6     		cpsid i
 308              	@ 0 "" 2
 309              		.thumb
 310              		.syntax unified
 311              	.L12:
ARM GAS  /tmp/cccIhoVk.s 			page 26


 312              	.LBE13:
 313              	.LBE12:
 910:Core/Src/main.c ****   while (1)
 314              		.loc 1 910 3 discriminator 1 view .LVU84
 911:Core/Src/main.c ****   {
 912:Core/Src/main.c ****   }
 315              		.loc 1 912 3 discriminator 1 view .LVU85
 910:Core/Src/main.c ****   while (1)
 316              		.loc 1 910 9 discriminator 1 view .LVU86
 317 0002 FEE7     		b	.L12
 318              		.cfi_endproc
 319              	.LFE414:
 321              		.section	.text.MX_SPI1_Init,"ax",%progbits
 322              		.align	1
 323              		.syntax unified
 324              		.thumb
 325              		.thumb_func
 327              	MX_SPI1_Init:
 328              	.LFB405:
 491:Core/Src/main.c **** 
 329              		.loc 1 491 1 view -0
 330              		.cfi_startproc
 331              		@ args = 0, pretend = 0, frame = 0
 332              		@ frame_needed = 0, uses_anonymous_args = 0
 333 0000 08B5     		push	{r3, lr}
 334              	.LCFI4:
 335              		.cfi_def_cfa_offset 8
 336              		.cfi_offset 3, -8
 337              		.cfi_offset 14, -4
 501:Core/Src/main.c ****   hspi1.Init.Mode = SPI_MODE_MASTER;
 338              		.loc 1 501 3 view .LVU88
 501:Core/Src/main.c ****   hspi1.Init.Mode = SPI_MODE_MASTER;
 339              		.loc 1 501 18 is_stmt 0 view .LVU89
 340 0002 1448     		ldr	r0, .L17
 341 0004 144B     		ldr	r3, .L17+4
 342 0006 0360     		str	r3, [r0]
 502:Core/Src/main.c ****   hspi1.Init.Direction = SPI_DIRECTION_2LINES;
 343              		.loc 1 502 3 is_stmt 1 view .LVU90
 502:Core/Src/main.c ****   hspi1.Init.Direction = SPI_DIRECTION_2LINES;
 344              		.loc 1 502 19 is_stmt 0 view .LVU91
 345 0008 4FF48003 		mov	r3, #4194304
 346 000c 4360     		str	r3, [r0, #4]
 503:Core/Src/main.c ****   hspi1.Init.DataSize = SPI_DATASIZE_8BIT;
 347              		.loc 1 503 3 is_stmt 1 view .LVU92
 503:Core/Src/main.c ****   hspi1.Init.DataSize = SPI_DATASIZE_8BIT;
 348              		.loc 1 503 24 is_stmt 0 view .LVU93
 349 000e 0023     		movs	r3, #0
 350 0010 8360     		str	r3, [r0, #8]
 504:Core/Src/main.c ****   hspi1.Init.CLKPolarity = SPI_POLARITY_LOW;
 351              		.loc 1 504 3 is_stmt 1 view .LVU94
 504:Core/Src/main.c ****   hspi1.Init.CLKPolarity = SPI_POLARITY_LOW;
 352              		.loc 1 504 23 is_stmt 0 view .LVU95
 353 0012 0722     		movs	r2, #7
 354 0014 C260     		str	r2, [r0, #12]
 505:Core/Src/main.c ****   hspi1.Init.CLKPhase = SPI_PHASE_1EDGE;
 355              		.loc 1 505 3 is_stmt 1 view .LVU96
 505:Core/Src/main.c ****   hspi1.Init.CLKPhase = SPI_PHASE_1EDGE;
ARM GAS  /tmp/cccIhoVk.s 			page 27


 356              		.loc 1 505 26 is_stmt 0 view .LVU97
 357 0016 0361     		str	r3, [r0, #16]
 506:Core/Src/main.c ****   hspi1.Init.NSS = SPI_NSS_SOFT;
 358              		.loc 1 506 3 is_stmt 1 view .LVU98
 506:Core/Src/main.c ****   hspi1.Init.NSS = SPI_NSS_SOFT;
 359              		.loc 1 506 23 is_stmt 0 view .LVU99
 360 0018 4361     		str	r3, [r0, #20]
 507:Core/Src/main.c ****   hspi1.Init.BaudRatePrescaler = SPI_BAUDRATEPRESCALER_16;
 361              		.loc 1 507 3 is_stmt 1 view .LVU100
 507:Core/Src/main.c ****   hspi1.Init.BaudRatePrescaler = SPI_BAUDRATEPRESCALER_16;
 362              		.loc 1 507 18 is_stmt 0 view .LVU101
 363 001a 4FF08062 		mov	r2, #67108864
 364 001e 8261     		str	r2, [r0, #24]
 508:Core/Src/main.c ****   hspi1.Init.FirstBit = SPI_FIRSTBIT_MSB;
 365              		.loc 1 508 3 is_stmt 1 view .LVU102
 508:Core/Src/main.c ****   hspi1.Init.FirstBit = SPI_FIRSTBIT_MSB;
 366              		.loc 1 508 32 is_stmt 0 view .LVU103
 367 0020 4FF04052 		mov	r2, #805306368
 368 0024 C261     		str	r2, [r0, #28]
 509:Core/Src/main.c ****   hspi1.Init.TIMode = SPI_TIMODE_DISABLE;
 369              		.loc 1 509 3 is_stmt 1 view .LVU104
 509:Core/Src/main.c ****   hspi1.Init.TIMode = SPI_TIMODE_DISABLE;
 370              		.loc 1 509 23 is_stmt 0 view .LVU105
 371 0026 0362     		str	r3, [r0, #32]
 510:Core/Src/main.c ****   hspi1.Init.CRCCalculation = SPI_CRCCALCULATION_DISABLE;
 372              		.loc 1 510 3 is_stmt 1 view .LVU106
 510:Core/Src/main.c ****   hspi1.Init.CRCCalculation = SPI_CRCCALCULATION_DISABLE;
 373              		.loc 1 510 21 is_stmt 0 view .LVU107
 374 0028 4362     		str	r3, [r0, #36]
 511:Core/Src/main.c ****   hspi1.Init.CRCPolynomial = 0x0;
 375              		.loc 1 511 3 is_stmt 1 view .LVU108
 511:Core/Src/main.c ****   hspi1.Init.CRCPolynomial = 0x0;
 376              		.loc 1 511 29 is_stmt 0 view .LVU109
 377 002a 8362     		str	r3, [r0, #40]
 512:Core/Src/main.c ****   hspi1.Init.NSSPMode = SPI_NSS_PULSE_ENABLE;
 378              		.loc 1 512 3 is_stmt 1 view .LVU110
 512:Core/Src/main.c ****   hspi1.Init.NSSPMode = SPI_NSS_PULSE_ENABLE;
 379              		.loc 1 512 28 is_stmt 0 view .LVU111
 380 002c C362     		str	r3, [r0, #44]
 513:Core/Src/main.c ****   hspi1.Init.NSSPolarity = SPI_NSS_POLARITY_LOW;
 381              		.loc 1 513 3 is_stmt 1 view .LVU112
 513:Core/Src/main.c ****   hspi1.Init.NSSPolarity = SPI_NSS_POLARITY_LOW;
 382              		.loc 1 513 23 is_stmt 0 view .LVU113
 383 002e 4FF08042 		mov	r2, #1073741824
 384 0032 4263     		str	r2, [r0, #52]
 514:Core/Src/main.c ****   hspi1.Init.FifoThreshold = SPI_FIFO_THRESHOLD_01DATA;
 385              		.loc 1 514 3 is_stmt 1 view .LVU114
 514:Core/Src/main.c ****   hspi1.Init.FifoThreshold = SPI_FIFO_THRESHOLD_01DATA;
 386              		.loc 1 514 26 is_stmt 0 view .LVU115
 387 0034 8363     		str	r3, [r0, #56]
 515:Core/Src/main.c ****   hspi1.Init.TxCRCInitializationPattern = SPI_CRC_INITIALIZATION_ALL_ZERO_PATTERN;
 388              		.loc 1 515 3 is_stmt 1 view .LVU116
 515:Core/Src/main.c ****   hspi1.Init.TxCRCInitializationPattern = SPI_CRC_INITIALIZATION_ALL_ZERO_PATTERN;
 389              		.loc 1 515 28 is_stmt 0 view .LVU117
 390 0036 C363     		str	r3, [r0, #60]
 516:Core/Src/main.c ****   hspi1.Init.RxCRCInitializationPattern = SPI_CRC_INITIALIZATION_ALL_ZERO_PATTERN;
 391              		.loc 1 516 3 is_stmt 1 view .LVU118
ARM GAS  /tmp/cccIhoVk.s 			page 28


 516:Core/Src/main.c ****   hspi1.Init.RxCRCInitializationPattern = SPI_CRC_INITIALIZATION_ALL_ZERO_PATTERN;
 392              		.loc 1 516 41 is_stmt 0 view .LVU119
 393 0038 0364     		str	r3, [r0, #64]
 517:Core/Src/main.c ****   hspi1.Init.MasterSSIdleness = SPI_MASTER_SS_IDLENESS_00CYCLE;
 394              		.loc 1 517 3 is_stmt 1 view .LVU120
 517:Core/Src/main.c ****   hspi1.Init.MasterSSIdleness = SPI_MASTER_SS_IDLENESS_00CYCLE;
 395              		.loc 1 517 41 is_stmt 0 view .LVU121
 396 003a 4364     		str	r3, [r0, #68]
 518:Core/Src/main.c ****   hspi1.Init.MasterInterDataIdleness = SPI_MASTER_INTERDATA_IDLENESS_00CYCLE;
 397              		.loc 1 518 3 is_stmt 1 view .LVU122
 518:Core/Src/main.c ****   hspi1.Init.MasterInterDataIdleness = SPI_MASTER_INTERDATA_IDLENESS_00CYCLE;
 398              		.loc 1 518 31 is_stmt 0 view .LVU123
 399 003c 8364     		str	r3, [r0, #72]
 519:Core/Src/main.c ****   hspi1.Init.MasterReceiverAutoSusp = SPI_MASTER_RX_AUTOSUSP_DISABLE;
 400              		.loc 1 519 3 is_stmt 1 view .LVU124
 519:Core/Src/main.c ****   hspi1.Init.MasterReceiverAutoSusp = SPI_MASTER_RX_AUTOSUSP_DISABLE;
 401              		.loc 1 519 38 is_stmt 0 view .LVU125
 402 003e C364     		str	r3, [r0, #76]
 520:Core/Src/main.c ****   hspi1.Init.MasterKeepIOState = SPI_MASTER_KEEP_IO_STATE_DISABLE;
 403              		.loc 1 520 3 is_stmt 1 view .LVU126
 520:Core/Src/main.c ****   hspi1.Init.MasterKeepIOState = SPI_MASTER_KEEP_IO_STATE_DISABLE;
 404              		.loc 1 520 37 is_stmt 0 view .LVU127
 405 0040 0365     		str	r3, [r0, #80]
 521:Core/Src/main.c ****   hspi1.Init.IOSwap = SPI_IO_SWAP_DISABLE;
 406              		.loc 1 521 3 is_stmt 1 view .LVU128
 521:Core/Src/main.c ****   hspi1.Init.IOSwap = SPI_IO_SWAP_DISABLE;
 407              		.loc 1 521 32 is_stmt 0 view .LVU129
 408 0042 4365     		str	r3, [r0, #84]
 522:Core/Src/main.c ****   if (HAL_SPI_Init(&hspi1) != HAL_OK)
 409              		.loc 1 522 3 is_stmt 1 view .LVU130
 522:Core/Src/main.c ****   if (HAL_SPI_Init(&hspi1) != HAL_OK)
 410              		.loc 1 522 21 is_stmt 0 view .LVU131
 411 0044 8365     		str	r3, [r0, #88]
 523:Core/Src/main.c ****   {
 412              		.loc 1 523 3 is_stmt 1 view .LVU132
 523:Core/Src/main.c ****   {
 413              		.loc 1 523 7 is_stmt 0 view .LVU133
 414 0046 FFF7FEFF 		bl	HAL_SPI_Init
 415              	.LVL8:
 523:Core/Src/main.c ****   {
 416              		.loc 1 523 6 view .LVU134
 417 004a 00B9     		cbnz	r0, .L16
 531:Core/Src/main.c **** 
 418              		.loc 1 531 1 view .LVU135
 419 004c 08BD     		pop	{r3, pc}
 420              	.L16:
 525:Core/Src/main.c ****   }
 421              		.loc 1 525 5 is_stmt 1 view .LVU136
 422 004e FFF7FEFF 		bl	Error_Handler
 423              	.LVL9:
 424              	.L18:
 425 0052 00BF     		.align	2
 426              	.L17:
 427 0054 00000000 		.word	hspi1
 428 0058 00300140 		.word	1073819648
 429              		.cfi_endproc
 430              	.LFE405:
ARM GAS  /tmp/cccIhoVk.s 			page 29


 432              		.section	.text.MX_UART4_Init,"ax",%progbits
 433              		.align	1
 434              		.syntax unified
 435              		.thumb
 436              		.thumb_func
 438              	MX_UART4_Init:
 439              	.LFB409:
 694:Core/Src/main.c **** 
 440              		.loc 1 694 1 view -0
 441              		.cfi_startproc
 442              		@ args = 0, pretend = 0, frame = 0
 443              		@ frame_needed = 0, uses_anonymous_args = 0
 444 0000 08B5     		push	{r3, lr}
 445              	.LCFI5:
 446              		.cfi_def_cfa_offset 8
 447              		.cfi_offset 3, -8
 448              		.cfi_offset 14, -4
 703:Core/Src/main.c ****   huart4.Init.BaudRate = 57600;
 449              		.loc 1 703 3 view .LVU138
 703:Core/Src/main.c ****   huart4.Init.BaudRate = 57600;
 450              		.loc 1 703 19 is_stmt 0 view .LVU139
 451 0002 1548     		ldr	r0, .L29
 452 0004 154B     		ldr	r3, .L29+4
 453 0006 0360     		str	r3, [r0]
 704:Core/Src/main.c ****   huart4.Init.WordLength = UART_WORDLENGTH_8B;
 454              		.loc 1 704 3 is_stmt 1 view .LVU140
 704:Core/Src/main.c ****   huart4.Init.WordLength = UART_WORDLENGTH_8B;
 455              		.loc 1 704 24 is_stmt 0 view .LVU141
 456 0008 4FF46143 		mov	r3, #57600
 457 000c 4360     		str	r3, [r0, #4]
 705:Core/Src/main.c ****   huart4.Init.StopBits = UART_STOPBITS_1;
 458              		.loc 1 705 3 is_stmt 1 view .LVU142
 705:Core/Src/main.c ****   huart4.Init.StopBits = UART_STOPBITS_1;
 459              		.loc 1 705 26 is_stmt 0 view .LVU143
 460 000e 0023     		movs	r3, #0
 461 0010 8360     		str	r3, [r0, #8]
 706:Core/Src/main.c ****   huart4.Init.Parity = UART_PARITY_NONE;
 462              		.loc 1 706 3 is_stmt 1 view .LVU144
 706:Core/Src/main.c ****   huart4.Init.Parity = UART_PARITY_NONE;
 463              		.loc 1 706 24 is_stmt 0 view .LVU145
 464 0012 C360     		str	r3, [r0, #12]
 707:Core/Src/main.c ****   huart4.Init.Mode = UART_MODE_TX_RX;
 465              		.loc 1 707 3 is_stmt 1 view .LVU146
 707:Core/Src/main.c ****   huart4.Init.Mode = UART_MODE_TX_RX;
 466              		.loc 1 707 22 is_stmt 0 view .LVU147
 467 0014 0361     		str	r3, [r0, #16]
 708:Core/Src/main.c ****   huart4.Init.HwFlowCtl = UART_HWCONTROL_NONE;
 468              		.loc 1 708 3 is_stmt 1 view .LVU148
 708:Core/Src/main.c ****   huart4.Init.HwFlowCtl = UART_HWCONTROL_NONE;
 469              		.loc 1 708 20 is_stmt 0 view .LVU149
 470 0016 0C22     		movs	r2, #12
 471 0018 4261     		str	r2, [r0, #20]
 709:Core/Src/main.c ****   huart4.Init.OverSampling = UART_OVERSAMPLING_16;
 472              		.loc 1 709 3 is_stmt 1 view .LVU150
 709:Core/Src/main.c ****   huart4.Init.OverSampling = UART_OVERSAMPLING_16;
 473              		.loc 1 709 25 is_stmt 0 view .LVU151
 474 001a 8361     		str	r3, [r0, #24]
ARM GAS  /tmp/cccIhoVk.s 			page 30


 710:Core/Src/main.c ****   huart4.Init.OneBitSampling = UART_ONE_BIT_SAMPLE_DISABLE;
 475              		.loc 1 710 3 is_stmt 1 view .LVU152
 710:Core/Src/main.c ****   huart4.Init.OneBitSampling = UART_ONE_BIT_SAMPLE_DISABLE;
 476              		.loc 1 710 28 is_stmt 0 view .LVU153
 477 001c C361     		str	r3, [r0, #28]
 711:Core/Src/main.c ****   huart4.Init.ClockPrescaler = UART_PRESCALER_DIV1;
 478              		.loc 1 711 3 is_stmt 1 view .LVU154
 711:Core/Src/main.c ****   huart4.Init.ClockPrescaler = UART_PRESCALER_DIV1;
 479              		.loc 1 711 30 is_stmt 0 view .LVU155
 480 001e 0362     		str	r3, [r0, #32]
 712:Core/Src/main.c ****   huart4.AdvancedInit.AdvFeatureInit = UART_ADVFEATURE_NO_INIT;
 481              		.loc 1 712 3 is_stmt 1 view .LVU156
 712:Core/Src/main.c ****   huart4.AdvancedInit.AdvFeatureInit = UART_ADVFEATURE_NO_INIT;
 482              		.loc 1 712 30 is_stmt 0 view .LVU157
 483 0020 4362     		str	r3, [r0, #36]
 713:Core/Src/main.c ****   if (HAL_UART_Init(&huart4) != HAL_OK)
 484              		.loc 1 713 3 is_stmt 1 view .LVU158
 713:Core/Src/main.c ****   if (HAL_UART_Init(&huart4) != HAL_OK)
 485              		.loc 1 713 38 is_stmt 0 view .LVU159
 486 0022 8362     		str	r3, [r0, #40]
 714:Core/Src/main.c ****   {
 487              		.loc 1 714 3 is_stmt 1 view .LVU160
 714:Core/Src/main.c ****   {
 488              		.loc 1 714 7 is_stmt 0 view .LVU161
 489 0024 FFF7FEFF 		bl	HAL_UART_Init
 490              	.LVL10:
 714:Core/Src/main.c ****   {
 491              		.loc 1 714 6 view .LVU162
 492 0028 70B9     		cbnz	r0, .L25
 718:Core/Src/main.c ****   {
 493              		.loc 1 718 3 is_stmt 1 view .LVU163
 718:Core/Src/main.c ****   {
 494              		.loc 1 718 7 is_stmt 0 view .LVU164
 495 002a 0021     		movs	r1, #0
 496 002c 0A48     		ldr	r0, .L29
 497 002e FFF7FEFF 		bl	HAL_UARTEx_SetTxFifoThreshold
 498              	.LVL11:
 718:Core/Src/main.c ****   {
 499              		.loc 1 718 6 view .LVU165
 500 0032 58B9     		cbnz	r0, .L26
 722:Core/Src/main.c ****   {
 501              		.loc 1 722 3 is_stmt 1 view .LVU166
 722:Core/Src/main.c ****   {
 502              		.loc 1 722 7 is_stmt 0 view .LVU167
 503 0034 0021     		movs	r1, #0
 504 0036 0848     		ldr	r0, .L29
 505 0038 FFF7FEFF 		bl	HAL_UARTEx_SetRxFifoThreshold
 506              	.LVL12:
 722:Core/Src/main.c ****   {
 507              		.loc 1 722 6 view .LVU168
 508 003c 40B9     		cbnz	r0, .L27
 726:Core/Src/main.c ****   {
 509              		.loc 1 726 3 is_stmt 1 view .LVU169
 726:Core/Src/main.c ****   {
 510              		.loc 1 726 7 is_stmt 0 view .LVU170
 511 003e 0648     		ldr	r0, .L29
 512 0040 FFF7FEFF 		bl	HAL_UARTEx_DisableFifoMode
ARM GAS  /tmp/cccIhoVk.s 			page 31


 513              	.LVL13:
 726:Core/Src/main.c ****   {
 514              		.loc 1 726 6 view .LVU171
 515 0044 30B9     		cbnz	r0, .L28
 734:Core/Src/main.c **** 
 516              		.loc 1 734 1 view .LVU172
 517 0046 08BD     		pop	{r3, pc}
 518              	.L25:
 716:Core/Src/main.c ****   }
 519              		.loc 1 716 5 is_stmt 1 view .LVU173
 520 0048 FFF7FEFF 		bl	Error_Handler
 521              	.LVL14:
 522              	.L26:
 720:Core/Src/main.c ****   }
 523              		.loc 1 720 5 view .LVU174
 524 004c FFF7FEFF 		bl	Error_Handler
 525              	.LVL15:
 526              	.L27:
 724:Core/Src/main.c ****   }
 527              		.loc 1 724 5 view .LVU175
 528 0050 FFF7FEFF 		bl	Error_Handler
 529              	.LVL16:
 530              	.L28:
 728:Core/Src/main.c ****   }
 531              		.loc 1 728 5 view .LVU176
 532 0054 FFF7FEFF 		bl	Error_Handler
 533              	.LVL17:
 534              	.L30:
 535              		.align	2
 536              	.L29:
 537 0058 00000000 		.word	huart4
 538 005c 004C0040 		.word	1073761280
 539              		.cfi_endproc
 540              	.LFE409:
 542              		.section	.text.MX_UART5_Init,"ax",%progbits
 543              		.align	1
 544              		.syntax unified
 545              		.thumb
 546              		.thumb_func
 548              	MX_UART5_Init:
 549              	.LFB410:
 742:Core/Src/main.c **** 
 550              		.loc 1 742 1 view -0
 551              		.cfi_startproc
 552              		@ args = 0, pretend = 0, frame = 0
 553              		@ frame_needed = 0, uses_anonymous_args = 0
 554 0000 08B5     		push	{r3, lr}
 555              	.LCFI6:
 556              		.cfi_def_cfa_offset 8
 557              		.cfi_offset 3, -8
 558              		.cfi_offset 14, -4
 751:Core/Src/main.c ****   huart5.Init.BaudRate = 115200;
 559              		.loc 1 751 3 view .LVU178
 751:Core/Src/main.c ****   huart5.Init.BaudRate = 115200;
 560              		.loc 1 751 19 is_stmt 0 view .LVU179
 561 0002 1548     		ldr	r0, .L41
 562 0004 154B     		ldr	r3, .L41+4
ARM GAS  /tmp/cccIhoVk.s 			page 32


 563 0006 0360     		str	r3, [r0]
 752:Core/Src/main.c ****   huart5.Init.WordLength = UART_WORDLENGTH_8B;
 564              		.loc 1 752 3 is_stmt 1 view .LVU180
 752:Core/Src/main.c ****   huart5.Init.WordLength = UART_WORDLENGTH_8B;
 565              		.loc 1 752 24 is_stmt 0 view .LVU181
 566 0008 4FF4E133 		mov	r3, #115200
 567 000c 4360     		str	r3, [r0, #4]
 753:Core/Src/main.c ****   huart5.Init.StopBits = UART_STOPBITS_1;
 568              		.loc 1 753 3 is_stmt 1 view .LVU182
 753:Core/Src/main.c ****   huart5.Init.StopBits = UART_STOPBITS_1;
 569              		.loc 1 753 26 is_stmt 0 view .LVU183
 570 000e 0023     		movs	r3, #0
 571 0010 8360     		str	r3, [r0, #8]
 754:Core/Src/main.c ****   huart5.Init.Parity = UART_PARITY_NONE;
 572              		.loc 1 754 3 is_stmt 1 view .LVU184
 754:Core/Src/main.c ****   huart5.Init.Parity = UART_PARITY_NONE;
 573              		.loc 1 754 24 is_stmt 0 view .LVU185
 574 0012 C360     		str	r3, [r0, #12]
 755:Core/Src/main.c ****   huart5.Init.Mode = UART_MODE_TX_RX;
 575              		.loc 1 755 3 is_stmt 1 view .LVU186
 755:Core/Src/main.c ****   huart5.Init.Mode = UART_MODE_TX_RX;
 576              		.loc 1 755 22 is_stmt 0 view .LVU187
 577 0014 0361     		str	r3, [r0, #16]
 756:Core/Src/main.c ****   huart5.Init.HwFlowCtl = UART_HWCONTROL_NONE;
 578              		.loc 1 756 3 is_stmt 1 view .LVU188
 756:Core/Src/main.c ****   huart5.Init.HwFlowCtl = UART_HWCONTROL_NONE;
 579              		.loc 1 756 20 is_stmt 0 view .LVU189
 580 0016 0C22     		movs	r2, #12
 581 0018 4261     		str	r2, [r0, #20]
 757:Core/Src/main.c ****   huart5.Init.OverSampling = UART_OVERSAMPLING_16;
 582              		.loc 1 757 3 is_stmt 1 view .LVU190
 757:Core/Src/main.c ****   huart5.Init.OverSampling = UART_OVERSAMPLING_16;
 583              		.loc 1 757 25 is_stmt 0 view .LVU191
 584 001a 8361     		str	r3, [r0, #24]
 758:Core/Src/main.c ****   huart5.Init.OneBitSampling = UART_ONE_BIT_SAMPLE_DISABLE;
 585              		.loc 1 758 3 is_stmt 1 view .LVU192
 758:Core/Src/main.c ****   huart5.Init.OneBitSampling = UART_ONE_BIT_SAMPLE_DISABLE;
 586              		.loc 1 758 28 is_stmt 0 view .LVU193
 587 001c C361     		str	r3, [r0, #28]
 759:Core/Src/main.c ****   huart5.Init.ClockPrescaler = UART_PRESCALER_DIV1;
 588              		.loc 1 759 3 is_stmt 1 view .LVU194
 759:Core/Src/main.c ****   huart5.Init.ClockPrescaler = UART_PRESCALER_DIV1;
 589              		.loc 1 759 30 is_stmt 0 view .LVU195
 590 001e 0362     		str	r3, [r0, #32]
 760:Core/Src/main.c ****   huart5.AdvancedInit.AdvFeatureInit = UART_ADVFEATURE_NO_INIT;
 591              		.loc 1 760 3 is_stmt 1 view .LVU196
 760:Core/Src/main.c ****   huart5.AdvancedInit.AdvFeatureInit = UART_ADVFEATURE_NO_INIT;
 592              		.loc 1 760 30 is_stmt 0 view .LVU197
 593 0020 4362     		str	r3, [r0, #36]
 761:Core/Src/main.c ****   if (HAL_UART_Init(&huart5) != HAL_OK)
 594              		.loc 1 761 3 is_stmt 1 view .LVU198
 761:Core/Src/main.c ****   if (HAL_UART_Init(&huart5) != HAL_OK)
 595              		.loc 1 761 38 is_stmt 0 view .LVU199
 596 0022 8362     		str	r3, [r0, #40]
 762:Core/Src/main.c ****   {
 597              		.loc 1 762 3 is_stmt 1 view .LVU200
 762:Core/Src/main.c ****   {
ARM GAS  /tmp/cccIhoVk.s 			page 33


 598              		.loc 1 762 7 is_stmt 0 view .LVU201
 599 0024 FFF7FEFF 		bl	HAL_UART_Init
 600              	.LVL18:
 762:Core/Src/main.c ****   {
 601              		.loc 1 762 6 view .LVU202
 602 0028 70B9     		cbnz	r0, .L37
 766:Core/Src/main.c ****   {
 603              		.loc 1 766 3 is_stmt 1 view .LVU203
 766:Core/Src/main.c ****   {
 604              		.loc 1 766 7 is_stmt 0 view .LVU204
 605 002a 0021     		movs	r1, #0
 606 002c 0A48     		ldr	r0, .L41
 607 002e FFF7FEFF 		bl	HAL_UARTEx_SetTxFifoThreshold
 608              	.LVL19:
 766:Core/Src/main.c ****   {
 609              		.loc 1 766 6 view .LVU205
 610 0032 58B9     		cbnz	r0, .L38
 770:Core/Src/main.c ****   {
 611              		.loc 1 770 3 is_stmt 1 view .LVU206
 770:Core/Src/main.c ****   {
 612              		.loc 1 770 7 is_stmt 0 view .LVU207
 613 0034 0021     		movs	r1, #0
 614 0036 0848     		ldr	r0, .L41
 615 0038 FFF7FEFF 		bl	HAL_UARTEx_SetRxFifoThreshold
 616              	.LVL20:
 770:Core/Src/main.c ****   {
 617              		.loc 1 770 6 view .LVU208
 618 003c 40B9     		cbnz	r0, .L39
 774:Core/Src/main.c ****   {
 619              		.loc 1 774 3 is_stmt 1 view .LVU209
 774:Core/Src/main.c ****   {
 620              		.loc 1 774 7 is_stmt 0 view .LVU210
 621 003e 0648     		ldr	r0, .L41
 622 0040 FFF7FEFF 		bl	HAL_UARTEx_DisableFifoMode
 623              	.LVL21:
 774:Core/Src/main.c ****   {
 624              		.loc 1 774 6 view .LVU211
 625 0044 30B9     		cbnz	r0, .L40
 782:Core/Src/main.c **** 
 626              		.loc 1 782 1 view .LVU212
 627 0046 08BD     		pop	{r3, pc}
 628              	.L37:
 764:Core/Src/main.c ****   }
 629              		.loc 1 764 5 is_stmt 1 view .LVU213
 630 0048 FFF7FEFF 		bl	Error_Handler
 631              	.LVL22:
 632              	.L38:
 768:Core/Src/main.c ****   }
 633              		.loc 1 768 5 view .LVU214
 634 004c FFF7FEFF 		bl	Error_Handler
 635              	.LVL23:
 636              	.L39:
 772:Core/Src/main.c ****   }
 637              		.loc 1 772 5 view .LVU215
 638 0050 FFF7FEFF 		bl	Error_Handler
 639              	.LVL24:
 640              	.L40:
ARM GAS  /tmp/cccIhoVk.s 			page 34


 776:Core/Src/main.c ****   }
 641              		.loc 1 776 5 view .LVU216
 642 0054 FFF7FEFF 		bl	Error_Handler
 643              	.LVL25:
 644              	.L42:
 645              		.align	2
 646              	.L41:
 647 0058 00000000 		.word	huart5
 648 005c 00500040 		.word	1073762304
 649              		.cfi_endproc
 650              	.LFE410:
 652              		.section	.text.MX_USART2_UART_Init,"ax",%progbits
 653              		.align	1
 654              		.syntax unified
 655              		.thumb
 656              		.thumb_func
 658              	MX_USART2_UART_Init:
 659              	.LFB411:
 790:Core/Src/main.c **** 
 660              		.loc 1 790 1 view -0
 661              		.cfi_startproc
 662              		@ args = 0, pretend = 0, frame = 0
 663              		@ frame_needed = 0, uses_anonymous_args = 0
 664 0000 08B5     		push	{r3, lr}
 665              	.LCFI7:
 666              		.cfi_def_cfa_offset 8
 667              		.cfi_offset 3, -8
 668              		.cfi_offset 14, -4
 799:Core/Src/main.c ****   huart2.Init.BaudRate = 115200;
 669              		.loc 1 799 3 view .LVU218
 799:Core/Src/main.c ****   huart2.Init.BaudRate = 115200;
 670              		.loc 1 799 19 is_stmt 0 view .LVU219
 671 0002 1548     		ldr	r0, .L53
 672 0004 154B     		ldr	r3, .L53+4
 673 0006 0360     		str	r3, [r0]
 800:Core/Src/main.c ****   huart2.Init.WordLength = UART_WORDLENGTH_8B;
 674              		.loc 1 800 3 is_stmt 1 view .LVU220
 800:Core/Src/main.c ****   huart2.Init.WordLength = UART_WORDLENGTH_8B;
 675              		.loc 1 800 24 is_stmt 0 view .LVU221
 676 0008 4FF4E133 		mov	r3, #115200
 677 000c 4360     		str	r3, [r0, #4]
 801:Core/Src/main.c ****   huart2.Init.StopBits = UART_STOPBITS_1;
 678              		.loc 1 801 3 is_stmt 1 view .LVU222
 801:Core/Src/main.c ****   huart2.Init.StopBits = UART_STOPBITS_1;
 679              		.loc 1 801 26 is_stmt 0 view .LVU223
 680 000e 0023     		movs	r3, #0
 681 0010 8360     		str	r3, [r0, #8]
 802:Core/Src/main.c ****   huart2.Init.Parity = UART_PARITY_NONE;
 682              		.loc 1 802 3 is_stmt 1 view .LVU224
 802:Core/Src/main.c ****   huart2.Init.Parity = UART_PARITY_NONE;
 683              		.loc 1 802 24 is_stmt 0 view .LVU225
 684 0012 C360     		str	r3, [r0, #12]
 803:Core/Src/main.c ****   huart2.Init.Mode = UART_MODE_TX_RX;
 685              		.loc 1 803 3 is_stmt 1 view .LVU226
 803:Core/Src/main.c ****   huart2.Init.Mode = UART_MODE_TX_RX;
 686              		.loc 1 803 22 is_stmt 0 view .LVU227
 687 0014 0361     		str	r3, [r0, #16]
ARM GAS  /tmp/cccIhoVk.s 			page 35


 804:Core/Src/main.c ****   huart2.Init.HwFlowCtl = UART_HWCONTROL_NONE;
 688              		.loc 1 804 3 is_stmt 1 view .LVU228
 804:Core/Src/main.c ****   huart2.Init.HwFlowCtl = UART_HWCONTROL_NONE;
 689              		.loc 1 804 20 is_stmt 0 view .LVU229
 690 0016 0C22     		movs	r2, #12
 691 0018 4261     		str	r2, [r0, #20]
 805:Core/Src/main.c ****   huart2.Init.OverSampling = UART_OVERSAMPLING_16;
 692              		.loc 1 805 3 is_stmt 1 view .LVU230
 805:Core/Src/main.c ****   huart2.Init.OverSampling = UART_OVERSAMPLING_16;
 693              		.loc 1 805 25 is_stmt 0 view .LVU231
 694 001a 8361     		str	r3, [r0, #24]
 806:Core/Src/main.c ****   huart2.Init.OneBitSampling = UART_ONE_BIT_SAMPLE_DISABLE;
 695              		.loc 1 806 3 is_stmt 1 view .LVU232
 806:Core/Src/main.c ****   huart2.Init.OneBitSampling = UART_ONE_BIT_SAMPLE_DISABLE;
 696              		.loc 1 806 28 is_stmt 0 view .LVU233
 697 001c C361     		str	r3, [r0, #28]
 807:Core/Src/main.c ****   huart2.Init.ClockPrescaler = UART_PRESCALER_DIV1;
 698              		.loc 1 807 3 is_stmt 1 view .LVU234
 807:Core/Src/main.c ****   huart2.Init.ClockPrescaler = UART_PRESCALER_DIV1;
 699              		.loc 1 807 30 is_stmt 0 view .LVU235
 700 001e 0362     		str	r3, [r0, #32]
 808:Core/Src/main.c ****   huart2.AdvancedInit.AdvFeatureInit = UART_ADVFEATURE_NO_INIT;
 701              		.loc 1 808 3 is_stmt 1 view .LVU236
 808:Core/Src/main.c ****   huart2.AdvancedInit.AdvFeatureInit = UART_ADVFEATURE_NO_INIT;
 702              		.loc 1 808 30 is_stmt 0 view .LVU237
 703 0020 4362     		str	r3, [r0, #36]
 809:Core/Src/main.c ****   if (HAL_UART_Init(&huart2) != HAL_OK)
 704              		.loc 1 809 3 is_stmt 1 view .LVU238
 809:Core/Src/main.c ****   if (HAL_UART_Init(&huart2) != HAL_OK)
 705              		.loc 1 809 38 is_stmt 0 view .LVU239
 706 0022 8362     		str	r3, [r0, #40]
 810:Core/Src/main.c ****   {
 707              		.loc 1 810 3 is_stmt 1 view .LVU240
 810:Core/Src/main.c ****   {
 708              		.loc 1 810 7 is_stmt 0 view .LVU241
 709 0024 FFF7FEFF 		bl	HAL_UART_Init
 710              	.LVL26:
 810:Core/Src/main.c ****   {
 711              		.loc 1 810 6 view .LVU242
 712 0028 70B9     		cbnz	r0, .L49
 814:Core/Src/main.c ****   {
 713              		.loc 1 814 3 is_stmt 1 view .LVU243
 814:Core/Src/main.c ****   {
 714              		.loc 1 814 7 is_stmt 0 view .LVU244
 715 002a 0021     		movs	r1, #0
 716 002c 0A48     		ldr	r0, .L53
 717 002e FFF7FEFF 		bl	HAL_UARTEx_SetTxFifoThreshold
 718              	.LVL27:
 814:Core/Src/main.c ****   {
 719              		.loc 1 814 6 view .LVU245
 720 0032 58B9     		cbnz	r0, .L50
 818:Core/Src/main.c ****   {
 721              		.loc 1 818 3 is_stmt 1 view .LVU246
 818:Core/Src/main.c ****   {
 722              		.loc 1 818 7 is_stmt 0 view .LVU247
 723 0034 0021     		movs	r1, #0
 724 0036 0848     		ldr	r0, .L53
ARM GAS  /tmp/cccIhoVk.s 			page 36


 725 0038 FFF7FEFF 		bl	HAL_UARTEx_SetRxFifoThreshold
 726              	.LVL28:
 818:Core/Src/main.c ****   {
 727              		.loc 1 818 6 view .LVU248
 728 003c 40B9     		cbnz	r0, .L51
 822:Core/Src/main.c ****   {
 729              		.loc 1 822 3 is_stmt 1 view .LVU249
 822:Core/Src/main.c ****   {
 730              		.loc 1 822 7 is_stmt 0 view .LVU250
 731 003e 0648     		ldr	r0, .L53
 732 0040 FFF7FEFF 		bl	HAL_UARTEx_DisableFifoMode
 733              	.LVL29:
 822:Core/Src/main.c ****   {
 734              		.loc 1 822 6 view .LVU251
 735 0044 30B9     		cbnz	r0, .L52
 830:Core/Src/main.c **** 
 736              		.loc 1 830 1 view .LVU252
 737 0046 08BD     		pop	{r3, pc}
 738              	.L49:
 812:Core/Src/main.c ****   }
 739              		.loc 1 812 5 is_stmt 1 view .LVU253
 740 0048 FFF7FEFF 		bl	Error_Handler
 741              	.LVL30:
 742              	.L50:
 816:Core/Src/main.c ****   }
 743              		.loc 1 816 5 view .LVU254
 744 004c FFF7FEFF 		bl	Error_Handler
 745              	.LVL31:
 746              	.L51:
 820:Core/Src/main.c ****   }
 747              		.loc 1 820 5 view .LVU255
 748 0050 FFF7FEFF 		bl	Error_Handler
 749              	.LVL32:
 750              	.L52:
 824:Core/Src/main.c ****   }
 751              		.loc 1 824 5 view .LVU256
 752 0054 FFF7FEFF 		bl	Error_Handler
 753              	.LVL33:
 754              	.L54:
 755              		.align	2
 756              	.L53:
 757 0058 00000000 		.word	huart2
 758 005c 00440040 		.word	1073759232
 759              		.cfi_endproc
 760              	.LFE411:
 762              		.section	.text.MX_OCTOSPI1_Init,"ax",%progbits
 763              		.align	1
 764              		.syntax unified
 765              		.thumb
 766              		.thumb_func
 768              	MX_OCTOSPI1_Init:
 769              	.LFB404:
 441:Core/Src/main.c **** 
 770              		.loc 1 441 1 view -0
 771              		.cfi_startproc
 772              		@ args = 0, pretend = 0, frame = 24
 773              		@ frame_needed = 0, uses_anonymous_args = 0
ARM GAS  /tmp/cccIhoVk.s 			page 37


 774 0000 00B5     		push	{lr}
 775              	.LCFI8:
 776              		.cfi_def_cfa_offset 4
 777              		.cfi_offset 14, -4
 778 0002 87B0     		sub	sp, sp, #28
 779              	.LCFI9:
 780              		.cfi_def_cfa_offset 32
 447:Core/Src/main.c **** 
 781              		.loc 1 447 3 view .LVU258
 447:Core/Src/main.c **** 
 782              		.loc 1 447 20 is_stmt 0 view .LVU259
 783 0004 0023     		movs	r3, #0
 784 0006 0093     		str	r3, [sp]
 785 0008 0193     		str	r3, [sp, #4]
 786 000a 0293     		str	r3, [sp, #8]
 787 000c 0393     		str	r3, [sp, #12]
 788 000e 0493     		str	r3, [sp, #16]
 789 0010 0593     		str	r3, [sp, #20]
 453:Core/Src/main.c ****   hospi1.Init.FifoThreshold = 1;
 790              		.loc 1 453 3 is_stmt 1 view .LVU260
 453:Core/Src/main.c ****   hospi1.Init.FifoThreshold = 1;
 791              		.loc 1 453 19 is_stmt 0 view .LVU261
 792 0012 1648     		ldr	r0, .L61
 793 0014 164A     		ldr	r2, .L61+4
 794 0016 0260     		str	r2, [r0]
 454:Core/Src/main.c ****   hospi1.Init.DualQuad = HAL_OSPI_DUALQUAD_DISABLE;
 795              		.loc 1 454 3 is_stmt 1 view .LVU262
 454:Core/Src/main.c ****   hospi1.Init.DualQuad = HAL_OSPI_DUALQUAD_DISABLE;
 796              		.loc 1 454 29 is_stmt 0 view .LVU263
 797 0018 0122     		movs	r2, #1
 798 001a 4260     		str	r2, [r0, #4]
 455:Core/Src/main.c ****   hospi1.Init.MemoryType = HAL_OSPI_MEMTYPE_MICRON;
 799              		.loc 1 455 3 is_stmt 1 view .LVU264
 455:Core/Src/main.c ****   hospi1.Init.MemoryType = HAL_OSPI_MEMTYPE_MICRON;
 800              		.loc 1 455 24 is_stmt 0 view .LVU265
 801 001c 8360     		str	r3, [r0, #8]
 456:Core/Src/main.c ****   hospi1.Init.DeviceSize = 24;
 802              		.loc 1 456 3 is_stmt 1 view .LVU266
 456:Core/Src/main.c ****   hospi1.Init.DeviceSize = 24;
 803              		.loc 1 456 26 is_stmt 0 view .LVU267
 804 001e C360     		str	r3, [r0, #12]
 457:Core/Src/main.c ****   hospi1.Init.ChipSelectHighTime = 1;
 805              		.loc 1 457 3 is_stmt 1 view .LVU268
 457:Core/Src/main.c ****   hospi1.Init.ChipSelectHighTime = 1;
 806              		.loc 1 457 26 is_stmt 0 view .LVU269
 807 0020 1821     		movs	r1, #24
 808 0022 0161     		str	r1, [r0, #16]
 458:Core/Src/main.c ****   hospi1.Init.FreeRunningClock = HAL_OSPI_FREERUNCLK_DISABLE;
 809              		.loc 1 458 3 is_stmt 1 view .LVU270
 458:Core/Src/main.c ****   hospi1.Init.FreeRunningClock = HAL_OSPI_FREERUNCLK_DISABLE;
 810              		.loc 1 458 34 is_stmt 0 view .LVU271
 811 0024 4261     		str	r2, [r0, #20]
 459:Core/Src/main.c ****   hospi1.Init.ClockMode = HAL_OSPI_CLOCK_MODE_0;
 812              		.loc 1 459 3 is_stmt 1 view .LVU272
 459:Core/Src/main.c ****   hospi1.Init.ClockMode = HAL_OSPI_CLOCK_MODE_0;
 813              		.loc 1 459 32 is_stmt 0 view .LVU273
 814 0026 8361     		str	r3, [r0, #24]
ARM GAS  /tmp/cccIhoVk.s 			page 38


 460:Core/Src/main.c ****   hospi1.Init.WrapSize = HAL_OSPI_WRAP_NOT_SUPPORTED;
 815              		.loc 1 460 3 is_stmt 1 view .LVU274
 460:Core/Src/main.c ****   hospi1.Init.WrapSize = HAL_OSPI_WRAP_NOT_SUPPORTED;
 816              		.loc 1 460 25 is_stmt 0 view .LVU275
 817 0028 C361     		str	r3, [r0, #28]
 461:Core/Src/main.c ****   hospi1.Init.ClockPrescaler = 2;
 818              		.loc 1 461 3 is_stmt 1 view .LVU276
 461:Core/Src/main.c ****   hospi1.Init.ClockPrescaler = 2;
 819              		.loc 1 461 24 is_stmt 0 view .LVU277
 820 002a 0362     		str	r3, [r0, #32]
 462:Core/Src/main.c ****   hospi1.Init.SampleShifting = HAL_OSPI_SAMPLE_SHIFTING_NONE;
 821              		.loc 1 462 3 is_stmt 1 view .LVU278
 462:Core/Src/main.c ****   hospi1.Init.SampleShifting = HAL_OSPI_SAMPLE_SHIFTING_NONE;
 822              		.loc 1 462 30 is_stmt 0 view .LVU279
 823 002c 0222     		movs	r2, #2
 824 002e 4262     		str	r2, [r0, #36]
 463:Core/Src/main.c ****   hospi1.Init.DelayHoldQuarterCycle = HAL_OSPI_DHQC_DISABLE;
 825              		.loc 1 463 3 is_stmt 1 view .LVU280
 463:Core/Src/main.c ****   hospi1.Init.DelayHoldQuarterCycle = HAL_OSPI_DHQC_DISABLE;
 826              		.loc 1 463 30 is_stmt 0 view .LVU281
 827 0030 8362     		str	r3, [r0, #40]
 464:Core/Src/main.c ****   hospi1.Init.ChipSelectBoundary = 0;
 828              		.loc 1 464 3 is_stmt 1 view .LVU282
 464:Core/Src/main.c ****   hospi1.Init.ChipSelectBoundary = 0;
 829              		.loc 1 464 37 is_stmt 0 view .LVU283
 830 0032 C362     		str	r3, [r0, #44]
 465:Core/Src/main.c ****   hospi1.Init.DelayBlockBypass = HAL_OSPI_DELAY_BLOCK_BYPASSED;
 831              		.loc 1 465 3 is_stmt 1 view .LVU284
 465:Core/Src/main.c ****   hospi1.Init.DelayBlockBypass = HAL_OSPI_DELAY_BLOCK_BYPASSED;
 832              		.loc 1 465 34 is_stmt 0 view .LVU285
 833 0034 0363     		str	r3, [r0, #48]
 466:Core/Src/main.c ****   hospi1.Init.MaxTran = 0;
 834              		.loc 1 466 3 is_stmt 1 view .LVU286
 466:Core/Src/main.c ****   hospi1.Init.MaxTran = 0;
 835              		.loc 1 466 32 is_stmt 0 view .LVU287
 836 0036 0822     		movs	r2, #8
 837 0038 4263     		str	r2, [r0, #52]
 467:Core/Src/main.c ****   hospi1.Init.Refresh = 0;
 838              		.loc 1 467 3 is_stmt 1 view .LVU288
 467:Core/Src/main.c ****   hospi1.Init.Refresh = 0;
 839              		.loc 1 467 23 is_stmt 0 view .LVU289
 840 003a 8363     		str	r3, [r0, #56]
 468:Core/Src/main.c ****   if (HAL_OSPI_Init(&hospi1) != HAL_OK)
 841              		.loc 1 468 3 is_stmt 1 view .LVU290
 468:Core/Src/main.c ****   if (HAL_OSPI_Init(&hospi1) != HAL_OK)
 842              		.loc 1 468 23 is_stmt 0 view .LVU291
 843 003c C363     		str	r3, [r0, #60]
 469:Core/Src/main.c ****   {
 844              		.loc 1 469 3 is_stmt 1 view .LVU292
 469:Core/Src/main.c ****   {
 845              		.loc 1 469 7 is_stmt 0 view .LVU293
 846 003e FFF7FEFF 		bl	HAL_OSPI_Init
 847              	.LVL34:
 469:Core/Src/main.c ****   {
 848              		.loc 1 469 6 view .LVU294
 849 0042 70B9     		cbnz	r0, .L59
 473:Core/Src/main.c ****   sOspiManagerCfg.IOLowPort = HAL_OSPIM_IOPORT_1_LOW;
ARM GAS  /tmp/cccIhoVk.s 			page 39


 850              		.loc 1 473 3 is_stmt 1 view .LVU295
 473:Core/Src/main.c ****   sOspiManagerCfg.IOLowPort = HAL_OSPIM_IOPORT_1_LOW;
 851              		.loc 1 473 27 is_stmt 0 view .LVU296
 852 0044 0123     		movs	r3, #1
 853 0046 0093     		str	r3, [sp]
 474:Core/Src/main.c ****   if (HAL_OSPIM_Config(&hospi1, &sOspiManagerCfg, HAL_OSPI_TIMEOUT_DEFAULT_VALUE) != HAL_OK)
 854              		.loc 1 474 3 is_stmt 1 view .LVU297
 474:Core/Src/main.c ****   if (HAL_OSPIM_Config(&hospi1, &sOspiManagerCfg, HAL_OSPI_TIMEOUT_DEFAULT_VALUE) != HAL_OK)
 855              		.loc 1 474 29 is_stmt 0 view .LVU298
 856 0048 4FF00113 		mov	r3, #65537
 857 004c 0393     		str	r3, [sp, #12]
 475:Core/Src/main.c ****   {
 858              		.loc 1 475 3 is_stmt 1 view .LVU299
 475:Core/Src/main.c ****   {
 859              		.loc 1 475 7 is_stmt 0 view .LVU300
 860 004e 41F28832 		movw	r2, #5000
 861 0052 6946     		mov	r1, sp
 862 0054 0548     		ldr	r0, .L61
 863 0056 FFF7FEFF 		bl	HAL_OSPIM_Config
 864              	.LVL35:
 475:Core/Src/main.c ****   {
 865              		.loc 1 475 6 view .LVU301
 866 005a 20B9     		cbnz	r0, .L60
 483:Core/Src/main.c **** 
 867              		.loc 1 483 1 view .LVU302
 868 005c 07B0     		add	sp, sp, #28
 869              	.LCFI10:
 870              		.cfi_remember_state
 871              		.cfi_def_cfa_offset 4
 872              		@ sp needed
 873 005e 5DF804FB 		ldr	pc, [sp], #4
 874              	.L59:
 875              	.LCFI11:
 876              		.cfi_restore_state
 471:Core/Src/main.c ****   }
 877              		.loc 1 471 5 is_stmt 1 view .LVU303
 878 0062 FFF7FEFF 		bl	Error_Handler
 879              	.LVL36:
 880              	.L60:
 477:Core/Src/main.c ****   }
 881              		.loc 1 477 5 view .LVU304
 882 0066 FFF7FEFF 		bl	Error_Handler
 883              	.LVL37:
 884              	.L62:
 885 006a 00BF     		.align	2
 886              	.L61:
 887 006c 00000000 		.word	hospi1
 888 0070 00500052 		.word	1375752192
 889              		.cfi_endproc
 890              	.LFE404:
 892              		.section	.text.MX_ADC2_Init,"ax",%progbits
 893              		.align	1
 894              		.syntax unified
 895              		.thumb
 896              		.thumb_func
 898              	MX_ADC2_Init:
 899              	.LFB402:
ARM GAS  /tmp/cccIhoVk.s 			page 40


 318:Core/Src/main.c **** 
 900              		.loc 1 318 1 view -0
 901              		.cfi_startproc
 902              		@ args = 0, pretend = 0, frame = 40
 903              		@ frame_needed = 0, uses_anonymous_args = 0
 904 0000 00B5     		push	{lr}
 905              	.LCFI12:
 906              		.cfi_def_cfa_offset 4
 907              		.cfi_offset 14, -4
 908 0002 8BB0     		sub	sp, sp, #44
 909              	.LCFI13:
 910              		.cfi_def_cfa_offset 48
 324:Core/Src/main.c **** 
 911              		.loc 1 324 3 view .LVU306
 324:Core/Src/main.c **** 
 912              		.loc 1 324 26 is_stmt 0 view .LVU307
 913 0004 2422     		movs	r2, #36
 914 0006 0021     		movs	r1, #0
 915 0008 01A8     		add	r0, sp, #4
 916 000a FFF7FEFF 		bl	memset
 917              	.LVL38:
 332:Core/Src/main.c ****   hadc2.Init.ClockPrescaler = ADC_CLOCK_ASYNC_DIV1;
 918              		.loc 1 332 3 is_stmt 1 view .LVU308
 332:Core/Src/main.c ****   hadc2.Init.ClockPrescaler = ADC_CLOCK_ASYNC_DIV1;
 919              		.loc 1 332 18 is_stmt 0 view .LVU309
 920 000e 1A48     		ldr	r0, .L69
 921 0010 1A4B     		ldr	r3, .L69+4
 922 0012 0360     		str	r3, [r0]
 333:Core/Src/main.c ****   hadc2.Init.Resolution = ADC_RESOLUTION_14B;
 923              		.loc 1 333 3 is_stmt 1 view .LVU310
 333:Core/Src/main.c ****   hadc2.Init.Resolution = ADC_RESOLUTION_14B;
 924              		.loc 1 333 29 is_stmt 0 view .LVU311
 925 0014 0023     		movs	r3, #0
 926 0016 4360     		str	r3, [r0, #4]
 334:Core/Src/main.c ****   hadc2.Init.ScanConvMode = ADC_SCAN_DISABLE;
 927              		.loc 1 334 3 is_stmt 1 view .LVU312
 334:Core/Src/main.c ****   hadc2.Init.ScanConvMode = ADC_SCAN_DISABLE;
 928              		.loc 1 334 25 is_stmt 0 view .LVU313
 929 0018 0422     		movs	r2, #4
 930 001a 8260     		str	r2, [r0, #8]
 335:Core/Src/main.c ****   hadc2.Init.EOCSelection = ADC_EOC_SINGLE_CONV;
 931              		.loc 1 335 3 is_stmt 1 view .LVU314
 335:Core/Src/main.c ****   hadc2.Init.EOCSelection = ADC_EOC_SINGLE_CONV;
 932              		.loc 1 335 27 is_stmt 0 view .LVU315
 933 001c 0361     		str	r3, [r0, #16]
 336:Core/Src/main.c ****   hadc2.Init.LowPowerAutoWait = DISABLE;
 934              		.loc 1 336 3 is_stmt 1 view .LVU316
 336:Core/Src/main.c ****   hadc2.Init.LowPowerAutoWait = DISABLE;
 935              		.loc 1 336 27 is_stmt 0 view .LVU317
 936 001e 4261     		str	r2, [r0, #20]
 337:Core/Src/main.c ****   hadc2.Init.ContinuousConvMode = DISABLE;
 937              		.loc 1 337 3 is_stmt 1 view .LVU318
 337:Core/Src/main.c ****   hadc2.Init.ContinuousConvMode = DISABLE;
 938              		.loc 1 337 31 is_stmt 0 view .LVU319
 939 0020 0376     		strb	r3, [r0, #24]
 338:Core/Src/main.c ****   hadc2.Init.NbrOfConversion = 1;
 940              		.loc 1 338 3 is_stmt 1 view .LVU320
ARM GAS  /tmp/cccIhoVk.s 			page 41


 338:Core/Src/main.c ****   hadc2.Init.NbrOfConversion = 1;
 941              		.loc 1 338 33 is_stmt 0 view .LVU321
 942 0022 4376     		strb	r3, [r0, #25]
 339:Core/Src/main.c ****   hadc2.Init.DiscontinuousConvMode = DISABLE;
 943              		.loc 1 339 3 is_stmt 1 view .LVU322
 339:Core/Src/main.c ****   hadc2.Init.DiscontinuousConvMode = DISABLE;
 944              		.loc 1 339 30 is_stmt 0 view .LVU323
 945 0024 0122     		movs	r2, #1
 946 0026 C261     		str	r2, [r0, #28]
 340:Core/Src/main.c ****   hadc2.Init.ExternalTrigConv = ADC_SOFTWARE_START;
 947              		.loc 1 340 3 is_stmt 1 view .LVU324
 340:Core/Src/main.c ****   hadc2.Init.ExternalTrigConv = ADC_SOFTWARE_START;
 948              		.loc 1 340 36 is_stmt 0 view .LVU325
 949 0028 80F82030 		strb	r3, [r0, #32]
 341:Core/Src/main.c ****   hadc2.Init.ExternalTrigConvEdge = ADC_EXTERNALTRIGCONVEDGE_NONE;
 950              		.loc 1 341 3 is_stmt 1 view .LVU326
 341:Core/Src/main.c ****   hadc2.Init.ExternalTrigConvEdge = ADC_EXTERNALTRIGCONVEDGE_NONE;
 951              		.loc 1 341 31 is_stmt 0 view .LVU327
 952 002c 8362     		str	r3, [r0, #40]
 342:Core/Src/main.c ****   hadc2.Init.ConversionDataManagement = ADC_CONVERSIONDATA_DR;
 953              		.loc 1 342 3 is_stmt 1 view .LVU328
 342:Core/Src/main.c ****   hadc2.Init.ConversionDataManagement = ADC_CONVERSIONDATA_DR;
 954              		.loc 1 342 35 is_stmt 0 view .LVU329
 955 002e C362     		str	r3, [r0, #44]
 343:Core/Src/main.c ****   hadc2.Init.Overrun = ADC_OVR_DATA_PRESERVED;
 956              		.loc 1 343 3 is_stmt 1 view .LVU330
 343:Core/Src/main.c ****   hadc2.Init.Overrun = ADC_OVR_DATA_PRESERVED;
 957              		.loc 1 343 39 is_stmt 0 view .LVU331
 958 0030 0363     		str	r3, [r0, #48]
 344:Core/Src/main.c ****   hadc2.Init.LeftBitShift = ADC_LEFTBITSHIFT_NONE;
 959              		.loc 1 344 3 is_stmt 1 view .LVU332
 344:Core/Src/main.c ****   hadc2.Init.LeftBitShift = ADC_LEFTBITSHIFT_NONE;
 960              		.loc 1 344 22 is_stmt 0 view .LVU333
 961 0032 C363     		str	r3, [r0, #60]
 345:Core/Src/main.c ****   hadc2.Init.OversamplingMode = DISABLE;
 962              		.loc 1 345 3 is_stmt 1 view .LVU334
 345:Core/Src/main.c ****   hadc2.Init.OversamplingMode = DISABLE;
 963              		.loc 1 345 27 is_stmt 0 view .LVU335
 964 0034 0364     		str	r3, [r0, #64]
 346:Core/Src/main.c ****   hadc2.Init.Oversampling.Ratio = 1;
 965              		.loc 1 346 3 is_stmt 1 view .LVU336
 346:Core/Src/main.c ****   hadc2.Init.Oversampling.Ratio = 1;
 966              		.loc 1 346 31 is_stmt 0 view .LVU337
 967 0036 80F84430 		strb	r3, [r0, #68]
 347:Core/Src/main.c ****   if (HAL_ADC_Init(&hadc2) != HAL_OK)
 968              		.loc 1 347 3 is_stmt 1 view .LVU338
 347:Core/Src/main.c ****   if (HAL_ADC_Init(&hadc2) != HAL_OK)
 969              		.loc 1 347 33 is_stmt 0 view .LVU339
 970 003a 8264     		str	r2, [r0, #72]
 348:Core/Src/main.c ****   {
 971              		.loc 1 348 3 is_stmt 1 view .LVU340
 348:Core/Src/main.c ****   {
 972              		.loc 1 348 7 is_stmt 0 view .LVU341
 973 003c FFF7FEFF 		bl	HAL_ADC_Init
 974              	.LVL39:
 348:Core/Src/main.c ****   {
 975              		.loc 1 348 6 view .LVU342
ARM GAS  /tmp/cccIhoVk.s 			page 42


 976 0040 B0B9     		cbnz	r0, .L67
 355:Core/Src/main.c ****   sConfig.Rank = ADC_REGULAR_RANK_1;
 977              		.loc 1 355 3 is_stmt 1 view .LVU343
 355:Core/Src/main.c ****   sConfig.Rank = ADC_REGULAR_RANK_1;
 978              		.loc 1 355 19 is_stmt 0 view .LVU344
 979 0042 0F4B     		ldr	r3, .L69+8
 980 0044 0193     		str	r3, [sp, #4]
 356:Core/Src/main.c ****   sConfig.SamplingTime = ADC_SAMPLETIME_810CYCLES_5;
 981              		.loc 1 356 3 is_stmt 1 view .LVU345
 356:Core/Src/main.c ****   sConfig.SamplingTime = ADC_SAMPLETIME_810CYCLES_5;
 982              		.loc 1 356 16 is_stmt 0 view .LVU346
 983 0046 0623     		movs	r3, #6
 984 0048 0293     		str	r3, [sp, #8]
 357:Core/Src/main.c ****   sConfig.SingleDiff = ADC_SINGLE_ENDED;
 985              		.loc 1 357 3 is_stmt 1 view .LVU347
 357:Core/Src/main.c ****   sConfig.SingleDiff = ADC_SINGLE_ENDED;
 986              		.loc 1 357 24 is_stmt 0 view .LVU348
 987 004a 0723     		movs	r3, #7
 988 004c 0393     		str	r3, [sp, #12]
 358:Core/Src/main.c ****   sConfig.OffsetNumber = ADC_OFFSET_NONE;
 989              		.loc 1 358 3 is_stmt 1 view .LVU349
 358:Core/Src/main.c ****   sConfig.OffsetNumber = ADC_OFFSET_NONE;
 990              		.loc 1 358 22 is_stmt 0 view .LVU350
 991 004e 40F2FF73 		movw	r3, #2047
 992 0052 0493     		str	r3, [sp, #16]
 359:Core/Src/main.c ****   sConfig.Offset = 0;
 993              		.loc 1 359 3 is_stmt 1 view .LVU351
 359:Core/Src/main.c ****   sConfig.Offset = 0;
 994              		.loc 1 359 24 is_stmt 0 view .LVU352
 995 0054 0423     		movs	r3, #4
 996 0056 0593     		str	r3, [sp, #20]
 360:Core/Src/main.c ****   sConfig.OffsetSignedSaturation = DISABLE;
 997              		.loc 1 360 3 is_stmt 1 view .LVU353
 360:Core/Src/main.c ****   sConfig.OffsetSignedSaturation = DISABLE;
 998              		.loc 1 360 18 is_stmt 0 view .LVU354
 999 0058 0023     		movs	r3, #0
 1000 005a 0693     		str	r3, [sp, #24]
 361:Core/Src/main.c ****   if (HAL_ADC_ConfigChannel(&hadc2, &sConfig) != HAL_OK)
 1001              		.loc 1 361 3 is_stmt 1 view .LVU355
 361:Core/Src/main.c ****   if (HAL_ADC_ConfigChannel(&hadc2, &sConfig) != HAL_OK)
 1002              		.loc 1 361 34 is_stmt 0 view .LVU356
 1003 005c 8DF82530 		strb	r3, [sp, #37]
 362:Core/Src/main.c ****   {
 1004              		.loc 1 362 3 is_stmt 1 view .LVU357
 362:Core/Src/main.c ****   {
 1005              		.loc 1 362 7 is_stmt 0 view .LVU358
 1006 0060 01A9     		add	r1, sp, #4
 1007 0062 0548     		ldr	r0, .L69
 1008 0064 FFF7FEFF 		bl	HAL_ADC_ConfigChannel
 1009              	.LVL40:
 362:Core/Src/main.c ****   {
 1010              		.loc 1 362 6 view .LVU359
 1011 0068 20B9     		cbnz	r0, .L68
 370:Core/Src/main.c **** 
 1012              		.loc 1 370 1 view .LVU360
 1013 006a 0BB0     		add	sp, sp, #44
 1014              	.LCFI14:
ARM GAS  /tmp/cccIhoVk.s 			page 43


 1015              		.cfi_remember_state
 1016              		.cfi_def_cfa_offset 4
 1017              		@ sp needed
 1018 006c 5DF804FB 		ldr	pc, [sp], #4
 1019              	.L67:
 1020              	.LCFI15:
 1021              		.cfi_restore_state
 350:Core/Src/main.c ****   }
 1022              		.loc 1 350 5 is_stmt 1 view .LVU361
 1023 0070 FFF7FEFF 		bl	Error_Handler
 1024              	.LVL41:
 1025              	.L68:
 364:Core/Src/main.c ****   }
 1026              		.loc 1 364 5 view .LVU362
 1027 0074 FFF7FEFF 		bl	Error_Handler
 1028              	.LVL42:
 1029              	.L70:
 1030              		.align	2
 1031              	.L69:
 1032 0078 00000000 		.word	hadc2
 1033 007c 00210240 		.word	1073881344
 1034 0080 40002019 		.word	421527616
 1035              		.cfi_endproc
 1036              	.LFE402:
 1038              		.section	.text.MX_ADC3_Init,"ax",%progbits
 1039              		.align	1
 1040              		.syntax unified
 1041              		.thumb
 1042              		.thumb_func
 1044              	MX_ADC3_Init:
 1045              	.LFB403:
 378:Core/Src/main.c **** 
 1046              		.loc 1 378 1 view -0
 1047              		.cfi_startproc
 1048              		@ args = 0, pretend = 0, frame = 40
 1049              		@ frame_needed = 0, uses_anonymous_args = 0
 1050 0000 00B5     		push	{lr}
 1051              	.LCFI16:
 1052              		.cfi_def_cfa_offset 4
 1053              		.cfi_offset 14, -4
 1054 0002 8BB0     		sub	sp, sp, #44
 1055              	.LCFI17:
 1056              		.cfi_def_cfa_offset 48
 384:Core/Src/main.c **** 
 1057              		.loc 1 384 3 view .LVU364
 384:Core/Src/main.c **** 
 1058              		.loc 1 384 26 is_stmt 0 view .LVU365
 1059 0004 2422     		movs	r2, #36
 1060 0006 0021     		movs	r1, #0
 1061 0008 01A8     		add	r0, sp, #4
 1062 000a FFF7FEFF 		bl	memset
 1063              	.LVL43:
 392:Core/Src/main.c ****   hadc3.Init.ClockPrescaler = ADC_CLOCK_SYNC_PCLK_DIV4;
 1064              		.loc 1 392 3 is_stmt 1 view .LVU366
 392:Core/Src/main.c ****   hadc3.Init.ClockPrescaler = ADC_CLOCK_SYNC_PCLK_DIV4;
 1065              		.loc 1 392 18 is_stmt 0 view .LVU367
 1066 000e 1D48     		ldr	r0, .L77
ARM GAS  /tmp/cccIhoVk.s 			page 44


 1067 0010 1D4B     		ldr	r3, .L77+4
 1068 0012 0360     		str	r3, [r0]
 393:Core/Src/main.c ****   hadc3.Init.Resolution = ADC_RESOLUTION_12B;
 1069              		.loc 1 393 3 is_stmt 1 view .LVU368
 393:Core/Src/main.c ****   hadc3.Init.Resolution = ADC_RESOLUTION_12B;
 1070              		.loc 1 393 29 is_stmt 0 view .LVU369
 1071 0014 4FF44033 		mov	r3, #196608
 1072 0018 4360     		str	r3, [r0, #4]
 394:Core/Src/main.c ****   hadc3.Init.DataAlign = ADC3_DATAALIGN_RIGHT;
 1073              		.loc 1 394 3 is_stmt 1 view .LVU370
 394:Core/Src/main.c ****   hadc3.Init.DataAlign = ADC3_DATAALIGN_RIGHT;
 1074              		.loc 1 394 25 is_stmt 0 view .LVU371
 1075 001a 0823     		movs	r3, #8
 1076 001c 8360     		str	r3, [r0, #8]
 395:Core/Src/main.c ****   hadc3.Init.ScanConvMode = ADC_SCAN_DISABLE;
 1077              		.loc 1 395 3 is_stmt 1 view .LVU372
 395:Core/Src/main.c ****   hadc3.Init.ScanConvMode = ADC_SCAN_DISABLE;
 1078              		.loc 1 395 24 is_stmt 0 view .LVU373
 1079 001e 0023     		movs	r3, #0
 1080 0020 C360     		str	r3, [r0, #12]
 396:Core/Src/main.c ****   hadc3.Init.EOCSelection = ADC_EOC_SINGLE_CONV;
 1081              		.loc 1 396 3 is_stmt 1 view .LVU374
 396:Core/Src/main.c ****   hadc3.Init.EOCSelection = ADC_EOC_SINGLE_CONV;
 1082              		.loc 1 396 27 is_stmt 0 view .LVU375
 1083 0022 0361     		str	r3, [r0, #16]
 397:Core/Src/main.c ****   hadc3.Init.LowPowerAutoWait = DISABLE;
 1084              		.loc 1 397 3 is_stmt 1 view .LVU376
 397:Core/Src/main.c ****   hadc3.Init.LowPowerAutoWait = DISABLE;
 1085              		.loc 1 397 27 is_stmt 0 view .LVU377
 1086 0024 0422     		movs	r2, #4
 1087 0026 4261     		str	r2, [r0, #20]
 398:Core/Src/main.c ****   hadc3.Init.ContinuousConvMode = DISABLE;
 1088              		.loc 1 398 3 is_stmt 1 view .LVU378
 398:Core/Src/main.c ****   hadc3.Init.ContinuousConvMode = DISABLE;
 1089              		.loc 1 398 31 is_stmt 0 view .LVU379
 1090 0028 0376     		strb	r3, [r0, #24]
 399:Core/Src/main.c ****   hadc3.Init.NbrOfConversion = 1;
 1091              		.loc 1 399 3 is_stmt 1 view .LVU380
 399:Core/Src/main.c ****   hadc3.Init.NbrOfConversion = 1;
 1092              		.loc 1 399 33 is_stmt 0 view .LVU381
 1093 002a 4376     		strb	r3, [r0, #25]
 400:Core/Src/main.c ****   hadc3.Init.DiscontinuousConvMode = DISABLE;
 1094              		.loc 1 400 3 is_stmt 1 view .LVU382
 400:Core/Src/main.c ****   hadc3.Init.DiscontinuousConvMode = DISABLE;
 1095              		.loc 1 400 30 is_stmt 0 view .LVU383
 1096 002c 0122     		movs	r2, #1
 1097 002e C261     		str	r2, [r0, #28]
 401:Core/Src/main.c ****   hadc3.Init.ExternalTrigConv = ADC_SOFTWARE_START;
 1098              		.loc 1 401 3 is_stmt 1 view .LVU384
 401:Core/Src/main.c ****   hadc3.Init.ExternalTrigConv = ADC_SOFTWARE_START;
 1099              		.loc 1 401 36 is_stmt 0 view .LVU385
 1100 0030 80F82030 		strb	r3, [r0, #32]
 402:Core/Src/main.c ****   hadc3.Init.ExternalTrigConvEdge = ADC_EXTERNALTRIGCONVEDGE_NONE;
 1101              		.loc 1 402 3 is_stmt 1 view .LVU386
 402:Core/Src/main.c ****   hadc3.Init.ExternalTrigConvEdge = ADC_EXTERNALTRIGCONVEDGE_NONE;
 1102              		.loc 1 402 31 is_stmt 0 view .LVU387
 1103 0034 8362     		str	r3, [r0, #40]
ARM GAS  /tmp/cccIhoVk.s 			page 45


 403:Core/Src/main.c ****   hadc3.Init.DMAContinuousRequests = DISABLE;
 1104              		.loc 1 403 3 is_stmt 1 view .LVU388
 403:Core/Src/main.c ****   hadc3.Init.DMAContinuousRequests = DISABLE;
 1105              		.loc 1 403 35 is_stmt 0 view .LVU389
 1106 0036 C362     		str	r3, [r0, #44]
 404:Core/Src/main.c ****   hadc3.Init.SamplingMode = ADC_SAMPLING_MODE_NORMAL;
 1107              		.loc 1 404 3 is_stmt 1 view .LVU390
 404:Core/Src/main.c ****   hadc3.Init.SamplingMode = ADC_SAMPLING_MODE_NORMAL;
 1108              		.loc 1 404 36 is_stmt 0 view .LVU391
 1109 0038 80F83830 		strb	r3, [r0, #56]
 405:Core/Src/main.c ****   hadc3.Init.ConversionDataManagement = ADC_CONVERSIONDATA_DR;
 1110              		.loc 1 405 3 is_stmt 1 view .LVU392
 405:Core/Src/main.c ****   hadc3.Init.ConversionDataManagement = ADC_CONVERSIONDATA_DR;
 1111              		.loc 1 405 27 is_stmt 0 view .LVU393
 1112 003c 4363     		str	r3, [r0, #52]
 406:Core/Src/main.c ****   hadc3.Init.Overrun = ADC_OVR_DATA_PRESERVED;
 1113              		.loc 1 406 3 is_stmt 1 view .LVU394
 406:Core/Src/main.c ****   hadc3.Init.Overrun = ADC_OVR_DATA_PRESERVED;
 1114              		.loc 1 406 39 is_stmt 0 view .LVU395
 1115 003e 0363     		str	r3, [r0, #48]
 407:Core/Src/main.c ****   hadc3.Init.LeftBitShift = ADC_LEFTBITSHIFT_NONE;
 1116              		.loc 1 407 3 is_stmt 1 view .LVU396
 407:Core/Src/main.c ****   hadc3.Init.LeftBitShift = ADC_LEFTBITSHIFT_NONE;
 1117              		.loc 1 407 22 is_stmt 0 view .LVU397
 1118 0040 C363     		str	r3, [r0, #60]
 408:Core/Src/main.c ****   hadc3.Init.OversamplingMode = DISABLE;
 1119              		.loc 1 408 3 is_stmt 1 view .LVU398
 408:Core/Src/main.c ****   hadc3.Init.OversamplingMode = DISABLE;
 1120              		.loc 1 408 27 is_stmt 0 view .LVU399
 1121 0042 0364     		str	r3, [r0, #64]
 409:Core/Src/main.c ****   hadc3.Init.Oversampling.Ratio = ADC3_OVERSAMPLING_RATIO_2;
 1122              		.loc 1 409 3 is_stmt 1 view .LVU400
 409:Core/Src/main.c ****   hadc3.Init.Oversampling.Ratio = ADC3_OVERSAMPLING_RATIO_2;
 1123              		.loc 1 409 31 is_stmt 0 view .LVU401
 1124 0044 80F84430 		strb	r3, [r0, #68]
 410:Core/Src/main.c ****   if (HAL_ADC_Init(&hadc3) != HAL_OK)
 1125              		.loc 1 410 3 is_stmt 1 view .LVU402
 410:Core/Src/main.c ****   if (HAL_ADC_Init(&hadc3) != HAL_OK)
 1126              		.loc 1 410 33 is_stmt 0 view .LVU403
 1127 0048 8364     		str	r3, [r0, #72]
 411:Core/Src/main.c ****   {
 1128              		.loc 1 411 3 is_stmt 1 view .LVU404
 411:Core/Src/main.c ****   {
 1129              		.loc 1 411 7 is_stmt 0 view .LVU405
 1130 004a FFF7FEFF 		bl	HAL_ADC_Init
 1131              	.LVL44:
 411:Core/Src/main.c ****   {
 1132              		.loc 1 411 6 view .LVU406
 1133 004e A8B9     		cbnz	r0, .L75
 418:Core/Src/main.c ****   sConfig.Rank = ADC_REGULAR_RANK_1;
 1134              		.loc 1 418 3 is_stmt 1 view .LVU407
 418:Core/Src/main.c ****   sConfig.Rank = ADC_REGULAR_RANK_1;
 1135              		.loc 1 418 19 is_stmt 0 view .LVU408
 1136 0050 0123     		movs	r3, #1
 1137 0052 0193     		str	r3, [sp, #4]
 419:Core/Src/main.c ****   sConfig.SamplingTime = ADC3_SAMPLETIME_640CYCLES_5;
 1138              		.loc 1 419 3 is_stmt 1 view .LVU409
ARM GAS  /tmp/cccIhoVk.s 			page 46


 419:Core/Src/main.c ****   sConfig.SamplingTime = ADC3_SAMPLETIME_640CYCLES_5;
 1139              		.loc 1 419 16 is_stmt 0 view .LVU410
 1140 0054 0623     		movs	r3, #6
 1141 0056 0293     		str	r3, [sp, #8]
 420:Core/Src/main.c ****   sConfig.SingleDiff = ADC_SINGLE_ENDED;
 1142              		.loc 1 420 3 is_stmt 1 view .LVU411
 420:Core/Src/main.c ****   sConfig.SingleDiff = ADC_SINGLE_ENDED;
 1143              		.loc 1 420 24 is_stmt 0 view .LVU412
 1144 0058 0723     		movs	r3, #7
 1145 005a 0393     		str	r3, [sp, #12]
 421:Core/Src/main.c ****   sConfig.OffsetNumber = ADC_OFFSET_NONE;
 1146              		.loc 1 421 3 is_stmt 1 view .LVU413
 421:Core/Src/main.c ****   sConfig.OffsetNumber = ADC_OFFSET_NONE;
 1147              		.loc 1 421 22 is_stmt 0 view .LVU414
 1148 005c 40F2FF73 		movw	r3, #2047
 1149 0060 0493     		str	r3, [sp, #16]
 422:Core/Src/main.c ****   sConfig.Offset = 0;
 1150              		.loc 1 422 3 is_stmt 1 view .LVU415
 422:Core/Src/main.c ****   sConfig.Offset = 0;
 1151              		.loc 1 422 24 is_stmt 0 view .LVU416
 1152 0062 0423     		movs	r3, #4
 1153 0064 0593     		str	r3, [sp, #20]
 423:Core/Src/main.c ****   sConfig.OffsetSign = ADC3_OFFSET_SIGN_NEGATIVE;
 1154              		.loc 1 423 3 is_stmt 1 view .LVU417
 423:Core/Src/main.c ****   sConfig.OffsetSign = ADC3_OFFSET_SIGN_NEGATIVE;
 1155              		.loc 1 423 18 is_stmt 0 view .LVU418
 1156 0066 0023     		movs	r3, #0
 1157 0068 0693     		str	r3, [sp, #24]
 424:Core/Src/main.c ****   if (HAL_ADC_ConfigChannel(&hadc3, &sConfig) != HAL_OK)
 1158              		.loc 1 424 3 is_stmt 1 view .LVU419
 424:Core/Src/main.c ****   if (HAL_ADC_ConfigChannel(&hadc3, &sConfig) != HAL_OK)
 1159              		.loc 1 424 22 is_stmt 0 view .LVU420
 1160 006a 0893     		str	r3, [sp, #32]
 425:Core/Src/main.c ****   {
 1161              		.loc 1 425 3 is_stmt 1 view .LVU421
 425:Core/Src/main.c ****   {
 1162              		.loc 1 425 7 is_stmt 0 view .LVU422
 1163 006c 01A9     		add	r1, sp, #4
 1164 006e 0548     		ldr	r0, .L77
 1165 0070 FFF7FEFF 		bl	HAL_ADC_ConfigChannel
 1166              	.LVL45:
 425:Core/Src/main.c ****   {
 1167              		.loc 1 425 6 view .LVU423
 1168 0074 20B9     		cbnz	r0, .L76
 433:Core/Src/main.c **** 
 1169              		.loc 1 433 1 view .LVU424
 1170 0076 0BB0     		add	sp, sp, #44
 1171              	.LCFI18:
 1172              		.cfi_remember_state
 1173              		.cfi_def_cfa_offset 4
 1174              		@ sp needed
 1175 0078 5DF804FB 		ldr	pc, [sp], #4
 1176              	.L75:
 1177              	.LCFI19:
 1178              		.cfi_restore_state
 413:Core/Src/main.c ****   }
 1179              		.loc 1 413 5 is_stmt 1 view .LVU425
ARM GAS  /tmp/cccIhoVk.s 			page 47


 1180 007c FFF7FEFF 		bl	Error_Handler
 1181              	.LVL46:
 1182              	.L76:
 427:Core/Src/main.c ****   }
 1183              		.loc 1 427 5 view .LVU426
 1184 0080 FFF7FEFF 		bl	Error_Handler
 1185              	.LVL47:
 1186              	.L78:
 1187              		.align	2
 1188              	.L77:
 1189 0084 00000000 		.word	hadc3
 1190 0088 00600258 		.word	1476550656
 1191              		.cfi_endproc
 1192              	.LFE403:
 1194              		.section	.text.MX_ADC1_Init,"ax",%progbits
 1195              		.align	1
 1196              		.syntax unified
 1197              		.thumb
 1198              		.thumb_func
 1200              	MX_ADC1_Init:
 1201              	.LFB401:
 249:Core/Src/main.c **** 
 1202              		.loc 1 249 1 view -0
 1203              		.cfi_startproc
 1204              		@ args = 0, pretend = 0, frame = 48
 1205              		@ frame_needed = 0, uses_anonymous_args = 0
 1206 0000 10B5     		push	{r4, lr}
 1207              	.LCFI20:
 1208              		.cfi_def_cfa_offset 8
 1209              		.cfi_offset 4, -8
 1210              		.cfi_offset 14, -4
 1211 0002 8CB0     		sub	sp, sp, #48
 1212              	.LCFI21:
 1213              		.cfi_def_cfa_offset 56
 255:Core/Src/main.c ****   ADC_ChannelConfTypeDef sConfig = {0};
 1214              		.loc 1 255 3 view .LVU428
 255:Core/Src/main.c ****   ADC_ChannelConfTypeDef sConfig = {0};
 1215              		.loc 1 255 24 is_stmt 0 view .LVU429
 1216 0004 0024     		movs	r4, #0
 1217 0006 0994     		str	r4, [sp, #36]
 1218 0008 0A94     		str	r4, [sp, #40]
 1219 000a 0B94     		str	r4, [sp, #44]
 256:Core/Src/main.c **** 
 1220              		.loc 1 256 3 is_stmt 1 view .LVU430
 256:Core/Src/main.c **** 
 1221              		.loc 1 256 26 is_stmt 0 view .LVU431
 1222 000c 2422     		movs	r2, #36
 1223 000e 2146     		mov	r1, r4
 1224 0010 6846     		mov	r0, sp
 1225 0012 FFF7FEFF 		bl	memset
 1226              	.LVL48:
 264:Core/Src/main.c ****   hadc1.Init.ClockPrescaler = ADC_CLOCK_ASYNC_DIV1;
 1227              		.loc 1 264 3 is_stmt 1 view .LVU432
 264:Core/Src/main.c ****   hadc1.Init.ClockPrescaler = ADC_CLOCK_ASYNC_DIV1;
 1228              		.loc 1 264 18 is_stmt 0 view .LVU433
 1229 0016 1E48     		ldr	r0, .L87
 1230 0018 1E4B     		ldr	r3, .L87+4
ARM GAS  /tmp/cccIhoVk.s 			page 48


 1231 001a 0360     		str	r3, [r0]
 265:Core/Src/main.c ****   hadc1.Init.Resolution = ADC_RESOLUTION_14B;
 1232              		.loc 1 265 3 is_stmt 1 view .LVU434
 265:Core/Src/main.c ****   hadc1.Init.Resolution = ADC_RESOLUTION_14B;
 1233              		.loc 1 265 29 is_stmt 0 view .LVU435
 1234 001c 4460     		str	r4, [r0, #4]
 266:Core/Src/main.c ****   hadc1.Init.ScanConvMode = ADC_SCAN_DISABLE;
 1235              		.loc 1 266 3 is_stmt 1 view .LVU436
 266:Core/Src/main.c ****   hadc1.Init.ScanConvMode = ADC_SCAN_DISABLE;
 1236              		.loc 1 266 25 is_stmt 0 view .LVU437
 1237 001e 0423     		movs	r3, #4
 1238 0020 8360     		str	r3, [r0, #8]
 267:Core/Src/main.c ****   hadc1.Init.EOCSelection = ADC_EOC_SINGLE_CONV;
 1239              		.loc 1 267 3 is_stmt 1 view .LVU438
 267:Core/Src/main.c ****   hadc1.Init.EOCSelection = ADC_EOC_SINGLE_CONV;
 1240              		.loc 1 267 27 is_stmt 0 view .LVU439
 1241 0022 0461     		str	r4, [r0, #16]
 268:Core/Src/main.c ****   hadc1.Init.LowPowerAutoWait = DISABLE;
 1242              		.loc 1 268 3 is_stmt 1 view .LVU440
 268:Core/Src/main.c ****   hadc1.Init.LowPowerAutoWait = DISABLE;
 1243              		.loc 1 268 27 is_stmt 0 view .LVU441
 1244 0024 4361     		str	r3, [r0, #20]
 269:Core/Src/main.c ****   hadc1.Init.ContinuousConvMode = DISABLE;
 1245              		.loc 1 269 3 is_stmt 1 view .LVU442
 269:Core/Src/main.c ****   hadc1.Init.ContinuousConvMode = DISABLE;
 1246              		.loc 1 269 31 is_stmt 0 view .LVU443
 1247 0026 0476     		strb	r4, [r0, #24]
 270:Core/Src/main.c ****   hadc1.Init.NbrOfConversion = 1;
 1248              		.loc 1 270 3 is_stmt 1 view .LVU444
 270:Core/Src/main.c ****   hadc1.Init.NbrOfConversion = 1;
 1249              		.loc 1 270 33 is_stmt 0 view .LVU445
 1250 0028 4476     		strb	r4, [r0, #25]
 271:Core/Src/main.c ****   hadc1.Init.DiscontinuousConvMode = DISABLE;
 1251              		.loc 1 271 3 is_stmt 1 view .LVU446
 271:Core/Src/main.c ****   hadc1.Init.DiscontinuousConvMode = DISABLE;
 1252              		.loc 1 271 30 is_stmt 0 view .LVU447
 1253 002a 0123     		movs	r3, #1
 1254 002c C361     		str	r3, [r0, #28]
 272:Core/Src/main.c ****   hadc1.Init.ExternalTrigConv = ADC_SOFTWARE_START;
 1255              		.loc 1 272 3 is_stmt 1 view .LVU448
 272:Core/Src/main.c ****   hadc1.Init.ExternalTrigConv = ADC_SOFTWARE_START;
 1256              		.loc 1 272 36 is_stmt 0 view .LVU449
 1257 002e 80F82040 		strb	r4, [r0, #32]
 273:Core/Src/main.c ****   hadc1.Init.ExternalTrigConvEdge = ADC_EXTERNALTRIGCONVEDGE_NONE;
 1258              		.loc 1 273 3 is_stmt 1 view .LVU450
 273:Core/Src/main.c ****   hadc1.Init.ExternalTrigConvEdge = ADC_EXTERNALTRIGCONVEDGE_NONE;
 1259              		.loc 1 273 31 is_stmt 0 view .LVU451
 1260 0032 8462     		str	r4, [r0, #40]
 274:Core/Src/main.c ****   hadc1.Init.ConversionDataManagement = ADC_CONVERSIONDATA_DR;
 1261              		.loc 1 274 3 is_stmt 1 view .LVU452
 274:Core/Src/main.c ****   hadc1.Init.ConversionDataManagement = ADC_CONVERSIONDATA_DR;
 1262              		.loc 1 274 35 is_stmt 0 view .LVU453
 1263 0034 C462     		str	r4, [r0, #44]
 275:Core/Src/main.c ****   hadc1.Init.Overrun = ADC_OVR_DATA_PRESERVED;
 1264              		.loc 1 275 3 is_stmt 1 view .LVU454
 275:Core/Src/main.c ****   hadc1.Init.Overrun = ADC_OVR_DATA_PRESERVED;
 1265              		.loc 1 275 39 is_stmt 0 view .LVU455
ARM GAS  /tmp/cccIhoVk.s 			page 49


 1266 0036 0463     		str	r4, [r0, #48]
 276:Core/Src/main.c ****   hadc1.Init.LeftBitShift = ADC_LEFTBITSHIFT_NONE;
 1267              		.loc 1 276 3 is_stmt 1 view .LVU456
 276:Core/Src/main.c ****   hadc1.Init.LeftBitShift = ADC_LEFTBITSHIFT_NONE;
 1268              		.loc 1 276 22 is_stmt 0 view .LVU457
 1269 0038 C463     		str	r4, [r0, #60]
 277:Core/Src/main.c ****   hadc1.Init.OversamplingMode = DISABLE;
 1270              		.loc 1 277 3 is_stmt 1 view .LVU458
 277:Core/Src/main.c ****   hadc1.Init.OversamplingMode = DISABLE;
 1271              		.loc 1 277 27 is_stmt 0 view .LVU459
 1272 003a 0464     		str	r4, [r0, #64]
 278:Core/Src/main.c ****   hadc1.Init.Oversampling.Ratio = 1;
 1273              		.loc 1 278 3 is_stmt 1 view .LVU460
 278:Core/Src/main.c ****   hadc1.Init.Oversampling.Ratio = 1;
 1274              		.loc 1 278 31 is_stmt 0 view .LVU461
 1275 003c 80F84440 		strb	r4, [r0, #68]
 279:Core/Src/main.c ****   if (HAL_ADC_Init(&hadc1) != HAL_OK)
 1276              		.loc 1 279 3 is_stmt 1 view .LVU462
 279:Core/Src/main.c ****   if (HAL_ADC_Init(&hadc1) != HAL_OK)
 1277              		.loc 1 279 33 is_stmt 0 view .LVU463
 1278 0040 8364     		str	r3, [r0, #72]
 280:Core/Src/main.c ****   {
 1279              		.loc 1 280 3 is_stmt 1 view .LVU464
 280:Core/Src/main.c ****   {
 1280              		.loc 1 280 7 is_stmt 0 view .LVU465
 1281 0042 FFF7FEFF 		bl	HAL_ADC_Init
 1282              	.LVL49:
 280:Core/Src/main.c ****   {
 1283              		.loc 1 280 6 view .LVU466
 1284 0046 E0B9     		cbnz	r0, .L84
 287:Core/Src/main.c ****   if (HAL_ADCEx_MultiModeConfigChannel(&hadc1, &multimode) != HAL_OK)
 1285              		.loc 1 287 3 is_stmt 1 view .LVU467
 287:Core/Src/main.c ****   if (HAL_ADCEx_MultiModeConfigChannel(&hadc1, &multimode) != HAL_OK)
 1286              		.loc 1 287 18 is_stmt 0 view .LVU468
 1287 0048 0023     		movs	r3, #0
 1288 004a 0993     		str	r3, [sp, #36]
 288:Core/Src/main.c ****   {
 1289              		.loc 1 288 3 is_stmt 1 view .LVU469
 288:Core/Src/main.c ****   {
 1290              		.loc 1 288 7 is_stmt 0 view .LVU470
 1291 004c 09A9     		add	r1, sp, #36
 1292 004e 1048     		ldr	r0, .L87
 1293 0050 FFF7FEFF 		bl	HAL_ADCEx_MultiModeConfigChannel
 1294              	.LVL50:
 288:Core/Src/main.c ****   {
 1295              		.loc 1 288 6 view .LVU471
 1296 0054 B8B9     		cbnz	r0, .L85
 295:Core/Src/main.c ****   sConfig.Rank = ADC_REGULAR_RANK_1;
 1297              		.loc 1 295 3 is_stmt 1 view .LVU472
 295:Core/Src/main.c ****   sConfig.Rank = ADC_REGULAR_RANK_1;
 1298              		.loc 1 295 19 is_stmt 0 view .LVU473
 1299 0056 104B     		ldr	r3, .L87+8
 1300 0058 0093     		str	r3, [sp]
 296:Core/Src/main.c ****   sConfig.SamplingTime = ADC_SAMPLETIME_810CYCLES_5;
 1301              		.loc 1 296 3 is_stmt 1 view .LVU474
 296:Core/Src/main.c ****   sConfig.SamplingTime = ADC_SAMPLETIME_810CYCLES_5;
 1302              		.loc 1 296 16 is_stmt 0 view .LVU475
ARM GAS  /tmp/cccIhoVk.s 			page 50


 1303 005a 0623     		movs	r3, #6
 1304 005c 0193     		str	r3, [sp, #4]
 297:Core/Src/main.c ****   sConfig.SingleDiff = ADC_SINGLE_ENDED;
 1305              		.loc 1 297 3 is_stmt 1 view .LVU476
 297:Core/Src/main.c ****   sConfig.SingleDiff = ADC_SINGLE_ENDED;
 1306              		.loc 1 297 24 is_stmt 0 view .LVU477
 1307 005e 0723     		movs	r3, #7
 1308 0060 0293     		str	r3, [sp, #8]
 298:Core/Src/main.c ****   sConfig.OffsetNumber = ADC_OFFSET_NONE;
 1309              		.loc 1 298 3 is_stmt 1 view .LVU478
 298:Core/Src/main.c ****   sConfig.OffsetNumber = ADC_OFFSET_NONE;
 1310              		.loc 1 298 22 is_stmt 0 view .LVU479
 1311 0062 40F2FF73 		movw	r3, #2047
 1312 0066 0393     		str	r3, [sp, #12]
 299:Core/Src/main.c ****   sConfig.Offset = 0;
 1313              		.loc 1 299 3 is_stmt 1 view .LVU480
 299:Core/Src/main.c ****   sConfig.Offset = 0;
 1314              		.loc 1 299 24 is_stmt 0 view .LVU481
 1315 0068 0423     		movs	r3, #4
 1316 006a 0493     		str	r3, [sp, #16]
 300:Core/Src/main.c ****   sConfig.OffsetSignedSaturation = DISABLE;
 1317              		.loc 1 300 3 is_stmt 1 view .LVU482
 300:Core/Src/main.c ****   sConfig.OffsetSignedSaturation = DISABLE;
 1318              		.loc 1 300 18 is_stmt 0 view .LVU483
 1319 006c 0023     		movs	r3, #0
 1320 006e 0593     		str	r3, [sp, #20]
 301:Core/Src/main.c ****   if (HAL_ADC_ConfigChannel(&hadc1, &sConfig) != HAL_OK)
 1321              		.loc 1 301 3 is_stmt 1 view .LVU484
 301:Core/Src/main.c ****   if (HAL_ADC_ConfigChannel(&hadc1, &sConfig) != HAL_OK)
 1322              		.loc 1 301 34 is_stmt 0 view .LVU485
 1323 0070 8DF82130 		strb	r3, [sp, #33]
 302:Core/Src/main.c ****   {
 1324              		.loc 1 302 3 is_stmt 1 view .LVU486
 302:Core/Src/main.c ****   {
 1325              		.loc 1 302 7 is_stmt 0 view .LVU487
 1326 0074 6946     		mov	r1, sp
 1327 0076 0648     		ldr	r0, .L87
 1328 0078 FFF7FEFF 		bl	HAL_ADC_ConfigChannel
 1329              	.LVL51:
 302:Core/Src/main.c ****   {
 1330              		.loc 1 302 6 view .LVU488
 1331 007c 28B9     		cbnz	r0, .L86
 310:Core/Src/main.c **** 
 1332              		.loc 1 310 1 view .LVU489
 1333 007e 0CB0     		add	sp, sp, #48
 1334              	.LCFI22:
 1335              		.cfi_remember_state
 1336              		.cfi_def_cfa_offset 8
 1337              		@ sp needed
 1338 0080 10BD     		pop	{r4, pc}
 1339              	.L84:
 1340              	.LCFI23:
 1341              		.cfi_restore_state
 282:Core/Src/main.c ****   }
 1342              		.loc 1 282 5 is_stmt 1 view .LVU490
 1343 0082 FFF7FEFF 		bl	Error_Handler
 1344              	.LVL52:
ARM GAS  /tmp/cccIhoVk.s 			page 51


 1345              	.L85:
 290:Core/Src/main.c ****   }
 1346              		.loc 1 290 5 view .LVU491
 1347 0086 FFF7FEFF 		bl	Error_Handler
 1348              	.LVL53:
 1349              	.L86:
 304:Core/Src/main.c ****   }
 1350              		.loc 1 304 5 view .LVU492
 1351 008a FFF7FEFF 		bl	Error_Handler
 1352              	.LVL54:
 1353              	.L88:
 1354 008e 00BF     		.align	2
 1355              	.L87:
 1356 0090 00000000 		.word	hadc1
 1357 0094 00200240 		.word	1073881088
 1358 0098 04006008 		.word	140509188
 1359              		.cfi_endproc
 1360              	.LFE401:
 1362              		.section	.text.MX_TIM2_Init,"ax",%progbits
 1363              		.align	1
 1364              		.syntax unified
 1365              		.thumb
 1366              		.thumb_func
 1368              	MX_TIM2_Init:
 1369              	.LFB406:
 539:Core/Src/main.c **** 
 1370              		.loc 1 539 1 view -0
 1371              		.cfi_startproc
 1372              		@ args = 0, pretend = 0, frame = 40
 1373              		@ frame_needed = 0, uses_anonymous_args = 0
 1374 0000 00B5     		push	{lr}
 1375              	.LCFI24:
 1376              		.cfi_def_cfa_offset 4
 1377              		.cfi_offset 14, -4
 1378 0002 8BB0     		sub	sp, sp, #44
 1379              	.LCFI25:
 1380              		.cfi_def_cfa_offset 48
 545:Core/Src/main.c ****   TIM_OC_InitTypeDef sConfigOC = {0};
 1381              		.loc 1 545 3 view .LVU494
 545:Core/Src/main.c ****   TIM_OC_InitTypeDef sConfigOC = {0};
 1382              		.loc 1 545 27 is_stmt 0 view .LVU495
 1383 0004 0023     		movs	r3, #0
 1384 0006 0793     		str	r3, [sp, #28]
 1385 0008 0893     		str	r3, [sp, #32]
 1386 000a 0993     		str	r3, [sp, #36]
 546:Core/Src/main.c **** 
 1387              		.loc 1 546 3 is_stmt 1 view .LVU496
 546:Core/Src/main.c **** 
 1388              		.loc 1 546 22 is_stmt 0 view .LVU497
 1389 000c 0093     		str	r3, [sp]
 1390 000e 0193     		str	r3, [sp, #4]
 1391 0010 0293     		str	r3, [sp, #8]
 1392 0012 0393     		str	r3, [sp, #12]
 1393 0014 0493     		str	r3, [sp, #16]
 1394 0016 0593     		str	r3, [sp, #20]
 1395 0018 0693     		str	r3, [sp, #24]
 551:Core/Src/main.c ****   htim2.Init.Prescaler = 29;
ARM GAS  /tmp/cccIhoVk.s 			page 52


 1396              		.loc 1 551 3 is_stmt 1 view .LVU498
 551:Core/Src/main.c ****   htim2.Init.Prescaler = 29;
 1397              		.loc 1 551 18 is_stmt 0 view .LVU499
 1398 001a 1F48     		ldr	r0, .L101
 1399 001c 4FF08042 		mov	r2, #1073741824
 1400 0020 0260     		str	r2, [r0]
 552:Core/Src/main.c ****   htim2.Init.CounterMode = TIM_COUNTERMODE_UP;
 1401              		.loc 1 552 3 is_stmt 1 view .LVU500
 552:Core/Src/main.c ****   htim2.Init.CounterMode = TIM_COUNTERMODE_UP;
 1402              		.loc 1 552 24 is_stmt 0 view .LVU501
 1403 0022 1D22     		movs	r2, #29
 1404 0024 4260     		str	r2, [r0, #4]
 553:Core/Src/main.c ****   htim2.Init.Period = 64000;
 1405              		.loc 1 553 3 is_stmt 1 view .LVU502
 553:Core/Src/main.c ****   htim2.Init.Period = 64000;
 1406              		.loc 1 553 26 is_stmt 0 view .LVU503
 1407 0026 8360     		str	r3, [r0, #8]
 554:Core/Src/main.c ****   htim2.Init.ClockDivision = TIM_CLOCKDIVISION_DIV1;
 1408              		.loc 1 554 3 is_stmt 1 view .LVU504
 554:Core/Src/main.c ****   htim2.Init.ClockDivision = TIM_CLOCKDIVISION_DIV1;
 1409              		.loc 1 554 21 is_stmt 0 view .LVU505
 1410 0028 4FF47A42 		mov	r2, #64000
 1411 002c C260     		str	r2, [r0, #12]
 555:Core/Src/main.c ****   htim2.Init.AutoReloadPreload = TIM_AUTORELOAD_PRELOAD_DISABLE;
 1412              		.loc 1 555 3 is_stmt 1 view .LVU506
 555:Core/Src/main.c ****   htim2.Init.AutoReloadPreload = TIM_AUTORELOAD_PRELOAD_DISABLE;
 1413              		.loc 1 555 28 is_stmt 0 view .LVU507
 1414 002e 0361     		str	r3, [r0, #16]
 556:Core/Src/main.c ****   if (HAL_TIM_PWM_Init(&htim2) != HAL_OK)
 1415              		.loc 1 556 3 is_stmt 1 view .LVU508
 556:Core/Src/main.c ****   if (HAL_TIM_PWM_Init(&htim2) != HAL_OK)
 1416              		.loc 1 556 32 is_stmt 0 view .LVU509
 1417 0030 8361     		str	r3, [r0, #24]
 557:Core/Src/main.c ****   {
 1418              		.loc 1 557 3 is_stmt 1 view .LVU510
 557:Core/Src/main.c ****   {
 1419              		.loc 1 557 7 is_stmt 0 view .LVU511
 1420 0032 FFF7FEFF 		bl	HAL_TIM_PWM_Init
 1421              	.LVL55:
 557:Core/Src/main.c ****   {
 1422              		.loc 1 557 6 view .LVU512
 1423 0036 20BB     		cbnz	r0, .L96
 561:Core/Src/main.c ****   sMasterConfig.MasterSlaveMode = TIM_MASTERSLAVEMODE_DISABLE;
 1424              		.loc 1 561 3 is_stmt 1 view .LVU513
 561:Core/Src/main.c ****   sMasterConfig.MasterSlaveMode = TIM_MASTERSLAVEMODE_DISABLE;
 1425              		.loc 1 561 37 is_stmt 0 view .LVU514
 1426 0038 0023     		movs	r3, #0
 1427 003a 0793     		str	r3, [sp, #28]
 562:Core/Src/main.c ****   if (HAL_TIMEx_MasterConfigSynchronization(&htim2, &sMasterConfig) != HAL_OK)
 1428              		.loc 1 562 3 is_stmt 1 view .LVU515
 562:Core/Src/main.c ****   if (HAL_TIMEx_MasterConfigSynchronization(&htim2, &sMasterConfig) != HAL_OK)
 1429              		.loc 1 562 33 is_stmt 0 view .LVU516
 1430 003c 0993     		str	r3, [sp, #36]
 563:Core/Src/main.c ****   {
 1431              		.loc 1 563 3 is_stmt 1 view .LVU517
 563:Core/Src/main.c ****   {
 1432              		.loc 1 563 7 is_stmt 0 view .LVU518
ARM GAS  /tmp/cccIhoVk.s 			page 53


 1433 003e 07A9     		add	r1, sp, #28
 1434 0040 1548     		ldr	r0, .L101
 1435 0042 FFF7FEFF 		bl	HAL_TIMEx_MasterConfigSynchronization
 1436              	.LVL56:
 563:Core/Src/main.c ****   {
 1437              		.loc 1 563 6 view .LVU519
 1438 0046 F0B9     		cbnz	r0, .L97
 567:Core/Src/main.c ****   sConfigOC.Pulse = 0;
 1439              		.loc 1 567 3 is_stmt 1 view .LVU520
 567:Core/Src/main.c ****   sConfigOC.Pulse = 0;
 1440              		.loc 1 567 20 is_stmt 0 view .LVU521
 1441 0048 6023     		movs	r3, #96
 1442 004a 0093     		str	r3, [sp]
 568:Core/Src/main.c ****   sConfigOC.OCPolarity = TIM_OCPOLARITY_HIGH;
 1443              		.loc 1 568 3 is_stmt 1 view .LVU522
 568:Core/Src/main.c ****   sConfigOC.OCPolarity = TIM_OCPOLARITY_HIGH;
 1444              		.loc 1 568 19 is_stmt 0 view .LVU523
 1445 004c 0022     		movs	r2, #0
 1446 004e 0192     		str	r2, [sp, #4]
 569:Core/Src/main.c ****   sConfigOC.OCFastMode = TIM_OCFAST_DISABLE;
 1447              		.loc 1 569 3 is_stmt 1 view .LVU524
 569:Core/Src/main.c ****   sConfigOC.OCFastMode = TIM_OCFAST_DISABLE;
 1448              		.loc 1 569 24 is_stmt 0 view .LVU525
 1449 0050 0292     		str	r2, [sp, #8]
 570:Core/Src/main.c ****   if (HAL_TIM_PWM_ConfigChannel(&htim2, &sConfigOC, TIM_CHANNEL_1) != HAL_OK)
 1450              		.loc 1 570 3 is_stmt 1 view .LVU526
 570:Core/Src/main.c ****   if (HAL_TIM_PWM_ConfigChannel(&htim2, &sConfigOC, TIM_CHANNEL_1) != HAL_OK)
 1451              		.loc 1 570 24 is_stmt 0 view .LVU527
 1452 0052 0492     		str	r2, [sp, #16]
 571:Core/Src/main.c ****   {
 1453              		.loc 1 571 3 is_stmt 1 view .LVU528
 571:Core/Src/main.c ****   {
 1454              		.loc 1 571 7 is_stmt 0 view .LVU529
 1455 0054 6946     		mov	r1, sp
 1456 0056 1048     		ldr	r0, .L101
 1457 0058 FFF7FEFF 		bl	HAL_TIM_PWM_ConfigChannel
 1458              	.LVL57:
 571:Core/Src/main.c ****   {
 1459              		.loc 1 571 6 view .LVU530
 1460 005c A8B9     		cbnz	r0, .L98
 575:Core/Src/main.c ****   {
 1461              		.loc 1 575 3 is_stmt 1 view .LVU531
 575:Core/Src/main.c ****   {
 1462              		.loc 1 575 7 is_stmt 0 view .LVU532
 1463 005e 0422     		movs	r2, #4
 1464 0060 6946     		mov	r1, sp
 1465 0062 0D48     		ldr	r0, .L101
 1466 0064 FFF7FEFF 		bl	HAL_TIM_PWM_ConfigChannel
 1467              	.LVL58:
 575:Core/Src/main.c ****   {
 1468              		.loc 1 575 6 view .LVU533
 1469 0068 88B9     		cbnz	r0, .L99
 579:Core/Src/main.c ****   {
 1470              		.loc 1 579 3 is_stmt 1 view .LVU534
 579:Core/Src/main.c ****   {
 1471              		.loc 1 579 7 is_stmt 0 view .LVU535
 1472 006a 0822     		movs	r2, #8
ARM GAS  /tmp/cccIhoVk.s 			page 54


 1473 006c 6946     		mov	r1, sp
 1474 006e 0A48     		ldr	r0, .L101
 1475 0070 FFF7FEFF 		bl	HAL_TIM_PWM_ConfigChannel
 1476              	.LVL59:
 579:Core/Src/main.c ****   {
 1477              		.loc 1 579 6 view .LVU536
 1478 0074 68B9     		cbnz	r0, .L100
 586:Core/Src/main.c **** 
 1479              		.loc 1 586 3 is_stmt 1 view .LVU537
 1480 0076 0848     		ldr	r0, .L101
 1481 0078 FFF7FEFF 		bl	HAL_TIM_MspPostInit
 1482              	.LVL60:
 588:Core/Src/main.c **** 
 1483              		.loc 1 588 1 is_stmt 0 view .LVU538
 1484 007c 0BB0     		add	sp, sp, #44
 1485              	.LCFI26:
 1486              		.cfi_remember_state
 1487              		.cfi_def_cfa_offset 4
 1488              		@ sp needed
 1489 007e 5DF804FB 		ldr	pc, [sp], #4
 1490              	.L96:
 1491              	.LCFI27:
 1492              		.cfi_restore_state
 559:Core/Src/main.c ****   }
 1493              		.loc 1 559 5 is_stmt 1 view .LVU539
 1494 0082 FFF7FEFF 		bl	Error_Handler
 1495              	.LVL61:
 1496              	.L97:
 565:Core/Src/main.c ****   }
 1497              		.loc 1 565 5 view .LVU540
 1498 0086 FFF7FEFF 		bl	Error_Handler
 1499              	.LVL62:
 1500              	.L98:
 573:Core/Src/main.c ****   }
 1501              		.loc 1 573 5 view .LVU541
 1502 008a FFF7FEFF 		bl	Error_Handler
 1503              	.LVL63:
 1504              	.L99:
 577:Core/Src/main.c ****   }
 1505              		.loc 1 577 5 view .LVU542
 1506 008e FFF7FEFF 		bl	Error_Handler
 1507              	.LVL64:
 1508              	.L100:
 581:Core/Src/main.c ****   }
 1509              		.loc 1 581 5 view .LVU543
 1510 0092 FFF7FEFF 		bl	Error_Handler
 1511              	.LVL65:
 1512              	.L102:
 1513 0096 00BF     		.align	2
 1514              	.L101:
 1515 0098 00000000 		.word	htim2
 1516              		.cfi_endproc
 1517              	.LFE406:
 1519              		.section	.text.MX_TIM4_Init,"ax",%progbits
 1520              		.align	1
 1521              		.syntax unified
 1522              		.thumb
ARM GAS  /tmp/cccIhoVk.s 			page 55


 1523              		.thumb_func
 1525              	MX_TIM4_Init:
 1526              	.LFB408:
 645:Core/Src/main.c **** 
 1527              		.loc 1 645 1 view -0
 1528              		.cfi_startproc
 1529              		@ args = 0, pretend = 0, frame = 40
 1530              		@ frame_needed = 0, uses_anonymous_args = 0
 1531 0000 00B5     		push	{lr}
 1532              	.LCFI28:
 1533              		.cfi_def_cfa_offset 4
 1534              		.cfi_offset 14, -4
 1535 0002 8BB0     		sub	sp, sp, #44
 1536              	.LCFI29:
 1537              		.cfi_def_cfa_offset 48
 651:Core/Src/main.c ****   TIM_OC_InitTypeDef sConfigOC = {0};
 1538              		.loc 1 651 3 view .LVU545
 651:Core/Src/main.c ****   TIM_OC_InitTypeDef sConfigOC = {0};
 1539              		.loc 1 651 27 is_stmt 0 view .LVU546
 1540 0004 0023     		movs	r3, #0
 1541 0006 0793     		str	r3, [sp, #28]
 1542 0008 0893     		str	r3, [sp, #32]
 1543 000a 0993     		str	r3, [sp, #36]
 652:Core/Src/main.c **** 
 1544              		.loc 1 652 3 is_stmt 1 view .LVU547
 652:Core/Src/main.c **** 
 1545              		.loc 1 652 22 is_stmt 0 view .LVU548
 1546 000c 0093     		str	r3, [sp]
 1547 000e 0193     		str	r3, [sp, #4]
 1548 0010 0293     		str	r3, [sp, #8]
 1549 0012 0393     		str	r3, [sp, #12]
 1550 0014 0493     		str	r3, [sp, #16]
 1551 0016 0593     		str	r3, [sp, #20]
 1552 0018 0693     		str	r3, [sp, #24]
 657:Core/Src/main.c ****   htim4.Init.Prescaler = 29;
 1553              		.loc 1 657 3 is_stmt 1 view .LVU549
 657:Core/Src/main.c ****   htim4.Init.Prescaler = 29;
 1554              		.loc 1 657 18 is_stmt 0 view .LVU550
 1555 001a 1748     		ldr	r0, .L111
 1556 001c 174A     		ldr	r2, .L111+4
 1557 001e 0260     		str	r2, [r0]
 658:Core/Src/main.c ****   htim4.Init.CounterMode = TIM_COUNTERMODE_UP;
 1558              		.loc 1 658 3 is_stmt 1 view .LVU551
 658:Core/Src/main.c ****   htim4.Init.CounterMode = TIM_COUNTERMODE_UP;
 1559              		.loc 1 658 24 is_stmt 0 view .LVU552
 1560 0020 1D22     		movs	r2, #29
 1561 0022 4260     		str	r2, [r0, #4]
 659:Core/Src/main.c ****   htim4.Init.Period = 64000;
 1562              		.loc 1 659 3 is_stmt 1 view .LVU553
 659:Core/Src/main.c ****   htim4.Init.Period = 64000;
 1563              		.loc 1 659 26 is_stmt 0 view .LVU554
 1564 0024 8360     		str	r3, [r0, #8]
 660:Core/Src/main.c ****   htim4.Init.ClockDivision = TIM_CLOCKDIVISION_DIV1;
 1565              		.loc 1 660 3 is_stmt 1 view .LVU555
 660:Core/Src/main.c ****   htim4.Init.ClockDivision = TIM_CLOCKDIVISION_DIV1;
 1566              		.loc 1 660 21 is_stmt 0 view .LVU556
 1567 0026 4FF47A42 		mov	r2, #64000
ARM GAS  /tmp/cccIhoVk.s 			page 56


 1568 002a C260     		str	r2, [r0, #12]
 661:Core/Src/main.c ****   htim4.Init.AutoReloadPreload = TIM_AUTORELOAD_PRELOAD_DISABLE;
 1569              		.loc 1 661 3 is_stmt 1 view .LVU557
 661:Core/Src/main.c ****   htim4.Init.AutoReloadPreload = TIM_AUTORELOAD_PRELOAD_DISABLE;
 1570              		.loc 1 661 28 is_stmt 0 view .LVU558
 1571 002c 0361     		str	r3, [r0, #16]
 662:Core/Src/main.c ****   if (HAL_TIM_PWM_Init(&htim4) != HAL_OK)
 1572              		.loc 1 662 3 is_stmt 1 view .LVU559
 662:Core/Src/main.c ****   if (HAL_TIM_PWM_Init(&htim4) != HAL_OK)
 1573              		.loc 1 662 32 is_stmt 0 view .LVU560
 1574 002e 8361     		str	r3, [r0, #24]
 663:Core/Src/main.c ****   {
 1575              		.loc 1 663 3 is_stmt 1 view .LVU561
 663:Core/Src/main.c ****   {
 1576              		.loc 1 663 7 is_stmt 0 view .LVU562
 1577 0030 FFF7FEFF 		bl	HAL_TIM_PWM_Init
 1578              	.LVL66:
 663:Core/Src/main.c ****   {
 1579              		.loc 1 663 6 view .LVU563
 1580 0034 C8B9     		cbnz	r0, .L108
 667:Core/Src/main.c ****   sMasterConfig.MasterSlaveMode = TIM_MASTERSLAVEMODE_DISABLE;
 1581              		.loc 1 667 3 is_stmt 1 view .LVU564
 667:Core/Src/main.c ****   sMasterConfig.MasterSlaveMode = TIM_MASTERSLAVEMODE_DISABLE;
 1582              		.loc 1 667 37 is_stmt 0 view .LVU565
 1583 0036 0023     		movs	r3, #0
 1584 0038 0793     		str	r3, [sp, #28]
 668:Core/Src/main.c ****   if (HAL_TIMEx_MasterConfigSynchronization(&htim4, &sMasterConfig) != HAL_OK)
 1585              		.loc 1 668 3 is_stmt 1 view .LVU566
 668:Core/Src/main.c ****   if (HAL_TIMEx_MasterConfigSynchronization(&htim4, &sMasterConfig) != HAL_OK)
 1586              		.loc 1 668 33 is_stmt 0 view .LVU567
 1587 003a 0993     		str	r3, [sp, #36]
 669:Core/Src/main.c ****   {
 1588              		.loc 1 669 3 is_stmt 1 view .LVU568
 669:Core/Src/main.c ****   {
 1589              		.loc 1 669 7 is_stmt 0 view .LVU569
 1590 003c 07A9     		add	r1, sp, #28
 1591 003e 0E48     		ldr	r0, .L111
 1592 0040 FFF7FEFF 		bl	HAL_TIMEx_MasterConfigSynchronization
 1593              	.LVL67:
 669:Core/Src/main.c ****   {
 1594              		.loc 1 669 6 view .LVU570
 1595 0044 98B9     		cbnz	r0, .L109
 673:Core/Src/main.c ****   sConfigOC.Pulse = 0;
 1596              		.loc 1 673 3 is_stmt 1 view .LVU571
 673:Core/Src/main.c ****   sConfigOC.Pulse = 0;
 1597              		.loc 1 673 20 is_stmt 0 view .LVU572
 1598 0046 6023     		movs	r3, #96
 1599 0048 0093     		str	r3, [sp]
 674:Core/Src/main.c ****   sConfigOC.OCPolarity = TIM_OCPOLARITY_HIGH;
 1600              		.loc 1 674 3 is_stmt 1 view .LVU573
 674:Core/Src/main.c ****   sConfigOC.OCPolarity = TIM_OCPOLARITY_HIGH;
 1601              		.loc 1 674 19 is_stmt 0 view .LVU574
 1602 004a 0023     		movs	r3, #0
 1603 004c 0193     		str	r3, [sp, #4]
 675:Core/Src/main.c ****   sConfigOC.OCFastMode = TIM_OCFAST_DISABLE;
 1604              		.loc 1 675 3 is_stmt 1 view .LVU575
 675:Core/Src/main.c ****   sConfigOC.OCFastMode = TIM_OCFAST_DISABLE;
ARM GAS  /tmp/cccIhoVk.s 			page 57


 1605              		.loc 1 675 24 is_stmt 0 view .LVU576
 1606 004e 0293     		str	r3, [sp, #8]
 676:Core/Src/main.c ****   if (HAL_TIM_PWM_ConfigChannel(&htim4, &sConfigOC, TIM_CHANNEL_2) != HAL_OK)
 1607              		.loc 1 676 3 is_stmt 1 view .LVU577
 676:Core/Src/main.c ****   if (HAL_TIM_PWM_ConfigChannel(&htim4, &sConfigOC, TIM_CHANNEL_2) != HAL_OK)
 1608              		.loc 1 676 24 is_stmt 0 view .LVU578
 1609 0050 0493     		str	r3, [sp, #16]
 677:Core/Src/main.c ****   {
 1610              		.loc 1 677 3 is_stmt 1 view .LVU579
 677:Core/Src/main.c ****   {
 1611              		.loc 1 677 7 is_stmt 0 view .LVU580
 1612 0052 0422     		movs	r2, #4
 1613 0054 6946     		mov	r1, sp
 1614 0056 0848     		ldr	r0, .L111
 1615 0058 FFF7FEFF 		bl	HAL_TIM_PWM_ConfigChannel
 1616              	.LVL68:
 677:Core/Src/main.c ****   {
 1617              		.loc 1 677 6 view .LVU581
 1618 005c 48B9     		cbnz	r0, .L110
 684:Core/Src/main.c **** 
 1619              		.loc 1 684 3 is_stmt 1 view .LVU582
 1620 005e 0648     		ldr	r0, .L111
 1621 0060 FFF7FEFF 		bl	HAL_TIM_MspPostInit
 1622              	.LVL69:
 686:Core/Src/main.c **** 
 1623              		.loc 1 686 1 is_stmt 0 view .LVU583
 1624 0064 0BB0     		add	sp, sp, #44
 1625              	.LCFI30:
 1626              		.cfi_remember_state
 1627              		.cfi_def_cfa_offset 4
 1628              		@ sp needed
 1629 0066 5DF804FB 		ldr	pc, [sp], #4
 1630              	.L108:
 1631              	.LCFI31:
 1632              		.cfi_restore_state
 665:Core/Src/main.c ****   }
 1633              		.loc 1 665 5 is_stmt 1 view .LVU584
 1634 006a FFF7FEFF 		bl	Error_Handler
 1635              	.LVL70:
 1636              	.L109:
 671:Core/Src/main.c ****   }
 1637              		.loc 1 671 5 view .LVU585
 1638 006e FFF7FEFF 		bl	Error_Handler
 1639              	.LVL71:
 1640              	.L110:
 679:Core/Src/main.c ****   }
 1641              		.loc 1 679 5 view .LVU586
 1642 0072 FFF7FEFF 		bl	Error_Handler
 1643              	.LVL72:
 1644              	.L112:
 1645 0076 00BF     		.align	2
 1646              	.L111:
 1647 0078 00000000 		.word	htim4
 1648 007c 00080040 		.word	1073743872
 1649              		.cfi_endproc
 1650              	.LFE408:
 1652              		.section	.text.MX_TIM3_Init,"ax",%progbits
ARM GAS  /tmp/cccIhoVk.s 			page 58


 1653              		.align	1
 1654              		.syntax unified
 1655              		.thumb
 1656              		.thumb_func
 1658              	MX_TIM3_Init:
 1659              	.LFB407:
 596:Core/Src/main.c **** 
 1660              		.loc 1 596 1 view -0
 1661              		.cfi_startproc
 1662              		@ args = 0, pretend = 0, frame = 40
 1663              		@ frame_needed = 0, uses_anonymous_args = 0
 1664 0000 00B5     		push	{lr}
 1665              	.LCFI32:
 1666              		.cfi_def_cfa_offset 4
 1667              		.cfi_offset 14, -4
 1668 0002 8BB0     		sub	sp, sp, #44
 1669              	.LCFI33:
 1670              		.cfi_def_cfa_offset 48
 602:Core/Src/main.c ****   TIM_OC_InitTypeDef sConfigOC = {0};
 1671              		.loc 1 602 3 view .LVU588
 602:Core/Src/main.c ****   TIM_OC_InitTypeDef sConfigOC = {0};
 1672              		.loc 1 602 27 is_stmt 0 view .LVU589
 1673 0004 0023     		movs	r3, #0
 1674 0006 0793     		str	r3, [sp, #28]
 1675 0008 0893     		str	r3, [sp, #32]
 1676 000a 0993     		str	r3, [sp, #36]
 603:Core/Src/main.c **** 
 1677              		.loc 1 603 3 is_stmt 1 view .LVU590
 603:Core/Src/main.c **** 
 1678              		.loc 1 603 22 is_stmt 0 view .LVU591
 1679 000c 0093     		str	r3, [sp]
 1680 000e 0193     		str	r3, [sp, #4]
 1681 0010 0293     		str	r3, [sp, #8]
 1682 0012 0393     		str	r3, [sp, #12]
 1683 0014 0493     		str	r3, [sp, #16]
 1684 0016 0593     		str	r3, [sp, #20]
 1685 0018 0693     		str	r3, [sp, #24]
 608:Core/Src/main.c ****   htim3.Init.Prescaler = 29;
 1686              		.loc 1 608 3 is_stmt 1 view .LVU592
 608:Core/Src/main.c ****   htim3.Init.Prescaler = 29;
 1687              		.loc 1 608 18 is_stmt 0 view .LVU593
 1688 001a 1848     		ldr	r0, .L121
 1689 001c 184A     		ldr	r2, .L121+4
 1690 001e 0260     		str	r2, [r0]
 609:Core/Src/main.c ****   htim3.Init.CounterMode = TIM_COUNTERMODE_UP;
 1691              		.loc 1 609 3 is_stmt 1 view .LVU594
 609:Core/Src/main.c ****   htim3.Init.CounterMode = TIM_COUNTERMODE_UP;
 1692              		.loc 1 609 24 is_stmt 0 view .LVU595
 1693 0020 1D22     		movs	r2, #29
 1694 0022 4260     		str	r2, [r0, #4]
 610:Core/Src/main.c ****   htim3.Init.Period = 64000;
 1695              		.loc 1 610 3 is_stmt 1 view .LVU596
 610:Core/Src/main.c ****   htim3.Init.Period = 64000;
 1696              		.loc 1 610 26 is_stmt 0 view .LVU597
 1697 0024 8360     		str	r3, [r0, #8]
 611:Core/Src/main.c ****   htim3.Init.ClockDivision = TIM_CLOCKDIVISION_DIV1;
 1698              		.loc 1 611 3 is_stmt 1 view .LVU598
ARM GAS  /tmp/cccIhoVk.s 			page 59


 611:Core/Src/main.c ****   htim3.Init.ClockDivision = TIM_CLOCKDIVISION_DIV1;
 1699              		.loc 1 611 21 is_stmt 0 view .LVU599
 1700 0026 4FF47A42 		mov	r2, #64000
 1701 002a C260     		str	r2, [r0, #12]
 612:Core/Src/main.c ****   htim3.Init.AutoReloadPreload = TIM_AUTORELOAD_PRELOAD_DISABLE;
 1702              		.loc 1 612 3 is_stmt 1 view .LVU600
 612:Core/Src/main.c ****   htim3.Init.AutoReloadPreload = TIM_AUTORELOAD_PRELOAD_DISABLE;
 1703              		.loc 1 612 28 is_stmt 0 view .LVU601
 1704 002c 0361     		str	r3, [r0, #16]
 613:Core/Src/main.c ****   if (HAL_TIM_PWM_Init(&htim3) != HAL_OK)
 1705              		.loc 1 613 3 is_stmt 1 view .LVU602
 613:Core/Src/main.c ****   if (HAL_TIM_PWM_Init(&htim3) != HAL_OK)
 1706              		.loc 1 613 32 is_stmt 0 view .LVU603
 1707 002e 8361     		str	r3, [r0, #24]
 614:Core/Src/main.c ****   {
 1708              		.loc 1 614 3 is_stmt 1 view .LVU604
 614:Core/Src/main.c ****   {
 1709              		.loc 1 614 7 is_stmt 0 view .LVU605
 1710 0030 FFF7FEFF 		bl	HAL_TIM_PWM_Init
 1711              	.LVL73:
 614:Core/Src/main.c ****   {
 1712              		.loc 1 614 6 view .LVU606
 1713 0034 D8B9     		cbnz	r0, .L118
 618:Core/Src/main.c ****   sMasterConfig.MasterSlaveMode = TIM_MASTERSLAVEMODE_DISABLE;
 1714              		.loc 1 618 3 is_stmt 1 view .LVU607
 618:Core/Src/main.c ****   sMasterConfig.MasterSlaveMode = TIM_MASTERSLAVEMODE_DISABLE;
 1715              		.loc 1 618 37 is_stmt 0 view .LVU608
 1716 0036 0023     		movs	r3, #0
 1717 0038 0793     		str	r3, [sp, #28]
 619:Core/Src/main.c ****   if (HAL_TIMEx_MasterConfigSynchronization(&htim3, &sMasterConfig) != HAL_OK)
 1718              		.loc 1 619 3 is_stmt 1 view .LVU609
 619:Core/Src/main.c ****   if (HAL_TIMEx_MasterConfigSynchronization(&htim3, &sMasterConfig) != HAL_OK)
 1719              		.loc 1 619 33 is_stmt 0 view .LVU610
 1720 003a 0993     		str	r3, [sp, #36]
 620:Core/Src/main.c ****   {
 1721              		.loc 1 620 3 is_stmt 1 view .LVU611
 620:Core/Src/main.c ****   {
 1722              		.loc 1 620 7 is_stmt 0 view .LVU612
 1723 003c 07A9     		add	r1, sp, #28
 1724 003e 0F48     		ldr	r0, .L121
 1725 0040 FFF7FEFF 		bl	HAL_TIMEx_MasterConfigSynchronization
 1726              	.LVL74:
 620:Core/Src/main.c ****   {
 1727              		.loc 1 620 6 view .LVU613
 1728 0044 A8B9     		cbnz	r0, .L119
 624:Core/Src/main.c ****   sConfigOC.Pulse = 6400;
 1729              		.loc 1 624 3 is_stmt 1 view .LVU614
 624:Core/Src/main.c ****   sConfigOC.Pulse = 6400;
 1730              		.loc 1 624 20 is_stmt 0 view .LVU615
 1731 0046 6023     		movs	r3, #96
 1732 0048 0093     		str	r3, [sp]
 625:Core/Src/main.c ****   sConfigOC.OCPolarity = TIM_OCPOLARITY_HIGH;
 1733              		.loc 1 625 3 is_stmt 1 view .LVU616
 625:Core/Src/main.c ****   sConfigOC.OCPolarity = TIM_OCPOLARITY_HIGH;
 1734              		.loc 1 625 19 is_stmt 0 view .LVU617
 1735 004a 4FF4C853 		mov	r3, #6400
 1736 004e 0193     		str	r3, [sp, #4]
ARM GAS  /tmp/cccIhoVk.s 			page 60


 626:Core/Src/main.c ****   sConfigOC.OCFastMode = TIM_OCFAST_DISABLE;
 1737              		.loc 1 626 3 is_stmt 1 view .LVU618
 626:Core/Src/main.c ****   sConfigOC.OCFastMode = TIM_OCFAST_DISABLE;
 1738              		.loc 1 626 24 is_stmt 0 view .LVU619
 1739 0050 0023     		movs	r3, #0
 1740 0052 0293     		str	r3, [sp, #8]
 627:Core/Src/main.c ****   if (HAL_TIM_PWM_ConfigChannel(&htim3, &sConfigOC, TIM_CHANNEL_2) != HAL_OK)
 1741              		.loc 1 627 3 is_stmt 1 view .LVU620
 627:Core/Src/main.c ****   if (HAL_TIM_PWM_ConfigChannel(&htim3, &sConfigOC, TIM_CHANNEL_2) != HAL_OK)
 1742              		.loc 1 627 24 is_stmt 0 view .LVU621
 1743 0054 0493     		str	r3, [sp, #16]
 628:Core/Src/main.c ****   {
 1744              		.loc 1 628 3 is_stmt 1 view .LVU622
 628:Core/Src/main.c ****   {
 1745              		.loc 1 628 7 is_stmt 0 view .LVU623
 1746 0056 0422     		movs	r2, #4
 1747 0058 6946     		mov	r1, sp
 1748 005a 0848     		ldr	r0, .L121
 1749 005c FFF7FEFF 		bl	HAL_TIM_PWM_ConfigChannel
 1750              	.LVL75:
 628:Core/Src/main.c ****   {
 1751              		.loc 1 628 6 view .LVU624
 1752 0060 48B9     		cbnz	r0, .L120
 635:Core/Src/main.c **** 
 1753              		.loc 1 635 3 is_stmt 1 view .LVU625
 1754 0062 0648     		ldr	r0, .L121
 1755 0064 FFF7FEFF 		bl	HAL_TIM_MspPostInit
 1756              	.LVL76:
 637:Core/Src/main.c **** 
 1757              		.loc 1 637 1 is_stmt 0 view .LVU626
 1758 0068 0BB0     		add	sp, sp, #44
 1759              	.LCFI34:
 1760              		.cfi_remember_state
 1761              		.cfi_def_cfa_offset 4
 1762              		@ sp needed
 1763 006a 5DF804FB 		ldr	pc, [sp], #4
 1764              	.L118:
 1765              	.LCFI35:
 1766              		.cfi_restore_state
 616:Core/Src/main.c ****   }
 1767              		.loc 1 616 5 is_stmt 1 view .LVU627
 1768 006e FFF7FEFF 		bl	Error_Handler
 1769              	.LVL77:
 1770              	.L119:
 622:Core/Src/main.c ****   }
 1771              		.loc 1 622 5 view .LVU628
 1772 0072 FFF7FEFF 		bl	Error_Handler
 1773              	.LVL78:
 1774              	.L120:
 630:Core/Src/main.c ****   }
 1775              		.loc 1 630 5 view .LVU629
 1776 0076 FFF7FEFF 		bl	Error_Handler
 1777              	.LVL79:
 1778              	.L122:
 1779 007a 00BF     		.align	2
 1780              	.L121:
 1781 007c 00000000 		.word	htim3
ARM GAS  /tmp/cccIhoVk.s 			page 61


 1782 0080 00040040 		.word	1073742848
 1783              		.cfi_endproc
 1784              	.LFE407:
 1786              		.section	.text.SystemClock_Config,"ax",%progbits
 1787              		.align	1
 1788              		.global	SystemClock_Config
 1789              		.syntax unified
 1790              		.thumb
 1791              		.thumb_func
 1793              	SystemClock_Config:
 1794              	.LFB399:
 164:Core/Src/main.c ****   RCC_OscInitTypeDef RCC_OscInitStruct = {0};
 1795              		.loc 1 164 1 view -0
 1796              		.cfi_startproc
 1797              		@ args = 0, pretend = 0, frame = 112
 1798              		@ frame_needed = 0, uses_anonymous_args = 0
 1799 0000 00B5     		push	{lr}
 1800              	.LCFI36:
 1801              		.cfi_def_cfa_offset 4
 1802              		.cfi_offset 14, -4
 1803 0002 9DB0     		sub	sp, sp, #116
 1804              	.LCFI37:
 1805              		.cfi_def_cfa_offset 120
 165:Core/Src/main.c ****   RCC_ClkInitTypeDef RCC_ClkInitStruct = {0};
 1806              		.loc 1 165 3 view .LVU631
 165:Core/Src/main.c ****   RCC_ClkInitTypeDef RCC_ClkInitStruct = {0};
 1807              		.loc 1 165 22 is_stmt 0 view .LVU632
 1808 0004 4C22     		movs	r2, #76
 1809 0006 0021     		movs	r1, #0
 1810 0008 09A8     		add	r0, sp, #36
 1811 000a FFF7FEFF 		bl	memset
 1812              	.LVL80:
 166:Core/Src/main.c **** 
 1813              		.loc 1 166 3 is_stmt 1 view .LVU633
 166:Core/Src/main.c **** 
 1814              		.loc 1 166 22 is_stmt 0 view .LVU634
 1815 000e 2022     		movs	r2, #32
 1816 0010 0021     		movs	r1, #0
 1817 0012 01A8     		add	r0, sp, #4
 1818 0014 FFF7FEFF 		bl	memset
 1819              	.LVL81:
 170:Core/Src/main.c **** 
 1820              		.loc 1 170 3 is_stmt 1 view .LVU635
 1821 0018 0220     		movs	r0, #2
 1822 001a FFF7FEFF 		bl	HAL_PWREx_ConfigSupply
 1823              	.LVL82:
 174:Core/Src/main.c **** 
 1824              		.loc 1 174 3 view .LVU636
 1825              	.LBB14:
 174:Core/Src/main.c **** 
 1826              		.loc 1 174 3 view .LVU637
 1827 001e 0023     		movs	r3, #0
 1828 0020 0093     		str	r3, [sp]
 174:Core/Src/main.c **** 
 1829              		.loc 1 174 3 view .LVU638
 1830 0022 204A     		ldr	r2, .L130
 1831 0024 9369     		ldr	r3, [r2, #24]
ARM GAS  /tmp/cccIhoVk.s 			page 62


 1832 0026 23F44043 		bic	r3, r3, #49152
 1833 002a 43F40043 		orr	r3, r3, #32768
 1834 002e 9361     		str	r3, [r2, #24]
 174:Core/Src/main.c **** 
 1835              		.loc 1 174 3 view .LVU639
 1836 0030 9369     		ldr	r3, [r2, #24]
 1837 0032 03F44043 		and	r3, r3, #49152
 1838 0036 0093     		str	r3, [sp]
 174:Core/Src/main.c **** 
 1839              		.loc 1 174 3 view .LVU640
 1840 0038 009B     		ldr	r3, [sp]
 1841              	.LBE14:
 174:Core/Src/main.c **** 
 1842              		.loc 1 174 3 view .LVU641
 176:Core/Src/main.c **** 
 1843              		.loc 1 176 3 view .LVU642
 1844              	.L124:
 176:Core/Src/main.c **** 
 1845              		.loc 1 176 48 discriminator 1 view .LVU643
 176:Core/Src/main.c **** 
 1846              		.loc 1 176 9 discriminator 1 view .LVU644
 176:Core/Src/main.c **** 
 1847              		.loc 1 176 10 is_stmt 0 discriminator 1 view .LVU645
 1848 003a 1A4B     		ldr	r3, .L130
 1849 003c 9B69     		ldr	r3, [r3, #24]
 176:Core/Src/main.c **** 
 1850              		.loc 1 176 9 discriminator 1 view .LVU646
 1851 003e 13F4005F 		tst	r3, #8192
 1852 0042 FAD0     		beq	.L124
 181:Core/Src/main.c ****   RCC_OscInitStruct.HSEState = RCC_HSE_ON;
 1853              		.loc 1 181 3 is_stmt 1 view .LVU647
 181:Core/Src/main.c ****   RCC_OscInitStruct.HSEState = RCC_HSE_ON;
 1854              		.loc 1 181 36 is_stmt 0 view .LVU648
 1855 0044 0122     		movs	r2, #1
 1856 0046 0992     		str	r2, [sp, #36]
 182:Core/Src/main.c ****   RCC_OscInitStruct.PLL.PLLState = RCC_PLL_ON;
 1857              		.loc 1 182 3 is_stmt 1 view .LVU649
 182:Core/Src/main.c ****   RCC_OscInitStruct.PLL.PLLState = RCC_PLL_ON;
 1858              		.loc 1 182 30 is_stmt 0 view .LVU650
 1859 0048 4FF48033 		mov	r3, #65536
 1860 004c 0A93     		str	r3, [sp, #40]
 183:Core/Src/main.c ****   RCC_OscInitStruct.PLL.PLLSource = RCC_PLLSOURCE_HSE;
 1861              		.loc 1 183 3 is_stmt 1 view .LVU651
 183:Core/Src/main.c ****   RCC_OscInitStruct.PLL.PLLSource = RCC_PLLSOURCE_HSE;
 1862              		.loc 1 183 34 is_stmt 0 view .LVU652
 1863 004e 0223     		movs	r3, #2
 1864 0050 1293     		str	r3, [sp, #72]
 184:Core/Src/main.c ****   RCC_OscInitStruct.PLL.PLLM = 1;
 1865              		.loc 1 184 3 is_stmt 1 view .LVU653
 184:Core/Src/main.c ****   RCC_OscInitStruct.PLL.PLLM = 1;
 1866              		.loc 1 184 35 is_stmt 0 view .LVU654
 1867 0052 1393     		str	r3, [sp, #76]
 185:Core/Src/main.c ****   RCC_OscInitStruct.PLL.PLLN = 24;
 1868              		.loc 1 185 3 is_stmt 1 view .LVU655
 185:Core/Src/main.c ****   RCC_OscInitStruct.PLL.PLLN = 24;
 1869              		.loc 1 185 30 is_stmt 0 view .LVU656
 1870 0054 1492     		str	r2, [sp, #80]
ARM GAS  /tmp/cccIhoVk.s 			page 63


 186:Core/Src/main.c ****   RCC_OscInitStruct.PLL.PLLP = 1;
 1871              		.loc 1 186 3 is_stmt 1 view .LVU657
 186:Core/Src/main.c ****   RCC_OscInitStruct.PLL.PLLP = 1;
 1872              		.loc 1 186 30 is_stmt 0 view .LVU658
 1873 0056 1821     		movs	r1, #24
 1874 0058 1591     		str	r1, [sp, #84]
 187:Core/Src/main.c ****   RCC_OscInitStruct.PLL.PLLQ = 2;
 1875              		.loc 1 187 3 is_stmt 1 view .LVU659
 187:Core/Src/main.c ****   RCC_OscInitStruct.PLL.PLLQ = 2;
 1876              		.loc 1 187 30 is_stmt 0 view .LVU660
 1877 005a 1692     		str	r2, [sp, #88]
 188:Core/Src/main.c ****   RCC_OscInitStruct.PLL.PLLR = 2;
 1878              		.loc 1 188 3 is_stmt 1 view .LVU661
 188:Core/Src/main.c ****   RCC_OscInitStruct.PLL.PLLR = 2;
 1879              		.loc 1 188 30 is_stmt 0 view .LVU662
 1880 005c 1793     		str	r3, [sp, #92]
 189:Core/Src/main.c ****   RCC_OscInitStruct.PLL.PLLRGE = RCC_PLL1VCIRANGE_3;
 1881              		.loc 1 189 3 is_stmt 1 view .LVU663
 189:Core/Src/main.c ****   RCC_OscInitStruct.PLL.PLLRGE = RCC_PLL1VCIRANGE_3;
 1882              		.loc 1 189 30 is_stmt 0 view .LVU664
 1883 005e 1893     		str	r3, [sp, #96]
 190:Core/Src/main.c ****   RCC_OscInitStruct.PLL.PLLVCOSEL = RCC_PLL1VCOWIDE;
 1884              		.loc 1 190 3 is_stmt 1 view .LVU665
 190:Core/Src/main.c ****   RCC_OscInitStruct.PLL.PLLVCOSEL = RCC_PLL1VCOWIDE;
 1885              		.loc 1 190 32 is_stmt 0 view .LVU666
 1886 0060 0C23     		movs	r3, #12
 1887 0062 1993     		str	r3, [sp, #100]
 191:Core/Src/main.c ****   RCC_OscInitStruct.PLL.PLLFRACN = 0;
 1888              		.loc 1 191 3 is_stmt 1 view .LVU667
 191:Core/Src/main.c ****   RCC_OscInitStruct.PLL.PLLFRACN = 0;
 1889              		.loc 1 191 35 is_stmt 0 view .LVU668
 1890 0064 0023     		movs	r3, #0
 1891 0066 1A93     		str	r3, [sp, #104]
 192:Core/Src/main.c ****   if (HAL_RCC_OscConfig(&RCC_OscInitStruct) != HAL_OK)
 1892              		.loc 1 192 3 is_stmt 1 view .LVU669
 192:Core/Src/main.c ****   if (HAL_RCC_OscConfig(&RCC_OscInitStruct) != HAL_OK)
 1893              		.loc 1 192 34 is_stmt 0 view .LVU670
 1894 0068 1B93     		str	r3, [sp, #108]
 193:Core/Src/main.c ****   {
 1895              		.loc 1 193 3 is_stmt 1 view .LVU671
 193:Core/Src/main.c ****   {
 1896              		.loc 1 193 7 is_stmt 0 view .LVU672
 1897 006a 09A8     		add	r0, sp, #36
 1898 006c FFF7FEFF 		bl	HAL_RCC_OscConfig
 1899              	.LVL83:
 193:Core/Src/main.c ****   {
 1900              		.loc 1 193 6 view .LVU673
 1901 0070 A0B9     		cbnz	r0, .L128
 200:Core/Src/main.c ****                               |RCC_CLOCKTYPE_PCLK1|RCC_CLOCKTYPE_PCLK2
 1902              		.loc 1 200 3 is_stmt 1 view .LVU674
 200:Core/Src/main.c ****                               |RCC_CLOCKTYPE_PCLK1|RCC_CLOCKTYPE_PCLK2
 1903              		.loc 1 200 31 is_stmt 0 view .LVU675
 1904 0072 3F23     		movs	r3, #63
 1905 0074 0193     		str	r3, [sp, #4]
 203:Core/Src/main.c ****   RCC_ClkInitStruct.SYSCLKDivider = RCC_SYSCLK_DIV1;
 1906              		.loc 1 203 3 is_stmt 1 view .LVU676
 203:Core/Src/main.c ****   RCC_ClkInitStruct.SYSCLKDivider = RCC_SYSCLK_DIV1;
ARM GAS  /tmp/cccIhoVk.s 			page 64


 1907              		.loc 1 203 34 is_stmt 0 view .LVU677
 1908 0076 0323     		movs	r3, #3
 1909 0078 0293     		str	r3, [sp, #8]
 204:Core/Src/main.c ****   RCC_ClkInitStruct.AHBCLKDivider = RCC_HCLK_DIV2;
 1910              		.loc 1 204 3 is_stmt 1 view .LVU678
 204:Core/Src/main.c ****   RCC_ClkInitStruct.AHBCLKDivider = RCC_HCLK_DIV2;
 1911              		.loc 1 204 35 is_stmt 0 view .LVU679
 1912 007a 0023     		movs	r3, #0
 1913 007c 0393     		str	r3, [sp, #12]
 205:Core/Src/main.c ****   RCC_ClkInitStruct.APB3CLKDivider = RCC_APB3_DIV1;
 1914              		.loc 1 205 3 is_stmt 1 view .LVU680
 205:Core/Src/main.c ****   RCC_ClkInitStruct.APB3CLKDivider = RCC_APB3_DIV1;
 1915              		.loc 1 205 35 is_stmt 0 view .LVU681
 1916 007e 0822     		movs	r2, #8
 1917 0080 0492     		str	r2, [sp, #16]
 206:Core/Src/main.c ****   RCC_ClkInitStruct.APB1CLKDivider = RCC_APB1_DIV2;
 1918              		.loc 1 206 3 is_stmt 1 view .LVU682
 206:Core/Src/main.c ****   RCC_ClkInitStruct.APB1CLKDivider = RCC_APB1_DIV2;
 1919              		.loc 1 206 36 is_stmt 0 view .LVU683
 1920 0082 0593     		str	r3, [sp, #20]
 207:Core/Src/main.c ****   RCC_ClkInitStruct.APB2CLKDivider = RCC_APB2_DIV1;
 1921              		.loc 1 207 3 is_stmt 1 view .LVU684
 207:Core/Src/main.c ****   RCC_ClkInitStruct.APB2CLKDivider = RCC_APB2_DIV1;
 1922              		.loc 1 207 36 is_stmt 0 view .LVU685
 1923 0084 4022     		movs	r2, #64
 1924 0086 0692     		str	r2, [sp, #24]
 208:Core/Src/main.c ****   RCC_ClkInitStruct.APB4CLKDivider = RCC_APB4_DIV1;
 1925              		.loc 1 208 3 is_stmt 1 view .LVU686
 208:Core/Src/main.c ****   RCC_ClkInitStruct.APB4CLKDivider = RCC_APB4_DIV1;
 1926              		.loc 1 208 36 is_stmt 0 view .LVU687
 1927 0088 0793     		str	r3, [sp, #28]
 209:Core/Src/main.c **** 
 1928              		.loc 1 209 3 is_stmt 1 view .LVU688
 209:Core/Src/main.c **** 
 1929              		.loc 1 209 36 is_stmt 0 view .LVU689
 1930 008a 0893     		str	r3, [sp, #32]
 211:Core/Src/main.c ****   {
 1931              		.loc 1 211 3 is_stmt 1 view .LVU690
 211:Core/Src/main.c ****   {
 1932              		.loc 1 211 7 is_stmt 0 view .LVU691
 1933 008c 0121     		movs	r1, #1
 1934 008e 01A8     		add	r0, sp, #4
 1935 0090 FFF7FEFF 		bl	HAL_RCC_ClockConfig
 1936              	.LVL84:
 211:Core/Src/main.c ****   {
 1937              		.loc 1 211 6 view .LVU692
 1938 0094 20B9     		cbnz	r0, .L129
 215:Core/Src/main.c **** 
 1939              		.loc 1 215 1 view .LVU693
 1940 0096 1DB0     		add	sp, sp, #116
 1941              	.LCFI38:
 1942              		.cfi_remember_state
 1943              		.cfi_def_cfa_offset 4
 1944              		@ sp needed
 1945 0098 5DF804FB 		ldr	pc, [sp], #4
 1946              	.L128:
 1947              	.LCFI39:
ARM GAS  /tmp/cccIhoVk.s 			page 65


 1948              		.cfi_restore_state
 195:Core/Src/main.c ****   }
 1949              		.loc 1 195 5 is_stmt 1 view .LVU694
 1950 009c FFF7FEFF 		bl	Error_Handler
 1951              	.LVL85:
 1952              	.L129:
 213:Core/Src/main.c ****   }
 1953              		.loc 1 213 5 view .LVU695
 1954 00a0 FFF7FEFF 		bl	Error_Handler
 1955              	.LVL86:
 1956              	.L131:
 1957              		.align	2
 1958              	.L130:
 1959 00a4 00480258 		.word	1476544512
 1960              		.cfi_endproc
 1961              	.LFE399:
 1963              		.section	.text.PeriphCommonClock_Config,"ax",%progbits
 1964              		.align	1
 1965              		.global	PeriphCommonClock_Config
 1966              		.syntax unified
 1967              		.thumb
 1968              		.thumb_func
 1970              	PeriphCommonClock_Config:
 1971              	.LFB400:
 222:Core/Src/main.c ****   RCC_PeriphCLKInitTypeDef PeriphClkInitStruct = {0};
 1972              		.loc 1 222 1 view -0
 1973              		.cfi_startproc
 1974              		@ args = 0, pretend = 0, frame = 184
 1975              		@ frame_needed = 0, uses_anonymous_args = 0
 1976 0000 00B5     		push	{lr}
 1977              	.LCFI40:
 1978              		.cfi_def_cfa_offset 4
 1979              		.cfi_offset 14, -4
 1980 0002 AFB0     		sub	sp, sp, #188
 1981              	.LCFI41:
 1982              		.cfi_def_cfa_offset 192
 223:Core/Src/main.c **** 
 1983              		.loc 1 223 3 view .LVU697
 223:Core/Src/main.c **** 
 1984              		.loc 1 223 28 is_stmt 0 view .LVU698
 1985 0004 B822     		movs	r2, #184
 1986 0006 0021     		movs	r1, #0
 1987 0008 6846     		mov	r0, sp
 1988 000a FFF7FEFF 		bl	memset
 1989              	.LVL87:
 227:Core/Src/main.c ****   PeriphClkInitStruct.PLL2.PLL2M = 1;
 1990              		.loc 1 227 3 is_stmt 1 view .LVU699
 227:Core/Src/main.c ****   PeriphClkInitStruct.PLL2.PLL2M = 1;
 1991              		.loc 1 227 44 is_stmt 0 view .LVU700
 1992 000e 4FF40022 		mov	r2, #524288
 1993 0012 0023     		movs	r3, #0
 1994 0014 CDE90023 		strd	r2, [sp]
 228:Core/Src/main.c ****   PeriphClkInitStruct.PLL2.PLL2N = 32;
 1995              		.loc 1 228 3 is_stmt 1 view .LVU701
 228:Core/Src/main.c ****   PeriphClkInitStruct.PLL2.PLL2N = 32;
 1996              		.loc 1 228 34 is_stmt 0 view .LVU702
 1997 0018 0123     		movs	r3, #1
ARM GAS  /tmp/cccIhoVk.s 			page 66


 1998 001a 0293     		str	r3, [sp, #8]
 229:Core/Src/main.c ****   PeriphClkInitStruct.PLL2.PLL2P = 8;
 1999              		.loc 1 229 3 is_stmt 1 view .LVU703
 229:Core/Src/main.c ****   PeriphClkInitStruct.PLL2.PLL2P = 8;
 2000              		.loc 1 229 34 is_stmt 0 view .LVU704
 2001 001c 2023     		movs	r3, #32
 2002 001e 0393     		str	r3, [sp, #12]
 230:Core/Src/main.c ****   PeriphClkInitStruct.PLL2.PLL2Q = 2;
 2003              		.loc 1 230 3 is_stmt 1 view .LVU705
 230:Core/Src/main.c ****   PeriphClkInitStruct.PLL2.PLL2Q = 2;
 2004              		.loc 1 230 34 is_stmt 0 view .LVU706
 2005 0020 0823     		movs	r3, #8
 2006 0022 0493     		str	r3, [sp, #16]
 231:Core/Src/main.c ****   PeriphClkInitStruct.PLL2.PLL2R = 2;
 2007              		.loc 1 231 3 is_stmt 1 view .LVU707
 231:Core/Src/main.c ****   PeriphClkInitStruct.PLL2.PLL2R = 2;
 2008              		.loc 1 231 34 is_stmt 0 view .LVU708
 2009 0024 0223     		movs	r3, #2
 2010 0026 0593     		str	r3, [sp, #20]
 232:Core/Src/main.c ****   PeriphClkInitStruct.PLL2.PLL2RGE = RCC_PLL2VCIRANGE_3;
 2011              		.loc 1 232 3 is_stmt 1 view .LVU709
 232:Core/Src/main.c ****   PeriphClkInitStruct.PLL2.PLL2RGE = RCC_PLL2VCIRANGE_3;
 2012              		.loc 1 232 34 is_stmt 0 view .LVU710
 2013 0028 0693     		str	r3, [sp, #24]
 233:Core/Src/main.c ****   PeriphClkInitStruct.PLL2.PLL2VCOSEL = RCC_PLL2VCOWIDE;
 2014              		.loc 1 233 3 is_stmt 1 view .LVU711
 233:Core/Src/main.c ****   PeriphClkInitStruct.PLL2.PLL2VCOSEL = RCC_PLL2VCOWIDE;
 2015              		.loc 1 233 36 is_stmt 0 view .LVU712
 2016 002a C023     		movs	r3, #192
 2017 002c 0793     		str	r3, [sp, #28]
 234:Core/Src/main.c ****   PeriphClkInitStruct.PLL2.PLL2FRACN = 0;
 2018              		.loc 1 234 3 is_stmt 1 view .LVU713
 235:Core/Src/main.c ****   PeriphClkInitStruct.AdcClockSelection = RCC_ADCCLKSOURCE_PLL2;
 2019              		.loc 1 235 3 view .LVU714
 236:Core/Src/main.c ****   if (HAL_RCCEx_PeriphCLKConfig(&PeriphClkInitStruct) != HAL_OK)
 2020              		.loc 1 236 3 view .LVU715
 237:Core/Src/main.c ****   {
 2021              		.loc 1 237 3 view .LVU716
 237:Core/Src/main.c ****   {
 2022              		.loc 1 237 7 is_stmt 0 view .LVU717
 2023 002e 6846     		mov	r0, sp
 2024 0030 FFF7FEFF 		bl	HAL_RCCEx_PeriphCLKConfig
 2025              	.LVL88:
 237:Core/Src/main.c ****   {
 2026              		.loc 1 237 6 view .LVU718
 2027 0034 10B9     		cbnz	r0, .L135
 241:Core/Src/main.c **** 
 2028              		.loc 1 241 1 view .LVU719
 2029 0036 2FB0     		add	sp, sp, #188
 2030              	.LCFI42:
 2031              		.cfi_remember_state
 2032              		.cfi_def_cfa_offset 4
 2033              		@ sp needed
 2034 0038 5DF804FB 		ldr	pc, [sp], #4
 2035              	.L135:
 2036              	.LCFI43:
 2037              		.cfi_restore_state
ARM GAS  /tmp/cccIhoVk.s 			page 67


 239:Core/Src/main.c ****   }
 2038              		.loc 1 239 5 is_stmt 1 view .LVU720
 2039 003c FFF7FEFF 		bl	Error_Handler
 2040              	.LVL89:
 2041              		.cfi_endproc
 2042              	.LFE400:
 2044              		.section	.rodata.main.str1.4,"aMS",%progbits,1
 2045              		.align	2
 2046              	.LC0:
 2047 0000 506F7274 		.ascii	"Port initialized\015\012\000"
 2047      20696E69 
 2047      7469616C 
 2047      697A6564 
 2047      0D0A00
 2048 0013 00       		.align	2
 2049              	.LC1:
 2050 0014 506F7274 		.ascii	"Port not initialized\015\012\000"
 2050      206E6F74 
 2050      20696E69 
 2050      7469616C 
 2050      697A6564 
 2051              		.section	.text.main,"ax",%progbits
 2052              		.align	1
 2053              		.global	main
 2054              		.syntax unified
 2055              		.thumb
 2056              		.thumb_func
 2058              	main:
 2059              	.LFB398:
  95:Core/Src/main.c **** 
 2060              		.loc 1 95 1 view -0
 2061              		.cfi_startproc
 2062              		@ Volatile: function does not return.
 2063              		@ args = 0, pretend = 0, frame = 8
 2064              		@ frame_needed = 0, uses_anonymous_args = 0
 2065 0000 00B5     		push	{lr}
 2066              	.LCFI44:
 2067              		.cfi_def_cfa_offset 4
 2068              		.cfi_offset 14, -4
 2069 0002 83B0     		sub	sp, sp, #12
 2070              	.LCFI45:
 2071              		.cfi_def_cfa_offset 16
 104:Core/Src/main.c **** 
 2072              		.loc 1 104 3 view .LVU722
 2073 0004 FFF7FEFF 		bl	HAL_Init
 2074              	.LVL90:
 111:Core/Src/main.c **** 
 2075              		.loc 1 111 3 view .LVU723
 2076 0008 FFF7FEFF 		bl	SystemClock_Config
 2077              	.LVL91:
 114:Core/Src/main.c **** 
 2078              		.loc 1 114 3 view .LVU724
 2079 000c FFF7FEFF 		bl	PeriphCommonClock_Config
 2080              	.LVL92:
 121:Core/Src/main.c ****   MX_SPI1_Init();
 2081              		.loc 1 121 3 view .LVU725
 2082 0010 FFF7FEFF 		bl	MX_GPIO_Init
ARM GAS  /tmp/cccIhoVk.s 			page 68


 2083              	.LVL93:
 122:Core/Src/main.c ****   MX_UART4_Init();
 2084              		.loc 1 122 3 view .LVU726
 2085 0014 FFF7FEFF 		bl	MX_SPI1_Init
 2086              	.LVL94:
 123:Core/Src/main.c ****   MX_UART5_Init();
 2087              		.loc 1 123 3 view .LVU727
 2088 0018 FFF7FEFF 		bl	MX_UART4_Init
 2089              	.LVL95:
 124:Core/Src/main.c ****   MX_USART2_UART_Init();
 2090              		.loc 1 124 3 view .LVU728
 2091 001c FFF7FEFF 		bl	MX_UART5_Init
 2092              	.LVL96:
 125:Core/Src/main.c ****   MX_FATFS_Init();
 2093              		.loc 1 125 3 view .LVU729
 2094 0020 FFF7FEFF 		bl	MX_USART2_UART_Init
 2095              	.LVL97:
 126:Core/Src/main.c ****   MX_OCTOSPI1_Init();
 2096              		.loc 1 126 3 view .LVU730
 2097 0024 FFF7FEFF 		bl	MX_FATFS_Init
 2098              	.LVL98:
 127:Core/Src/main.c ****   MX_ADC2_Init();
 2099              		.loc 1 127 3 view .LVU731
 2100 0028 FFF7FEFF 		bl	MX_OCTOSPI1_Init
 2101              	.LVL99:
 128:Core/Src/main.c ****   MX_ADC3_Init();
 2102              		.loc 1 128 3 view .LVU732
 2103 002c FFF7FEFF 		bl	MX_ADC2_Init
 2104              	.LVL100:
 129:Core/Src/main.c ****   MX_ADC1_Init();
 2105              		.loc 1 129 3 view .LVU733
 2106 0030 FFF7FEFF 		bl	MX_ADC3_Init
 2107              	.LVL101:
 130:Core/Src/main.c ****   MX_TIM2_Init();
 2108              		.loc 1 130 3 view .LVU734
 2109 0034 FFF7FEFF 		bl	MX_ADC1_Init
 2110              	.LVL102:
 131:Core/Src/main.c ****   MX_TIM4_Init();
 2111              		.loc 1 131 3 view .LVU735
 2112 0038 FFF7FEFF 		bl	MX_TIM2_Init
 2113              	.LVL103:
 132:Core/Src/main.c ****   MX_TIM3_Init();
 2114              		.loc 1 132 3 view .LVU736
 2115 003c FFF7FEFF 		bl	MX_TIM4_Init
 2116              	.LVL104:
 133:Core/Src/main.c ****   /* USER CODE BEGIN 2 */
 2117              		.loc 1 133 3 view .LVU737
 2118 0040 FFF7FEFF 		bl	MX_TIM3_Init
 2119              	.LVL105:
 135:Core/Src/main.c ****   while(HAL_TIMEOUT != HAL_UART_Receive(&state_uart, &tmp, 1, 10));
 2120              		.loc 1 135 3 view .LVU738
 136:Core/Src/main.c ****   
 2121              		.loc 1 136 3 view .LVU739
 2122              	.L137:
 136:Core/Src/main.c ****   
 2123              		.loc 1 136 21 discriminator 1 view .LVU740
 136:Core/Src/main.c ****   
ARM GAS  /tmp/cccIhoVk.s 			page 69


 2124              		.loc 1 136 24 is_stmt 0 discriminator 1 view .LVU741
 2125 0044 0A23     		movs	r3, #10
 2126 0046 0122     		movs	r2, #1
 2127 0048 0DF10701 		add	r1, sp, #7
 2128 004c 0C48     		ldr	r0, .L142
 2129 004e FFF7FEFF 		bl	HAL_UART_Receive
 2130              	.LVL106:
 136:Core/Src/main.c ****   
 2131              		.loc 1 136 21 discriminator 1 view .LVU742
 2132 0052 0328     		cmp	r0, #3
 2133 0054 F6D1     		bne	.L137
 138:Core/Src/main.c ****     HAL_UART_Transmit(&debug_uart, (uint8_t *) "Port initialized\r\n", 18, HAL_MAX_DELAY);
 2134              		.loc 1 138 3 is_stmt 1 view .LVU743
 138:Core/Src/main.c ****     HAL_UART_Transmit(&debug_uart, (uint8_t *) "Port initialized\r\n", 18, HAL_MAX_DELAY);
 2135              		.loc 1 138 7 is_stmt 0 view .LVU744
 2136 0056 FFF7FEFF 		bl	port_init
 2137              	.LVL107:
 138:Core/Src/main.c ****     HAL_UART_Transmit(&debug_uart, (uint8_t *) "Port initialized\r\n", 18, HAL_MAX_DELAY);
 2138              		.loc 1 138 6 view .LVU745
 2139 005a 48B1     		cbz	r0, .L138
 139:Core/Src/main.c ****   } else {
 2140              		.loc 1 139 5 is_stmt 1 view .LVU746
 2141 005c 4FF0FF33 		mov	r3, #-1
 2142 0060 1222     		movs	r2, #18
 2143 0062 0849     		ldr	r1, .L142+4
 2144 0064 0848     		ldr	r0, .L142+8
 2145 0066 FFF7FEFF 		bl	HAL_UART_Transmit
 2146              	.LVL108:
 2147              	.L139:
 144:Core/Src/main.c **** 
 2148              		.loc 1 144 3 view .LVU747
 2149 006a FFF7FEFF 		bl	port_start
 2150              	.LVL109:
 2151              	.L140:
 150:Core/Src/main.c ****   {
 2152              		.loc 1 150 3 discriminator 1 view .LVU748
 155:Core/Src/main.c ****   /* USER CODE END 3 */
 2153              		.loc 1 155 3 discriminator 1 view .LVU749
 150:Core/Src/main.c ****   {
 2154              		.loc 1 150 9 discriminator 1 view .LVU750
 2155 006e FEE7     		b	.L140
 2156              	.L138:
 141:Core/Src/main.c ****   }
 2157              		.loc 1 141 5 view .LVU751
 2158 0070 4FF0FF33 		mov	r3, #-1
 2159 0074 1622     		movs	r2, #22
 2160 0076 0549     		ldr	r1, .L142+12
 2161 0078 0348     		ldr	r0, .L142+8
 2162 007a FFF7FEFF 		bl	HAL_UART_Transmit
 2163              	.LVL110:
 2164 007e F4E7     		b	.L139
 2165              	.L143:
 2166              		.align	2
 2167              	.L142:
 2168 0080 00000000 		.word	huart5
 2169 0084 00000000 		.word	.LC0
 2170 0088 00000000 		.word	huart2
ARM GAS  /tmp/cccIhoVk.s 			page 70


 2171 008c 14000000 		.word	.LC1
 2172              		.cfi_endproc
 2173              	.LFE398:
 2175              		.global	servo
 2176              		.section	.bss.servo,"aw",%nobits
 2177              		.align	3
 2180              	servo:
 2181 0000 00000000 		.space	40
 2181      00000000 
 2181      00000000 
 2181      00000000 
 2181      00000000 
 2182              		.global	servo_angle
 2183              		.section	.bss.servo_angle,"aw",%nobits
 2184              		.align	3
 2187              	servo_angle:
 2188 0000 00000000 		.space	8
 2188      00000000 
 2189              		.global	huart2
 2190              		.section	.bss.huart2,"aw",%nobits
 2191              		.align	2
 2194              	huart2:
 2195 0000 00000000 		.space	148
 2195      00000000 
 2195      00000000 
 2195      00000000 
 2195      00000000 
 2196              		.global	huart5
 2197              		.section	.bss.huart5,"aw",%nobits
 2198              		.align	2
 2201              	huart5:
 2202 0000 00000000 		.space	148
 2202      00000000 
 2202      00000000 
 2202      00000000 
 2202      00000000 
 2203              		.global	huart4
 2204              		.section	.bss.huart4,"aw",%nobits
 2205              		.align	2
 2208              	huart4:
 2209 0000 00000000 		.space	148
 2209      00000000 
 2209      00000000 
 2209      00000000 
 2209      00000000 
 2210              		.global	htim4
 2211              		.section	.bss.htim4,"aw",%nobits
 2212              		.align	2
 2215              	htim4:
 2216 0000 00000000 		.space	76
 2216      00000000 
 2216      00000000 
 2216      00000000 
 2216      00000000 
 2217              		.global	htim3
 2218              		.section	.bss.htim3,"aw",%nobits
 2219              		.align	2
ARM GAS  /tmp/cccIhoVk.s 			page 71


 2222              	htim3:
 2223 0000 00000000 		.space	76
 2223      00000000 
 2223      00000000 
 2223      00000000 
 2223      00000000 
 2224              		.global	htim2
 2225              		.section	.bss.htim2,"aw",%nobits
 2226              		.align	2
 2229              	htim2:
 2230 0000 00000000 		.space	76
 2230      00000000 
 2230      00000000 
 2230      00000000 
 2230      00000000 
 2231              		.global	hspi1
 2232              		.section	.bss.hspi1,"aw",%nobits
 2233              		.align	2
 2236              	hspi1:
 2237 0000 00000000 		.space	136
 2237      00000000 
 2237      00000000 
 2237      00000000 
 2237      00000000 
 2238              		.global	hospi1
 2239              		.section	.bss.hospi1,"aw",%nobits
 2240              		.align	2
 2243              	hospi1:
 2244 0000 00000000 		.space	92
 2244      00000000 
 2244      00000000 
 2244      00000000 
 2244      00000000 
 2245              		.global	hadc3
 2246              		.section	.bss.hadc3,"aw",%nobits
 2247              		.align	2
 2250              	hadc3:
 2251 0000 00000000 		.space	112
 2251      00000000 
 2251      00000000 
 2251      00000000 
 2251      00000000 
 2252              		.global	hadc2
 2253              		.section	.bss.hadc2,"aw",%nobits
 2254              		.align	2
 2257              	hadc2:
 2258 0000 00000000 		.space	112
 2258      00000000 
 2258      00000000 
 2258      00000000 
 2258      00000000 
 2259              		.global	hadc1
 2260              		.section	.bss.hadc1,"aw",%nobits
 2261              		.align	2
 2264              	hadc1:
 2265 0000 00000000 		.space	112
 2265      00000000 
ARM GAS  /tmp/cccIhoVk.s 			page 72


 2265      00000000 
 2265      00000000 
 2265      00000000 
 2266              		.text
 2267              	.Letext0:
 2268              		.file 3 "/nix/store/lcj4nx7xv8c36cif7armkfa7b5cmfh74-gcc-arm-embedded-12.3.rel1/arm-none-eabi/incl
 2269              		.file 4 "/nix/store/lcj4nx7xv8c36cif7armkfa7b5cmfh74-gcc-arm-embedded-12.3.rel1/arm-none-eabi/incl
 2270              		.file 5 "Drivers/CMSIS/Device/ST/STM32H7xx/Include/stm32h725xx.h"
 2271              		.file 6 "Drivers/CMSIS/Device/ST/STM32H7xx/Include/stm32h7xx.h"
 2272              		.file 7 "Drivers/STM32H7xx_HAL_Driver/Inc/stm32h7xx_hal_def.h"
 2273              		.file 8 "Drivers/STM32H7xx_HAL_Driver/Inc/stm32h7xx_hal_rcc.h"
 2274              		.file 9 "Drivers/STM32H7xx_HAL_Driver/Inc/stm32h7xx_hal_rcc_ex.h"
 2275              		.file 10 "Drivers/STM32H7xx_HAL_Driver/Inc/stm32h7xx_hal_gpio.h"
 2276              		.file 11 "Drivers/STM32H7xx_HAL_Driver/Inc/stm32h7xx_hal_dma.h"
 2277              		.file 12 "Drivers/STM32H7xx_HAL_Driver/Inc/stm32h7xx_hal_mdma.h"
 2278              		.file 13 "Drivers/STM32H7xx_HAL_Driver/Inc/stm32h7xx_hal_adc.h"
 2279              		.file 14 "Drivers/STM32H7xx_HAL_Driver/Inc/stm32h7xx_hal_adc_ex.h"
 2280              		.file 15 "Drivers/STM32H7xx_HAL_Driver/Inc/stm32h7xx_hal_ospi.h"
 2281              		.file 16 "Drivers/STM32H7xx_HAL_Driver/Inc/stm32h7xx_hal_spi.h"
 2282              		.file 17 "Drivers/STM32H7xx_HAL_Driver/Inc/stm32h7xx_hal_tim.h"
 2283              		.file 18 "Drivers/STM32H7xx_HAL_Driver/Inc/stm32h7xx_hal_uart.h"
 2284              		.file 19 "../Core/Include/servo.h"
 2285              		.file 20 "../Core/Include/adc.h"
 2286              		.file 21 "Core/Inc/port_config.h"
 2287              		.file 22 "../Core/Include/globals.h"
 2288              		.file 23 "Drivers/STM32H7xx_HAL_Driver/Inc/stm32h7xx_hal_pwr_ex.h"
 2289              		.file 24 "Drivers/STM32H7xx_HAL_Driver/Inc/stm32h7xx_hal_tim_ex.h"
 2290              		.file 25 "Drivers/STM32H7xx_HAL_Driver/Inc/stm32h7xx_hal_uart_ex.h"
 2291              		.file 26 "Core/Inc/main.h"
 2292              		.file 27 "Drivers/STM32H7xx_HAL_Driver/Inc/stm32h7xx_hal.h"
 2293              		.file 28 "../Core/Include/port_layer.h"
 2294              		.file 29 "FATFS/App/fatfs.h"
 2295              		.file 30 "<built-in>"
ARM GAS  /tmp/cccIhoVk.s 			page 73

