ARM GAS  /tmp/cceviGhJ.s 			page 1


   1              		.cpu cortex-m7
   2              		.arch armv7e-m
   3              		.fpu fpv5-d16
   4              		.eabi_attribute 28, 1
   5              		.eabi_attribute 20, 1
   6              		.eabi_attribute 21, 1
   7              		.eabi_attribute 23, 3
   8              		.eabi_attribute 24, 1
   9              		.eabi_attribute 25, 1
  10              		.eabi_attribute 26, 1
  11              		.eabi_attribute 30, 1
  12              		.eabi_attribute 34, 1
  13              		.eabi_attribute 18, 4
  14              		.file	"packet_encode.c"
  15              		.text
  16              	.Ltext0:
  17              		.cfi_sections	.debug_frame
  18              		.file 1 "../Core/Src/packet_encode.c"
  19              		.section	.text.cobs_encode,"ax",%progbits
  20              		.align	1
  21              		.global	cobs_encode
  22              		.syntax unified
  23              		.thumb
  24              		.thumb_func
  26              	cobs_encode:
  27              	.LVL0:
  28              	.LFB3:
   1:../Core/Src/packet_encode.c **** #include <stdint.h>
   2:../Core/Src/packet_encode.c **** #include <stdbool.h>
   3:../Core/Src/packet_encode.c **** #include <stddef.h>
   4:../Core/Src/packet_encode.c **** #include <string.h>
   5:../Core/Src/packet_encode.c **** #include <stdio.h>
   6:../Core/Src/packet_encode.c **** 
   7:../Core/Src/packet_encode.c **** #include "crc_hash.h"
   8:../Core/Src/packet_encode.c **** 
   9:../Core/Src/packet_encode.c **** /**
  10:../Core/Src/packet_encode.c ****  * Iterates through the inputted array and replaces all zeroes.
  11:../Core/Src/packet_encode.c ****  * Note that the first element in this array will be the COBS byte and will always be overwritten.
  12:../Core/Src/packet_encode.c ****  * 
  13:../Core/Src/packet_encode.c ****  * @param data_to_encode    the array of data to encode, including the initial COBS byte (will be m
  14:../Core/Src/packet_encode.c ****  * @param data_size         length of the array (including the first COBS byte)
  15:../Core/Src/packet_encode.c ****  * 
  16:../Core/Src/packet_encode.c ****  * It is guaranteed that the last replaced 0 will point to one after the end of the array
  17:../Core/Src/packet_encode.c ****  * @return the index of the last modified byte.
  18:../Core/Src/packet_encode.c ****  */
  19:../Core/Src/packet_encode.c **** int cobs_encode(uint8_t *data_to_encode, const uint8_t data_size) {
  29              		.loc 1 19 67 view -0
  30              		.cfi_startproc
  31              		@ args = 0, pretend = 0, frame = 0
  32              		@ frame_needed = 0, uses_anonymous_args = 0
  20:../Core/Src/packet_encode.c ****     if (data_size == 0) return 0;
  33              		.loc 1 20 5 view .LVU1
  34              		.loc 1 20 8 is_stmt 0 view .LVU2
  35 0000 29B1     		cbz	r1, .L6
  36 0002 0246     		mov	r2, r0
  37 0004 8C46     		mov	ip, r1
  21:../Core/Src/packet_encode.c ****     int last_stuffed_byte = 0;
ARM GAS  /tmp/cceviGhJ.s 			page 2


  38              		.loc 1 21 5 is_stmt 1 view .LVU3
  39              	.LVL1:
  22:../Core/Src/packet_encode.c ****     data_to_encode[0] = data_size;
  40              		.loc 1 22 5 view .LVU4
  41              		.loc 1 22 23 is_stmt 0 view .LVU5
  42 0006 0170     		strb	r1, [r0]
  23:../Core/Src/packet_encode.c **** 
  24:../Core/Src/packet_encode.c ****     for (int i = 1; i < data_size; i++) {
  43              		.loc 1 24 5 is_stmt 1 view .LVU6
  44              	.LBB2:
  45              		.loc 1 24 10 view .LVU7
  46              	.LVL2:
  47              		.loc 1 24 14 is_stmt 0 view .LVU8
  48 0008 0123     		movs	r3, #1
  49              	.LBE2:
  21:../Core/Src/packet_encode.c ****     data_to_encode[0] = data_size;
  50              		.loc 1 21 9 view .LVU9
  51 000a 0020     		movs	r0, #0
  52              	.LVL3:
  53              	.LBB3:
  54              		.loc 1 24 5 view .LVU10
  55 000c 04E0     		b	.L8
  56              	.LVL4:
  57              	.L6:
  58              		.loc 1 24 5 view .LVU11
  59              	.LBE3:
  20:../Core/Src/packet_encode.c ****     int last_stuffed_byte = 0;
  60              		.loc 1 20 32 view .LVU12
  61 000e 0020     		movs	r0, #0
  62              	.LVL5:
  20:../Core/Src/packet_encode.c ****     int last_stuffed_byte = 0;
  63              		.loc 1 20 32 view .LVU13
  64 0010 7047     		bx	lr
  65              	.LVL6:
  66              	.L17:
  67              	.LCFI0:
  68              		.cfi_def_cfa_offset 4
  69              		.cfi_offset 14, -4
  25:../Core/Src/packet_encode.c ****         if (data_to_encode[i] == 0x00) { // Add to internal linked list
  26:../Core/Src/packet_encode.c ****             data_to_encode[last_stuffed_byte] = i - last_stuffed_byte;
  27:../Core/Src/packet_encode.c ****             last_stuffed_byte = i;
  28:../Core/Src/packet_encode.c ****             data_to_encode[i] = data_size - i;
  29:../Core/Src/packet_encode.c ****         }
  30:../Core/Src/packet_encode.c ****     }
  31:../Core/Src/packet_encode.c **** 
  32:../Core/Src/packet_encode.c ****     return last_stuffed_byte;
  33:../Core/Src/packet_encode.c **** }
  70              		.loc 1 33 1 view .LVU14
  71 0012 5DF804FB 		ldr	pc, [sp], #4
  72              	.LVL7:
  73              	.L16:
  74              	.LCFI1:
  75              		.cfi_def_cfa_offset 0
  76              		.cfi_restore 14
  77              	.LBB4:
  24:../Core/Src/packet_encode.c ****         if (data_to_encode[i] == 0x00) { // Add to internal linked list
  78              		.loc 1 24 37 is_stmt 1 view .LVU15
ARM GAS  /tmp/cceviGhJ.s 			page 3


  79 0016 0133     		adds	r3, r3, #1
  80              	.LVL8:
  81              	.L8:
  24:../Core/Src/packet_encode.c ****         if (data_to_encode[i] == 0x00) { // Add to internal linked list
  82              		.loc 1 24 23 view .LVU16
  83 0018 9C45     		cmp	ip, r3
  84 001a 13DD     		ble	.L15
  25:../Core/Src/packet_encode.c ****         if (data_to_encode[i] == 0x00) { // Add to internal linked list
  85              		.loc 1 25 9 view .LVU17
  25:../Core/Src/packet_encode.c ****         if (data_to_encode[i] == 0x00) { // Add to internal linked list
  86              		.loc 1 25 27 is_stmt 0 view .LVU18
  87 001c D15C     		ldrb	r1, [r2, r3]	@ zero_extendqisi2
  25:../Core/Src/packet_encode.c ****         if (data_to_encode[i] == 0x00) { // Add to internal linked list
  88              		.loc 1 25 12 view .LVU19
  89 001e 0029     		cmp	r1, #0
  90 0020 F9D1     		bne	.L16
  91              	.LBE4:
  19:../Core/Src/packet_encode.c ****     if (data_size == 0) return 0;
  92              		.loc 1 19 67 view .LVU20
  93 0022 00B5     		push	{lr}
  94              	.LCFI2:
  95              		.cfi_def_cfa_offset 4
  96              		.cfi_offset 14, -4
  97              	.LVL9:
  98              	.L9:
  99              	.LBB5:
  26:../Core/Src/packet_encode.c ****             last_stuffed_byte = i;
 100              		.loc 1 26 13 is_stmt 1 view .LVU21
  26:../Core/Src/packet_encode.c ****             last_stuffed_byte = i;
 101              		.loc 1 26 51 is_stmt 0 view .LVU22
 102 0024 D9B2     		uxtb	r1, r3
 103 0026 A1EB000E 		sub	lr, r1, r0
  26:../Core/Src/packet_encode.c ****             last_stuffed_byte = i;
 104              		.loc 1 26 47 view .LVU23
 105 002a 02F800E0 		strb	lr, [r2, r0]
  27:../Core/Src/packet_encode.c ****             data_to_encode[i] = data_size - i;
 106              		.loc 1 27 13 is_stmt 1 view .LVU24
 107              	.LVL10:
  28:../Core/Src/packet_encode.c ****         }
 108              		.loc 1 28 13 view .LVU25
  28:../Core/Src/packet_encode.c ****         }
 109              		.loc 1 28 43 is_stmt 0 view .LVU26
 110 002e ACEB0101 		sub	r1, ip, r1
  28:../Core/Src/packet_encode.c ****         }
 111              		.loc 1 28 31 view .LVU27
 112 0032 D154     		strb	r1, [r2, r3]
  27:../Core/Src/packet_encode.c ****             data_to_encode[i] = data_size - i;
 113              		.loc 1 27 31 view .LVU28
 114 0034 1846     		mov	r0, r3
 115              	.LVL11:
 116              	.L4:
  24:../Core/Src/packet_encode.c ****         if (data_to_encode[i] == 0x00) { // Add to internal linked list
 117              		.loc 1 24 37 is_stmt 1 discriminator 2 view .LVU29
 118 0036 0133     		adds	r3, r3, #1
 119              	.LVL12:
  24:../Core/Src/packet_encode.c ****         if (data_to_encode[i] == 0x00) { // Add to internal linked list
 120              		.loc 1 24 23 discriminator 2 view .LVU30
ARM GAS  /tmp/cceviGhJ.s 			page 4


 121 0038 9C45     		cmp	ip, r3
 122 003a EADD     		ble	.L17
  25:../Core/Src/packet_encode.c ****             data_to_encode[last_stuffed_byte] = i - last_stuffed_byte;
 123              		.loc 1 25 9 view .LVU31
  25:../Core/Src/packet_encode.c ****             data_to_encode[last_stuffed_byte] = i - last_stuffed_byte;
 124              		.loc 1 25 27 is_stmt 0 view .LVU32
 125 003c D15C     		ldrb	r1, [r2, r3]	@ zero_extendqisi2
  25:../Core/Src/packet_encode.c ****             data_to_encode[last_stuffed_byte] = i - last_stuffed_byte;
 126              		.loc 1 25 12 view .LVU33
 127 003e 0029     		cmp	r1, #0
 128 0040 F9D1     		bne	.L4
 129 0042 EFE7     		b	.L9
 130              	.LVL13:
 131              	.L15:
 132              	.LCFI3:
 133              		.cfi_def_cfa_offset 0
 134              		.cfi_restore 14
  25:../Core/Src/packet_encode.c ****             data_to_encode[last_stuffed_byte] = i - last_stuffed_byte;
 135              		.loc 1 25 12 view .LVU34
 136              	.LBE5:
 137              		.loc 1 33 1 view .LVU35
 138 0044 7047     		bx	lr
 139              		.cfi_endproc
 140              	.LFE3:
 142              		.section	.text.generate_packet,"ax",%progbits
 143              		.align	1
 144              		.global	generate_packet
 145              		.syntax unified
 146              		.thumb
 147              		.thumb_func
 149              	generate_packet:
 150              	.LVL14:
 151              	.LFB4:
  34:../Core/Src/packet_encode.c **** 
  35:../Core/Src/packet_encode.c **** /** 
  36:../Core/Src/packet_encode.c ****  * Takes any raw data (up to 252 bytes), and converts into a packet (complete with byte stuffing an
  37:../Core/Src/packet_encode.c ****  * Packet format: 0x00 [messageID - 1 byte] [COBS] [payload size - 1 byte] [payload] [checksum(CRC-
  38:../Core/Src/packet_encode.c ****  * 
  39:../Core/Src/packet_encode.c ****  * @param rawData           the raw payload data as an array of uint8_t
  40:../Core/Src/packet_encode.c ****  * @param packetizedData    a pointer to a uint8_t array where the generated packet should be store
  41:../Core/Src/packet_encode.c ****  * @param dataSize          the length of the raw data in bytes
  42:../Core/Src/packet_encode.c ****  * @param messageID         a one-byte message id that should be associated with this data (must no
  43:../Core/Src/packet_encode.c ****  * @return                  The length of the packetized data in bytes
  44:../Core/Src/packet_encode.c ****  * 
  45:../Core/Src/packet_encode.c ****  * packetizedData should be at least 5 bytes longer then the rawData.
  46:../Core/Src/packet_encode.c ****  */
  47:../Core/Src/packet_encode.c **** int generate_packet(const uint8_t *rawData, const uint8_t dataSize, uint8_t *packetizedData, const 
 152              		.loc 1 47 119 is_stmt 1 view -0
 153              		.cfi_startproc
 154              		@ args = 0, pretend = 0, frame = 0
 155              		@ frame_needed = 0, uses_anonymous_args = 0
 156              		.loc 1 47 119 is_stmt 0 view .LVU37
 157 0000 70B5     		push	{r4, r5, r6, lr}
 158              	.LCFI4:
 159              		.cfi_def_cfa_offset 16
 160              		.cfi_offset 4, -16
 161              		.cfi_offset 5, -12
ARM GAS  /tmp/cceviGhJ.s 			page 5


 162              		.cfi_offset 6, -8
 163              		.cfi_offset 14, -4
 164 0002 0D46     		mov	r5, r1
 165 0004 1446     		mov	r4, r2
  48:../Core/Src/packet_encode.c ****     packetizedData[0] = 0x00;                               // Byte 1: 0x00
 166              		.loc 1 48 5 is_stmt 1 view .LVU38
 167              		.loc 1 48 23 is_stmt 0 view .LVU39
 168 0006 0022     		movs	r2, #0
 169              	.LVL15:
 170              		.loc 1 48 23 view .LVU40
 171 0008 2270     		strb	r2, [r4]
  49:../Core/Src/packet_encode.c ****     packetizedData[1] = messageID;                          // Byte 2: message id
 172              		.loc 1 49 5 is_stmt 1 view .LVU41
 173              		.loc 1 49 23 is_stmt 0 view .LVU42
 174 000a 6370     		strb	r3, [r4, #1]
  50:../Core/Src/packet_encode.c ****     packetizedData[3] = dataSize;                           // Byte 4: payload size (skip one for t
 175              		.loc 1 50 5 is_stmt 1 view .LVU43
 176              		.loc 1 50 23 is_stmt 0 view .LVU44
 177 000c E170     		strb	r1, [r4, #3]
  51:../Core/Src/packet_encode.c ****     memcpy(packetizedData+4, rawData, dataSize);            // Copy payload starting at byte 5
 178              		.loc 1 51 5 is_stmt 1 view .LVU45
 179 000e 0A46     		mov	r2, r1
 180 0010 0146     		mov	r1, r0
 181              	.LVL16:
 182              		.loc 1 51 5 is_stmt 0 view .LVU46
 183 0012 201D     		adds	r0, r4, #4
 184              	.LVL17:
 185              		.loc 1 51 5 view .LVU47
 186 0014 FFF7FEFF 		bl	memcpy
 187              	.LVL18:
  52:../Core/Src/packet_encode.c ****     int cobs_overwrite_index = cobs_encode(packetizedData + 2, dataSize + 2);  // Apply COBS encodi
 188              		.loc 1 52 5 is_stmt 1 view .LVU48
 189              		.loc 1 52 32 is_stmt 0 view .LVU49
 190 0018 A91C     		adds	r1, r5, #2
 191 001a C9B2     		uxtb	r1, r1
 192 001c A01C     		adds	r0, r4, #2
 193 001e FFF7FEFF 		bl	cobs_encode
 194              	.LVL19:
 195 0022 0646     		mov	r6, r0
 196              	.LVL20:
  53:../Core/Src/packet_encode.c **** 
  54:../Core/Src/packet_encode.c ****     // Calculate the CRC-8 checksum
  55:../Core/Src/packet_encode.c ****     uint8_t crc = calculate_crc8_hash(packetizedData, dataSize + 4);
 197              		.loc 1 55 5 is_stmt 1 view .LVU50
 198              		.loc 1 55 19 is_stmt 0 view .LVU51
 199 0024 291D     		adds	r1, r5, #4
 200 0026 2046     		mov	r0, r4
 201              	.LVL21:
 202              		.loc 1 55 19 view .LVU52
 203 0028 FFF7FEFF 		bl	calculate_crc8_hash
 204              	.LVL22:
  56:../Core/Src/packet_encode.c ****                                                    
  57:../Core/Src/packet_encode.c ****     if (crc == 0x00) {                                      // Byte dataSize+4: checksum
 205              		.loc 1 57 5 is_stmt 1 view .LVU53
 206              		.loc 1 57 8 is_stmt 0 view .LVU54
 207 002c 20B9     		cbnz	r0, .L19
  58:../Core/Src/packet_encode.c ****         packetizedData[dataSize + 4] = 1;
ARM GAS  /tmp/cceviGhJ.s 			page 6


 208              		.loc 1 58 9 is_stmt 1 view .LVU55
 209              		.loc 1 58 23 is_stmt 0 view .LVU56
 210 002e 2B1D     		adds	r3, r5, #4
 211              		.loc 1 58 38 view .LVU57
 212 0030 0122     		movs	r2, #1
 213 0032 E254     		strb	r2, [r4, r3]
 214              	.LVL23:
 215              	.L20:
  59:../Core/Src/packet_encode.c ****     } else {
  60:../Core/Src/packet_encode.c ****         packetizedData[dataSize + 4] = crc;
  61:../Core/Src/packet_encode.c ****         packetizedData[cobs_overwrite_index + 2]++; // cobs encoding automatically assumed that crc
  62:../Core/Src/packet_encode.c ****                                                     // incrementing the last jump by one
  63:../Core/Src/packet_encode.c ****     }
  64:../Core/Src/packet_encode.c **** 
  65:../Core/Src/packet_encode.c ****     return dataSize + 5;
 216              		.loc 1 65 5 is_stmt 1 view .LVU58
  66:../Core/Src/packet_encode.c **** }
 217              		.loc 1 66 1 is_stmt 0 view .LVU59
 218 0034 681D     		adds	r0, r5, #5
 219 0036 70BD     		pop	{r4, r5, r6, pc}
 220              	.LVL24:
 221              	.L19:
  60:../Core/Src/packet_encode.c ****         packetizedData[cobs_overwrite_index + 2]++; // cobs encoding automatically assumed that crc
 222              		.loc 1 60 9 is_stmt 1 view .LVU60
  60:../Core/Src/packet_encode.c ****         packetizedData[cobs_overwrite_index + 2]++; // cobs encoding automatically assumed that crc
 223              		.loc 1 60 23 is_stmt 0 view .LVU61
 224 0038 2A1D     		adds	r2, r5, #4
  60:../Core/Src/packet_encode.c ****         packetizedData[cobs_overwrite_index + 2]++; // cobs encoding automatically assumed that crc
 225              		.loc 1 60 38 view .LVU62
 226 003a A054     		strb	r0, [r4, r2]
  61:../Core/Src/packet_encode.c ****                                                     // incrementing the last jump by one
 227              		.loc 1 61 9 is_stmt 1 view .LVU63
  61:../Core/Src/packet_encode.c ****                                                     // incrementing the last jump by one
 228              		.loc 1 61 23 is_stmt 0 view .LVU64
 229 003c B01C     		adds	r0, r6, #2
 230              	.LVL25:
  61:../Core/Src/packet_encode.c ****                                                     // incrementing the last jump by one
 231              		.loc 1 61 23 view .LVU65
 232 003e 235C     		ldrb	r3, [r4, r0]	@ zero_extendqisi2
  61:../Core/Src/packet_encode.c ****                                                     // incrementing the last jump by one
 233              		.loc 1 61 49 view .LVU66
 234 0040 0133     		adds	r3, r3, #1
 235 0042 2354     		strb	r3, [r4, r0]
 236              	.LVL26:
  61:../Core/Src/packet_encode.c ****                                                     // incrementing the last jump by one
 237              		.loc 1 61 49 view .LVU67
 238 0044 F6E7     		b	.L20
 239              		.cfi_endproc
 240              	.LFE4:
 242              		.section	.text.verify_packet,"ax",%progbits
 243              		.align	1
 244              		.global	verify_packet
 245              		.syntax unified
 246              		.thumb
 247              		.thumb_func
 249              	verify_packet:
 250              	.LVL27:
ARM GAS  /tmp/cceviGhJ.s 			page 7


 251              	.LFB5:
  67:../Core/Src/packet_encode.c **** 
  68:../Core/Src/packet_encode.c **** 
  69:../Core/Src/packet_encode.c **** /** 
  70:../Core/Src/packet_encode.c ****  * Returns true if the crc hash for this packet matches the data. The five overhead bytes should be
  71:../Core/Src/packet_encode.c ****  * This method may modify the final byte in the packet (the crc hash)
  72:../Core/Src/packet_encode.c ****  * 
  73:../Core/Src/packet_encode.c ****  * @param rawData   the packet to verify
  74:../Core/Src/packet_encode.c ****  * @param dataSize  the size of the packet (including the five overhead bytes)
  75:../Core/Src/packet_encode.c ****  * 
  76:../Core/Src/packet_encode.c ****  * @return true if the packet could be verified, and false otherwise
  77:../Core/Src/packet_encode.c ****  * 
  78:../Core/Src/packet_encode.c ****  * THE LEADING 0 BYTE SHOULD BE INCLUDED IN THE DATA
  79:../Core/Src/packet_encode.c ****  */
  80:../Core/Src/packet_encode.c **** bool verify_packet(uint8_t *rawData, const size_t dataSize) {
 252              		.loc 1 80 61 is_stmt 1 view -0
 253              		.cfi_startproc
 254              		@ args = 0, pretend = 0, frame = 0
 255              		@ frame_needed = 0, uses_anonymous_args = 0
  81:../Core/Src/packet_encode.c ****     if (dataSize < 5) return false;
 256              		.loc 1 81 5 view .LVU69
 257              		.loc 1 81 8 is_stmt 0 view .LVU70
 258 0000 0429     		cmp	r1, #4
 259 0002 1AD9     		bls	.L29
  80:../Core/Src/packet_encode.c ****     if (dataSize < 5) return false;
 260              		.loc 1 80 61 view .LVU71
 261 0004 08B5     		push	{r3, lr}
 262              	.LCFI5:
 263              		.cfi_def_cfa_offset 8
 264              		.cfi_offset 3, -8
 265              		.cfi_offset 14, -4
  82:../Core/Src/packet_encode.c ****     // First either de-stuff the crc_hash byte if needed or move back the last cobs pointer
  83:../Core/Src/packet_encode.c **** 
  84:../Core/Src/packet_encode.c ****     if (rawData[0] != 0) return false; // Leading byte was not 0.
 266              		.loc 1 84 5 is_stmt 1 view .LVU72
 267              		.loc 1 84 16 is_stmt 0 view .LVU73
 268 0006 0378     		ldrb	r3, [r0]	@ zero_extendqisi2
 269              		.loc 1 84 8 view .LVU74
 270 0008 CBB9     		cbnz	r3, .L30
  85:../Core/Src/packet_encode.c ****     
  86:../Core/Src/packet_encode.c ****     size_t next_cobs_byte = 2;
 271              		.loc 1 86 12 view .LVU75
 272 000a 0223     		movs	r3, #2
 273              	.L24:
 274              	.LVL28:
  87:../Core/Src/packet_encode.c ****     while (next_cobs_byte < dataSize) {
 275              		.loc 1 87 27 is_stmt 1 view .LVU76
 276 000c 8B42     		cmp	r3, r1
 277 000e 11D2     		bcs	.L26
 278              	.LBB6:
  88:../Core/Src/packet_encode.c ****         size_t increment = rawData[next_cobs_byte];
 279              		.loc 1 88 9 view .LVU77
 280              		.loc 1 88 35 is_stmt 0 view .LVU78
 281 0010 00EB030E 		add	lr, r0, r3
 282 0014 C25C     		ldrb	r2, [r0, r3]	@ zero_extendqisi2
 283              	.LVL29:
  89:../Core/Src/packet_encode.c ****         if (increment == 0) return false; // Avoid infinite loops
ARM GAS  /tmp/cceviGhJ.s 			page 8


 284              		.loc 1 89 9 is_stmt 1 view .LVU79
 285              		.loc 1 89 12 is_stmt 0 view .LVU80
 286 0016 A2B1     		cbz	r2, .L31
  90:../Core/Src/packet_encode.c ****         else if (next_cobs_byte + increment == dataSize - 1) {
 287              		.loc 1 90 14 is_stmt 1 view .LVU81
 288              		.loc 1 90 33 is_stmt 0 view .LVU82
 289 0018 1344     		add	r3, r3, r2
 290              	.LVL30:
 291              		.loc 1 90 57 view .LVU83
 292 001a 01F1FF3C 		add	ip, r1, #-1
 293              		.loc 1 90 17 view .LVU84
 294 001e 6345     		cmp	r3, ip
 295 0020 05D0     		beq	.L36
  91:../Core/Src/packet_encode.c ****             rawData[dataSize-1] = 0;
  92:../Core/Src/packet_encode.c ****             break;
  93:../Core/Src/packet_encode.c ****         } else if (next_cobs_byte + increment >= dataSize) {
 296              		.loc 1 93 16 is_stmt 1 view .LVU85
 297              		.loc 1 93 19 is_stmt 0 view .LVU86
 298 0022 8B42     		cmp	r3, r1
 299 0024 F2D3     		bcc	.L24
  94:../Core/Src/packet_encode.c ****             rawData[next_cobs_byte]--;
 300              		.loc 1 94 13 is_stmt 1 view .LVU87
 301              		.loc 1 94 36 is_stmt 0 view .LVU88
 302 0026 013A     		subs	r2, r2, #1
 303              	.LVL31:
 304              		.loc 1 94 36 view .LVU89
 305 0028 8EF80020 		strb	r2, [lr]
 306 002c EEE7     		b	.L24
 307              	.LVL32:
 308              	.L36:
  91:../Core/Src/packet_encode.c ****             rawData[dataSize-1] = 0;
 309              		.loc 1 91 13 is_stmt 1 view .LVU90
  91:../Core/Src/packet_encode.c ****             rawData[dataSize-1] = 0;
 310              		.loc 1 91 33 is_stmt 0 view .LVU91
 311 002e 0023     		movs	r3, #0
 312 0030 00F80C30 		strb	r3, [r0, ip]
  92:../Core/Src/packet_encode.c ****         } else if (next_cobs_byte + increment >= dataSize) {
 313              		.loc 1 92 13 is_stmt 1 view .LVU92
 314              	.LVL33:
 315              	.L26:
  92:../Core/Src/packet_encode.c ****         } else if (next_cobs_byte + increment >= dataSize) {
 316              		.loc 1 92 13 is_stmt 0 view .LVU93
 317              	.LBE6:
  95:../Core/Src/packet_encode.c ****         }
  96:../Core/Src/packet_encode.c **** 
  97:../Core/Src/packet_encode.c ****         next_cobs_byte += increment;
  98:../Core/Src/packet_encode.c ****     } 
  99:../Core/Src/packet_encode.c **** 
 100:../Core/Src/packet_encode.c ****     return verify_crc8_hash(rawData, dataSize);
 318              		.loc 1 100 5 is_stmt 1 view .LVU94
 319              		.loc 1 100 12 is_stmt 0 view .LVU95
 320 0034 FFF7FEFF 		bl	verify_crc8_hash
 321              	.LVL34:
 322              	.L23:
 101:../Core/Src/packet_encode.c **** }
 323              		.loc 1 101 1 view .LVU96
 324 0038 08BD     		pop	{r3, pc}
ARM GAS  /tmp/cceviGhJ.s 			page 9


 325              	.LVL35:
 326              	.L29:
 327              	.LCFI6:
 328              		.cfi_def_cfa_offset 0
 329              		.cfi_restore 3
 330              		.cfi_restore 14
  81:../Core/Src/packet_encode.c ****     // First either de-stuff the crc_hash byte if needed or move back the last cobs pointer
 331              		.loc 1 81 30 view .LVU97
 332 003a 0020     		movs	r0, #0
 333              	.LVL36:
 334              		.loc 1 101 1 view .LVU98
 335 003c 7047     		bx	lr
 336              	.LVL37:
 337              	.L30:
 338              	.LCFI7:
 339              		.cfi_def_cfa_offset 8
 340              		.cfi_offset 3, -8
 341              		.cfi_offset 14, -4
  84:../Core/Src/packet_encode.c ****     
 342              		.loc 1 84 33 view .LVU99
 343 003e 0020     		movs	r0, #0
 344              	.LVL38:
  84:../Core/Src/packet_encode.c ****     
 345              		.loc 1 84 33 view .LVU100
 346 0040 FAE7     		b	.L23
 347              	.LVL39:
 348              	.L31:
 349              	.LBB7:
  89:../Core/Src/packet_encode.c ****         else if (next_cobs_byte + increment == dataSize - 1) {
 350              		.loc 1 89 36 view .LVU101
 351 0042 0020     		movs	r0, #0
 352              	.LVL40:
  89:../Core/Src/packet_encode.c ****         else if (next_cobs_byte + increment == dataSize - 1) {
 353              		.loc 1 89 36 view .LVU102
 354 0044 F8E7     		b	.L23
 355              	.LBE7:
 356              		.cfi_endproc
 357              	.LFE5:
 359              		.section	.text.extract_packet,"ax",%progbits
 360              		.align	1
 361              		.global	extract_packet
 362              		.syntax unified
 363              		.thumb
 364              		.thumb_func
 366              	extract_packet:
 367              	.LVL41:
 368              	.LFB6:
 102:../Core/Src/packet_encode.c **** 
 103:../Core/Src/packet_encode.c **** /** Extracts the stored data from a packet and copies it to the extractedData location 
 104:../Core/Src/packet_encode.c ****  * 
 105:../Core/Src/packet_encode.c ****  * This method assumes that the packet was verified. Please use verify_packet first.
 106:../Core/Src/packet_encode.c ****  * 
 107:../Core/Src/packet_encode.c ****  * @param rawData   the packet to extract
 108:../Core/Src/packet_encode.c ****  * @param dataSize  the size of the packet (including the 5 overhead bytes)
 109:../Core/Src/packet_encode.c ****  * @param extractedData the buffer where the extracted data should be stored
 110:../Core/Src/packet_encode.c ****  * 
 111:../Core/Src/packet_encode.c ****  * This method will store exactly dataSize-5 bytes in the extractedData buffer
ARM GAS  /tmp/cceviGhJ.s 			page 10


 112:../Core/Src/packet_encode.c ****  * 
 113:../Core/Src/packet_encode.c ****  * @return      the message id, or 0 if the message was corrupted
 114:../Core/Src/packet_encode.c ****  */
 115:../Core/Src/packet_encode.c **** uint8_t extract_packet(uint8_t *rawData, const size_t dataSize, uint8_t *extractedData) {
 369              		.loc 1 115 89 is_stmt 1 view -0
 370              		.cfi_startproc
 371              		@ args = 0, pretend = 0, frame = 0
 372              		@ frame_needed = 0, uses_anonymous_args = 0
 373              		.loc 1 115 89 is_stmt 0 view .LVU104
 374 0000 38B5     		push	{r3, r4, r5, lr}
 375              	.LCFI8:
 376              		.cfi_def_cfa_offset 16
 377              		.cfi_offset 3, -16
 378              		.cfi_offset 4, -12
 379              		.cfi_offset 5, -8
 380              		.cfi_offset 14, -4
 116:../Core/Src/packet_encode.c ****     if (dataSize < 5) return 0;
 381              		.loc 1 116 5 is_stmt 1 view .LVU105
 382              		.loc 1 116 8 is_stmt 0 view .LVU106
 383 0002 0429     		cmp	r1, #4
 384 0004 1AD9     		bls	.L41
 385 0006 8446     		mov	ip, r0
 386 0008 1046     		mov	r0, r2
 387              	.LVL42:
 117:../Core/Src/packet_encode.c **** 
 118:../Core/Src/packet_encode.c ****     uint8_t message_id = rawData[1];
 388              		.loc 1 118 5 is_stmt 1 view .LVU107
 389              		.loc 1 118 13 is_stmt 0 view .LVU108
 390 000a 9CF80150 		ldrb	r5, [ip, #1]	@ zero_extendqisi2
 391              	.LVL43:
 119:../Core/Src/packet_encode.c **** 
 120:../Core/Src/packet_encode.c ****     if (message_id == 0) return 0;
 392              		.loc 1 120 5 is_stmt 1 view .LVU109
 393              		.loc 1 120 8 is_stmt 0 view .LVU110
 394 000e B5B1     		cbz	r5, .L38
 121:../Core/Src/packet_encode.c **** 
 122:../Core/Src/packet_encode.c ****     // First de-stuff the packet
 123:../Core/Src/packet_encode.c ****     size_t next_cobs_byte = 2;
 395              		.loc 1 123 12 view .LVU111
 396 0010 0223     		movs	r3, #2
 397 0012 04E0     		b	.L39
 398              	.LVL44:
 399              	.L45:
 400              	.LBB8:
 124:../Core/Src/packet_encode.c ****     while (next_cobs_byte < dataSize - 1) {
 125:../Core/Src/packet_encode.c ****         uint8_t increment = rawData[next_cobs_byte];
 126:../Core/Src/packet_encode.c ****         if (increment == 0) return 0;
 127:../Core/Src/packet_encode.c ****         rawData[next_cobs_byte] = 0;
 401              		.loc 1 127 9 is_stmt 1 view .LVU112
 402              		.loc 1 127 33 is_stmt 0 view .LVU113
 403 0014 4FF0000E 		mov	lr, #0
 404 0018 0CF803E0 		strb	lr, [ip, r3]
 128:../Core/Src/packet_encode.c **** 
 129:../Core/Src/packet_encode.c ****         next_cobs_byte += increment;
 405              		.loc 1 129 9 is_stmt 1 view .LVU114
 406              		.loc 1 129 24 is_stmt 0 view .LVU115
 407 001c 2344     		add	r3, r3, r4
ARM GAS  /tmp/cceviGhJ.s 			page 11


 408              	.LVL45:
 409              	.L39:
 410              		.loc 1 129 24 view .LVU116
 411              	.LBE8:
 124:../Core/Src/packet_encode.c ****     while (next_cobs_byte < dataSize - 1) {
 412              		.loc 1 124 27 is_stmt 1 view .LVU117
 124:../Core/Src/packet_encode.c ****     while (next_cobs_byte < dataSize - 1) {
 413              		.loc 1 124 38 is_stmt 0 view .LVU118
 414 001e 4C1E     		subs	r4, r1, #1
 124:../Core/Src/packet_encode.c ****     while (next_cobs_byte < dataSize - 1) {
 415              		.loc 1 124 27 view .LVU119
 416 0020 9C42     		cmp	r4, r3
 417 0022 05D9     		bls	.L44
 418              	.LBB9:
 125:../Core/Src/packet_encode.c ****         if (increment == 0) return 0;
 419              		.loc 1 125 9 is_stmt 1 view .LVU120
 125:../Core/Src/packet_encode.c ****         if (increment == 0) return 0;
 420              		.loc 1 125 17 is_stmt 0 view .LVU121
 421 0024 1CF80340 		ldrb	r4, [ip, r3]	@ zero_extendqisi2
 422              	.LVL46:
 126:../Core/Src/packet_encode.c ****         rawData[next_cobs_byte] = 0;
 423              		.loc 1 126 9 is_stmt 1 view .LVU122
 126:../Core/Src/packet_encode.c ****         rawData[next_cobs_byte] = 0;
 424              		.loc 1 126 12 is_stmt 0 view .LVU123
 425 0028 002C     		cmp	r4, #0
 426 002a F3D1     		bne	.L45
 126:../Core/Src/packet_encode.c ****         rawData[next_cobs_byte] = 0;
 427              		.loc 1 126 36 view .LVU124
 428 002c 2546     		mov	r5, r4
 429              	.LVL47:
 126:../Core/Src/packet_encode.c ****         rawData[next_cobs_byte] = 0;
 430              		.loc 1 126 36 view .LVU125
 431 002e 06E0     		b	.L38
 432              	.LVL48:
 433              	.L44:
 126:../Core/Src/packet_encode.c ****         rawData[next_cobs_byte] = 0;
 434              		.loc 1 126 36 view .LVU126
 435              	.LBE9:
 130:../Core/Src/packet_encode.c ****     }  
 131:../Core/Src/packet_encode.c **** 
 132:../Core/Src/packet_encode.c ****     memcpy(extractedData, rawData + 4, dataSize - 5);
 436              		.loc 1 132 5 is_stmt 1 view .LVU127
 437 0030 4A1F     		subs	r2, r1, #5
 438              	.LVL49:
 439              		.loc 1 132 5 is_stmt 0 view .LVU128
 440 0032 0CF10401 		add	r1, ip, #4
 441              	.LVL50:
 442              		.loc 1 132 5 view .LVU129
 443 0036 FFF7FEFF 		bl	memcpy
 444              	.LVL51:
 133:../Core/Src/packet_encode.c **** 
 134:../Core/Src/packet_encode.c ****     return message_id;
 445              		.loc 1 134 5 is_stmt 1 view .LVU130
 446              		.loc 1 134 12 is_stmt 0 view .LVU131
 447 003a 00E0     		b	.L38
 448              	.LVL52:
 449              	.L41:
ARM GAS  /tmp/cceviGhJ.s 			page 12


 116:../Core/Src/packet_encode.c **** 
 450              		.loc 1 116 30 view .LVU132
 451 003c 0025     		movs	r5, #0
 452              	.LVL53:
 453              	.L38:
 135:../Core/Src/packet_encode.c **** }
 454              		.loc 1 135 1 view .LVU133
 455 003e 2846     		mov	r0, r5
 456 0040 38BD     		pop	{r3, r4, r5, pc}
 457              		.cfi_endproc
 458              	.LFE6:
 460              		.section	.text.process_incoming_byte,"ax",%progbits
 461              		.align	1
 462              		.global	process_incoming_byte
 463              		.syntax unified
 464              		.thumb
 465              		.thumb_func
 467              	process_incoming_byte:
 468              	.LVL54:
 469              	.LFB7:
 136:../Core/Src/packet_encode.c **** 
 137:../Core/Src/packet_encode.c **** int process_incoming_byte(const uint8_t inputted_byte, uint8_t *buffer, const int current_buffer_si
 470              		.loc 1 137 104 is_stmt 1 view -0
 471              		.cfi_startproc
 472              		@ args = 0, pretend = 0, frame = 0
 473              		@ frame_needed = 0, uses_anonymous_args = 0
 474              		@ link register save eliminated.
 138:../Core/Src/packet_encode.c ****     if (inputted_byte == 0) { // New message started
 475              		.loc 1 138 5 view .LVU135
 476              		.loc 1 138 8 is_stmt 0 view .LVU136
 477 0000 68B1     		cbz	r0, .L53
 139:../Core/Src/packet_encode.c ****         buffer[0] = 0;
 140:../Core/Src/packet_encode.c ****         return 1;
 141:../Core/Src/packet_encode.c ****     }
 142:../Core/Src/packet_encode.c **** 
 143:../Core/Src/packet_encode.c ****     if (current_buffer_size == 0)  // No currently active message
 478              		.loc 1 143 5 is_stmt 1 view .LVU137
 479              		.loc 1 143 8 is_stmt 0 view .LVU138
 480 0002 A2B1     		cbz	r2, .L51
 144:../Core/Src/packet_encode.c ****         return 0;
 145:../Core/Src/packet_encode.c ****     
 146:../Core/Src/packet_encode.c **** 
 147:../Core/Src/packet_encode.c ****     buffer[current_buffer_size] = inputted_byte;
 481              		.loc 1 147 5 is_stmt 1 view .LVU139
 482              		.loc 1 147 33 is_stmt 0 view .LVU140
 483 0004 8854     		strb	r0, [r1, r2]
 148:../Core/Src/packet_encode.c **** 
 149:../Core/Src/packet_encode.c ****     if (current_buffer_size >= 3) { // We know the size
 484              		.loc 1 149 5 is_stmt 1 view .LVU141
 485              		.loc 1 149 8 is_stmt 0 view .LVU142
 486 0006 022A     		cmp	r2, #2
 487 0008 07DD     		ble	.L49
 488              	.LBB10:
 150:../Core/Src/packet_encode.c ****         int msg_size = (buffer[2] == 1)?5:(buffer[3] + 5);
 489              		.loc 1 150 9 is_stmt 1 view .LVU143
 490              		.loc 1 150 31 is_stmt 0 view .LVU144
 491 000a 8B78     		ldrb	r3, [r1, #2]	@ zero_extendqisi2
ARM GAS  /tmp/cceviGhJ.s 			page 13


 492              		.loc 1 150 42 view .LVU145
 493 000c 012B     		cmp	r3, #1
 494 000e 0AD0     		beq	.L52
 495              		.loc 1 150 50 discriminator 1 view .LVU146
 496 0010 CB78     		ldrb	r3, [r1, #3]	@ zero_extendqisi2
 497              		.loc 1 150 42 discriminator 1 view .LVU147
 498 0012 0533     		adds	r3, r3, #5
 499              	.L50:
 500              	.LVL55:
 151:../Core/Src/packet_encode.c ****         if (current_buffer_size + 1 >= msg_size) {
 501              		.loc 1 151 9 is_stmt 1 discriminator 4 view .LVU148
 502              		.loc 1 151 33 is_stmt 0 discriminator 4 view .LVU149
 503 0014 511C     		adds	r1, r2, #1
 504              	.LVL56:
 505              		.loc 1 151 12 discriminator 4 view .LVU150
 506 0016 9942     		cmp	r1, r3
 507 0018 07DA     		bge	.L54
 508              	.LVL57:
 509              	.L49:
 510              		.loc 1 151 12 discriminator 4 view .LVU151
 511              	.LBE10:
 152:../Core/Src/packet_encode.c ****             return -msg_size;
 153:../Core/Src/packet_encode.c ****         }
 154:../Core/Src/packet_encode.c ****     }
 155:../Core/Src/packet_encode.c ****     
 156:../Core/Src/packet_encode.c ****     return current_buffer_size + 1;
 512              		.loc 1 156 5 is_stmt 1 view .LVU152
 513              		.loc 1 156 32 is_stmt 0 view .LVU153
 514 001a 501C     		adds	r0, r2, #1
 515              	.LVL58:
 516              		.loc 1 156 32 view .LVU154
 517 001c 7047     		bx	lr
 518              	.LVL59:
 519              	.L53:
 139:../Core/Src/packet_encode.c ****         return 1;
 520              		.loc 1 139 9 is_stmt 1 view .LVU155
 139:../Core/Src/packet_encode.c ****         return 1;
 521              		.loc 1 139 19 is_stmt 0 view .LVU156
 522 001e 0023     		movs	r3, #0
 523 0020 0B70     		strb	r3, [r1]
 140:../Core/Src/packet_encode.c ****     }
 524              		.loc 1 140 9 is_stmt 1 view .LVU157
 140:../Core/Src/packet_encode.c ****     }
 525              		.loc 1 140 16 is_stmt 0 view .LVU158
 526 0022 0120     		movs	r0, #1
 527              	.LVL60:
 140:../Core/Src/packet_encode.c ****     }
 528              		.loc 1 140 16 view .LVU159
 529 0024 7047     		bx	lr
 530              	.LVL61:
 531              	.L52:
 532              	.LBB11:
 150:../Core/Src/packet_encode.c ****         if (current_buffer_size + 1 >= msg_size) {
 533              		.loc 1 150 42 view .LVU160
 534 0026 0523     		movs	r3, #5
 535 0028 F4E7     		b	.L50
 536              	.LVL62:
ARM GAS  /tmp/cceviGhJ.s 			page 14


 537              	.L54:
 152:../Core/Src/packet_encode.c ****         }
 538              		.loc 1 152 13 is_stmt 1 view .LVU161
 152:../Core/Src/packet_encode.c ****         }
 539              		.loc 1 152 20 is_stmt 0 view .LVU162
 540 002a 5842     		rsbs	r0, r3, #0
 541              	.LVL63:
 152:../Core/Src/packet_encode.c ****         }
 542              		.loc 1 152 20 view .LVU163
 543 002c 7047     		bx	lr
 544              	.LVL64:
 545              	.L51:
 152:../Core/Src/packet_encode.c ****         }
 546              		.loc 1 152 20 view .LVU164
 547              	.LBE11:
 144:../Core/Src/packet_encode.c ****     
 548              		.loc 1 144 16 view .LVU165
 549 002e 1046     		mov	r0, r2
 550              	.LVL65:
 157:../Core/Src/packet_encode.c **** }...
 551              		.loc 1 157 1 view .LVU166
 552 0030 7047     		bx	lr
 553              		.cfi_endproc
 554              	.LFE7:
 556              		.text
 557              	.Letext0:
 558              		.file 2 "/nix/store/lcj4nx7xv8c36cif7armkfa7b5cmfh74-gcc-arm-embedded-12.3.rel1/arm-none-eabi/incl
 559              		.file 3 "/nix/store/lcj4nx7xv8c36cif7armkfa7b5cmfh74-gcc-arm-embedded-12.3.rel1/arm-none-eabi/incl
 560              		.file 4 "/nix/store/lcj4nx7xv8c36cif7armkfa7b5cmfh74-gcc-arm-embedded-12.3.rel1/lib/gcc/arm-none-e
 561              		.file 5 "../Core/Include/crc_hash.h"
 562              		.file 6 "/nix/store/lcj4nx7xv8c36cif7armkfa7b5cmfh74-gcc-arm-embedded-12.3.rel1/arm-none-eabi/incl
 563              		.file 7 "<built-in>"
ARM GAS  /tmp/cceviGhJ.s 			page 15

