ARM GAS  /tmp/ccGFnZhE.s 			page 1


   1              		.cpu cortex-m7
   2              		.arch armv7e-m
   3              		.fpu fpv5-d16
   4              		.eabi_attribute 28, 1
   5              		.eabi_attribute 20, 1
   6              		.eabi_attribute 21, 1
   7              		.eabi_attribute 23, 3
   8              		.eabi_attribute 24, 1
   9              		.eabi_attribute 25, 1
  10              		.eabi_attribute 26, 1
  11              		.eabi_attribute 30, 1
  12              		.eabi_attribute 34, 1
  13              		.eabi_attribute 18, 4
  14              		.file	"periph_io.c"
  15              		.text
  16              	.Ltext0:
  17              		.cfi_sections	.debug_frame
  18              		.file 1 "../Core/Src/periph_io.c"
  19              		.section	.rodata.io_init.str1.4,"aMS",%progbits,1
  20              		.align	2
  21              	.LC0:
  22 0000 496E6974 		.ascii	"Initializing IO devices...\015\012\000"
  22      69616C69 
  22      7A696E67 
  22      20494F20 
  22      64657669 
  23 001d 000000   		.align	2
  24              	.LC1:
  25 0020 2F00     		.ascii	"/\000"
  26 0022 0000     		.align	2
  27              	.LC2:
  28 0024 4D6F756E 		.ascii	"Mounted SD card\015\012\000"
  28      74656420 
  28      53442063 
  28      6172640D 
  28      0A00
  29 0036 0000     		.align	2
  30              	.LC3:
  31 0038 4661696C 		.ascii	"Failed to mount SD card: %d\015\012\000"
  31      65642074 
  31      6F206D6F 
  31      756E7420 
  31      53442063 
  32 0056 0000     		.align	2
  33              	.LC4:
  34 0058 496E6974 		.ascii	"Initialized flash chip\015\012\000"
  34      69616C69 
  34      7A656420 
  34      666C6173 
  34      68206368 
  35 0071 000000   		.align	2
  36              	.LC5:
  37 0074 4661696C 		.ascii	"Failed to initialize flash chip\015\012\000"
  37      65642074 
  37      6F20696E 
  37      69746961 
  37      6C697A65 
ARM GAS  /tmp/ccGFnZhE.s 			page 2


  38              		.section	.text.io_init,"ax",%progbits
  39              		.align	1
  40              		.global	io_init
  41              		.syntax unified
  42              		.thumb
  43              		.thumb_func
  45              	io_init:
  46              	.LFB398:
   1:../Core/Src/periph_io.c **** #include "periph_io.h"
   2:../Core/Src/periph_io.c **** 
   3:../Core/Src/periph_io.c **** #include "FreeRTOS.h"
   4:../Core/Src/periph_io.c **** #include "stream_buffer.h"
   5:../Core/Src/periph_io.c **** #include "task.h"
   6:../Core/Src/periph_io.c **** 
   7:../Core/Src/periph_io.c **** #include "main.h"
   8:../Core/Src/periph_io.c **** #include "ff.h"
   9:../Core/Src/periph_io.c **** 
  10:../Core/Src/periph_io.c **** #include "globals.h"
  11:../Core/Src/periph_io.c **** #include "w25q.h"
  12:../Core/Src/periph_io.c **** 
  13:../Core/Src/periph_io.c **** /* Size of flash chip in software emulation */
  14:../Core/Src/periph_io.c **** #define SW_FLASH_CHIP_SIZE (8 * EXT_FLASH_SECTOR_SIZE)
  15:../Core/Src/periph_io.c **** 
  16:../Core/Src/periph_io.c **** /* Buffer for software emulation of flash chip */
  17:../Core/Src/periph_io.c **** #ifndef USE_HW_FLASH_CHIP
  18:../Core/Src/periph_io.c **** uint8_t _fake_flash_chip[SW_FLASH_CHIP_SIZE];
  19:../Core/Src/periph_io.c **** uint8_t *fake_flash_chip = _fake_flash_chip;
  20:../Core/Src/periph_io.c **** #endif
  21:../Core/Src/periph_io.c **** 
  22:../Core/Src/periph_io.c **** uint8_t sd_mounted = 0;
  23:../Core/Src/periph_io.c **** uint8_t flash_init = 0;
  24:../Core/Src/periph_io.c **** 
  25:../Core/Src/periph_io.c **** struct w25q_device flash_chip;
  26:../Core/Src/periph_io.c **** FATFS fs;
  27:../Core/Src/periph_io.c **** 
  28:../Core/Src/periph_io.c **** int io_init(void) {
  47              		.loc 1 28 19 view -0
  48              		.cfi_startproc
  49              		@ args = 0, pretend = 0, frame = 104
  50              		@ frame_needed = 0, uses_anonymous_args = 0
  51 0000 00B5     		push	{lr}
  52              	.LCFI0:
  53              		.cfi_def_cfa_offset 4
  54              		.cfi_offset 14, -4
  55 0002 9BB0     		sub	sp, sp, #108
  56              	.LCFI1:
  57              		.cfi_def_cfa_offset 112
  29:../Core/Src/periph_io.c ****     HAL_UART_Transmit(&debug_uart, (uint8_t *) "Initializing IO devices...\r\n", 28, HAL_MAX_DELAY)
  58              		.loc 1 29 5 view .LVU1
  59 0004 4FF0FF33 		mov	r3, #-1
  60 0008 1C22     		movs	r2, #28
  61 000a 2749     		ldr	r1, .L10
  62 000c 2748     		ldr	r0, .L10+4
  63 000e FFF7FEFF 		bl	HAL_UART_Transmit
  64              	.LVL0:
  30:../Core/Src/periph_io.c ****     int sd_status = f_mount(&fs, "/", 1);
  65              		.loc 1 30 5 view .LVU2
ARM GAS  /tmp/ccGFnZhE.s 			page 3


  66              		.loc 1 30 21 is_stmt 0 view .LVU3
  67 0012 0122     		movs	r2, #1
  68 0014 2649     		ldr	r1, .L10+8
  69 0016 2748     		ldr	r0, .L10+12
  70 0018 FFF7FEFF 		bl	f_mount
  71              	.LVL1:
  31:../Core/Src/periph_io.c ****     if (sd_status == FR_OK) {
  72              		.loc 1 31 5 is_stmt 1 view .LVU4
  73              		.loc 1 31 8 is_stmt 0 view .LVU5
  74 001c F8B9     		cbnz	r0, .L2
  32:../Core/Src/periph_io.c ****         HAL_UART_Transmit(&debug_uart, (uint8_t *) "Mounted SD card\r\n", 17, HAL_MAX_DELAY);
  75              		.loc 1 32 9 is_stmt 1 view .LVU6
  76 001e 4FF0FF33 		mov	r3, #-1
  77 0022 1122     		movs	r2, #17
  78 0024 2449     		ldr	r1, .L10+16
  79 0026 2148     		ldr	r0, .L10+4
  80              	.LVL2:
  81              		.loc 1 32 9 is_stmt 0 view .LVU7
  82 0028 FFF7FEFF 		bl	HAL_UART_Transmit
  83              	.LVL3:
  33:../Core/Src/periph_io.c ****         sd_mounted = 1;
  84              		.loc 1 33 9 is_stmt 1 view .LVU8
  85              		.loc 1 33 20 is_stmt 0 view .LVU9
  86 002c 234B     		ldr	r3, .L10+20
  87 002e 0122     		movs	r2, #1
  88 0030 1A70     		strb	r2, [r3]
  89              	.L3:
  34:../Core/Src/periph_io.c ****     } else {
  35:../Core/Src/periph_io.c ****         char buf[100];
  36:../Core/Src/periph_io.c ****         sprintf(buf, "Failed to mount SD card: %d\r\n", sd_status);
  37:../Core/Src/periph_io.c ****         HAL_UART_Transmit(&debug_uart, (uint8_t *) buf, strlen(buf), HAL_MAX_DELAY);
  38:../Core/Src/periph_io.c ****         sd_mounted = 0;
  39:../Core/Src/periph_io.c ****     }
  40:../Core/Src/periph_io.c **** 
  41:../Core/Src/periph_io.c **** #ifdef MCU_H725ZGT6
  42:../Core/Src/periph_io.c ****     if (w25q_init(&flash_chip) == W25Q_ERR_OK) {
  90              		.loc 1 42 5 is_stmt 1 view .LVU10
  91              		.loc 1 42 9 is_stmt 0 view .LVU11
  92 0032 2348     		ldr	r0, .L10+24
  93 0034 FFF7FEFF 		bl	w25q_init
  94              	.LVL4:
  95              		.loc 1 42 8 view .LVU12
  96 0038 20BB     		cbnz	r0, .L4
  43:../Core/Src/periph_io.c ****         HAL_UART_Transmit(&debug_uart, (uint8_t *) "Initialized flash chip\r\n", 24, HAL_MAX_DELAY)
  97              		.loc 1 43 9 is_stmt 1 view .LVU13
  98 003a 4FF0FF33 		mov	r3, #-1
  99 003e 1822     		movs	r2, #24
 100 0040 2049     		ldr	r1, .L10+28
 101 0042 1A48     		ldr	r0, .L10+4
 102 0044 FFF7FEFF 		bl	HAL_UART_Transmit
 103              	.LVL5:
  44:../Core/Src/periph_io.c ****         flash_init = 1;
 104              		.loc 1 44 9 view .LVU14
 105              		.loc 1 44 20 is_stmt 0 view .LVU15
 106 0048 1F4B     		ldr	r3, .L10+32
 107 004a 0122     		movs	r2, #1
 108 004c 1A70     		strb	r2, [r3]
ARM GAS  /tmp/ccGFnZhE.s 			page 4


 109              	.L5:
  45:../Core/Src/periph_io.c ****     } else {
  46:../Core/Src/periph_io.c ****         HAL_UART_Transmit(&debug_uart, (uint8_t *) "Failed to initialize flash chip\r\n", 32, HAL_M
  47:../Core/Src/periph_io.c ****         flash_init = 0;
  48:../Core/Src/periph_io.c ****     }
  49:../Core/Src/periph_io.c **** #else
  50:../Core/Src/periph_io.c ****     flash_init = 1;
  51:../Core/Src/periph_io.c **** #endif
  52:../Core/Src/periph_io.c **** 
  53:../Core/Src/periph_io.c ****     return sd_mounted && flash_init;
 110              		.loc 1 53 5 is_stmt 1 view .LVU16
 111              		.loc 1 53 12 is_stmt 0 view .LVU17
 112 004e 1B4B     		ldr	r3, .L10+20
 113 0050 1B78     		ldrb	r3, [r3]	@ zero_extendqisi2
 114              		.loc 1 53 23 view .LVU18
 115 0052 13B3     		cbz	r3, .L7
 116              		.loc 1 53 23 discriminator 1 view .LVU19
 117 0054 1C4B     		ldr	r3, .L10+32
 118 0056 1B78     		ldrb	r3, [r3]	@ zero_extendqisi2
 119 0058 1BBB     		cbnz	r3, .L8
 120              		.loc 1 53 23 view .LVU20
 121 005a 0020     		movs	r0, #0
 122 005c 1EE0     		b	.L1
 123              	.LVL6:
 124              	.L2:
 125              		.loc 1 53 23 view .LVU21
 126 005e 0246     		mov	r2, r0
 127              	.LBB2:
  35:../Core/Src/periph_io.c ****         sprintf(buf, "Failed to mount SD card: %d\r\n", sd_status);
 128              		.loc 1 35 9 is_stmt 1 view .LVU22
  36:../Core/Src/periph_io.c ****         HAL_UART_Transmit(&debug_uart, (uint8_t *) buf, strlen(buf), HAL_MAX_DELAY);
 129              		.loc 1 36 9 view .LVU23
 130 0060 1A49     		ldr	r1, .L10+36
 131 0062 01A8     		add	r0, sp, #4
 132              	.LVL7:
  36:../Core/Src/periph_io.c ****         HAL_UART_Transmit(&debug_uart, (uint8_t *) buf, strlen(buf), HAL_MAX_DELAY);
 133              		.loc 1 36 9 is_stmt 0 view .LVU24
 134 0064 FFF7FEFF 		bl	sprintf
 135              	.LVL8:
  37:../Core/Src/periph_io.c ****         sd_mounted = 0;
 136              		.loc 1 37 9 is_stmt 1 view .LVU25
  37:../Core/Src/periph_io.c ****         sd_mounted = 0;
 137              		.loc 1 37 57 is_stmt 0 view .LVU26
 138 0068 01A8     		add	r0, sp, #4
 139 006a FFF7FEFF 		bl	strlen
 140              	.LVL9:
  37:../Core/Src/periph_io.c ****         sd_mounted = 0;
 141              		.loc 1 37 9 view .LVU27
 142 006e 4FF0FF33 		mov	r3, #-1
 143 0072 82B2     		uxth	r2, r0
 144 0074 01A9     		add	r1, sp, #4
 145 0076 0D48     		ldr	r0, .L10+4
 146 0078 FFF7FEFF 		bl	HAL_UART_Transmit
 147              	.LVL10:
  38:../Core/Src/periph_io.c ****     }
 148              		.loc 1 38 9 is_stmt 1 view .LVU28
  38:../Core/Src/periph_io.c ****     }
ARM GAS  /tmp/ccGFnZhE.s 			page 5


 149              		.loc 1 38 20 is_stmt 0 view .LVU29
 150 007c 0F4B     		ldr	r3, .L10+20
 151 007e 0022     		movs	r2, #0
 152 0080 1A70     		strb	r2, [r3]
 153 0082 D6E7     		b	.L3
 154              	.L4:
  38:../Core/Src/periph_io.c ****     }
 155              		.loc 1 38 20 view .LVU30
 156              	.LBE2:
  46:../Core/Src/periph_io.c ****         flash_init = 0;
 157              		.loc 1 46 9 is_stmt 1 view .LVU31
 158 0084 4FF0FF33 		mov	r3, #-1
 159 0088 2022     		movs	r2, #32
 160 008a 1149     		ldr	r1, .L10+40
 161 008c 0748     		ldr	r0, .L10+4
 162 008e FFF7FEFF 		bl	HAL_UART_Transmit
 163              	.LVL11:
  47:../Core/Src/periph_io.c ****     }
 164              		.loc 1 47 9 view .LVU32
  47:../Core/Src/periph_io.c ****     }
 165              		.loc 1 47 20 is_stmt 0 view .LVU33
 166 0092 0D4B     		ldr	r3, .L10+32
 167 0094 0022     		movs	r2, #0
 168 0096 1A70     		strb	r2, [r3]
 169 0098 D9E7     		b	.L5
 170              	.L7:
 171              		.loc 1 53 23 view .LVU34
 172 009a 0020     		movs	r0, #0
 173              	.L1:
  54:../Core/Src/periph_io.c **** }
 174              		.loc 1 54 1 view .LVU35
 175 009c 1BB0     		add	sp, sp, #108
 176              	.LCFI2:
 177              		.cfi_remember_state
 178              		.cfi_def_cfa_offset 4
 179              		@ sp needed
 180 009e 5DF804FB 		ldr	pc, [sp], #4
 181              	.L8:
 182              	.LCFI3:
 183              		.cfi_restore_state
  53:../Core/Src/periph_io.c **** }
 184              		.loc 1 53 23 view .LVU36
 185 00a2 0120     		movs	r0, #1
 186 00a4 FAE7     		b	.L1
 187              	.L11:
 188 00a6 00BF     		.align	2
 189              	.L10:
 190 00a8 00000000 		.word	.LC0
 191 00ac 00000000 		.word	huart2
 192 00b0 20000000 		.word	.LC1
 193 00b4 00000000 		.word	fs
 194 00b8 24000000 		.word	.LC2
 195 00bc 00000000 		.word	sd_mounted
 196 00c0 00000000 		.word	flash_chip
 197 00c4 58000000 		.word	.LC4
 198 00c8 00000000 		.word	flash_init
 199 00cc 38000000 		.word	.LC3
ARM GAS  /tmp/ccGFnZhE.s 			page 6


 200 00d0 74000000 		.word	.LC5
 201              		.cfi_endproc
 202              	.LFE398:
 204              		.section	.text.sd_init_file,"ax",%progbits
 205              		.align	1
 206              		.global	sd_init_file
 207              		.syntax unified
 208              		.thumb
 209              		.thumb_func
 211              	sd_init_file:
 212              	.LVL12:
 213              	.LFB399:
  55:../Core/Src/periph_io.c **** 
  56:../Core/Src/periph_io.c **** int sd_init_file(SDFile *file, const char *file_path) {
 214              		.loc 1 56 55 is_stmt 1 view -0
 215              		.cfi_startproc
 216              		@ args = 0, pretend = 0, frame = 0
 217              		@ frame_needed = 0, uses_anonymous_args = 0
 218              		.loc 1 56 55 is_stmt 0 view .LVU38
 219 0000 38B5     		push	{r3, r4, r5, lr}
 220              	.LCFI4:
 221              		.cfi_def_cfa_offset 16
 222              		.cfi_offset 3, -16
 223              		.cfi_offset 4, -12
 224              		.cfi_offset 5, -8
 225              		.cfi_offset 14, -4
 226 0002 0446     		mov	r4, r0
 227 0004 0D46     		mov	r5, r1
  57:../Core/Src/periph_io.c ****     if (strlen(file_path) >= SD_MAX_PATH_LEN) {
 228              		.loc 1 57 5 is_stmt 1 view .LVU39
 229              		.loc 1 57 9 is_stmt 0 view .LVU40
 230 0006 0846     		mov	r0, r1
 231              	.LVL13:
 232              		.loc 1 57 9 view .LVU41
 233 0008 FFF7FEFF 		bl	strlen
 234              	.LVL14:
 235              		.loc 1 57 8 view .LVU42
 236 000c 3F28     		cmp	r0, #63
 237 000e 01D9     		bls	.L16
  58:../Core/Src/periph_io.c ****         return 0;
 238              		.loc 1 58 16 view .LVU43
 239 0010 0020     		movs	r0, #0
 240              	.L12:
  59:../Core/Src/periph_io.c ****     }
  60:../Core/Src/periph_io.c **** 
  61:../Core/Src/periph_io.c ****     strcpy(file->file_path, file_path);
  62:../Core/Src/periph_io.c **** 
  63:../Core/Src/periph_io.c ****     file->current_mode = 0;
  64:../Core/Src/periph_io.c ****     file->is_open = 0;
  65:../Core/Src/periph_io.c ****     file->is_deleted = 0;
  66:../Core/Src/periph_io.c **** 
  67:../Core/Src/periph_io.c ****     return 1;
  68:../Core/Src/periph_io.c **** }
 241              		.loc 1 68 1 view .LVU44
 242 0012 38BD     		pop	{r3, r4, r5, pc}
 243              	.LVL15:
 244              	.L16:
ARM GAS  /tmp/ccGFnZhE.s 			page 7


  61:../Core/Src/periph_io.c **** 
 245              		.loc 1 61 5 is_stmt 1 view .LVU45
 246 0014 2946     		mov	r1, r5
 247 0016 2046     		mov	r0, r4
 248 0018 FFF7FEFF 		bl	strcpy
 249              	.LVL16:
  63:../Core/Src/periph_io.c ****     file->is_open = 0;
 250              		.loc 1 63 5 view .LVU46
  63:../Core/Src/periph_io.c ****     file->is_open = 0;
 251              		.loc 1 63 24 is_stmt 0 view .LVU47
 252 001c 0023     		movs	r3, #0
 253 001e 84F84230 		strb	r3, [r4, #66]
  64:../Core/Src/periph_io.c ****     file->is_deleted = 0;
 254              		.loc 1 64 5 is_stmt 1 view .LVU48
  64:../Core/Src/periph_io.c ****     file->is_deleted = 0;
 255              		.loc 1 64 19 is_stmt 0 view .LVU49
 256 0022 84F84030 		strb	r3, [r4, #64]
  65:../Core/Src/periph_io.c **** 
 257              		.loc 1 65 5 is_stmt 1 view .LVU50
  65:../Core/Src/periph_io.c **** 
 258              		.loc 1 65 22 is_stmt 0 view .LVU51
 259 0026 84F84130 		strb	r3, [r4, #65]
  67:../Core/Src/periph_io.c **** }
 260              		.loc 1 67 5 is_stmt 1 view .LVU52
  67:../Core/Src/periph_io.c **** }
 261              		.loc 1 67 12 is_stmt 0 view .LVU53
 262 002a 0120     		movs	r0, #1
 263 002c F1E7     		b	.L12
 264              		.cfi_endproc
 265              	.LFE399:
 267              		.section	.text.flash_init_block,"ax",%progbits
 268              		.align	1
 269              		.global	flash_init_block
 270              		.syntax unified
 271              		.thumb
 272              		.thumb_func
 274              	flash_init_block:
 275              	.LVL17:
 276              	.LFB400:
  69:../Core/Src/periph_io.c **** 
  70:../Core/Src/periph_io.c **** int flash_init_block(FlashBlock *block, uint16_t start_sector, uint16_t n_sectors) {
 277              		.loc 1 70 84 is_stmt 1 view -0
 278              		.cfi_startproc
 279              		@ args = 0, pretend = 0, frame = 0
 280              		@ frame_needed = 0, uses_anonymous_args = 0
 281              		@ link register save eliminated.
  71:../Core/Src/periph_io.c ****     if (block == NULL) {
 282              		.loc 1 71 5 view .LVU55
 283              		.loc 1 71 8 is_stmt 0 view .LVU56
 284 0000 18B1     		cbz	r0, .L19
  72:../Core/Src/periph_io.c ****         return 0;
  73:../Core/Src/periph_io.c ****     }
  74:../Core/Src/periph_io.c **** 
  75:../Core/Src/periph_io.c ****     block->start_sector = start_sector;
 285              		.loc 1 75 5 is_stmt 1 view .LVU57
 286              		.loc 1 75 25 is_stmt 0 view .LVU58
 287 0002 0180     		strh	r1, [r0]	@ movhi
ARM GAS  /tmp/ccGFnZhE.s 			page 8


  76:../Core/Src/periph_io.c ****     block->n_sectors = n_sectors;
 288              		.loc 1 76 5 is_stmt 1 view .LVU59
 289              		.loc 1 76 22 is_stmt 0 view .LVU60
 290 0004 4280     		strh	r2, [r0, #2]	@ movhi
  77:../Core/Src/periph_io.c **** 
  78:../Core/Src/periph_io.c ****     return 1;
 291              		.loc 1 78 5 is_stmt 1 view .LVU61
 292              		.loc 1 78 12 is_stmt 0 view .LVU62
 293 0006 0120     		movs	r0, #1
 294              	.LVL18:
 295              		.loc 1 78 12 view .LVU63
 296 0008 7047     		bx	lr
 297              	.LVL19:
 298              	.L19:
  72:../Core/Src/periph_io.c ****     }
 299              		.loc 1 72 16 view .LVU64
 300 000a 0020     		movs	r0, #0
 301              	.LVL20:
  79:../Core/Src/periph_io.c **** }
 302              		.loc 1 79 1 view .LVU65
 303 000c 7047     		bx	lr
 304              		.cfi_endproc
 305              	.LFE400:
 307              		.section	.text.sd_open_file,"ax",%progbits
 308              		.align	1
 309              		.global	sd_open_file
 310              		.syntax unified
 311              		.thumb
 312              		.thumb_func
 314              	sd_open_file:
 315              	.LVL21:
 316              	.LFB401:
  80:../Core/Src/periph_io.c **** 
  81:../Core/Src/periph_io.c **** int sd_open_file(SDFile *file, uint8_t mode) {
 317              		.loc 1 81 46 is_stmt 1 view -0
 318              		.cfi_startproc
 319              		@ args = 0, pretend = 0, frame = 0
 320              		@ frame_needed = 0, uses_anonymous_args = 0
  82:../Core/Src/periph_io.c ****     if (file == NULL || !sd_mounted) {
 321              		.loc 1 82 5 view .LVU67
 322              		.loc 1 82 8 is_stmt 0 view .LVU68
 323 0000 B0B1     		cbz	r0, .L22
  81:../Core/Src/periph_io.c ****     if (file == NULL || !sd_mounted) {
 324              		.loc 1 81 46 discriminator 1 view .LVU69
 325 0002 38B5     		push	{r3, r4, r5, lr}
 326              	.LCFI5:
 327              		.cfi_def_cfa_offset 16
 328              		.cfi_offset 3, -16
 329              		.cfi_offset 4, -12
 330              		.cfi_offset 5, -8
 331              		.cfi_offset 14, -4
 332 0004 0C46     		mov	r4, r1
 333 0006 0546     		mov	r5, r0
 334              		.loc 1 82 25 discriminator 1 view .LVU70
 335 0008 0B4B     		ldr	r3, .L30
 336 000a 1B78     		ldrb	r3, [r3]	@ zero_extendqisi2
 337              		.loc 1 82 22 discriminator 1 view .LVU71
ARM GAS  /tmp/ccGFnZhE.s 			page 9


 338 000c 0BB9     		cbnz	r3, .L29
  83:../Core/Src/periph_io.c ****         return 0;
 339              		.loc 1 83 16 view .LVU72
 340 000e 0020     		movs	r0, #0
 341              	.LVL22:
 342              	.L20:
  84:../Core/Src/periph_io.c ****     }
  85:../Core/Src/periph_io.c **** 
  86:../Core/Src/periph_io.c ****     if (f_open(&file->fil, file->file_path, mode) != FR_OK) {
  87:../Core/Src/periph_io.c ****         return 0;
  88:../Core/Src/periph_io.c ****     }
  89:../Core/Src/periph_io.c **** 
  90:../Core/Src/periph_io.c ****     file->is_open = 1;
  91:../Core/Src/periph_io.c ****     file->is_deleted = 0;
  92:../Core/Src/periph_io.c ****     file->current_mode = mode;
  93:../Core/Src/periph_io.c **** 
  94:../Core/Src/periph_io.c ****     return 1;
  95:../Core/Src/periph_io.c **** }
 343              		.loc 1 95 1 view .LVU73
 344 0010 38BD     		pop	{r3, r4, r5, pc}
 345              	.LVL23:
 346              	.L29:
  86:../Core/Src/periph_io.c ****         return 0;
 347              		.loc 1 86 5 is_stmt 1 view .LVU74
  86:../Core/Src/periph_io.c ****         return 0;
 348              		.loc 1 86 9 is_stmt 0 view .LVU75
 349 0012 0A46     		mov	r2, r1
 350 0014 0146     		mov	r1, r0
 351              	.LVL24:
  86:../Core/Src/periph_io.c ****         return 0;
 352              		.loc 1 86 9 view .LVU76
 353 0016 4430     		adds	r0, r0, #68
 354              	.LVL25:
  86:../Core/Src/periph_io.c ****         return 0;
 355              		.loc 1 86 9 view .LVU77
 356 0018 FFF7FEFF 		bl	f_open
 357              	.LVL26:
  86:../Core/Src/periph_io.c ****         return 0;
 358              		.loc 1 86 8 view .LVU78
 359 001c 50B9     		cbnz	r0, .L24
  90:../Core/Src/periph_io.c ****     file->is_deleted = 0;
 360              		.loc 1 90 5 is_stmt 1 view .LVU79
  90:../Core/Src/periph_io.c ****     file->is_deleted = 0;
 361              		.loc 1 90 19 is_stmt 0 view .LVU80
 362 001e 0120     		movs	r0, #1
 363 0020 85F84000 		strb	r0, [r5, #64]
  91:../Core/Src/periph_io.c ****     file->current_mode = mode;
 364              		.loc 1 91 5 is_stmt 1 view .LVU81
  91:../Core/Src/periph_io.c ****     file->current_mode = mode;
 365              		.loc 1 91 22 is_stmt 0 view .LVU82
 366 0024 0023     		movs	r3, #0
 367 0026 85F84130 		strb	r3, [r5, #65]
  92:../Core/Src/periph_io.c **** 
 368              		.loc 1 92 5 is_stmt 1 view .LVU83
  92:../Core/Src/periph_io.c **** 
 369              		.loc 1 92 24 is_stmt 0 view .LVU84
 370 002a 85F84240 		strb	r4, [r5, #66]
ARM GAS  /tmp/ccGFnZhE.s 			page 10


  94:../Core/Src/periph_io.c **** }
 371              		.loc 1 94 5 is_stmt 1 view .LVU85
  94:../Core/Src/periph_io.c **** }
 372              		.loc 1 94 12 is_stmt 0 view .LVU86
 373 002e EFE7     		b	.L20
 374              	.LVL27:
 375              	.L22:
 376              	.LCFI6:
 377              		.cfi_def_cfa_offset 0
 378              		.cfi_restore 3
 379              		.cfi_restore 4
 380              		.cfi_restore 5
 381              		.cfi_restore 14
  83:../Core/Src/periph_io.c ****     }
 382              		.loc 1 83 16 view .LVU87
 383 0030 0020     		movs	r0, #0
 384              	.LVL28:
 385              		.loc 1 95 1 view .LVU88
 386 0032 7047     		bx	lr
 387              	.LVL29:
 388              	.L24:
 389              	.LCFI7:
 390              		.cfi_def_cfa_offset 16
 391              		.cfi_offset 3, -16
 392              		.cfi_offset 4, -12
 393              		.cfi_offset 5, -8
 394              		.cfi_offset 14, -4
  87:../Core/Src/periph_io.c ****     }
 395              		.loc 1 87 16 view .LVU89
 396 0034 0020     		movs	r0, #0
 397 0036 EBE7     		b	.L20
 398              	.L31:
 399              		.align	2
 400              	.L30:
 401 0038 00000000 		.word	sd_mounted
 402              		.cfi_endproc
 403              	.LFE401:
 405              		.section	.rodata.sd_write_file.str1.4,"aMS",%progbits,1
 406              		.align	2
 407              	.LC6:
 408 0000 46696C65 		.ascii	"File is deleted: %d, Current mode: %d, SD mounted: "
 408      20697320 
 408      64656C65 
 408      7465643A 
 408      2025642C 
 409 0033 25640D0A 		.ascii	"%d\015\012\000"
 409      00
 410              		.align	2
 411              	.LC7:
 412 0038 4661696C 		.ascii	"Failure 2\015\012\000"
 412      75726520 
 412      320D0A00 
 413              		.align	2
 414              	.LC8:
 415 0044 57726F74 		.ascii	"Wrote %d bytes starting at %d\015\012\000"
 415      65202564 
 415      20627974 
ARM GAS  /tmp/ccGFnZhE.s 			page 11


 415      65732073 
 415      74617274 
 416              		.section	.text.sd_write_file,"ax",%progbits
 417              		.align	1
 418              		.global	sd_write_file
 419              		.syntax unified
 420              		.thumb
 421              		.thumb_func
 423              	sd_write_file:
 424              	.LVL30:
 425              	.LFB402:
  96:../Core/Src/periph_io.c **** 
  97:../Core/Src/periph_io.c **** int sd_write_file(SDFile *file, uint16_t start_addr, uint8_t *data, size_t len) {
 426              		.loc 1 97 81 is_stmt 1 view -0
 427              		.cfi_startproc
 428              		@ args = 0, pretend = 0, frame = 104
 429              		@ frame_needed = 0, uses_anonymous_args = 0
 430              		.loc 1 97 81 is_stmt 0 view .LVU91
 431 0000 2DE9F041 		push	{r4, r5, r6, r7, r8, lr}
 432              	.LCFI8:
 433              		.cfi_def_cfa_offset 24
 434              		.cfi_offset 4, -24
 435              		.cfi_offset 5, -20
 436              		.cfi_offset 6, -16
 437              		.cfi_offset 7, -12
 438              		.cfi_offset 8, -8
 439              		.cfi_offset 14, -4
 440 0004 9CB0     		sub	sp, sp, #112
 441              	.LCFI9:
 442              		.cfi_def_cfa_offset 136
  98:../Core/Src/periph_io.c ****     if (file == NULL || file->is_deleted || (file->current_mode & FA_WRITE) != FA_WRITE || data == 
 443              		.loc 1 98 5 is_stmt 1 view .LVU92
 444              		.loc 1 98 8 is_stmt 0 view .LVU93
 445 0006 0446     		mov	r4, r0
 446 0008 70B1     		cbz	r0, .L33
 447 000a 8846     		mov	r8, r1
 448 000c 1746     		mov	r7, r2
 449 000e 1E46     		mov	r6, r3
 450              		.loc 1 98 29 discriminator 1 view .LVU94
 451 0010 90F84130 		ldrb	r3, [r0, #65]	@ zero_extendqisi2
 452              	.LVL31:
 453              		.loc 1 98 22 discriminator 1 view .LVU95
 454 0014 43B9     		cbnz	r3, .L33
 455              		.loc 1 98 50 discriminator 2 view .LVU96
 456 0016 90F84230 		ldrb	r3, [r0, #66]	@ zero_extendqisi2
 457              		.loc 1 98 42 discriminator 2 view .LVU97
 458 001a 13F0020F 		tst	r3, #2
 459 001e 03D0     		beq	.L33
 460              		.loc 1 98 89 discriminator 3 view .LVU98
 461 0020 12B1     		cbz	r2, .L33
 462              		.loc 1 98 108 discriminator 4 view .LVU99
 463 0022 2A4B     		ldr	r3, .L44
 464 0024 1B78     		ldrb	r3, [r3]	@ zero_extendqisi2
 465              		.loc 1 98 105 discriminator 4 view .LVU100
 466 0026 D3B9     		cbnz	r3, .L34
 467              	.LVL32:
 468              	.L33:
ARM GAS  /tmp/ccGFnZhE.s 			page 12


 469              	.LBB3:
  99:../Core/Src/periph_io.c ****         char buf[100];
 470              		.loc 1 99 9 is_stmt 1 view .LVU101
 100:../Core/Src/periph_io.c ****         sprintf(buf, "File is deleted: %d, Current mode: %d, SD mounted: %d\r\n", file->is_deleted,
 471              		.loc 1 100 9 view .LVU102
 472              		.loc 1 100 105 is_stmt 0 view .LVU103
 473 0028 94F84230 		ldrb	r3, [r4, #66]	@ zero_extendqisi2
 474              		.loc 1 100 9 view .LVU104
 475 002c 274A     		ldr	r2, .L44
 476              	.LVL33:
 477              		.loc 1 100 9 view .LVU105
 478 002e 1278     		ldrb	r2, [r2]	@ zero_extendqisi2
 479 0030 0092     		str	r2, [sp]
 480 0032 03F00203 		and	r3, r3, #2
 481 0036 94F84120 		ldrb	r2, [r4, #65]	@ zero_extendqisi2
 482 003a 2549     		ldr	r1, .L44+4
 483              	.LVL34:
 484              		.loc 1 100 9 view .LVU106
 485 003c 03A8     		add	r0, sp, #12
 486              	.LVL35:
 487              		.loc 1 100 9 view .LVU107
 488 003e FFF7FEFF 		bl	sprintf
 489              	.LVL36:
 101:../Core/Src/periph_io.c ****         HAL_UART_Transmit(&debug_uart, (uint8_t *) buf, strlen(buf), HAL_MAX_DELAY);
 490              		.loc 1 101 9 is_stmt 1 view .LVU108
 491              		.loc 1 101 57 is_stmt 0 view .LVU109
 492 0042 03A8     		add	r0, sp, #12
 493 0044 FFF7FEFF 		bl	strlen
 494              	.LVL37:
 495              		.loc 1 101 9 view .LVU110
 496 0048 4FF0FF33 		mov	r3, #-1
 497 004c 82B2     		uxth	r2, r0
 498 004e 03A9     		add	r1, sp, #12
 499 0050 2048     		ldr	r0, .L44+8
 500 0052 FFF7FEFF 		bl	HAL_UART_Transmit
 501              	.LVL38:
 102:../Core/Src/periph_io.c ****         return 0;
 502              		.loc 1 102 9 is_stmt 1 view .LVU111
 503              		.loc 1 102 16 is_stmt 0 view .LVU112
 504 0056 0020     		movs	r0, #0
 505              	.LVL39:
 506              	.L32:
 507              		.loc 1 102 16 view .LVU113
 508              	.LBE3:
 103:../Core/Src/periph_io.c ****     }
 104:../Core/Src/periph_io.c ****     
 105:../Core/Src/periph_io.c ****     if (f_lseek(&file->fil, start_addr) != FR_OK) {
 106:../Core/Src/periph_io.c ****         HAL_UART_Transmit(&debug_uart, (uint8_t *) "Failure 2\r\n", 11, HAL_MAX_DELAY);
 107:../Core/Src/periph_io.c ****         return 0;
 108:../Core/Src/periph_io.c ****     }
 109:../Core/Src/periph_io.c **** 
 110:../Core/Src/periph_io.c ****     for (size_t offset = 0; offset < len; offset += SD_MAX_READ_WRITE_SIZE) {
 111:../Core/Src/periph_io.c ****         size_t remaining = len - offset;
 112:../Core/Src/periph_io.c ****         size_t write_size = (remaining > SD_MAX_READ_WRITE_SIZE) ? SD_MAX_READ_WRITE_SIZE : remaini
 113:../Core/Src/periph_io.c **** 
 114:../Core/Src/periph_io.c ****         UINT bytes_written;
 115:../Core/Src/periph_io.c ****         if (f_write(&file->fil, data + offset, write_size, &bytes_written) != FR_OK) {
ARM GAS  /tmp/ccGFnZhE.s 			page 13


 116:../Core/Src/periph_io.c ****             return 0;
 117:../Core/Src/periph_io.c ****         }
 118:../Core/Src/periph_io.c **** 
 119:../Core/Src/periph_io.c ****         char buf[100];
 120:../Core/Src/periph_io.c ****         sprintf(buf, "Wrote %d bytes starting at %d\r\n", bytes_written, start_addr + offset);
 121:../Core/Src/periph_io.c ****         HAL_UART_Transmit(&debug_uart, (uint8_t *) buf, strlen(buf), HAL_MAX_DELAY);
 122:../Core/Src/periph_io.c ****     }
 123:../Core/Src/periph_io.c **** 
 124:../Core/Src/periph_io.c ****     return 1;
 125:../Core/Src/periph_io.c **** }
 509              		.loc 1 125 1 view .LVU114
 510 0058 1CB0     		add	sp, sp, #112
 511              	.LCFI10:
 512              		.cfi_remember_state
 513              		.cfi_def_cfa_offset 24
 514              		@ sp needed
 515 005a BDE8F081 		pop	{r4, r5, r6, r7, r8, pc}
 516              	.LVL40:
 517              	.L34:
 518              	.LCFI11:
 519              		.cfi_restore_state
 105:../Core/Src/periph_io.c ****         HAL_UART_Transmit(&debug_uart, (uint8_t *) "Failure 2\r\n", 11, HAL_MAX_DELAY);
 520              		.loc 1 105 5 is_stmt 1 view .LVU115
 105:../Core/Src/periph_io.c ****         HAL_UART_Transmit(&debug_uart, (uint8_t *) "Failure 2\r\n", 11, HAL_MAX_DELAY);
 521              		.loc 1 105 9 is_stmt 0 view .LVU116
 522 005e 00F14405 		add	r5, r0, #68
 523 0062 2846     		mov	r0, r5
 524              	.LVL41:
 105:../Core/Src/periph_io.c ****         HAL_UART_Transmit(&debug_uart, (uint8_t *) "Failure 2\r\n", 11, HAL_MAX_DELAY);
 525              		.loc 1 105 9 view .LVU117
 526 0064 FFF7FEFF 		bl	f_lseek
 527              	.LVL42:
 105:../Core/Src/periph_io.c ****         HAL_UART_Transmit(&debug_uart, (uint8_t *) "Failure 2\r\n", 11, HAL_MAX_DELAY);
 528              		.loc 1 105 8 view .LVU118
 529 0068 10BB     		cbnz	r0, .L41
 530              	.LBB4:
 110:../Core/Src/periph_io.c ****         size_t remaining = len - offset;
 531              		.loc 1 110 17 view .LVU119
 532 006a 0024     		movs	r4, #0
 533              	.LVL43:
 534              	.L36:
 110:../Core/Src/periph_io.c ****         size_t remaining = len - offset;
 535              		.loc 1 110 36 is_stmt 1 discriminator 1 view .LVU120
 536 006c B442     		cmp	r4, r6
 537 006e 2AD2     		bcs	.L42
 538              	.LBB5:
 111:../Core/Src/periph_io.c ****         size_t write_size = (remaining > SD_MAX_READ_WRITE_SIZE) ? SD_MAX_READ_WRITE_SIZE : remaini
 539              		.loc 1 111 9 view .LVU121
 111:../Core/Src/periph_io.c ****         size_t write_size = (remaining > SD_MAX_READ_WRITE_SIZE) ? SD_MAX_READ_WRITE_SIZE : remaini
 540              		.loc 1 111 16 is_stmt 0 view .LVU122
 541 0070 321B     		subs	r2, r6, r4
 112:../Core/Src/periph_io.c **** 
 542              		.loc 1 112 9 is_stmt 1 view .LVU123
 114:../Core/Src/periph_io.c ****         if (f_write(&file->fil, data + offset, write_size, &bytes_written) != FR_OK) {
 543              		.loc 1 114 9 view .LVU124
 115:../Core/Src/periph_io.c ****             return 0;
 544              		.loc 1 115 9 view .LVU125
ARM GAS  /tmp/ccGFnZhE.s 			page 14


 115:../Core/Src/periph_io.c ****             return 0;
 545              		.loc 1 115 13 is_stmt 0 view .LVU126
 546 0072 02AB     		add	r3, sp, #8
 547 0074 B2F5007F 		cmp	r2, #512
 548 0078 28BF     		it	cs
 549 007a 4FF40072 		movcs	r2, #512
 550 007e 3919     		adds	r1, r7, r4
 551 0080 2846     		mov	r0, r5
 552 0082 FFF7FEFF 		bl	f_write
 553              	.LVL44:
 115:../Core/Src/periph_io.c ****             return 0;
 554              		.loc 1 115 12 view .LVU127
 555 0086 E0B9     		cbnz	r0, .L43
 119:../Core/Src/periph_io.c ****         sprintf(buf, "Wrote %d bytes starting at %d\r\n", bytes_written, start_addr + offset);
 556              		.loc 1 119 9 is_stmt 1 view .LVU128
 120:../Core/Src/periph_io.c ****         HAL_UART_Transmit(&debug_uart, (uint8_t *) buf, strlen(buf), HAL_MAX_DELAY);
 557              		.loc 1 120 9 view .LVU129
 558 0088 08EB0403 		add	r3, r8, r4
 559 008c 029A     		ldr	r2, [sp, #8]
 560 008e 1249     		ldr	r1, .L44+12
 561 0090 03A8     		add	r0, sp, #12
 562 0092 FFF7FEFF 		bl	sprintf
 563              	.LVL45:
 121:../Core/Src/periph_io.c ****     }
 564              		.loc 1 121 9 view .LVU130
 121:../Core/Src/periph_io.c ****     }
 565              		.loc 1 121 57 is_stmt 0 view .LVU131
 566 0096 03A8     		add	r0, sp, #12
 567 0098 FFF7FEFF 		bl	strlen
 568              	.LVL46:
 121:../Core/Src/periph_io.c ****     }
 569              		.loc 1 121 9 view .LVU132
 570 009c 4FF0FF33 		mov	r3, #-1
 571 00a0 82B2     		uxth	r2, r0
 572 00a2 03A9     		add	r1, sp, #12
 573 00a4 0B48     		ldr	r0, .L44+8
 574 00a6 FFF7FEFF 		bl	HAL_UART_Transmit
 575              	.LVL47:
 576              	.LBE5:
 110:../Core/Src/periph_io.c ****         size_t remaining = len - offset;
 577              		.loc 1 110 50 is_stmt 1 view .LVU133
 578 00aa 04F50074 		add	r4, r4, #512
 579              	.LVL48:
 110:../Core/Src/periph_io.c ****         size_t remaining = len - offset;
 580              		.loc 1 110 50 is_stmt 0 view .LVU134
 581 00ae DDE7     		b	.L36
 582              	.LVL49:
 583              	.L41:
 110:../Core/Src/periph_io.c ****         size_t remaining = len - offset;
 584              		.loc 1 110 50 view .LVU135
 585              	.LBE4:
 106:../Core/Src/periph_io.c ****         return 0;
 586              		.loc 1 106 9 is_stmt 1 view .LVU136
 587 00b0 4FF0FF33 		mov	r3, #-1
 588 00b4 0B22     		movs	r2, #11
 589 00b6 0949     		ldr	r1, .L44+16
 590 00b8 0648     		ldr	r0, .L44+8
ARM GAS  /tmp/ccGFnZhE.s 			page 15


 591 00ba FFF7FEFF 		bl	HAL_UART_Transmit
 592              	.LVL50:
 107:../Core/Src/periph_io.c ****     }
 593              		.loc 1 107 9 view .LVU137
 107:../Core/Src/periph_io.c ****     }
 594              		.loc 1 107 16 is_stmt 0 view .LVU138
 595 00be 0020     		movs	r0, #0
 596 00c0 CAE7     		b	.L32
 597              	.LVL51:
 598              	.L43:
 599              	.LBB7:
 600              	.LBB6:
 116:../Core/Src/periph_io.c ****         }
 601              		.loc 1 116 13 is_stmt 1 view .LVU139
 116:../Core/Src/periph_io.c ****         }
 602              		.loc 1 116 20 is_stmt 0 view .LVU140
 603 00c2 0020     		movs	r0, #0
 604 00c4 C8E7     		b	.L32
 605              	.L42:
 116:../Core/Src/periph_io.c ****         }
 606              		.loc 1 116 20 view .LVU141
 607              	.LBE6:
 608              	.LBE7:
 124:../Core/Src/periph_io.c **** }
 609              		.loc 1 124 12 view .LVU142
 610 00c6 0120     		movs	r0, #1
 611 00c8 C6E7     		b	.L32
 612              	.L45:
 613 00ca 00BF     		.align	2
 614              	.L44:
 615 00cc 00000000 		.word	sd_mounted
 616 00d0 00000000 		.word	.LC6
 617 00d4 00000000 		.word	huart2
 618 00d8 44000000 		.word	.LC8
 619 00dc 38000000 		.word	.LC7
 620              		.cfi_endproc
 621              	.LFE402:
 623              		.section	.text.sd_read_file,"ax",%progbits
 624              		.align	1
 625              		.global	sd_read_file
 626              		.syntax unified
 627              		.thumb
 628              		.thumb_func
 630              	sd_read_file:
 631              	.LVL52:
 632              	.LFB403:
 126:../Core/Src/periph_io.c **** 
 127:../Core/Src/periph_io.c **** int sd_read_file(SDFile *file, uint16_t start_addr, uint8_t *data, size_t len) {
 633              		.loc 1 127 80 is_stmt 1 view -0
 634              		.cfi_startproc
 635              		@ args = 0, pretend = 0, frame = 8
 636              		@ frame_needed = 0, uses_anonymous_args = 0
 128:../Core/Src/periph_io.c ****     if (file == NULL || file->is_deleted || (file->current_mode & FA_READ) != FA_READ || data == NU
 637              		.loc 1 128 5 view .LVU144
 638              		.loc 1 128 8 is_stmt 0 view .LVU145
 639 0000 68B3     		cbz	r0, .L51
 127:../Core/Src/periph_io.c ****     if (file == NULL || file->is_deleted || (file->current_mode & FA_READ) != FA_READ || data == NU
ARM GAS  /tmp/ccGFnZhE.s 			page 16


 640              		.loc 1 127 80 discriminator 1 view .LVU146
 641 0002 F0B5     		push	{r4, r5, r6, r7, lr}
 642              	.LCFI12:
 643              		.cfi_def_cfa_offset 20
 644              		.cfi_offset 4, -20
 645              		.cfi_offset 5, -16
 646              		.cfi_offset 6, -12
 647              		.cfi_offset 7, -8
 648              		.cfi_offset 14, -4
 649 0004 83B0     		sub	sp, sp, #12
 650              	.LCFI13:
 651              		.cfi_def_cfa_offset 32
 652 0006 1646     		mov	r6, r2
 653 0008 1C46     		mov	r4, r3
 654              		.loc 1 128 29 discriminator 1 view .LVU147
 655 000a 90F84120 		ldrb	r2, [r0, #65]	@ zero_extendqisi2
 656              	.LVL53:
 657              		.loc 1 128 22 discriminator 1 view .LVU148
 658 000e 42BB     		cbnz	r2, .L52
 659              		.loc 1 128 50 discriminator 2 view .LVU149
 660 0010 90F84220 		ldrb	r2, [r0, #66]	@ zero_extendqisi2
 661              		.loc 1 128 42 discriminator 2 view .LVU150
 662 0014 12F0010F 		tst	r2, #1
 663 0018 26D0     		beq	.L53
 664              		.loc 1 128 87 discriminator 3 view .LVU151
 665 001a 3EB3     		cbz	r6, .L54
 666              		.loc 1 128 106 discriminator 4 view .LVU152
 667 001c 154A     		ldr	r2, .L64
 668 001e 1278     		ldrb	r2, [r2]	@ zero_extendqisi2
 669              		.loc 1 128 103 discriminator 4 view .LVU153
 670 0020 0AB9     		cbnz	r2, .L61
 129:../Core/Src/periph_io.c ****         return 0;
 671              		.loc 1 129 16 view .LVU154
 672 0022 0020     		movs	r0, #0
 673              	.LVL54:
 674              		.loc 1 129 16 view .LVU155
 675 0024 1EE0     		b	.L46
 676              	.LVL55:
 677              	.L61:
 130:../Core/Src/periph_io.c ****     }
 131:../Core/Src/periph_io.c **** 
 132:../Core/Src/periph_io.c ****     if (f_lseek(&file->fil, start_addr) != FR_OK) {
 678              		.loc 1 132 5 is_stmt 1 view .LVU156
 679              		.loc 1 132 9 is_stmt 0 view .LVU157
 680 0026 00F14407 		add	r7, r0, #68
 681 002a 3846     		mov	r0, r7
 682              	.LVL56:
 683              		.loc 1 132 9 view .LVU158
 684 002c FFF7FEFF 		bl	f_lseek
 685              	.LVL57:
 686              		.loc 1 132 8 view .LVU159
 687 0030 F0B9     		cbnz	r0, .L56
 688              	.LBB8:
 133:../Core/Src/periph_io.c ****         return 0;
 134:../Core/Src/periph_io.c ****     }
 135:../Core/Src/periph_io.c **** 
 136:../Core/Src/periph_io.c ****     for (size_t offset = 0; offset < len; offset += SD_MAX_READ_WRITE_SIZE) {
ARM GAS  /tmp/ccGFnZhE.s 			page 17


 689              		.loc 1 136 17 view .LVU160
 690 0032 0025     		movs	r5, #0
 691              	.L48:
 692              	.LVL58:
 693              		.loc 1 136 36 is_stmt 1 discriminator 1 view .LVU161
 694 0034 A542     		cmp	r5, r4
 695 0036 10D2     		bcs	.L62
 696              	.LBB9:
 137:../Core/Src/periph_io.c ****         size_t remaining = len - offset;
 697              		.loc 1 137 9 view .LVU162
 698              		.loc 1 137 16 is_stmt 0 view .LVU163
 699 0038 621B     		subs	r2, r4, r5
 138:../Core/Src/periph_io.c ****         size_t read_size = (remaining > SD_MAX_READ_WRITE_SIZE) ? SD_MAX_READ_WRITE_SIZE : remainin
 700              		.loc 1 138 9 is_stmt 1 view .LVU164
 139:../Core/Src/periph_io.c **** 
 140:../Core/Src/periph_io.c ****         UINT bytes_read;
 701              		.loc 1 140 9 view .LVU165
 141:../Core/Src/periph_io.c ****         if (f_read(&file->fil, data + offset, read_size, &bytes_read) != FR_OK) {
 702              		.loc 1 141 9 view .LVU166
 703              		.loc 1 141 13 is_stmt 0 view .LVU167
 704 003a 01AB     		add	r3, sp, #4
 705 003c B2F5007F 		cmp	r2, #512
 706 0040 28BF     		it	cs
 707 0042 4FF40072 		movcs	r2, #512
 708 0046 7119     		adds	r1, r6, r5
 709 0048 3846     		mov	r0, r7
 710 004a FFF7FEFF 		bl	f_read
 711              	.LVL59:
 712              		.loc 1 141 12 view .LVU168
 713 004e 10B9     		cbnz	r0, .L63
 714              	.LBE9:
 136:../Core/Src/periph_io.c ****         size_t remaining = len - offset;
 715              		.loc 1 136 50 is_stmt 1 view .LVU169
 716 0050 05F50075 		add	r5, r5, #512
 717              	.LVL60:
 136:../Core/Src/periph_io.c ****         size_t remaining = len - offset;
 718              		.loc 1 136 50 is_stmt 0 view .LVU170
 719 0054 EEE7     		b	.L48
 720              	.L63:
 721              	.LBB10:
 142:../Core/Src/periph_io.c ****             return 0;
 722              		.loc 1 142 13 is_stmt 1 view .LVU171
 723              		.loc 1 142 20 is_stmt 0 view .LVU172
 724 0056 0020     		movs	r0, #0
 725 0058 04E0     		b	.L46
 726              	.L62:
 727              		.loc 1 142 20 view .LVU173
 728              	.LBE10:
 729              	.LBE8:
 143:../Core/Src/periph_io.c ****         }
 144:../Core/Src/periph_io.c ****     }
 145:../Core/Src/periph_io.c **** 
 146:../Core/Src/periph_io.c ****     return 1;
 730              		.loc 1 146 12 view .LVU174
 731 005a 0120     		movs	r0, #1
 732              	.LBB11:
 733 005c 02E0     		b	.L46
ARM GAS  /tmp/ccGFnZhE.s 			page 18


 734              	.LVL61:
 735              	.L51:
 736              	.LCFI14:
 737              		.cfi_def_cfa_offset 0
 738              		.cfi_restore 4
 739              		.cfi_restore 5
 740              		.cfi_restore 6
 741              		.cfi_restore 7
 742              		.cfi_restore 14
 743              		.loc 1 146 12 view .LVU175
 744              	.LBE11:
 129:../Core/Src/periph_io.c ****     }
 745              		.loc 1 129 16 view .LVU176
 746 005e 0020     		movs	r0, #0
 747              	.LVL62:
 147:../Core/Src/periph_io.c **** }
 748              		.loc 1 147 1 view .LVU177
 749 0060 7047     		bx	lr
 750              	.LVL63:
 751              	.L52:
 752              	.LCFI15:
 753              		.cfi_def_cfa_offset 32
 754              		.cfi_offset 4, -20
 755              		.cfi_offset 5, -16
 756              		.cfi_offset 6, -12
 757              		.cfi_offset 7, -8
 758              		.cfi_offset 14, -4
 129:../Core/Src/periph_io.c ****     }
 759              		.loc 1 129 16 view .LVU178
 760 0062 0020     		movs	r0, #0
 761              	.LVL64:
 762              	.L46:
 763              		.loc 1 147 1 view .LVU179
 764 0064 03B0     		add	sp, sp, #12
 765              	.LCFI16:
 766              		.cfi_remember_state
 767              		.cfi_def_cfa_offset 20
 768              		@ sp needed
 769 0066 F0BD     		pop	{r4, r5, r6, r7, pc}
 770              	.LVL65:
 771              	.L53:
 772              	.LCFI17:
 773              		.cfi_restore_state
 129:../Core/Src/periph_io.c ****     }
 774              		.loc 1 129 16 view .LVU180
 775 0068 0020     		movs	r0, #0
 776              	.LVL66:
 129:../Core/Src/periph_io.c ****     }
 777              		.loc 1 129 16 view .LVU181
 778 006a FBE7     		b	.L46
 779              	.LVL67:
 780              	.L54:
 129:../Core/Src/periph_io.c ****     }
 781              		.loc 1 129 16 view .LVU182
 782 006c 0020     		movs	r0, #0
 783              	.LVL68:
 129:../Core/Src/periph_io.c ****     }
ARM GAS  /tmp/ccGFnZhE.s 			page 19


 784              		.loc 1 129 16 view .LVU183
 785 006e F9E7     		b	.L46
 786              	.LVL69:
 787              	.L56:
 133:../Core/Src/periph_io.c ****     }
 788              		.loc 1 133 16 view .LVU184
 789 0070 0020     		movs	r0, #0
 790 0072 F7E7     		b	.L46
 791              	.L65:
 792              		.align	2
 793              	.L64:
 794 0074 00000000 		.word	sd_mounted
 795              		.cfi_endproc
 796              	.LFE403:
 798              		.section	.text.sd_close_file,"ax",%progbits
 799              		.align	1
 800              		.global	sd_close_file
 801              		.syntax unified
 802              		.thumb
 803              		.thumb_func
 805              	sd_close_file:
 806              	.LVL70:
 807              	.LFB404:
 148:../Core/Src/periph_io.c **** 
 149:../Core/Src/periph_io.c **** int sd_close_file(SDFile *file) {
 808              		.loc 1 149 33 is_stmt 1 view -0
 809              		.cfi_startproc
 810              		@ args = 0, pretend = 0, frame = 0
 811              		@ frame_needed = 0, uses_anonymous_args = 0
 150:../Core/Src/periph_io.c ****     if (file == NULL || file->is_deleted || !file->is_open || !sd_mounted) {
 812              		.loc 1 150 5 view .LVU186
 813              		.loc 1 150 8 is_stmt 0 view .LVU187
 814 0000 A8B1     		cbz	r0, .L68
 149:../Core/Src/periph_io.c ****     if (file == NULL || file->is_deleted || !file->is_open || !sd_mounted) {
 815              		.loc 1 149 33 discriminator 1 view .LVU188
 816 0002 10B5     		push	{r4, lr}
 817              	.LCFI18:
 818              		.cfi_def_cfa_offset 8
 819              		.cfi_offset 4, -8
 820              		.cfi_offset 14, -4
 821 0004 0446     		mov	r4, r0
 822              		.loc 1 150 29 discriminator 1 view .LVU189
 823 0006 90F84130 		ldrb	r3, [r0, #65]	@ zero_extendqisi2
 824              		.loc 1 150 22 discriminator 1 view .LVU190
 825 000a 93B9     		cbnz	r3, .L69
 826              		.loc 1 150 50 discriminator 2 view .LVU191
 827 000c 90F84030 		ldrb	r3, [r0, #64]	@ zero_extendqisi2
 828              		.loc 1 150 42 discriminator 2 view .LVU192
 829 0010 8BB1     		cbz	r3, .L70
 830              		.loc 1 150 63 discriminator 3 view .LVU193
 831 0012 0B4B     		ldr	r3, .L78
 832 0014 1B78     		ldrb	r3, [r3]	@ zero_extendqisi2
 833              		.loc 1 150 60 discriminator 3 view .LVU194
 834 0016 0BB9     		cbnz	r3, .L77
 151:../Core/Src/periph_io.c ****         return 0;
 835              		.loc 1 151 16 view .LVU195
 836 0018 0020     		movs	r0, #0
ARM GAS  /tmp/ccGFnZhE.s 			page 20


 837              	.LVL71:
 838              		.loc 1 151 16 view .LVU196
 839 001a 0BE0     		b	.L66
 840              	.LVL72:
 841              	.L77:
 152:../Core/Src/periph_io.c ****     }
 153:../Core/Src/periph_io.c **** 
 154:../Core/Src/periph_io.c ****     if (f_close(&file->fil) != FR_OK) {
 842              		.loc 1 154 5 is_stmt 1 view .LVU197
 843              		.loc 1 154 9 is_stmt 0 view .LVU198
 844 001c 4430     		adds	r0, r0, #68
 845              	.LVL73:
 846              		.loc 1 154 9 view .LVU199
 847 001e FFF7FEFF 		bl	f_close
 848              	.LVL74:
 849              		.loc 1 154 8 view .LVU200
 850 0022 50B9     		cbnz	r0, .L72
 155:../Core/Src/periph_io.c ****         return 0;
 156:../Core/Src/periph_io.c ****     }
 157:../Core/Src/periph_io.c **** 
 158:../Core/Src/periph_io.c ****     file->is_open = 0;
 851              		.loc 1 158 5 is_stmt 1 view .LVU201
 852              		.loc 1 158 19 is_stmt 0 view .LVU202
 853 0024 0023     		movs	r3, #0
 854 0026 84F84030 		strb	r3, [r4, #64]
 159:../Core/Src/periph_io.c **** 
 160:../Core/Src/periph_io.c ****     return 1;
 855              		.loc 1 160 5 is_stmt 1 view .LVU203
 856              		.loc 1 160 12 is_stmt 0 view .LVU204
 857 002a 0120     		movs	r0, #1
 858 002c 02E0     		b	.L66
 859              	.LVL75:
 860              	.L68:
 861              	.LCFI19:
 862              		.cfi_def_cfa_offset 0
 863              		.cfi_restore 4
 864              		.cfi_restore 14
 151:../Core/Src/periph_io.c ****     }
 865              		.loc 1 151 16 view .LVU205
 866 002e 0020     		movs	r0, #0
 867              	.LVL76:
 161:../Core/Src/periph_io.c **** }
 868              		.loc 1 161 1 view .LVU206
 869 0030 7047     		bx	lr
 870              	.LVL77:
 871              	.L69:
 872              	.LCFI20:
 873              		.cfi_def_cfa_offset 8
 874              		.cfi_offset 4, -8
 875              		.cfi_offset 14, -4
 151:../Core/Src/periph_io.c ****     }
 876              		.loc 1 151 16 view .LVU207
 877 0032 0020     		movs	r0, #0
 878              	.LVL78:
 879              	.L66:
 880              		.loc 1 161 1 view .LVU208
 881 0034 10BD     		pop	{r4, pc}
ARM GAS  /tmp/ccGFnZhE.s 			page 21


 882              	.LVL79:
 883              	.L70:
 151:../Core/Src/periph_io.c ****     }
 884              		.loc 1 151 16 view .LVU209
 885 0036 0020     		movs	r0, #0
 886              	.LVL80:
 151:../Core/Src/periph_io.c ****     }
 887              		.loc 1 151 16 view .LVU210
 888 0038 FCE7     		b	.L66
 889              	.L72:
 155:../Core/Src/periph_io.c ****     }
 890              		.loc 1 155 16 view .LVU211
 891 003a 0020     		movs	r0, #0
 892 003c FAE7     		b	.L66
 893              	.L79:
 894 003e 00BF     		.align	2
 895              	.L78:
 896 0040 00000000 		.word	sd_mounted
 897              		.cfi_endproc
 898              	.LFE404:
 900              		.section	.text.sd_delete_file,"ax",%progbits
 901              		.align	1
 902              		.global	sd_delete_file
 903              		.syntax unified
 904              		.thumb
 905              		.thumb_func
 907              	sd_delete_file:
 908              	.LVL81:
 909              	.LFB405:
 162:../Core/Src/periph_io.c **** 
 163:../Core/Src/periph_io.c **** int sd_delete_file(SDFile *file) {
 910              		.loc 1 163 34 is_stmt 1 view -0
 911              		.cfi_startproc
 912              		@ args = 0, pretend = 0, frame = 0
 913              		@ frame_needed = 0, uses_anonymous_args = 0
 164:../Core/Src/periph_io.c ****     if (file == NULL || file->is_deleted || !sd_mounted) {
 914              		.loc 1 164 5 view .LVU213
 915              		.loc 1 164 8 is_stmt 0 view .LVU214
 916 0000 80B1     		cbz	r0, .L82
 163:../Core/Src/periph_io.c ****     if (file == NULL || file->is_deleted || !sd_mounted) {
 917              		.loc 1 163 34 discriminator 1 view .LVU215
 918 0002 10B5     		push	{r4, lr}
 919              	.LCFI21:
 920              		.cfi_def_cfa_offset 8
 921              		.cfi_offset 4, -8
 922              		.cfi_offset 14, -4
 923 0004 0446     		mov	r4, r0
 924              		.loc 1 164 29 discriminator 1 view .LVU216
 925 0006 90F84130 		ldrb	r3, [r0, #65]	@ zero_extendqisi2
 926              		.loc 1 164 22 discriminator 1 view .LVU217
 927 000a 6BB9     		cbnz	r3, .L83
 928              		.loc 1 164 45 discriminator 2 view .LVU218
 929 000c 084B     		ldr	r3, .L91
 930 000e 1B78     		ldrb	r3, [r3]	@ zero_extendqisi2
 931              		.loc 1 164 42 discriminator 2 view .LVU219
 932 0010 0BB9     		cbnz	r3, .L90
 165:../Core/Src/periph_io.c ****         return 0;
ARM GAS  /tmp/ccGFnZhE.s 			page 22


 933              		.loc 1 165 16 view .LVU220
 934 0012 0020     		movs	r0, #0
 935              	.LVL82:
 936              		.loc 1 165 16 view .LVU221
 937 0014 09E0     		b	.L80
 938              	.LVL83:
 939              	.L90:
 166:../Core/Src/periph_io.c ****     }
 167:../Core/Src/periph_io.c **** 
 168:../Core/Src/periph_io.c ****     if (f_unlink(file->file_path) != FR_OK) {
 940              		.loc 1 168 5 is_stmt 1 view .LVU222
 941              		.loc 1 168 9 is_stmt 0 view .LVU223
 942 0016 FFF7FEFF 		bl	f_unlink
 943              	.LVL84:
 944              		.loc 1 168 8 view .LVU224
 945 001a 38B9     		cbnz	r0, .L85
 169:../Core/Src/periph_io.c ****         return 0;
 170:../Core/Src/periph_io.c ****     }
 171:../Core/Src/periph_io.c **** 
 172:../Core/Src/periph_io.c ****     file->is_deleted = 1;
 946              		.loc 1 172 5 is_stmt 1 view .LVU225
 947              		.loc 1 172 22 is_stmt 0 view .LVU226
 948 001c 0120     		movs	r0, #1
 949 001e 84F84100 		strb	r0, [r4, #65]
 173:../Core/Src/periph_io.c **** 
 174:../Core/Src/periph_io.c ****     return 1;
 950              		.loc 1 174 5 is_stmt 1 view .LVU227
 951              		.loc 1 174 12 is_stmt 0 view .LVU228
 952 0022 02E0     		b	.L80
 953              	.LVL85:
 954              	.L82:
 955              	.LCFI22:
 956              		.cfi_def_cfa_offset 0
 957              		.cfi_restore 4
 958              		.cfi_restore 14
 165:../Core/Src/periph_io.c ****     }
 959              		.loc 1 165 16 view .LVU229
 960 0024 0020     		movs	r0, #0
 961              	.LVL86:
 175:../Core/Src/periph_io.c **** }
 962              		.loc 1 175 1 view .LVU230
 963 0026 7047     		bx	lr
 964              	.LVL87:
 965              	.L83:
 966              	.LCFI23:
 967              		.cfi_def_cfa_offset 8
 968              		.cfi_offset 4, -8
 969              		.cfi_offset 14, -4
 165:../Core/Src/periph_io.c ****     }
 970              		.loc 1 165 16 view .LVU231
 971 0028 0020     		movs	r0, #0
 972              	.LVL88:
 973              	.L80:
 974              		.loc 1 175 1 view .LVU232
 975 002a 10BD     		pop	{r4, pc}
 976              	.LVL89:
 977              	.L85:
ARM GAS  /tmp/ccGFnZhE.s 			page 23


 169:../Core/Src/periph_io.c ****     }
 978              		.loc 1 169 16 view .LVU233
 979 002c 0020     		movs	r0, #0
 980 002e FCE7     		b	.L80
 981              	.L92:
 982              		.align	2
 983              	.L91:
 984 0030 00000000 		.word	sd_mounted
 985              		.cfi_endproc
 986              	.LFE405:
 988              		.section	.text.flash_erase_block,"ax",%progbits
 989              		.align	1
 990              		.global	flash_erase_block
 991              		.syntax unified
 992              		.thumb
 993              		.thumb_func
 995              	flash_erase_block:
 996              	.LVL90:
 997              	.LFB406:
 176:../Core/Src/periph_io.c **** 
 177:../Core/Src/periph_io.c **** int flash_erase_block(FlashBlock *block) {
 998              		.loc 1 177 42 is_stmt 1 view -0
 999              		.cfi_startproc
 1000              		@ args = 0, pretend = 0, frame = 0
 1001              		@ frame_needed = 0, uses_anonymous_args = 0
 1002              		.loc 1 177 42 is_stmt 0 view .LVU235
 1003 0000 08B5     		push	{r3, lr}
 1004              	.LCFI24:
 1005              		.cfi_def_cfa_offset 8
 1006              		.cfi_offset 3, -8
 1007              		.cfi_offset 14, -4
 178:../Core/Src/periph_io.c ****     if (!flash_init) {
 1008              		.loc 1 178 5 is_stmt 1 view .LVU236
 1009              		.loc 1 178 9 is_stmt 0 view .LVU237
 1010 0002 094B     		ldr	r3, .L98
 1011 0004 1B78     		ldrb	r3, [r3]	@ zero_extendqisi2
 1012              		.loc 1 178 8 view .LVU238
 1013 0006 0BB9     		cbnz	r3, .L97
 179:../Core/Src/periph_io.c ****         return 0;
 1014              		.loc 1 179 16 view .LVU239
 1015 0008 0020     		movs	r0, #0
 1016              	.LVL91:
 1017              	.L93:
 180:../Core/Src/periph_io.c ****     }
 181:../Core/Src/periph_io.c **** 
 182:../Core/Src/periph_io.c ****     #ifdef USE_HW_FLASH_CHIP
 183:../Core/Src/periph_io.c ****         for (size_t i = 0; i < block->n_sectors; i++) {
 184:../Core/Src/periph_io.c ****             if (w25q_erase_sector(&flash_chip, block->start_sector + i) != W25Q_ERR_OK) {
 185:../Core/Src/periph_io.c ****                 return 0;
 186:../Core/Src/periph_io.c ****             }
 187:../Core/Src/periph_io.c ****         }
 188:../Core/Src/periph_io.c ****     #else
 189:../Core/Src/periph_io.c ****         memset(fake_flash_chip + block->start_sector * EXT_FLASH_SECTOR_SIZE, 0, block->n_sectors *
 190:../Core/Src/periph_io.c ****     #endif
 191:../Core/Src/periph_io.c **** 
 192:../Core/Src/periph_io.c ****     return 1;
 193:../Core/Src/periph_io.c **** }
ARM GAS  /tmp/ccGFnZhE.s 			page 24


 1018              		.loc 1 193 1 view .LVU240
 1019 000a 08BD     		pop	{r3, pc}
 1020              	.LVL92:
 1021              	.L97:
 189:../Core/Src/periph_io.c ****     #endif
 1022              		.loc 1 189 9 is_stmt 1 view .LVU241
 1023 000c 074B     		ldr	r3, .L98+4
 1024 000e 1B68     		ldr	r3, [r3]
 189:../Core/Src/periph_io.c ****     #endif
 1025              		.loc 1 189 39 is_stmt 0 view .LVU242
 1026 0010 B0F800C0 		ldrh	ip, [r0]
 189:../Core/Src/periph_io.c ****     #endif
 1027              		.loc 1 189 87 view .LVU243
 1028 0014 4288     		ldrh	r2, [r0, #2]
 189:../Core/Src/periph_io.c ****     #endif
 1029              		.loc 1 189 9 view .LVU244
 1030 0016 1203     		lsls	r2, r2, #12
 1031 0018 0021     		movs	r1, #0
 1032 001a 03EB0C30 		add	r0, r3, ip, lsl #12
 1033              	.LVL93:
 189:../Core/Src/periph_io.c ****     #endif
 1034              		.loc 1 189 9 view .LVU245
 1035 001e FFF7FEFF 		bl	memset
 1036              	.LVL94:
 192:../Core/Src/periph_io.c **** }
 1037              		.loc 1 192 5 is_stmt 1 view .LVU246
 192:../Core/Src/periph_io.c **** }
 1038              		.loc 1 192 12 is_stmt 0 view .LVU247
 1039 0022 0120     		movs	r0, #1
 1040 0024 F1E7     		b	.L93
 1041              	.L99:
 1042 0026 00BF     		.align	2
 1043              	.L98:
 1044 0028 00000000 		.word	flash_init
 1045 002c 00000000 		.word	fake_flash_chip
 1046              		.cfi_endproc
 1047              	.LFE406:
 1049              		.section	.text.flash_write_block,"ax",%progbits
 1050              		.align	1
 1051              		.global	flash_write_block
 1052              		.syntax unified
 1053              		.thumb
 1054              		.thumb_func
 1056              	flash_write_block:
 1057              	.LVL95:
 1058              	.LFB407:
 194:../Core/Src/periph_io.c **** 
 195:../Core/Src/periph_io.c **** int flash_write_block(FlashBlock *block, uint16_t start_addr, uint8_t *data, size_t len) {
 1059              		.loc 1 195 90 is_stmt 1 view -0
 1060              		.cfi_startproc
 1061              		@ args = 0, pretend = 0, frame = 0
 1062              		@ frame_needed = 0, uses_anonymous_args = 0
 196:../Core/Src/periph_io.c ****     if (block == NULL || !flash_init || start_addr % EXT_FLASH_PAGE_SIZE != 0) {
 1063              		.loc 1 196 5 view .LVU249
 1064              		.loc 1 196 8 is_stmt 0 view .LVU250
 1065 0000 00B3     		cbz	r0, .L104
 195:../Core/Src/periph_io.c ****     if (block == NULL || !flash_init || start_addr % EXT_FLASH_PAGE_SIZE != 0) {
ARM GAS  /tmp/ccGFnZhE.s 			page 25


 1066              		.loc 1 195 90 discriminator 1 view .LVU251
 1067 0002 F8B5     		push	{r3, r4, r5, r6, r7, lr}
 1068              	.LCFI25:
 1069              		.cfi_def_cfa_offset 24
 1070              		.cfi_offset 3, -24
 1071              		.cfi_offset 4, -20
 1072              		.cfi_offset 5, -16
 1073              		.cfi_offset 6, -12
 1074              		.cfi_offset 7, -8
 1075              		.cfi_offset 14, -4
 1076 0004 1746     		mov	r7, r2
 1077 0006 1D46     		mov	r5, r3
 1078              		.loc 1 196 26 discriminator 1 view .LVU252
 1079 0008 114B     		ldr	r3, .L111
 1080              	.LVL96:
 1081              		.loc 1 196 26 discriminator 1 view .LVU253
 1082 000a 1B78     		ldrb	r3, [r3]	@ zero_extendqisi2
 1083              		.loc 1 196 23 discriminator 1 view .LVU254
 1084 000c E3B1     		cbz	r3, .L105
 1085              		.loc 1 196 38 discriminator 2 view .LVU255
 1086 000e 11F0FF0F 		tst	r1, #255
 1087 0012 1BD1     		bne	.L106
 197:../Core/Src/periph_io.c ****         return 0;
 198:../Core/Src/periph_io.c ****     }
 199:../Core/Src/periph_io.c **** 
 200:../Core/Src/periph_io.c ****     size_t addr = block->start_sector * EXT_FLASH_SECTOR_SIZE + start_addr;
 1088              		.loc 1 200 5 is_stmt 1 view .LVU256
 1089              		.loc 1 200 24 is_stmt 0 view .LVU257
 1090 0014 0388     		ldrh	r3, [r0]
 1091              		.loc 1 200 12 view .LVU258
 1092 0016 01EB0336 		add	r6, r1, r3, lsl #12
 1093              	.LVL97:
 201:../Core/Src/periph_io.c **** 
 202:../Core/Src/periph_io.c ****     for (size_t offset = 0; offset < len; offset += EXT_FLASH_PAGE_SIZE) {
 1094              		.loc 1 202 5 is_stmt 1 view .LVU259
 1095              	.LBB12:
 1096              		.loc 1 202 10 view .LVU260
 1097              		.loc 1 202 17 is_stmt 0 view .LVU261
 1098 001a 0024     		movs	r4, #0
 1099              		.loc 1 202 5 view .LVU262
 1100 001c 0EE0     		b	.L102
 1101              	.LVL98:
 1102              	.L103:
 1103              	.LBB13:
 203:../Core/Src/periph_io.c ****         size_t remaining = len - offset;
 1104              		.loc 1 203 9 is_stmt 1 discriminator 3 view .LVU263
 1105              		.loc 1 203 16 is_stmt 0 discriminator 3 view .LVU264
 1106 001e 2A1B     		subs	r2, r5, r4
 1107              	.LVL99:
 204:../Core/Src/periph_io.c ****         size_t write_size = (remaining > EXT_FLASH_PAGE_SIZE) ? EXT_FLASH_PAGE_SIZE : remaining;
 1108              		.loc 1 204 9 is_stmt 1 discriminator 3 view .LVU265
 205:../Core/Src/periph_io.c **** 
 206:../Core/Src/periph_io.c **** #ifdef USE_HW_FLASH_CHIP
 207:../Core/Src/periph_io.c ****         if (w25q_write_raw(&flash_chip, data + offset, write_size, addr + offset) != W25Q_ERR_OK) {
 208:../Core/Src/periph_io.c ****             return 0;
 209:../Core/Src/periph_io.c ****         }
 210:../Core/Src/periph_io.c **** #else
ARM GAS  /tmp/ccGFnZhE.s 			page 26


 211:../Core/Src/periph_io.c ****         memcpy(fake_flash_chip + addr + offset, data + offset, write_size);
 1109              		.loc 1 211 9 discriminator 3 view .LVU266
 1110 0020 0C4B     		ldr	r3, .L111+4
 1111 0022 1868     		ldr	r0, [r3]
 1112              		.loc 1 211 39 is_stmt 0 discriminator 3 view .LVU267
 1113 0024 A319     		adds	r3, r4, r6
 1114              		.loc 1 211 9 discriminator 3 view .LVU268
 1115 0026 B2F5807F 		cmp	r2, #256
 1116 002a 28BF     		it	cs
 1117 002c 4FF48072 		movcs	r2, #256
 1118              	.LVL100:
 1119              		.loc 1 211 9 discriminator 3 view .LVU269
 1120 0030 3919     		adds	r1, r7, r4
 1121 0032 1844     		add	r0, r0, r3
 1122 0034 FFF7FEFF 		bl	memcpy
 1123              	.LVL101:
 1124              	.LBE13:
 202:../Core/Src/periph_io.c ****         size_t remaining = len - offset;
 1125              		.loc 1 202 50 is_stmt 1 discriminator 3 view .LVU270
 1126 0038 04F58074 		add	r4, r4, #256
 1127              	.LVL102:
 1128              	.L102:
 202:../Core/Src/periph_io.c ****         size_t remaining = len - offset;
 1129              		.loc 1 202 36 discriminator 1 view .LVU271
 1130 003c AC42     		cmp	r4, r5
 1131 003e EED3     		bcc	.L103
 1132              	.LBE12:
 212:../Core/Src/periph_io.c **** #endif
 213:../Core/Src/periph_io.c ****     }
 214:../Core/Src/periph_io.c **** 
 215:../Core/Src/periph_io.c ****     return 1;
 1133              		.loc 1 215 12 is_stmt 0 view .LVU272
 1134 0040 0120     		movs	r0, #1
 1135              	.LVL103:
 1136              	.L100:
 216:../Core/Src/periph_io.c **** }
 1137              		.loc 1 216 1 view .LVU273
 1138 0042 F8BD     		pop	{r3, r4, r5, r6, r7, pc}
 1139              	.LVL104:
 1140              	.L104:
 1141              	.LCFI26:
 1142              		.cfi_def_cfa_offset 0
 1143              		.cfi_restore 3
 1144              		.cfi_restore 4
 1145              		.cfi_restore 5
 1146              		.cfi_restore 6
 1147              		.cfi_restore 7
 1148              		.cfi_restore 14
 197:../Core/Src/periph_io.c ****     }
 1149              		.loc 1 197 16 view .LVU274
 1150 0044 0020     		movs	r0, #0
 1151              	.LVL105:
 1152              		.loc 1 216 1 view .LVU275
 1153 0046 7047     		bx	lr
 1154              	.LVL106:
 1155              	.L105:
 1156              	.LCFI27:
ARM GAS  /tmp/ccGFnZhE.s 			page 27


 1157              		.cfi_def_cfa_offset 24
 1158              		.cfi_offset 3, -24
 1159              		.cfi_offset 4, -20
 1160              		.cfi_offset 5, -16
 1161              		.cfi_offset 6, -12
 1162              		.cfi_offset 7, -8
 1163              		.cfi_offset 14, -4
 197:../Core/Src/periph_io.c ****     }
 1164              		.loc 1 197 16 view .LVU276
 1165 0048 0020     		movs	r0, #0
 1166              	.LVL107:
 197:../Core/Src/periph_io.c ****     }
 1167              		.loc 1 197 16 view .LVU277
 1168 004a FAE7     		b	.L100
 1169              	.LVL108:
 1170              	.L106:
 197:../Core/Src/periph_io.c ****     }
 1171              		.loc 1 197 16 view .LVU278
 1172 004c 0020     		movs	r0, #0
 1173              	.LVL109:
 197:../Core/Src/periph_io.c ****     }
 1174              		.loc 1 197 16 view .LVU279
 1175 004e F8E7     		b	.L100
 1176              	.L112:
 1177              		.align	2
 1178              	.L111:
 1179 0050 00000000 		.word	flash_init
 1180 0054 00000000 		.word	fake_flash_chip
 1181              		.cfi_endproc
 1182              	.LFE407:
 1184              		.section	.text.flash_read_block,"ax",%progbits
 1185              		.align	1
 1186              		.global	flash_read_block
 1187              		.syntax unified
 1188              		.thumb
 1189              		.thumb_func
 1191              	flash_read_block:
 1192              	.LVL110:
 1193              	.LFB408:
 217:../Core/Src/periph_io.c **** 
 218:../Core/Src/periph_io.c **** int flash_read_block(FlashBlock *block, uint16_t start_addr, uint8_t *data, size_t len) {
 1194              		.loc 1 218 89 is_stmt 1 view -0
 1195              		.cfi_startproc
 1196              		@ args = 0, pretend = 0, frame = 0
 1197              		@ frame_needed = 0, uses_anonymous_args = 0
 219:../Core/Src/periph_io.c ****     if (block == NULL || !flash_init || start_addr % EXT_FLASH_PAGE_SIZE != 0) {
 1198              		.loc 1 219 5 view .LVU281
 1199              		.loc 1 219 8 is_stmt 0 view .LVU282
 1200 0000 00B3     		cbz	r0, .L117
 218:../Core/Src/periph_io.c ****     if (block == NULL || !flash_init || start_addr % EXT_FLASH_PAGE_SIZE != 0) {
 1201              		.loc 1 218 89 discriminator 1 view .LVU283
 1202 0002 F8B5     		push	{r3, r4, r5, r6, r7, lr}
 1203              	.LCFI28:
 1204              		.cfi_def_cfa_offset 24
 1205              		.cfi_offset 3, -24
 1206              		.cfi_offset 4, -20
 1207              		.cfi_offset 5, -16
ARM GAS  /tmp/ccGFnZhE.s 			page 28


 1208              		.cfi_offset 6, -12
 1209              		.cfi_offset 7, -8
 1210              		.cfi_offset 14, -4
 1211 0004 1746     		mov	r7, r2
 1212 0006 1D46     		mov	r5, r3
 1213              		.loc 1 219 26 discriminator 1 view .LVU284
 1214 0008 114B     		ldr	r3, .L124
 1215              	.LVL111:
 1216              		.loc 1 219 26 discriminator 1 view .LVU285
 1217 000a 1B78     		ldrb	r3, [r3]	@ zero_extendqisi2
 1218              		.loc 1 219 23 discriminator 1 view .LVU286
 1219 000c E3B1     		cbz	r3, .L118
 1220              		.loc 1 219 38 discriminator 2 view .LVU287
 1221 000e 11F0FF0F 		tst	r1, #255
 1222 0012 1BD1     		bne	.L119
 220:../Core/Src/periph_io.c ****         return 0;
 221:../Core/Src/periph_io.c ****     }
 222:../Core/Src/periph_io.c **** 
 223:../Core/Src/periph_io.c ****     size_t addr = block->start_sector * EXT_FLASH_SECTOR_SIZE + start_addr;
 1223              		.loc 1 223 5 is_stmt 1 view .LVU288
 1224              		.loc 1 223 24 is_stmt 0 view .LVU289
 1225 0014 0388     		ldrh	r3, [r0]
 1226              		.loc 1 223 12 view .LVU290
 1227 0016 01EB0336 		add	r6, r1, r3, lsl #12
 1228              	.LVL112:
 224:../Core/Src/periph_io.c **** 
 225:../Core/Src/periph_io.c ****     for (size_t offset = 0; offset < len; offset += EXT_FLASH_PAGE_SIZE) {
 1229              		.loc 1 225 5 is_stmt 1 view .LVU291
 1230              	.LBB14:
 1231              		.loc 1 225 10 view .LVU292
 1232              		.loc 1 225 17 is_stmt 0 view .LVU293
 1233 001a 0024     		movs	r4, #0
 1234              		.loc 1 225 5 view .LVU294
 1235 001c 0EE0     		b	.L115
 1236              	.LVL113:
 1237              	.L116:
 1238              	.LBB15:
 226:../Core/Src/periph_io.c ****         size_t remaining = len - offset;
 1239              		.loc 1 226 9 is_stmt 1 discriminator 3 view .LVU295
 1240              		.loc 1 226 16 is_stmt 0 discriminator 3 view .LVU296
 1241 001e 2A1B     		subs	r2, r5, r4
 1242              	.LVL114:
 227:../Core/Src/periph_io.c ****         size_t read_size = (remaining > EXT_FLASH_PAGE_SIZE) ? EXT_FLASH_PAGE_SIZE : remaining;
 1243              		.loc 1 227 9 is_stmt 1 discriminator 3 view .LVU297
 228:../Core/Src/periph_io.c **** 
 229:../Core/Src/periph_io.c **** #ifdef USE_HW_FLASH_CHIP
 230:../Core/Src/periph_io.c ****         if (w25q_read_raw(&flash_chip, data + offset, read_size, addr + offset) != W25Q_ERR_OK) {
 231:../Core/Src/periph_io.c ****             return 0;
 232:../Core/Src/periph_io.c ****         }
 233:../Core/Src/periph_io.c **** #else
 234:../Core/Src/periph_io.c ****         memcpy(data + offset, fake_flash_chip + addr + offset, read_size);
 1244              		.loc 1 234 9 discriminator 3 view .LVU298
 1245 0020 0C4B     		ldr	r3, .L124+4
 1246 0022 1968     		ldr	r1, [r3]
 1247              		.loc 1 234 54 is_stmt 0 discriminator 3 view .LVU299
 1248 0024 A319     		adds	r3, r4, r6
 1249              		.loc 1 234 9 discriminator 3 view .LVU300
ARM GAS  /tmp/ccGFnZhE.s 			page 29


 1250 0026 B2F5807F 		cmp	r2, #256
 1251 002a 28BF     		it	cs
 1252 002c 4FF48072 		movcs	r2, #256
 1253              	.LVL115:
 1254              		.loc 1 234 9 discriminator 3 view .LVU301
 1255 0030 1944     		add	r1, r1, r3
 1256 0032 3819     		adds	r0, r7, r4
 1257 0034 FFF7FEFF 		bl	memcpy
 1258              	.LVL116:
 1259              	.LBE15:
 225:../Core/Src/periph_io.c ****         size_t remaining = len - offset;
 1260              		.loc 1 225 50 is_stmt 1 discriminator 3 view .LVU302
 1261 0038 04F58074 		add	r4, r4, #256
 1262              	.LVL117:
 1263              	.L115:
 225:../Core/Src/periph_io.c ****         size_t remaining = len - offset;
 1264              		.loc 1 225 36 discriminator 1 view .LVU303
 1265 003c AC42     		cmp	r4, r5
 1266 003e EED3     		bcc	.L116
 1267              	.LBE14:
 235:../Core/Src/periph_io.c **** #endif
 236:../Core/Src/periph_io.c ****     }
 237:../Core/Src/periph_io.c **** 
 238:../Core/Src/periph_io.c ****     return 1;
 1268              		.loc 1 238 12 is_stmt 0 view .LVU304
 1269 0040 0120     		movs	r0, #1
 1270              	.LVL118:
 1271              	.L113:
 239:../Core/Src/periph_io.c **** }
 1272              		.loc 1 239 1 view .LVU305
 1273 0042 F8BD     		pop	{r3, r4, r5, r6, r7, pc}
 1274              	.LVL119:
 1275              	.L117:
 1276              	.LCFI29:
 1277              		.cfi_def_cfa_offset 0
 1278              		.cfi_restore 3
 1279              		.cfi_restore 4
 1280              		.cfi_restore 5
 1281              		.cfi_restore 6
 1282              		.cfi_restore 7
 1283              		.cfi_restore 14
 220:../Core/Src/periph_io.c ****     }
 1284              		.loc 1 220 16 view .LVU306
 1285 0044 0020     		movs	r0, #0
 1286              	.LVL120:
 1287              		.loc 1 239 1 view .LVU307
 1288 0046 7047     		bx	lr
 1289              	.LVL121:
 1290              	.L118:
 1291              	.LCFI30:
 1292              		.cfi_def_cfa_offset 24
 1293              		.cfi_offset 3, -24
 1294              		.cfi_offset 4, -20
 1295              		.cfi_offset 5, -16
 1296              		.cfi_offset 6, -12
 1297              		.cfi_offset 7, -8
 1298              		.cfi_offset 14, -4
ARM GAS  /tmp/ccGFnZhE.s 			page 30


 220:../Core/Src/periph_io.c ****     }
 1299              		.loc 1 220 16 view .LVU308
 1300 0048 0020     		movs	r0, #0
 1301              	.LVL122:
 220:../Core/Src/periph_io.c ****     }
 1302              		.loc 1 220 16 view .LVU309
 1303 004a FAE7     		b	.L113
 1304              	.LVL123:
 1305              	.L119:
 220:../Core/Src/periph_io.c ****     }
 1306              		.loc 1 220 16 view .LVU310
 1307 004c 0020     		movs	r0, #0
 1308              	.LVL124:
 220:../Core/Src/periph_io.c ****     }
 1309              		.loc 1 220 16 view .LVU311
 1310 004e F8E7     		b	.L113
 1311              	.L125:
 1312              		.align	2
 1313              	.L124:
 1314 0050 00000000 		.word	flash_init
 1315 0054 00000000 		.word	fake_flash_chip
 1316              		.cfi_endproc
 1317              	.LFE408:
 1319              		.global	fs
 1320              		.section	.bss.fs,"aw",%nobits
 1321              		.align	2
 1324              	fs:
 1325 0000 00000000 		.space	4152
 1325      00000000 
 1325      00000000 
 1325      00000000 
 1325      00000000 
 1326              		.global	flash_chip
 1327              		.section	.bss.flash_chip,"aw",%nobits
 1328              		.align	2
 1331              	flash_chip:
 1332 0000 00000000 		.space	8
 1332      00000000 
 1333              		.global	flash_init
 1334              		.section	.bss.flash_init,"aw",%nobits
 1337              	flash_init:
 1338 0000 00       		.space	1
 1339              		.global	sd_mounted
 1340              		.section	.bss.sd_mounted,"aw",%nobits
 1343              	sd_mounted:
 1344 0000 00       		.space	1
 1345              		.global	fake_flash_chip
 1346              		.section	.data.fake_flash_chip,"aw"
 1347              		.align	2
 1350              	fake_flash_chip:
 1351 0000 00000000 		.word	_fake_flash_chip
 1352              		.global	_fake_flash_chip
 1353              		.section	.bss._fake_flash_chip,"aw",%nobits
 1354              		.align	2
 1357              	_fake_flash_chip:
 1358 0000 00000000 		.space	32768
 1358      00000000 
ARM GAS  /tmp/ccGFnZhE.s 			page 31


 1358      00000000 
 1358      00000000 
 1358      00000000 
 1359              		.text
 1360              	.Letext0:
 1361              		.file 2 "/nix/store/lcj4nx7xv8c36cif7armkfa7b5cmfh74-gcc-arm-embedded-12.3.rel1/arm-none-eabi/incl
 1362              		.file 3 "/nix/store/lcj4nx7xv8c36cif7armkfa7b5cmfh74-gcc-arm-embedded-12.3.rel1/arm-none-eabi/incl
 1363              		.file 4 "/nix/store/lcj4nx7xv8c36cif7armkfa7b5cmfh74-gcc-arm-embedded-12.3.rel1/lib/gcc/arm-none-e
 1364              		.file 5 "Middlewares/Third_Party/FatFs/src/integer.h"
 1365              		.file 6 "Drivers/CMSIS/Device/ST/STM32H7xx/Include/stm32h725xx.h"
 1366              		.file 7 "Drivers/STM32H7xx_HAL_Driver/Inc/stm32h7xx_hal_def.h"
 1367              		.file 8 "Drivers/STM32H7xx_HAL_Driver/Inc/stm32h7xx_hal_dma.h"
 1368              		.file 9 "Drivers/STM32H7xx_HAL_Driver/Inc/stm32h7xx_hal_uart.h"
 1369              		.file 10 "Middlewares/Third_Party/FatFs/src/ff.h"
 1370              		.file 11 "../Core/Include/w25q.h"
 1371              		.file 12 "../Core/Include/periph_io.h"
 1372              		.file 13 "../Core/Include/adc.h"
 1373              		.file 14 "Core/Inc/port_config.h"
 1374              		.file 15 "../Core/Include/globals.h"
 1375              		.file 16 "/nix/store/lcj4nx7xv8c36cif7armkfa7b5cmfh74-gcc-arm-embedded-12.3.rel1/arm-none-eabi/inc
 1376              		.file 17 "/nix/store/lcj4nx7xv8c36cif7armkfa7b5cmfh74-gcc-arm-embedded-12.3.rel1/arm-none-eabi/inc
 1377              		.file 18 "<built-in>"
ARM GAS  /tmp/ccGFnZhE.s 			page 32

