ARM GAS  /tmp/cc2zJsom.s 			page 1


   1              		.cpu cortex-m7
   2              		.arch armv7e-m
   3              		.fpu fpv5-d16
   4              		.eabi_attribute 28, 1
   5              		.eabi_attribute 20, 1
   6              		.eabi_attribute 21, 1
   7              		.eabi_attribute 23, 3
   8              		.eabi_attribute 24, 1
   9              		.eabi_attribute 25, 1
  10              		.eabi_attribute 26, 1
  11              		.eabi_attribute 30, 1
  12              		.eabi_attribute 34, 1
  13              		.eabi_attribute 18, 4
  14              		.file	"protocol.c"
  15              		.text
  16              	.Ltext0:
  17              		.cfi_sections	.debug_frame
  18              		.file 1 "../Core/Src/protocol.c"
  19              		.section	.text.is_command_packet,"ax",%progbits
  20              		.align	1
  21              		.global	is_command_packet
  22              		.syntax unified
  23              		.thumb
  24              		.thumb_func
  26              	is_command_packet:
  27              	.LVL0:
  28              	.LFB3:
   1:../Core/Src/protocol.c **** #include "packet_encode.h"
   2:../Core/Src/protocol.c **** #include "protocol.h"
   3:../Core/Src/protocol.c **** #include <time.h>
   4:../Core/Src/protocol.c **** #include <stdbool.h>
   5:../Core/Src/protocol.c **** #include <stdint.h>
   6:../Core/Src/protocol.c **** #include <stdio.h>
   7:../Core/Src/protocol.c **** #include <string.h>
   8:../Core/Src/protocol.c **** 
   9:../Core/Src/protocol.c **** //*************************************************************************************************
  10:../Core/Src/protocol.c **** //*************************************************************************************************
  11:../Core/Src/protocol.c **** //*************************************************************************************************
  12:../Core/Src/protocol.c **** // DISCLAIMER: THIS FILE WAS AUTO-GENERATED BY template_generator.py
  13:../Core/Src/protocol.c **** // DO NOT MODIFY THIS FILE DIRECTLY!
  14:../Core/Src/protocol.c **** // TO MODIFY THE PROTOCOL, EDIT protocol.json AND RE-RUN template_generator.py
  15:../Core/Src/protocol.c **** //*************************************************************************************************
  16:../Core/Src/protocol.c **** //*************************************************************************************************
  17:../Core/Src/protocol.c **** //*************************************************************************************************
  18:../Core/Src/protocol.c **** 
  19:../Core/Src/protocol.c **** int is_command_packet(uint8_t* packet, size_t packet_size) {
  29              		.loc 1 19 60 view -0
  30              		.cfi_startproc
  31              		@ args = 0, pretend = 0, frame = 0
  32              		@ frame_needed = 0, uses_anonymous_args = 0
  33              		@ link register save eliminated.
  20:../Core/Src/protocol.c **** 	if (packet_size != 7) return -1; // Incorrect size
  34              		.loc 1 20 2 view .LVU1
  35              		.loc 1 20 5 is_stmt 0 view .LVU2
  36 0000 0729     		cmp	r1, #7
  37 0002 04D1     		bne	.L3
  21:../Core/Src/protocol.c **** 	if (packet[1] != COMMAND_MSG_ID) return -1; // Incorrect command id
ARM GAS  /tmp/cc2zJsom.s 			page 2


  38              		.loc 1 21 2 is_stmt 1 view .LVU3
  39              		.loc 1 21 12 is_stmt 0 view .LVU4
  40 0004 4378     		ldrb	r3, [r0, #1]	@ zero_extendqisi2
  41              		.loc 1 21 5 view .LVU5
  42 0006 012B     		cmp	r3, #1
  43 0008 04D1     		bne	.L4
  22:../Core/Src/protocol.c **** 	return packet[3];
  44              		.loc 1 22 2 is_stmt 1 view .LVU6
  45              		.loc 1 22 15 is_stmt 0 view .LVU7
  46 000a C078     		ldrb	r0, [r0, #3]	@ zero_extendqisi2
  47              	.LVL1:
  48              		.loc 1 22 15 view .LVU8
  49 000c 7047     		bx	lr
  50              	.LVL2:
  51              	.L3:
  20:../Core/Src/protocol.c **** 	if (packet_size != 7) return -1; // Incorrect size
  52              		.loc 1 20 31 view .LVU9
  53 000e 4FF0FF30 		mov	r0, #-1
  54              	.LVL3:
  20:../Core/Src/protocol.c **** 	if (packet_size != 7) return -1; // Incorrect size
  55              		.loc 1 20 31 view .LVU10
  56 0012 7047     		bx	lr
  57              	.LVL4:
  58              	.L4:
  21:../Core/Src/protocol.c **** 	if (packet[1] != COMMAND_MSG_ID) return -1; // Incorrect command id
  59              		.loc 1 21 42 view .LVU11
  60 0014 4FF0FF30 		mov	r0, #-1
  61              	.LVL5:
  23:../Core/Src/protocol.c **** }
  62              		.loc 1 23 1 view .LVU12
  63 0018 7047     		bx	lr
  64              		.cfi_endproc
  65              	.LFE3:
  67              		.section	.text.get_command_uuid,"ax",%progbits
  68              		.align	1
  69              		.global	get_command_uuid
  70              		.syntax unified
  71              		.thumb
  72              		.thumb_func
  74              	get_command_uuid:
  75              	.LVL6:
  76              	.LFB4:
  24:../Core/Src/protocol.c **** 
  25:../Core/Src/protocol.c **** int get_command_uuid(uint8_t* packet) {
  77              		.loc 1 25 39 is_stmt 1 view -0
  78              		.cfi_startproc
  79              		@ args = 0, pretend = 0, frame = 0
  80              		@ frame_needed = 0, uses_anonymous_args = 0
  81              		@ link register save eliminated.
  26:../Core/Src/protocol.c **** 	return packet[4];
  82              		.loc 1 26 2 view .LVU14
  27:../Core/Src/protocol.c **** }
  83              		.loc 1 27 1 is_stmt 0 view .LVU15
  84 0000 0079     		ldrb	r0, [r0, #4]	@ zero_extendqisi2
  85              	.LVL7:
  86              		.loc 1 27 1 view .LVU16
  87 0002 7047     		bx	lr
ARM GAS  /tmp/cc2zJsom.s 			page 3


  88              		.cfi_endproc
  89              	.LFE4:
  91              		.section	.text.generate_ack_packet,"ax",%progbits
  92              		.align	1
  93              		.global	generate_ack_packet
  94              		.syntax unified
  95              		.thumb
  96              		.thumb_func
  98              	generate_ack_packet:
  99              	.LVL8:
 100              	.LFB5:
  28:../Core/Src/protocol.c **** 
  29:../Core/Src/protocol.c **** int generate_ack_packet(uint8_t *packet, size_t packet_size, uint8_t *generated_packet) {
 101              		.loc 1 29 89 is_stmt 1 view -0
 102              		.cfi_startproc
 103              		@ args = 0, pretend = 0, frame = 8
 104              		@ frame_needed = 0, uses_anonymous_args = 0
  30:../Core/Src/protocol.c ****   if (packet_size != 7) {
 105              		.loc 1 30 3 view .LVU18
 106              		.loc 1 30 6 is_stmt 0 view .LVU19
 107 0000 0729     		cmp	r1, #7
 108 0002 1ED1     		bne	.L8
  29:../Core/Src/protocol.c ****   if (packet_size != 7) {
 109              		.loc 1 29 89 view .LVU20
 110 0004 70B5     		push	{r4, r5, r6, lr}
 111              	.LCFI0:
 112              		.cfi_def_cfa_offset 16
 113              		.cfi_offset 4, -16
 114              		.cfi_offset 5, -12
 115              		.cfi_offset 6, -8
 116              		.cfi_offset 14, -4
 117 0006 82B0     		sub	sp, sp, #8
 118              	.LCFI1:
 119              		.cfi_def_cfa_offset 24
 120 0008 0546     		mov	r5, r0
 121 000a 0C46     		mov	r4, r1
 122 000c 1646     		mov	r6, r2
  31:../Core/Src/protocol.c ****     return -1;
  32:../Core/Src/protocol.c ****   }
  33:../Core/Src/protocol.c ****   if (!verify_packet(packet, packet_size)) {
 123              		.loc 1 33 3 is_stmt 1 view .LVU21
 124              		.loc 1 33 8 is_stmt 0 view .LVU22
 125 000e FFF7FEFF 		bl	verify_packet
 126              	.LVL9:
 127              		.loc 1 33 6 view .LVU23
 128 0012 C8B1     		cbz	r0, .L9
  34:../Core/Src/protocol.c ****     return -2;
  35:../Core/Src/protocol.c ****   }
  36:../Core/Src/protocol.c **** 
  37:../Core/Src/protocol.c ****   int command_id = is_command_packet(packet, packet_size);
 129              		.loc 1 37 3 is_stmt 1 view .LVU24
 130              		.loc 1 37 20 is_stmt 0 view .LVU25
 131 0014 2146     		mov	r1, r4
 132 0016 2846     		mov	r0, r5
 133 0018 FFF7FEFF 		bl	is_command_packet
 134              	.LVL10:
  38:../Core/Src/protocol.c ****   if (command_id < 0 || command_id > 255) {
ARM GAS  /tmp/cc2zJsom.s 			page 4


 135              		.loc 1 38 3 is_stmt 1 view .LVU26
 136              		.loc 1 38 6 is_stmt 0 view .LVU27
 137 001c FF28     		cmp	r0, #255
 138 001e 16D8     		bhi	.L10
  39:../Core/Src/protocol.c ****     return -3;
  40:../Core/Src/protocol.c ****   }
  41:../Core/Src/protocol.c ****   uint8_t payload[2];
 139              		.loc 1 41 3 is_stmt 1 view .LVU28
  42:../Core/Src/protocol.c ****   payload[0] = command_id; // command id
 140              		.loc 1 42 3 view .LVU29
 141              		.loc 1 42 14 is_stmt 0 view .LVU30
 142 0020 8DF80400 		strb	r0, [sp, #4]
  43:../Core/Src/protocol.c ****   payload[1] = get_command_uuid(packet); // command uuid
 143              		.loc 1 43 3 is_stmt 1 view .LVU31
 144              		.loc 1 43 16 is_stmt 0 view .LVU32
 145 0024 2846     		mov	r0, r5
 146              	.LVL11:
 147              		.loc 1 43 16 view .LVU33
 148 0026 FFF7FEFF 		bl	get_command_uuid
 149              	.LVL12:
 150              		.loc 1 43 14 view .LVU34
 151 002a 8DF80500 		strb	r0, [sp, #5]
  44:../Core/Src/protocol.c ****   int written = generate_packet(payload, 2, generated_packet, COMMAND_ACK_MSG_ID);
 152              		.loc 1 44 3 is_stmt 1 view .LVU35
 153              		.loc 1 44 17 is_stmt 0 view .LVU36
 154 002e 0223     		movs	r3, #2
 155 0030 3246     		mov	r2, r6
 156 0032 1946     		mov	r1, r3
 157 0034 01A8     		add	r0, sp, #4
 158 0036 FFF7FEFF 		bl	generate_packet
 159              	.LVL13:
  45:../Core/Src/protocol.c ****   if (written != 7) {
 160              		.loc 1 45 3 is_stmt 1 view .LVU37
 161              		.loc 1 45 6 is_stmt 0 view .LVU38
 162 003a 0728     		cmp	r0, #7
 163 003c 0AD1     		bne	.L16
 164              	.LVL14:
 165              	.L6:
  46:../Core/Src/protocol.c ****     return -4;
  47:../Core/Src/protocol.c ****   }
  48:../Core/Src/protocol.c ****   return 7;
  49:../Core/Src/protocol.c **** }
 166              		.loc 1 49 1 view .LVU39
 167 003e 02B0     		add	sp, sp, #8
 168              	.LCFI2:
 169              		.cfi_def_cfa_offset 16
 170              		@ sp needed
 171 0040 70BD     		pop	{r4, r5, r6, pc}
 172              	.LVL15:
 173              	.L8:
 174              	.LCFI3:
 175              		.cfi_def_cfa_offset 0
 176              		.cfi_restore 4
 177              		.cfi_restore 5
 178              		.cfi_restore 6
 179              		.cfi_restore 14
  31:../Core/Src/protocol.c ****   }
ARM GAS  /tmp/cc2zJsom.s 			page 5


 180              		.loc 1 31 12 view .LVU40
 181 0042 4FF0FF30 		mov	r0, #-1
 182              	.LVL16:
 183              		.loc 1 49 1 view .LVU41
 184 0046 7047     		bx	lr
 185              	.LVL17:
 186              	.L9:
 187              	.LCFI4:
 188              		.cfi_def_cfa_offset 24
 189              		.cfi_offset 4, -16
 190              		.cfi_offset 5, -12
 191              		.cfi_offset 6, -8
 192              		.cfi_offset 14, -4
  34:../Core/Src/protocol.c ****   }
 193              		.loc 1 34 12 view .LVU42
 194 0048 6FF00100 		mvn	r0, #1
 195 004c F7E7     		b	.L6
 196              	.LVL18:
 197              	.L10:
  39:../Core/Src/protocol.c ****   }
 198              		.loc 1 39 12 view .LVU43
 199 004e 6FF00200 		mvn	r0, #2
 200              	.LVL19:
  39:../Core/Src/protocol.c ****   }
 201              		.loc 1 39 12 view .LVU44
 202 0052 F4E7     		b	.L6
 203              	.LVL20:
 204              	.L16:
  46:../Core/Src/protocol.c ****   }
 205              		.loc 1 46 12 view .LVU45
 206 0054 6FF00300 		mvn	r0, #3
 207              	.LVL21:
  46:../Core/Src/protocol.c ****   }
 208              		.loc 1 46 12 view .LVU46
 209 0058 F1E7     		b	.L6
 210              		.cfi_endproc
 211              	.LFE5:
 213              		.section	.text.generate_command_payload,"ax",%progbits
 214              		.align	1
 215              		.global	generate_command_payload
 216              		.syntax unified
 217              		.thumb
 218              		.thumb_func
 220              	generate_command_payload:
 221              	.LVL22:
 222              	.LFB6:
  50:../Core/Src/protocol.c **** 
  51:../Core/Src/protocol.c **** size_t generate_command_payload(uint8_t *buffer, uint8_t command_id, uint8_t command_counter) {
 223              		.loc 1 51 95 is_stmt 1 view -0
 224              		.cfi_startproc
 225              		@ args = 0, pretend = 0, frame = 0
 226              		@ frame_needed = 0, uses_anonymous_args = 0
 227              		@ link register save eliminated.
  52:../Core/Src/protocol.c **** 	memcpy(buffer, &command_id, sizeof(command_id));	// Byte 1: command id
 228              		.loc 1 52 2 view .LVU48
 229 0000 0170     		strb	r1, [r0]
  53:../Core/Src/protocol.c **** 	memcpy(buffer + sizeof(command_id), &command_counter, sizeof(command_counter)); // byte 2 command 
ARM GAS  /tmp/cc2zJsom.s 			page 6


 230              		.loc 1 53 2 view .LVU49
 231 0002 4270     		strb	r2, [r0, #1]
  54:../Core/Src/protocol.c **** 	return sizeof(command_id) + sizeof(command_counter);
 232              		.loc 1 54 2 view .LVU50
  55:../Core/Src/protocol.c **** }
 233              		.loc 1 55 1 is_stmt 0 view .LVU51
 234 0004 0220     		movs	r0, #2
 235              	.LVL23:
 236              		.loc 1 55 1 view .LVU52
 237 0006 7047     		bx	lr
 238              		.cfi_endproc
 239              	.LFE6:
 241              		.section	.text.extract_command,"ax",%progbits
 242              		.align	1
 243              		.global	extract_command
 244              		.syntax unified
 245              		.thumb
 246              		.thumb_func
 248              	extract_command:
 249              	.LVL24:
 250              	.LFB7:
  56:../Core/Src/protocol.c **** 
  57:../Core/Src/protocol.c **** bool extract_command(uint8_t *buffer, uint8_t buffer_size, struct CommandStruct* destination) {
 251              		.loc 1 57 95 is_stmt 1 view -0
 252              		.cfi_startproc
 253              		@ args = 0, pretend = 0, frame = 0
 254              		@ frame_needed = 0, uses_anonymous_args = 0
 255              		@ link register save eliminated.
  58:../Core/Src/protocol.c **** 	if (buffer_size != 2) return false;
 256              		.loc 1 58 2 view .LVU54
 257              		.loc 1 58 5 is_stmt 0 view .LVU55
 258 0000 0229     		cmp	r1, #2
 259 0002 05D1     		bne	.L20
  59:../Core/Src/protocol.c **** 	destination->command_id = buffer[0];
 260              		.loc 1 59 2 is_stmt 1 view .LVU56
 261              		.loc 1 59 34 is_stmt 0 view .LVU57
 262 0004 0378     		ldrb	r3, [r0]	@ zero_extendqisi2
 263              		.loc 1 59 26 view .LVU58
 264 0006 1370     		strb	r3, [r2]
  60:../Core/Src/protocol.c **** 	destination->command_counter = buffer[1];
 265              		.loc 1 60 2 is_stmt 1 view .LVU59
 266              		.loc 1 60 31 is_stmt 0 view .LVU60
 267 0008 4378     		ldrb	r3, [r0, #1]	@ zero_extendqisi2
 268 000a 5370     		strb	r3, [r2, #1]
  61:../Core/Src/protocol.c **** 	return true;
 269              		.loc 1 61 2 is_stmt 1 view .LVU61
 270              		.loc 1 61 9 is_stmt 0 view .LVU62
 271 000c 0120     		movs	r0, #1
 272              	.LVL25:
 273              		.loc 1 61 9 view .LVU63
 274 000e 7047     		bx	lr
 275              	.LVL26:
 276              	.L20:
  58:../Core/Src/protocol.c **** 	destination->command_id = buffer[0];
 277              		.loc 1 58 31 view .LVU64
 278 0010 0020     		movs	r0, #0
 279              	.LVL27:
ARM GAS  /tmp/cc2zJsom.s 			page 7


  62:../Core/Src/protocol.c **** }
 280              		.loc 1 62 1 view .LVU65
 281 0012 7047     		bx	lr
 282              		.cfi_endproc
 283              	.LFE7:
 285              		.section	.text.get_msg_size,"ax",%progbits
 286              		.align	1
 287              		.global	get_msg_size
 288              		.syntax unified
 289              		.thumb
 290              		.thumb_func
 292              	get_msg_size:
 293              	.LVL28:
 294              	.LFB8:
  63:../Core/Src/protocol.c **** 
  64:../Core/Src/protocol.c **** int get_msg_size(int message_id) {
 295              		.loc 1 64 34 is_stmt 1 view -0
 296              		.cfi_startproc
 297              		@ args = 0, pretend = 0, frame = 0
 298              		@ frame_needed = 0, uses_anonymous_args = 0
 299              		@ link register save eliminated.
  65:../Core/Src/protocol.c **** 	switch (message_id) {
 300              		.loc 1 65 2 view .LVU67
 301 0000 0A28     		cmp	r0, #10
 302 0002 03D0     		beq	.L23
 303 0004 0B28     		cmp	r0, #11
 304 0006 03D1     		bne	.L24
  66:../Core/Src/protocol.c ****     	case ROCKETSTATE_MSG_ID:
  67:../Core/Src/protocol.c **** 			return ROCKETSTATE_SIZE;
  68:../Core/Src/protocol.c ****     	case SERVODEFLECTIONS_MSG_ID:
  69:../Core/Src/protocol.c **** 			return SERVODEFLECTIONS_SIZE;
 305              		.loc 1 69 11 is_stmt 0 view .LVU68
 306 0008 1820     		movs	r0, #24
 307              	.LVL29:
 308              		.loc 1 69 11 view .LVU69
 309 000a 7047     		bx	lr
 310              	.LVL30:
 311              	.L23:
  65:../Core/Src/protocol.c **** 	switch (message_id) {
 312              		.loc 1 65 2 view .LVU70
 313 000c 0920     		movs	r0, #9
 314              	.LVL31:
  65:../Core/Src/protocol.c **** 	switch (message_id) {
 315              		.loc 1 65 2 view .LVU71
 316 000e 7047     		bx	lr
 317              	.LVL32:
 318              	.L24:
  70:../Core/Src/protocol.c ****     	default:
  71:../Core/Src/protocol.c **** 			return -1;
 319              		.loc 1 71 11 view .LVU72
 320 0010 4FF0FF30 		mov	r0, #-1
 321              	.LVL33:
  72:../Core/Src/protocol.c **** 	}
  73:../Core/Src/protocol.c **** }
 322              		.loc 1 73 1 view .LVU73
 323 0014 7047     		bx	lr
 324              		.cfi_endproc
ARM GAS  /tmp/cc2zJsom.s 			page 8


 325              	.LFE8:
 327              		.section	.text.is_data_send_msg,"ax",%progbits
 328              		.align	1
 329              		.global	is_data_send_msg
 330              		.syntax unified
 331              		.thumb
 332              		.thumb_func
 334              	is_data_send_msg:
 335              	.LVL34:
 336              	.LFB9:
  74:../Core/Src/protocol.c **** 
  75:../Core/Src/protocol.c **** bool is_data_send_msg(int message_id) {
 337              		.loc 1 75 39 is_stmt 1 view -0
 338              		.cfi_startproc
 339              		@ args = 0, pretend = 0, frame = 0
 340              		@ frame_needed = 0, uses_anonymous_args = 0
 341              		@ link register save eliminated.
  76:../Core/Src/protocol.c **** 	return (message_id >= 10) && (message_id <= 10 + 2);
 342              		.loc 1 76 2 view .LVU75
 343              		.loc 1 76 28 is_stmt 0 view .LVU76
 344 0000 0A38     		subs	r0, r0, #10
 345              	.LVL35:
  77:../Core/Src/protocol.c **** }
 346              		.loc 1 77 1 view .LVU77
 347 0002 0228     		cmp	r0, #2
 348 0004 8CBF     		ite	hi
 349 0006 0020     		movhi	r0, #0
 350              	.LVL36:
 351              		.loc 1 77 1 view .LVU78
 352 0008 0120     		movls	r0, #1
 353 000a 7047     		bx	lr
 354              		.cfi_endproc
 355              	.LFE9:
 357              		.section	.text.RocketState_encode,"ax",%progbits
 358              		.align	1
 359              		.global	RocketState_encode
 360              		.syntax unified
 361              		.thumb
 362              		.thumb_func
 364              	RocketState_encode:
 365              	.LVL37:
 366              	.LFB10:
  78:../Core/Src/protocol.c **** 
  79:../Core/Src/protocol.c **** #ifdef INCLUDE_PROTOCOL_SQL_MACROS
  80:../Core/Src/protocol.c **** 	
  81:../Core/Src/protocol.c ****     bool convert_data_msg_to_sql_cmd(int message_id, uint8_t *data, size_t data_size, char *sql_cmd
  82:../Core/Src/protocol.c **** 		if (!is_data_send_msg(message_id)) {
  83:../Core/Src/protocol.c **** 			return false;
  84:../Core/Src/protocol.c **** 		}
  85:../Core/Src/protocol.c **** 
  86:../Core/Src/protocol.c **** 		switch (message_id) {
  87:../Core/Src/protocol.c ****     	    case ROCKETSTATE_MSG_ID: {
  88:../Core/Src/protocol.c ****         if (data_size != ROCKETSTATE_SIZE) {
  89:../Core/Src/protocol.c ****           printf("warning: wrong data size!\n");
  90:../Core/Src/protocol.c ****         }
  91:../Core/Src/protocol.c **** 				struct RocketState cvt_data;
  92:../Core/Src/protocol.c **** 				RocketState_decode(data, &cvt_data);
ARM GAS  /tmp/cc2zJsom.s 			page 9


  93:../Core/Src/protocol.c **** 				ROCKETSTATE_SQL_ADD_ENTRY(sql_cmd, &cvt_data);
  94:../Core/Src/protocol.c **** 				return true;
  95:../Core/Src/protocol.c **** 			} 
  96:../Core/Src/protocol.c ****     	    case SERVODEFLECTIONS_MSG_ID: {
  97:../Core/Src/protocol.c ****         if (data_size != SERVODEFLECTIONS_SIZE) {
  98:../Core/Src/protocol.c ****           printf("warning: wrong data size!\n");
  99:../Core/Src/protocol.c ****         }
 100:../Core/Src/protocol.c **** 				struct ServoDeflections cvt_data;
 101:../Core/Src/protocol.c **** 				ServoDeflections_decode(data, &cvt_data);
 102:../Core/Src/protocol.c **** 				SERVODEFLECTIONS_SQL_ADD_ENTRY(sql_cmd, &cvt_data);
 103:../Core/Src/protocol.c **** 				return true;
 104:../Core/Src/protocol.c **** 			} 
 105:../Core/Src/protocol.c ****     		default:
 106:../Core/Src/protocol.c **** 				return false;
 107:../Core/Src/protocol.c **** 		}
 108:../Core/Src/protocol.c **** 	}
 109:../Core/Src/protocol.c **** 
 110:../Core/Src/protocol.c **** #endif
 111:../Core/Src/protocol.c **** 
 112:../Core/Src/protocol.c **** 
 113:../Core/Src/protocol.c **** void RocketState_encode(struct RocketState *input, uint8_t *output) {
 367              		.loc 1 113 69 is_stmt 1 view -0
 368              		.cfi_startproc
 369              		@ args = 0, pretend = 0, frame = 0
 370              		@ frame_needed = 0, uses_anonymous_args = 0
 371              		@ link register save eliminated.
 114:../Core/Src/protocol.c **** 		memcpy(output + 0, &input->rocket_state, 1);
 372              		.loc 1 114 3 view .LVU80
 373 0000 0246     		mov	r2, r0
 374 0002 12F808CB 		ldrb	ip, [r2], #8	@ zero_extendqisi2
 375 0006 0B46     		mov	r3, r1
 376 0008 03F801CB 		strb	ip, [r3], #1
 115:../Core/Src/protocol.c **** 		memcpy(output + 1, &input->timestamp, 8);
 377              		.loc 1 115 3 view .LVU81
 378 000c 8068     		ldr	r0, [r0, #8]	@ unaligned
 379              	.LVL38:
 380              		.loc 1 115 3 is_stmt 0 view .LVU82
 381 000e 5268     		ldr	r2, [r2, #4]	@ unaligned
 382              	.LVL39:
 383              		.loc 1 115 3 view .LVU83
 384 0010 C1F80100 		str	r0, [r1, #1]	@ unaligned
 385 0014 5A60     		str	r2, [r3, #4]	@ unaligned
 116:../Core/Src/protocol.c **** 
 117:../Core/Src/protocol.c **** }
 386              		.loc 1 117 1 view .LVU84
 387 0016 7047     		bx	lr
 388              		.cfi_endproc
 389              	.LFE10:
 391              		.section	.text.RocketState_decode,"ax",%progbits
 392              		.align	1
 393              		.global	RocketState_decode
 394              		.syntax unified
 395              		.thumb
 396              		.thumb_func
 398              	RocketState_decode:
 399              	.LVL40:
 400              	.LFB11:
ARM GAS  /tmp/cc2zJsom.s 			page 10


 118:../Core/Src/protocol.c **** 
 119:../Core/Src/protocol.c **** void RocketState_decode(uint8_t *input, struct RocketState *output) {
 401              		.loc 1 119 69 is_stmt 1 view -0
 402              		.cfi_startproc
 403              		@ args = 0, pretend = 0, frame = 0
 404              		@ frame_needed = 0, uses_anonymous_args = 0
 405              		@ link register save eliminated.
 120:../Core/Src/protocol.c **** 		memcpy(&output->rocket_state, input + 0, 1);
 406              		.loc 1 120 3 view .LVU86
 407 0000 0246     		mov	r2, r0
 408 0002 12F801CB 		ldrb	ip, [r2], #1	@ zero_extendqisi2
 409 0006 0B46     		mov	r3, r1
 410 0008 03F808CB 		strb	ip, [r3], #8
 121:../Core/Src/protocol.c **** 		memcpy(&output->timestamp, input + 1, 8);
 411              		.loc 1 121 3 view .LVU87
 412 000c D0F80100 		ldr	r0, [r0, #1]	@ unaligned
 413              	.LVL41:
 414              		.loc 1 121 3 is_stmt 0 view .LVU88
 415 0010 5268     		ldr	r2, [r2, #4]	@ unaligned
 416              	.LVL42:
 417              		.loc 1 121 3 view .LVU89
 418 0012 8860     		str	r0, [r1, #8]	@ unaligned
 419 0014 5A60     		str	r2, [r3, #4]	@ unaligned
 122:../Core/Src/protocol.c **** 
 123:../Core/Src/protocol.c **** }
 420              		.loc 1 123 1 view .LVU90
 421 0016 7047     		bx	lr
 422              		.cfi_endproc
 423              	.LFE11:
 425              		.section	.text.ServoDeflections_encode,"ax",%progbits
 426              		.align	1
 427              		.global	ServoDeflections_encode
 428              		.syntax unified
 429              		.thumb
 430              		.thumb_func
 432              	ServoDeflections_encode:
 433              	.LVL43:
 434              	.LFB12:
 124:../Core/Src/protocol.c **** 
 125:../Core/Src/protocol.c **** 
 126:../Core/Src/protocol.c **** void ServoDeflections_encode(struct ServoDeflections *input, uint8_t *output) {
 435              		.loc 1 126 79 is_stmt 1 view -0
 436              		.cfi_startproc
 437              		@ args = 0, pretend = 0, frame = 0
 438              		@ frame_needed = 0, uses_anonymous_args = 0
 439              		@ link register save eliminated.
 127:../Core/Src/protocol.c **** 		memcpy(output + 0, &input->servo_1_desired, 2);
 440              		.loc 1 127 3 view .LVU92
 441 0000 0388     		ldrh	r3, [r0]	@ unaligned
 442 0002 0B80     		strh	r3, [r1]	@ unaligned
 128:../Core/Src/protocol.c **** 		memcpy(output + 2, &input->servo_1_actual, 2);
 443              		.loc 1 128 3 view .LVU93
 444 0004 4388     		ldrh	r3, [r0, #2]	@ unaligned
 445 0006 4B80     		strh	r3, [r1, #2]	@ unaligned
 129:../Core/Src/protocol.c **** 		memcpy(output + 4, &input->servo_2_desired, 2);
 446              		.loc 1 129 3 view .LVU94
 447 0008 8388     		ldrh	r3, [r0, #4]	@ unaligned
ARM GAS  /tmp/cc2zJsom.s 			page 11


 448 000a 8B80     		strh	r3, [r1, #4]	@ unaligned
 130:../Core/Src/protocol.c **** 		memcpy(output + 6, &input->servo_2_actual, 2);
 449              		.loc 1 130 3 view .LVU95
 450 000c C388     		ldrh	r3, [r0, #6]	@ unaligned
 451 000e CB80     		strh	r3, [r1, #6]	@ unaligned
 131:../Core/Src/protocol.c **** 		memcpy(output + 8, &input->servo_3_desired, 2);
 452              		.loc 1 131 3 view .LVU96
 453 0010 0389     		ldrh	r3, [r0, #8]	@ unaligned
 454 0012 0B81     		strh	r3, [r1, #8]	@ unaligned
 132:../Core/Src/protocol.c **** 		memcpy(output + 10, &input->servo_3_actual, 2);
 455              		.loc 1 132 3 view .LVU97
 456 0014 4389     		ldrh	r3, [r0, #10]	@ unaligned
 457 0016 4B81     		strh	r3, [r1, #10]	@ unaligned
 133:../Core/Src/protocol.c **** 		memcpy(output + 12, &input->servo_4_desired, 2);
 458              		.loc 1 133 3 view .LVU98
 459 0018 8389     		ldrh	r3, [r0, #12]	@ unaligned
 460 001a 8B81     		strh	r3, [r1, #12]	@ unaligned
 134:../Core/Src/protocol.c **** 		memcpy(output + 14, &input->servo_4_actual, 2);
 461              		.loc 1 134 3 view .LVU99
 462 001c C389     		ldrh	r3, [r0, #14]	@ unaligned
 463 001e CB81     		strh	r3, [r1, #14]	@ unaligned
 135:../Core/Src/protocol.c **** 		memcpy(output + 16, &input->timestamp, 8);
 464              		.loc 1 135 3 view .LVU100
 465 0020 0269     		ldr	r2, [r0, #16]	@ unaligned
 466 0022 4369     		ldr	r3, [r0, #20]	@ unaligned
 467 0024 0A61     		str	r2, [r1, #16]	@ unaligned
 468 0026 4B61     		str	r3, [r1, #20]	@ unaligned
 136:../Core/Src/protocol.c **** 
 137:../Core/Src/protocol.c **** }
 469              		.loc 1 137 1 is_stmt 0 view .LVU101
 470 0028 7047     		bx	lr
 471              		.cfi_endproc
 472              	.LFE12:
 474              		.section	.text.ServoDeflections_decode,"ax",%progbits
 475              		.align	1
 476              		.global	ServoDeflections_decode
 477              		.syntax unified
 478              		.thumb
 479              		.thumb_func
 481              	ServoDeflections_decode:
 482              	.LVL44:
 483              	.LFB13:
 138:../Core/Src/protocol.c **** 
 139:../Core/Src/protocol.c **** void ServoDeflections_decode(uint8_t *input, struct ServoDeflections *output) {
 484              		.loc 1 139 79 is_stmt 1 view -0
 485              		.cfi_startproc
 486              		@ args = 0, pretend = 0, frame = 0
 487              		@ frame_needed = 0, uses_anonymous_args = 0
 488              		@ link register save eliminated.
 140:../Core/Src/protocol.c **** 		memcpy(&output->servo_1_desired, input + 0, 2);
 489              		.loc 1 140 3 view .LVU103
 490 0000 0388     		ldrh	r3, [r0]	@ unaligned
 491 0002 0B80     		strh	r3, [r1]	@ unaligned
 141:../Core/Src/protocol.c **** 		memcpy(&output->servo_1_actual, input + 2, 2);
 492              		.loc 1 141 3 view .LVU104
 493 0004 4388     		ldrh	r3, [r0, #2]	@ unaligned
 494 0006 4B80     		strh	r3, [r1, #2]	@ unaligned
ARM GAS  /tmp/cc2zJsom.s 			page 12


 142:../Core/Src/protocol.c **** 		memcpy(&output->servo_2_desired, input + 4, 2);
 495              		.loc 1 142 3 view .LVU105
 496 0008 8388     		ldrh	r3, [r0, #4]	@ unaligned
 497 000a 8B80     		strh	r3, [r1, #4]	@ unaligned
 143:../Core/Src/protocol.c **** 		memcpy(&output->servo_2_actual, input + 6, 2);
 498              		.loc 1 143 3 view .LVU106
 499 000c C388     		ldrh	r3, [r0, #6]	@ unaligned
 500 000e CB80     		strh	r3, [r1, #6]	@ unaligned
 144:../Core/Src/protocol.c **** 		memcpy(&output->servo_3_desired, input + 8, 2);
 501              		.loc 1 144 3 view .LVU107
 502 0010 0389     		ldrh	r3, [r0, #8]	@ unaligned
 503 0012 0B81     		strh	r3, [r1, #8]	@ unaligned
 145:../Core/Src/protocol.c **** 		memcpy(&output->servo_3_actual, input + 10, 2);
 504              		.loc 1 145 3 view .LVU108
 505 0014 4389     		ldrh	r3, [r0, #10]	@ unaligned
 506 0016 4B81     		strh	r3, [r1, #10]	@ unaligned
 146:../Core/Src/protocol.c **** 		memcpy(&output->servo_4_desired, input + 12, 2);
 507              		.loc 1 146 3 view .LVU109
 508 0018 8389     		ldrh	r3, [r0, #12]	@ unaligned
 509 001a 8B81     		strh	r3, [r1, #12]	@ unaligned
 147:../Core/Src/protocol.c **** 		memcpy(&output->servo_4_actual, input + 14, 2);
 510              		.loc 1 147 3 view .LVU110
 511 001c C389     		ldrh	r3, [r0, #14]	@ unaligned
 512 001e CB81     		strh	r3, [r1, #14]	@ unaligned
 148:../Core/Src/protocol.c **** 		memcpy(&output->timestamp, input + 16, 8);
 513              		.loc 1 148 3 view .LVU111
 514 0020 0269     		ldr	r2, [r0, #16]	@ unaligned
 515 0022 4369     		ldr	r3, [r0, #20]	@ unaligned
 516 0024 0A61     		str	r2, [r1, #16]	@ unaligned
 517 0026 4B61     		str	r3, [r1, #20]	@ unaligned
 149:../Core/Src/protocol.c **** 
 150:../Core/Src/protocol.c **** }...
 518              		.loc 1 150 1 is_stmt 0 view .LVU112
 519 0028 7047     		bx	lr
 520              		.cfi_endproc
 521              	.LFE13:
 523              		.text
 524              	.Letext0:
 525              		.file 2 "/nix/store/lcj4nx7xv8c36cif7armkfa7b5cmfh74-gcc-arm-embedded-12.3.rel1/arm-none-eabi/incl
 526              		.file 3 "/nix/store/lcj4nx7xv8c36cif7armkfa7b5cmfh74-gcc-arm-embedded-12.3.rel1/arm-none-eabi/incl
 527              		.file 4 "/nix/store/lcj4nx7xv8c36cif7armkfa7b5cmfh74-gcc-arm-embedded-12.3.rel1/lib/gcc/arm-none-e
 528              		.file 5 "../Core/Include/protocol.h"
 529              		.file 6 "/nix/store/lcj4nx7xv8c36cif7armkfa7b5cmfh74-gcc-arm-embedded-12.3.rel1/arm-none-eabi/incl
 530              		.file 7 "../Core/Include/packet_encode.h"
ARM GAS  /tmp/cc2zJsom.s 			page 13

