ARM GAS  /tmp/ccpoNTqG.s 			page 1


   1              		.cpu cortex-m7
   2              		.arch armv7e-m
   3              		.fpu fpv5-d16
   4              		.eabi_attribute 28, 1
   5              		.eabi_attribute 20, 1
   6              		.eabi_attribute 21, 1
   7              		.eabi_attribute 23, 3
   8              		.eabi_attribute 24, 1
   9              		.eabi_attribute 25, 1
  10              		.eabi_attribute 26, 1
  11              		.eabi_attribute 30, 1
  12              		.eabi_attribute 34, 1
  13              		.eabi_attribute 18, 4
  14              		.file	"servo.c"
  15              		.text
  16              	.Ltext0:
  17              		.cfi_sections	.debug_frame
  18              		.file 1 "../Core/Src/servo.c"
  19              		.section	.text.servo_init,"ax",%progbits
  20              		.align	1
  21              		.global	servo_init
  22              		.syntax unified
  23              		.thumb
  24              		.thumb_func
  26              	servo_init:
  27              	.LVL0:
  28              	.LFB395:
   1:../Core/Src/servo.c **** #include "servo.h"
   2:../Core/Src/servo.c **** 
   3:../Core/Src/servo.c **** #define INVERT(inv) (inv ? -1 : 1)
   4:../Core/Src/servo.c **** 
   5:../Core/Src/servo.c **** // Initialize Servo Struct
   6:../Core/Src/servo.c **** void servo_init(Servo_T *servo, TIM_HandleTypeDef *htim, uint32_t channel, bool invert) {
  29              		.loc 1 6 89 view -0
  30              		.cfi_startproc
  31              		@ args = 0, pretend = 0, frame = 0
  32              		@ frame_needed = 0, uses_anonymous_args = 0
  33              		@ link register save eliminated.
   7:../Core/Src/servo.c ****   servo->htim = htim;
  34              		.loc 1 7 3 view .LVU1
  35              		.loc 1 7 15 is_stmt 0 view .LVU2
  36 0000 0160     		str	r1, [r0]
   8:../Core/Src/servo.c ****   servo->tim_channel = channel;
  37              		.loc 1 8 3 is_stmt 1 view .LVU3
  38              		.loc 1 8 22 is_stmt 0 view .LVU4
  39 0002 4260     		str	r2, [r0, #4]
   9:../Core/Src/servo.c ****   servo->setpoint_pwm = 0;
  40              		.loc 1 9 3 is_stmt 1 view .LVU5
  41              		.loc 1 9 23 is_stmt 0 view .LVU6
  42 0004 0023     		movs	r3, #0
  43              	.LVL1:
  44              		.loc 1 9 23 view .LVU7
  45 0006 0383     		strh	r3, [r0, #24]	@ movhi
  10:../Core/Src/servo.c ****   servo->current_pwm = 0;
  46              		.loc 1 10 3 is_stmt 1 view .LVU8
  47              		.loc 1 10 22 is_stmt 0 view .LVU9
  48 0008 4383     		strh	r3, [r0, #26]	@ movhi
ARM GAS  /tmp/ccpoNTqG.s 			page 2


  11:../Core/Src/servo.c ****   servo->angle_zero = 0;
  49              		.loc 1 11 3 is_stmt 1 view .LVU10
  50              		.loc 1 11 21 is_stmt 0 view .LVU11
  51 000a 0022     		movs	r2, #0
  52              	.LVL2:
  53              		.loc 1 11 21 view .LVU12
  54 000c 0023     		movs	r3, #0
  55 000e C0E90423 		strd	r2, [r0, #16]
  12:../Core/Src/servo.c **** };
  56              		.loc 1 12 1 view .LVU13
  57 0012 7047     		bx	lr
  58              		.cfi_endproc
  59              	.LFE395:
  61              		.section	.text.servo_enable,"ax",%progbits
  62              		.align	1
  63              		.global	servo_enable
  64              		.syntax unified
  65              		.thumb
  66              		.thumb_func
  68              	servo_enable:
  69              	.LVL3:
  70              	.LFB396:
  13:../Core/Src/servo.c **** 
  14:../Core/Src/servo.c **** // Enable Servo
  15:../Core/Src/servo.c **** void servo_enable(Servo_T *servo) {
  71              		.loc 1 15 35 is_stmt 1 view -0
  72              		.cfi_startproc
  73              		@ args = 0, pretend = 0, frame = 0
  74              		@ frame_needed = 0, uses_anonymous_args = 0
  75              		.loc 1 15 35 is_stmt 0 view .LVU15
  76 0000 08B5     		push	{r3, lr}
  77              	.LCFI0:
  78              		.cfi_def_cfa_offset 8
  79              		.cfi_offset 3, -8
  80              		.cfi_offset 14, -4
  16:../Core/Src/servo.c ****   HAL_TIM_PWM_Start(servo->htim, servo->tim_channel);
  81              		.loc 1 16 3 is_stmt 1 view .LVU16
  82 0002 4168     		ldr	r1, [r0, #4]
  83 0004 0068     		ldr	r0, [r0]
  84              	.LVL4:
  85              		.loc 1 16 3 is_stmt 0 view .LVU17
  86 0006 FFF7FEFF 		bl	HAL_TIM_PWM_Start
  87              	.LVL5:
  17:../Core/Src/servo.c **** }
  88              		.loc 1 17 1 view .LVU18
  89 000a 08BD     		pop	{r3, pc}
  90              		.cfi_endproc
  91              	.LFE396:
  93              		.section	.text.servo_disable,"ax",%progbits
  94              		.align	1
  95              		.global	servo_disable
  96              		.syntax unified
  97              		.thumb
  98              		.thumb_func
 100              	servo_disable:
 101              	.LVL6:
 102              	.LFB397:
ARM GAS  /tmp/ccpoNTqG.s 			page 3


  18:../Core/Src/servo.c **** 
  19:../Core/Src/servo.c **** // Disable Servo
  20:../Core/Src/servo.c **** void servo_disable(Servo_T *servo) {
 103              		.loc 1 20 36 is_stmt 1 view -0
 104              		.cfi_startproc
 105              		@ args = 0, pretend = 0, frame = 0
 106              		@ frame_needed = 0, uses_anonymous_args = 0
 107              		.loc 1 20 36 is_stmt 0 view .LVU20
 108 0000 08B5     		push	{r3, lr}
 109              	.LCFI1:
 110              		.cfi_def_cfa_offset 8
 111              		.cfi_offset 3, -8
 112              		.cfi_offset 14, -4
  21:../Core/Src/servo.c ****   HAL_TIM_PWM_Stop(servo->htim, servo->tim_channel);
 113              		.loc 1 21 3 is_stmt 1 view .LVU21
 114 0002 4168     		ldr	r1, [r0, #4]
 115 0004 0068     		ldr	r0, [r0]
 116              	.LVL7:
 117              		.loc 1 21 3 is_stmt 0 view .LVU22
 118 0006 FFF7FEFF 		bl	HAL_TIM_PWM_Stop
 119              	.LVL8:
  22:../Core/Src/servo.c **** }
 120              		.loc 1 22 1 view .LVU23
 121 000a 08BD     		pop	{r3, pc}
 122              		.cfi_endproc
 123              	.LFE397:
 125              		.section	.text.servo_set_angle,"ax",%progbits
 126              		.align	1
 127              		.global	servo_set_angle
 128              		.syntax unified
 129              		.thumb
 130              		.thumb_func
 132              	servo_set_angle:
 133              	.LVL9:
 134              	.LFB401:
  23:../Core/Src/servo.c **** #include "port_config.h"
  24:../Core/Src/servo.c **** #include "globals.h"
  25:../Core/Src/servo.c **** 
  26:../Core/Src/servo.c **** // Set servo angle
  27:../Core/Src/servo.c **** uint16_t servo_set_angle(Servo_T *servo, double angle_radians) {
 135              		.loc 1 27 64 is_stmt 1 view -0
 136              		.cfi_startproc
 137              		@ args = 0, pretend = 0, frame = 104
 138              		@ frame_needed = 0, uses_anonymous_args = 0
 139              		.loc 1 27 64 is_stmt 0 view .LVU25
 140 0000 10B5     		push	{r4, lr}
 141              	.LCFI2:
 142              		.cfi_def_cfa_offset 8
 143              		.cfi_offset 4, -8
 144              		.cfi_offset 14, -4
 145 0002 9AB0     		sub	sp, sp, #104
 146              	.LCFI3:
 147              		.cfi_def_cfa_offset 112
  28:../Core/Src/servo.c ****   double real_angle = (INVERT(servo->invert) * angle_radians) + servo->angle_zero;
 148              		.loc 1 28 3 is_stmt 1 view .LVU26
 149              		.loc 1 28 24 is_stmt 0 view .LVU27
 150 0004 90F82030 		ldrb	r3, [r0, #32]	@ zero_extendqisi2
ARM GAS  /tmp/ccpoNTqG.s 			page 4


 151              		.loc 1 28 46 view .LVU28
 152 0008 93B3     		cbz	r3, .L8
 153 000a BFEE006B 		vmov.f64	d6, #-1.0e+0
 154              	.L7:
 155              		.loc 1 28 70 discriminator 4 view .LVU29
 156 000e 90ED047B 		vldr.64	d7, [r0, #16]
 157              		.loc 1 28 10 discriminator 4 view .LVU30
 158 0012 06EE007B 		vmla.f64	d7, d6, d0
 159              	.LVL10:
  29:../Core/Src/servo.c ****   uint16_t desired_pwm = ((real_angle + SERVO_RANGE/2)/SERVO_RANGE * (MAX_PULSE_WIDTH_US - MIN_PULS
 160              		.loc 1 29 3 is_stmt 1 discriminator 4 view .LVU31
 161              		.loc 1 29 39 is_stmt 0 discriminator 4 view .LVU32
 162 0016 9FED186B 		vldr.64	d6, .L10
 163 001a 37EE067B 		vadd.f64	d7, d7, d6
 164              	.LVL11:
 165              		.loc 1 29 55 discriminator 4 view .LVU33
 166 001e 9FED186B 		vldr.64	d6, .L10+8
 167 0022 87EE065B 		vdiv.f64	d5, d7, d6
 168              		.loc 1 29 112 discriminator 4 view .LVU34
 169 0026 9FED186B 		vldr.64	d6, .L10+16
 170 002a 9FED197B 		vldr.64	d7, .L10+24
 171 002e 05EE067B 		vmla.f64	d7, d5, d6
 172              		.loc 1 29 12 discriminator 4 view .LVU35
 173 0032 BCEEC77B 		vcvt.u32.f64	s14, d7
 174 0036 17EE103A 		vmov	r3, s14	@ int
 175 003a 9CB2     		uxth	r4, r3
 176              	.LVL12:
  30:../Core/Src/servo.c ****   servo->setpoint_pwm = desired_pwm;
 177              		.loc 1 30 3 is_stmt 1 discriminator 4 view .LVU36
 178              		.loc 1 30 23 is_stmt 0 discriminator 4 view .LVU37
 179 003c 0483     		strh	r4, [r0, #24]	@ movhi
  31:../Core/Src/servo.c ****   char augh[100];
 180              		.loc 1 31 3 is_stmt 1 discriminator 4 view .LVU38
  32:../Core/Src/servo.c ****   //sprintf(augh, "Setpoint pwm: %d, angle_zero %d\r\n", desired_pwm, servo->angle_zero);
  33:../Core/Src/servo.c ****   HAL_UART_Transmit(&debug_uart, augh, strlen(augh), HAL_MAX_DELAY);
 181              		.loc 1 33 3 discriminator 4 view .LVU39
 182              		.loc 1 33 40 is_stmt 0 discriminator 4 view .LVU40
 183 003e 01A8     		add	r0, sp, #4
 184              	.LVL13:
 185              		.loc 1 33 40 discriminator 4 view .LVU41
 186 0040 FFF7FEFF 		bl	strlen
 187              	.LVL14:
 188              		.loc 1 33 3 discriminator 4 view .LVU42
 189 0044 4FF0FF33 		mov	r3, #-1
 190 0048 82B2     		uxth	r2, r0
 191 004a 01A9     		add	r1, sp, #4
 192 004c 1448     		ldr	r0, .L10+40
 193 004e FFF7FEFF 		bl	HAL_UART_Transmit
 194              	.LVL15:
  34:../Core/Src/servo.c ****   return desired_pwm * COUNTS_PER_US;
 195              		.loc 1 34 3 is_stmt 1 discriminator 4 view .LVU43
 196              		.loc 1 34 22 is_stmt 0 discriminator 4 view .LVU44
 197 0052 07EE904A 		vmov	s15, r4	@ int
 198 0056 B8EEE77B 		vcvt.f64.s32	d7, s15
 199 005a 9FED0F6B 		vldr.64	d6, .L10+32
 200 005e 27EE067B 		vmul.f64	d7, d7, d6
 201 0062 BCEEC77B 		vcvt.u32.f64	s14, d7
ARM GAS  /tmp/ccpoNTqG.s 			page 5


  35:../Core/Src/servo.c **** }
 202              		.loc 1 35 1 discriminator 4 view .LVU45
 203 0066 17EE103A 		vmov	r3, s14	@ int
 204 006a 98B2     		uxth	r0, r3
 205 006c 1AB0     		add	sp, sp, #104
 206              	.LCFI4:
 207              		.cfi_remember_state
 208              		.cfi_def_cfa_offset 8
 209              		@ sp needed
 210 006e 10BD     		pop	{r4, pc}
 211              	.LVL16:
 212              	.L8:
 213              	.LCFI5:
 214              		.cfi_restore_state
  28:../Core/Src/servo.c ****   uint16_t desired_pwm = ((real_angle + SERVO_RANGE/2)/SERVO_RANGE * (MAX_PULSE_WIDTH_US - MIN_PULS
 215              		.loc 1 28 46 view .LVU46
 216 0070 B7EE006B 		vmov.f64	d6, #1.0e+0
 217 0074 CBE7     		b	.L7
 218              	.L11:
 219 0076 00BF     		.align	3
 220              	.L10:
 221 0078 99533D92 		.word	-1841474663
 222 007c 667DEF3F 		.word	1072659814
 223 0080 99533D92 		.word	-1841474663
 224 0084 667DFF3F 		.word	1073708390
 225 0088 00000000 		.word	0
 226 008c 00409F40 		.word	1084178432
 227 0090 00000000 		.word	0
 228 0094 00407F40 		.word	1082081280
 229 0098 9A999999 		.word	-1717986918
 230 009c 99990940 		.word	1074370969
 231 00a0 00000000 		.word	huart2
 232              		.cfi_endproc
 233              	.LFE401:
 235              		.section	.text.servo_set_angle_from_direct_ratio,"ax",%progbits
 236              		.align	1
 237              		.global	servo_set_angle_from_direct_ratio
 238              		.syntax unified
 239              		.thumb
 240              		.thumb_func
 242              	servo_set_angle_from_direct_ratio:
 243              	.LVL17:
 244              	.LFB402:
  36:../Core/Src/servo.c **** 
  37:../Core/Src/servo.c **** uint16_t servo_set_angle_from_direct_ratio(Servo_T *servo, double ratio) {
 245              		.loc 1 37 74 is_stmt 1 view -0
 246              		.cfi_startproc
 247              		@ args = 0, pretend = 0, frame = 0
 248              		@ frame_needed = 0, uses_anonymous_args = 0
 249              		@ link register save eliminated.
  38:../Core/Src/servo.c ****   servo->setpoint_pwm = ratio*(MAX_PULSE_WIDTH_US - MIN_PULSE_WIDTH_US) + MIN_PULSE_WIDTH_US;
 250              		.loc 1 38 3 view .LVU48
 251              		.loc 1 38 73 is_stmt 0 view .LVU49
 252 0000 9FED0D6B 		vldr.64	d6, .L13
 253 0004 9FED0E7B 		vldr.64	d7, .L13+8
 254 0008 00EE067B 		vmla.f64	d7, d0, d6
 255              		.loc 1 38 23 view .LVU50
ARM GAS  /tmp/ccpoNTqG.s 			page 6


 256 000c BCEEC77B 		vcvt.u32.f64	s14, d7
 257 0010 17EE103A 		vmov	r3, s14	@ int
 258 0014 9BB2     		uxth	r3, r3
 259 0016 0383     		strh	r3, [r0, #24]	@ movhi
  39:../Core/Src/servo.c ****   return servo->setpoint_pwm * COUNTS_PER_US;
 260              		.loc 1 39 3 is_stmt 1 view .LVU51
 261              		.loc 1 39 30 is_stmt 0 view .LVU52
 262 0018 07EE903A 		vmov	s15, r3	@ int
 263 001c B8EEE77B 		vcvt.f64.s32	d7, s15
 264 0020 9FED096B 		vldr.64	d6, .L13+16
 265 0024 27EE067B 		vmul.f64	d7, d7, d6
 266 0028 BCEEC77B 		vcvt.u32.f64	s14, d7
  40:../Core/Src/servo.c **** }
 267              		.loc 1 40 1 view .LVU53
 268 002c 17EE103A 		vmov	r3, s14	@ int
 269 0030 98B2     		uxth	r0, r3
 270              	.LVL18:
 271              		.loc 1 40 1 view .LVU54
 272 0032 7047     		bx	lr
 273              	.L14:
 274 0034 AFF30080 		.align	3
 275              	.L13:
 276 0038 00000000 		.word	0
 277 003c 00409F40 		.word	1084178432
 278 0040 00000000 		.word	0
 279 0044 00407F40 		.word	1082081280
 280 0048 9A999999 		.word	-1717986918
 281 004c 99990940 		.word	1074370969
 282              		.cfi_endproc
 283              	.LFE402:
 285              		.section	.text.servo_get_angle,"ax",%progbits
 286              		.align	1
 287              		.global	servo_get_angle
 288              		.syntax unified
 289              		.thumb
 290              		.thumb_func
 292              	servo_get_angle:
 293              	.LVL19:
 294              	.LFB403:
  41:../Core/Src/servo.c **** 
  42:../Core/Src/servo.c **** // Get servo setpoint angle in radians
  43:../Core/Src/servo.c **** double servo_get_angle(Servo_T *servo) {
 295              		.loc 1 43 40 is_stmt 1 view -0
 296              		.cfi_startproc
 297              		@ args = 0, pretend = 0, frame = 0
 298              		@ frame_needed = 0, uses_anonymous_args = 0
 299              		@ link register save eliminated.
  44:../Core/Src/servo.c ****   uint16_t pwm_offset = servo->setpoint_pwm - MIN_PULSE_WIDTH_US;
 300              		.loc 1 44 3 view .LVU56
 301              		.loc 1 44 30 is_stmt 0 view .LVU57
 302 0000 038B     		ldrh	r3, [r0, #24]
 303              		.loc 1 44 12 view .LVU58
 304 0002 A3F5FA73 		sub	r3, r3, #500
 305 0006 9BB2     		uxth	r3, r3
 306              	.LVL20:
  45:../Core/Src/servo.c ****   double true_angle_rad = pwm_offset * (SERVO_RANGE / (MAX_PULSE_WIDTH_US - MIN_PULSE_WIDTH_US)) - 
 307              		.loc 1 45 3 is_stmt 1 view .LVU59
ARM GAS  /tmp/ccpoNTqG.s 			page 7


 308              		.loc 1 45 38 is_stmt 0 view .LVU60
 309 0008 07EE903A 		vmov	s15, r3	@ int
 310 000c B8EEE77B 		vcvt.f64.s32	d7, s15
 311              		.loc 1 45 10 view .LVU61
 312 0010 9FED0B5B 		vldr.64	d5, .L18
 313 0014 9FED0C6B 		vldr.64	d6, .L18+8
 314 0018 17EE056B 		vnmls.f64	d6, d7, d5
 315              	.LVL21:
  46:../Core/Src/servo.c **** 
  47:../Core/Src/servo.c ****   return INVERT(servo->invert) * (true_angle_rad - servo->angle_zero);
 316              		.loc 1 47 3 is_stmt 1 view .LVU62
 317              		.loc 1 47 10 is_stmt 0 view .LVU63
 318 001c 90F82030 		ldrb	r3, [r0, #32]	@ zero_extendqisi2
 319              	.LVL22:
 320              		.loc 1 47 32 view .LVU64
 321 0020 43B1     		cbz	r3, .L17
 322 0022 BFEE000B 		vmov.f64	d0, #-1.0e+0
 323              	.L16:
 324              		.loc 1 47 57 discriminator 4 view .LVU65
 325 0026 90ED047B 		vldr.64	d7, [r0, #16]
 326              		.loc 1 47 50 discriminator 4 view .LVU66
 327 002a 36EE477B 		vsub.f64	d7, d6, d7
  48:../Core/Src/servo.c **** }
 328              		.loc 1 48 1 discriminator 4 view .LVU67
 329 002e 27EE000B 		vmul.f64	d0, d7, d0
 330 0032 7047     		bx	lr
 331              	.L17:
  47:../Core/Src/servo.c **** }
 332              		.loc 1 47 32 view .LVU68
 333 0034 B7EE000B 		vmov.f64	d0, #1.0e+0
 334 0038 F5E7     		b	.L16
 335              	.L19:
 336 003a 00BFAFF3 		.align	3
 336      0080
 337              	.L18:
 338 0040 521692E8 		.word	-393079214
 339 0044 6F1F503F 		.word	1062215535
 340 0048 99533D92 		.word	-1841474663
 341 004c 667DEF3F 		.word	1072659814
 342              		.cfi_endproc
 343              	.LFE403:
 345              		.section	.text.servo_adc_to_rad,"ax",%progbits
 346              		.align	1
 347              		.global	servo_adc_to_rad
 348              		.syntax unified
 349              		.thumb
 350              		.thumb_func
 352              	servo_adc_to_rad:
 353              	.LVL23:
 354              	.LFB404:
  49:../Core/Src/servo.c **** 
  50:../Core/Src/servo.c **** double servo_adc_to_rad(Servo_T *servo, uint16_t adc_value) {
 355              		.loc 1 50 61 is_stmt 1 view -0
 356              		.cfi_startproc
 357              		@ args = 0, pretend = 0, frame = 0
 358              		@ frame_needed = 0, uses_anonymous_args = 0
 359              		@ link register save eliminated.
ARM GAS  /tmp/ccpoNTqG.s 			page 8


  51:../Core/Src/servo.c ****   return INVERT(servo->invert) * CALI_RANGE/(servo->adc_range[1] - servo->adc_range[0]) * (adc_valu
 360              		.loc 1 51 3 view .LVU70
 361              		.loc 1 51 10 is_stmt 0 view .LVU71
 362 0000 90F82030 		ldrb	r3, [r0, #32]	@ zero_extendqisi2
 363              		.loc 1 51 32 view .LVU72
 364 0004 BBB1     		cbz	r3, .L22
 365 0006 BFEE006B 		vmov.f64	d6, #-1.0e+0
 366              	.L21:
 367              		.loc 1 51 32 discriminator 4 view .LVU73
 368 000a 9FED0D7B 		vldr.64	d7, .L23
 369 000e 26EE076B 		vmul.f64	d6, d6, d7
 370              		.loc 1 51 62 discriminator 4 view .LVU74
 371 0012 C38B     		ldrh	r3, [r0, #30]
 372              		.loc 1 51 84 discriminator 4 view .LVU75
 373 0014 828B     		ldrh	r2, [r0, #28]
 374              		.loc 1 51 66 discriminator 4 view .LVU76
 375 0016 9B1A     		subs	r3, r3, r2
 376              		.loc 1 51 44 discriminator 4 view .LVU77
 377 0018 07EE903A 		vmov	s15, r3	@ int
 378 001c B8EEE77B 		vcvt.f64.s32	d7, s15
 379 0020 86EE075B 		vdiv.f64	d5, d6, d7
 380              		.loc 1 51 109 discriminator 4 view .LVU78
 381 0024 0389     		ldrh	r3, [r0, #8]
 382              		.loc 1 51 102 discriminator 4 view .LVU79
 383 0026 C91A     		subs	r1, r1, r3
 384              	.LVL24:
 385              		.loc 1 51 89 discriminator 4 view .LVU80
 386 0028 07EE901A 		vmov	s15, r1	@ int
 387 002c B8EEE70B 		vcvt.f64.s32	d0, s15
  52:../Core/Src/servo.c **** }
 388              		.loc 1 52 1 discriminator 4 view .LVU81
 389 0030 20EE050B 		vmul.f64	d0, d0, d5
 390 0034 7047     		bx	lr
 391              	.LVL25:
 392              	.L22:
  51:../Core/Src/servo.c ****   return INVERT(servo->invert) * CALI_RANGE/(servo->adc_range[1] - servo->adc_range[0]) * (adc_valu
 393              		.loc 1 51 32 view .LVU82
 394 0036 B7EE006B 		vmov.f64	d6, #1.0e+0
 395 003a E6E7     		b	.L21
 396              	.L24:
 397 003c AFF30080 		.align	3
 398              	.L23:
 399 0040 182D4454 		.word	1413754136
 400 0044 FB21F93F 		.word	1073291771
 401              		.cfi_endproc
 402              	.LFE404:
 404              		.section	.text.servo_rad_to_adc,"ax",%progbits
 405              		.align	1
 406              		.global	servo_rad_to_adc
 407              		.syntax unified
 408              		.thumb
 409              		.thumb_func
 411              	servo_rad_to_adc:
 412              	.LVL26:
 413              	.LFB405:
  53:../Core/Src/servo.c **** 
  54:../Core/Src/servo.c **** uint16_t servo_rad_to_adc(Servo_T *servo) {
ARM GAS  /tmp/ccpoNTqG.s 			page 9


 414              		.loc 1 54 43 is_stmt 1 view -0
 415              		.cfi_startproc
 416              		@ args = 0, pretend = 0, frame = 0
 417              		@ frame_needed = 0, uses_anonymous_args = 0
 418              		@ link register save eliminated.
  55:../Core/Src/servo.c ****   uint16_t pwm_offset = servo->setpoint_pwm - MIN_PULSE_WIDTH_US;
 419              		.loc 1 55 3 view .LVU84
 420              		.loc 1 55 30 is_stmt 0 view .LVU85
 421 0000 038B     		ldrh	r3, [r0, #24]
 422              		.loc 1 55 12 view .LVU86
 423 0002 A3F5FA73 		sub	r3, r3, #500
 424 0006 9BB2     		uxth	r3, r3
 425              	.LVL27:
  56:../Core/Src/servo.c ****   double true_angle_rad = pwm_offset * (SERVO_RANGE / (MAX_PULSE_WIDTH_US - MIN_PULSE_WIDTH_US)) - 
 426              		.loc 1 56 3 is_stmt 1 view .LVU87
 427              		.loc 1 56 38 is_stmt 0 view .LVU88
 428 0008 07EE903A 		vmov	s15, r3	@ int
 429 000c B8EEE77B 		vcvt.f64.s32	d7, s15
 430              		.loc 1 56 10 view .LVU89
 431 0010 9FED156B 		vldr.64	d6, .L28
 432 0014 9FED165B 		vldr.64	d5, .L28+8
 433 0018 17EE065B 		vnmls.f64	d5, d7, d6
 434              	.LVL28:
  57:../Core/Src/servo.c **** 
  58:../Core/Src/servo.c ****   return ((double) true_angle_rad * INVERT(servo->invert) * (servo->adc_range[1] - servo->adc_range
 435              		.loc 1 58 3 is_stmt 1 view .LVU90
 436              		.loc 1 58 37 is_stmt 0 view .LVU91
 437 001c 90F82030 		ldrb	r3, [r0, #32]	@ zero_extendqisi2
 438              	.LVL29:
 439              		.loc 1 58 35 view .LVU92
 440 0020 EBB1     		cbz	r3, .L27
 441 0022 BFEE006B 		vmov.f64	d6, #-1.0e+0
 442              	.L26:
 443              		.loc 1 58 35 discriminator 4 view .LVU93
 444 0026 26EE056B 		vmul.f64	d6, d6, d5
 445              		.loc 1 58 78 discriminator 4 view .LVU94
 446 002a C38B     		ldrh	r3, [r0, #30]
 447              		.loc 1 58 100 discriminator 4 view .LVU95
 448 002c 828B     		ldrh	r2, [r0, #28]
 449              		.loc 1 58 82 discriminator 4 view .LVU96
 450 002e 9B1A     		subs	r3, r3, r2
 451 0030 07EE103A 		vmov	s14, r3	@ int
 452              		.loc 1 58 59 discriminator 4 view .LVU97
 453 0034 B8EEC77B 		vcvt.f64.s32	d7, s14
 454 0038 27EE067B 		vmul.f64	d7, d7, d6
 455              		.loc 1 58 105 discriminator 4 view .LVU98
 456 003c 9FED0E5B 		vldr.64	d5, .L28+16
 457              	.LVL30:
 458              		.loc 1 58 105 discriminator 4 view .LVU99
 459 0040 87EE056B 		vdiv.f64	d6, d7, d5
 460              		.loc 1 58 126 discriminator 4 view .LVU100
 461 0044 0389     		ldrh	r3, [r0, #8]
 462 0046 07EE103A 		vmov	s14, r3	@ int
 463              		.loc 1 58 119 discriminator 4 view .LVU101
 464 004a B8EEC77B 		vcvt.f64.s32	d7, s14
 465 004e 37EE067B 		vadd.f64	d7, d7, d6
 466 0052 BCEEC77B 		vcvt.u32.f64	s14, d7
ARM GAS  /tmp/ccpoNTqG.s 			page 10


  59:../Core/Src/servo.c **** }
 467              		.loc 1 59 1 discriminator 4 view .LVU102
 468 0056 17EE103A 		vmov	r3, s14	@ int
 469 005a 98B2     		uxth	r0, r3
 470              	.LVL31:
 471              		.loc 1 59 1 discriminator 4 view .LVU103
 472 005c 7047     		bx	lr
 473              	.LVL32:
 474              	.L27:
  58:../Core/Src/servo.c **** }
 475              		.loc 1 58 35 view .LVU104
 476 005e B7EE006B 		vmov.f64	d6, #1.0e+0
 477 0062 E0E7     		b	.L26
 478              	.L29:
 479 0064 AFF30080 		.align	3
 480              	.L28:
 481 0068 521692E8 		.word	-393079214
 482 006c 6F1F503F 		.word	1062215535
 483 0070 99533D92 		.word	-1841474663
 484 0074 667DEF3F 		.word	1072659814
 485 0078 182D4454 		.word	1413754136
 486 007c FB21F93F 		.word	1073291771
 487              		.cfi_endproc
 488              	.LFE405:
 490              		.section	.text.servo_go_to_calibration_start,"ax",%progbits
 491              		.align	1
 492              		.global	servo_go_to_calibration_start
 493              		.syntax unified
 494              		.thumb
 495              		.thumb_func
 497              	servo_go_to_calibration_start:
 498              	.LVL33:
 499              	.LFB406:
  60:../Core/Src/servo.c **** 
  61:../Core/Src/servo.c **** // Go to callibration points
  62:../Core/Src/servo.c **** void servo_go_to_calibration_start(Servo_T *servo) {
 500              		.loc 1 62 52 is_stmt 1 view -0
 501              		.cfi_startproc
 502              		@ args = 0, pretend = 0, frame = 0
 503              		@ frame_needed = 0, uses_anonymous_args = 0
 504              		.loc 1 62 52 is_stmt 0 view .LVU106
 505 0000 08B5     		push	{r3, lr}
 506              	.LCFI6:
 507              		.cfi_def_cfa_offset 8
 508              		.cfi_offset 3, -8
 509              		.cfi_offset 14, -4
  63:../Core/Src/servo.c ****   servo_set_angle_from_direct_ratio(servo, (SERVO_RANGE - CALI_RANGE)/ (2* SERVO_RANGE));
 510              		.loc 1 63 3 is_stmt 1 view .LVU107
 511 0002 9FED030B 		vldr.64	d0, .L32
 512 0006 FFF7FEFF 		bl	servo_set_angle_from_direct_ratio
 513              	.LVL34:
  64:../Core/Src/servo.c **** }
 514              		.loc 1 64 1 is_stmt 0 view .LVU108
 515 000a 08BD     		pop	{r3, pc}
 516              	.L33:
 517 000c AFF30080 		.align	3
 518              	.L32:
ARM GAS  /tmp/ccpoNTqG.s 			page 11


 519 0010 88E5BDDA 		.word	-625089144
 520 0014 22D7B93F 		.word	1069143842
 521              		.cfi_endproc
 522              	.LFE406:
 524              		.section	.text.servo_go_to_calibration_end,"ax",%progbits
 525              		.align	1
 526              		.global	servo_go_to_calibration_end
 527              		.syntax unified
 528              		.thumb
 529              		.thumb_func
 531              	servo_go_to_calibration_end:
 532              	.LVL35:
 533              	.LFB407:
  65:../Core/Src/servo.c **** 
  66:../Core/Src/servo.c **** void servo_go_to_calibration_end(Servo_T *servo) {
 534              		.loc 1 66 50 is_stmt 1 view -0
 535              		.cfi_startproc
 536              		@ args = 0, pretend = 0, frame = 0
 537              		@ frame_needed = 0, uses_anonymous_args = 0
 538              		.loc 1 66 50 is_stmt 0 view .LVU110
 539 0000 08B5     		push	{r3, lr}
 540              	.LCFI7:
 541              		.cfi_def_cfa_offset 8
 542              		.cfi_offset 3, -8
 543              		.cfi_offset 14, -4
  67:../Core/Src/servo.c ****   servo_set_angle_from_direct_ratio(servo, (SERVO_RANGE + CALI_RANGE)/ (2* SERVO_RANGE));
 544              		.loc 1 67 3 is_stmt 1 view .LVU111
 545 0002 9FED030B 		vldr.64	d0, .L36
 546 0006 FFF7FEFF 		bl	servo_set_angle_from_direct_ratio
 547              	.LVL36:
  68:../Core/Src/servo.c **** }
 548              		.loc 1 68 1 is_stmt 0 view .LVU112
 549 000a 08BD     		pop	{r3, pc}
 550              	.L37:
 551 000c AFF30080 		.align	3
 552              	.L36:
 553 0010 4E43A8A4 		.word	-1532476594
 554 0014 1BC5EC3F 		.word	1072481563
 555              		.cfi_endproc
 556              	.LFE407:
 558              		.section	.text.servo_set_zero,"ax",%progbits
 559              		.align	1
 560              		.global	servo_set_zero
 561              		.syntax unified
 562              		.thumb
 563              		.thumb_func
 565              	servo_set_zero:
 566              	.LVL37:
 567              	.LFB408:
  69:../Core/Src/servo.c **** 
  70:../Core/Src/servo.c **** // Perform zero point calculation
  71:../Core/Src/servo.c **** void servo_set_zero(Servo_T *servo, uint16_t adc_start, uint16_t adc_end, uint16_t adc_zero) {
 568              		.loc 1 71 94 is_stmt 1 view -0
 569              		.cfi_startproc
 570              		@ args = 0, pretend = 0, frame = 0
 571              		@ frame_needed = 0, uses_anonymous_args = 0
 572              		@ link register save eliminated.
ARM GAS  /tmp/ccpoNTqG.s 			page 12


 573              		.loc 1 71 94 is_stmt 0 view .LVU114
 574 0000 10B4     		push	{r4}
 575              	.LCFI8:
 576              		.cfi_def_cfa_offset 4
 577              		.cfi_offset 4, -4
  72:../Core/Src/servo.c ****   servo->adc_range[0] = adc_start;
 578              		.loc 1 72 3 is_stmt 1 view .LVU115
 579              		.loc 1 72 23 is_stmt 0 view .LVU116
 580 0002 8183     		strh	r1, [r0, #28]	@ movhi
  73:../Core/Src/servo.c ****   servo->adc_range[1] = adc_end;
 581              		.loc 1 73 3 is_stmt 1 view .LVU117
 582              		.loc 1 73 23 is_stmt 0 view .LVU118
 583 0004 C283     		strh	r2, [r0, #30]	@ movhi
  74:../Core/Src/servo.c ****   servo->adc_zero = adc_zero;
 584              		.loc 1 74 3 is_stmt 1 view .LVU119
 585              		.loc 1 74 19 is_stmt 0 view .LVU120
 586 0006 0381     		strh	r3, [r0, #8]	@ movhi
  75:../Core/Src/servo.c ****   servo->angle_zero = CALI_RANGE/(adc_end - adc_start) * (adc_zero - (adc_start + adc_end)/2);
 587              		.loc 1 75 3 is_stmt 1 view .LVU121
 588              		.loc 1 75 43 is_stmt 0 view .LVU122
 589 0008 541A     		subs	r4, r2, r1
 590 000a 07EE104A 		vmov	s14, r4	@ int
 591              		.loc 1 75 33 view .LVU123
 592 000e B8EEC77B 		vcvt.f64.s32	d7, s14
 593 0012 9FED095B 		vldr.64	d5, .L41
 594 0016 85EE076B 		vdiv.f64	d6, d5, d7
 595              		.loc 1 75 91 view .LVU124
 596 001a 0A44     		add	r2, r2, r1
 597              	.LVL38:
 598              		.loc 1 75 68 view .LVU125
 599 001c A3EB6203 		sub	r3, r3, r2, asr #1
 600              	.LVL39:
 601              		.loc 1 75 68 view .LVU126
 602 0020 07EE103A 		vmov	s14, r3	@ int
 603              		.loc 1 75 56 view .LVU127
 604 0024 B8EEC77B 		vcvt.f64.s32	d7, s14
 605 0028 27EE067B 		vmul.f64	d7, d7, d6
 606              		.loc 1 75 21 view .LVU128
 607 002c 80ED047B 		vstr.64	d7, [r0, #16]
  76:../Core/Src/servo.c **** }
 608              		.loc 1 76 1 view .LVU129
 609 0030 5DF8044B 		ldr	r4, [sp], #4
 610              	.LCFI9:
 611              		.cfi_restore 4
 612              		.cfi_def_cfa_offset 0
 613 0034 7047     		bx	lr
 614              	.L42:
 615 0036 00BF     		.align	3
 616              	.L41:
 617 0038 182D4454 		.word	1413754136
 618 003c FB21F93F 		.word	1073291771
 619              		.cfi_endproc
 620              	.LFE408:
 622              		.section	.text.update_servo_true_command_position,"ax",%progbits
 623              		.align	1
 624              		.global	update_servo_true_command_position
 625              		.syntax unified
ARM GAS  /tmp/ccpoNTqG.s 			page 13


 626              		.thumb
 627              		.thumb_func
 629              	update_servo_true_command_position:
 630              	.LVL40:
 631              	.LFB409:
  77:../Core/Src/servo.c **** 
  78:../Core/Src/servo.c **** void update_servo_true_command_position(Servo_T *servo, TickType_t update_period) {
 632              		.loc 1 78 83 is_stmt 1 view -0
 633              		.cfi_startproc
 634              		@ args = 0, pretend = 0, frame = 8
 635              		@ frame_needed = 0, uses_anonymous_args = 0
 636              		@ link register save eliminated.
 637              		.loc 1 78 83 is_stmt 0 view .LVU131
 638 0000 82B0     		sub	sp, sp, #8
 639              	.LCFI10:
 640              		.cfi_def_cfa_offset 8
 641 0002 0191     		str	r1, [sp, #4]
  79:../Core/Src/servo.c ****   if (servo->current_pwm == servo->setpoint_pwm) return; // Servo already at correct position
 642              		.loc 1 79 3 is_stmt 1 view .LVU132
 643              		.loc 1 79 12 is_stmt 0 view .LVU133
 644 0004 418B     		ldrh	r1, [r0, #26]
 645              	.LVL41:
 646              		.loc 1 79 34 view .LVU134
 647 0006 028B     		ldrh	r2, [r0, #24]
 648              		.loc 1 79 6 view .LVU135
 649 0008 9142     		cmp	r1, r2
 650 000a 26D0     		beq	.L43
  80:../Core/Src/servo.c **** 
  81:../Core/Src/servo.c ****   uint16_t max_travel = (update_period * MAX_SERVO_PWM_SPEED);
 651              		.loc 1 81 3 is_stmt 1 view .LVU136
 652              		.loc 1 81 40 is_stmt 0 view .LVU137
 653 000c DDED017A 		vldr.32	s15, [sp, #4]	@ int
 654 0010 B8EE677B 		vcvt.f64.u32	d7, s15
 655 0014 9FED446B 		vldr.64	d6, .L55
 656 0018 27EE067B 		vmul.f64	d7, d7, d6
 657              		.loc 1 81 12 view .LVU138
 658 001c BCEEC77B 		vcvt.u32.f64	s14, d7
 659 0020 17EE103A 		vmov	r3, s14	@ int
 660 0024 9BB2     		uxth	r3, r3
 661              	.LVL42:
  82:../Core/Src/servo.c ****   int16_t desired_travel = (int16_t) servo->setpoint_pwm - (int16_t) servo->current_pwm;
 662              		.loc 1 82 3 is_stmt 1 view .LVU139
 663              		.loc 1 82 58 is_stmt 0 view .LVU140
 664 0026 521A     		subs	r2, r2, r1
 665              		.loc 1 82 11 view .LVU141
 666 0028 12B2     		sxth	r2, r2
 667              	.LVL43:
  83:../Core/Src/servo.c ****   if (desired_travel > 0) {
 668              		.loc 1 83 3 is_stmt 1 view .LVU142
 669              		.loc 1 83 6 is_stmt 0 view .LVU143
 670 002a 002A     		cmp	r2, #0
 671 002c 17DD     		ble	.L45
  84:../Core/Src/servo.c ****     servo->current_pwm += (max_travel < desired_travel) ? max_travel : desired_travel;
 672              		.loc 1 84 5 is_stmt 1 view .LVU144
 673              		.loc 1 84 24 is_stmt 0 view .LVU145
 674 002e 9A42     		cmp	r2, r3
 675 0030 D4BF     		ite	le
ARM GAS  /tmp/ccpoNTqG.s 			page 14


 676 0032 8918     		addle	r1, r1, r2
 677 0034 C918     		addgt	r1, r1, r3
 678 0036 4183     		strh	r1, [r0, #26]	@ movhi
 679              	.LVL44:
 680              	.L46:
  85:../Core/Src/servo.c ****   } else {
  86:../Core/Src/servo.c ****     servo->current_pwm -= (max_travel < -desired_travel) ? max_travel : -desired_travel;
  87:../Core/Src/servo.c ****   }
  88:../Core/Src/servo.c **** 
  89:../Core/Src/servo.c ****   // Set servo position
  90:../Core/Src/servo.c **** __HAL_TIM_SET_COMPARE(servo->htim, servo->tim_channel, servo->current_pwm * COUNTS_PER_US);
 681              		.loc 1 90 1 is_stmt 1 view .LVU146
 682 0038 4368     		ldr	r3, [r0, #4]
 683              	.LVL45:
 684              		.loc 1 90 1 is_stmt 0 view .LVU147
 685 003a BBB9     		cbnz	r3, .L47
 686              		.loc 1 90 1 discriminator 1 view .LVU148
 687 003c 438B     		ldrh	r3, [r0, #26]
 688 003e 07EE103A 		vmov	s14, r3	@ int
 689              	.LVL46:
 690              		.loc 1 90 1 discriminator 1 view .LVU149
 691 0042 B8EEC77B 		vcvt.f64.s32	d7, s14
 692 0046 9FED3A6B 		vldr.64	d6, .L55+8
 693              	.LVL47:
 694              		.loc 1 90 1 discriminator 1 view .LVU150
 695 004a 27EE067B 		vmul.f64	d7, d7, d6
 696 004e 0368     		ldr	r3, [r0]
 697 0050 1B68     		ldr	r3, [r3]
 698 0052 BCEEC77B 		vcvt.u32.f64	s14, d7
 699 0056 83ED0D7A 		vstr.32	s14, [r3, #52]	@ int
 700              	.LVL48:
 701              	.L43:
  91:../Core/Src/servo.c **** }...
 702              		.loc 1 91 1 view .LVU151
 703 005a 02B0     		add	sp, sp, #8
 704              	.LCFI11:
 705              		.cfi_remember_state
 706              		.cfi_def_cfa_offset 0
 707              	.LVL49:
 708              		.loc 1 91 1 view .LVU152
 709              		@ sp needed
 710 005c 7047     		bx	lr
 711              	.LVL50:
 712              	.L45:
 713              	.LCFI12:
 714              		.cfi_restore_state
  86:../Core/Src/servo.c ****     servo->current_pwm -= (max_travel < -desired_travel) ? max_travel : -desired_travel;
 715              		.loc 1 86 5 is_stmt 1 view .LVU153
  86:../Core/Src/servo.c ****     servo->current_pwm -= (max_travel < -desired_travel) ? max_travel : -desired_travel;
 716              		.loc 1 86 41 is_stmt 0 view .LVU154
 717 005e 5242     		rsbs	r2, r2, #0
 718              	.LVL51:
  86:../Core/Src/servo.c ****     servo->current_pwm -= (max_travel < -desired_travel) ? max_travel : -desired_travel;
 719              		.loc 1 86 24 view .LVU155
 720 0060 9342     		cmp	r3, r2
 721 0062 D4BF     		ite	le
 722 0064 C91A     		suble	r1, r1, r3
ARM GAS  /tmp/ccpoNTqG.s 			page 15


 723 0066 891A     		subgt	r1, r1, r2
 724 0068 4183     		strh	r1, [r0, #26]	@ movhi
 725 006a E5E7     		b	.L46
 726              	.LVL52:
 727              	.L47:
  86:../Core/Src/servo.c ****     servo->current_pwm -= (max_travel < -desired_travel) ? max_travel : -desired_travel;
 728              		.loc 1 86 24 view .LVU156
 729 006c 043B     		subs	r3, r3, #4
 730 006e 0C2B     		cmp	r3, #12
 731 0070 48D8     		bhi	.L48
 732 0072 DFE803F0 		tbb	[pc, r3]
 733              	.L50:
 734 0076 07       		.byte	(.L53-.L50)/2
 735 0077 47       		.byte	(.L48-.L50)/2
 736 0078 47       		.byte	(.L48-.L50)/2
 737 0079 47       		.byte	(.L48-.L50)/2
 738 007a 17       		.byte	(.L52-.L50)/2
 739 007b 47       		.byte	(.L48-.L50)/2
 740 007c 47       		.byte	(.L48-.L50)/2
 741 007d 47       		.byte	(.L48-.L50)/2
 742 007e 27       		.byte	(.L51-.L50)/2
 743 007f 47       		.byte	(.L48-.L50)/2
 744 0080 47       		.byte	(.L48-.L50)/2
 745 0081 47       		.byte	(.L48-.L50)/2
 746 0082 37       		.byte	(.L49-.L50)/2
 747 0083 00       		.p2align 1
 748              	.L53:
  90:../Core/Src/servo.c **** __HAL_TIM_SET_COMPARE(servo->htim, servo->tim_channel, servo->current_pwm * COUNTS_PER_US);
 749              		.loc 1 90 1 discriminator 3 view .LVU157
 750 0084 438B     		ldrh	r3, [r0, #26]
 751 0086 07EE103A 		vmov	s14, r3	@ int
 752              	.LVL53:
  90:../Core/Src/servo.c **** __HAL_TIM_SET_COMPARE(servo->htim, servo->tim_channel, servo->current_pwm * COUNTS_PER_US);
 753              		.loc 1 90 1 discriminator 3 view .LVU158
 754 008a B8EEC77B 		vcvt.f64.s32	d7, s14
 755 008e 9FED286B 		vldr.64	d6, .L55+8
 756              	.LVL54:
  90:../Core/Src/servo.c **** __HAL_TIM_SET_COMPARE(servo->htim, servo->tim_channel, servo->current_pwm * COUNTS_PER_US);
 757              		.loc 1 90 1 discriminator 3 view .LVU159
 758 0092 27EE067B 		vmul.f64	d7, d7, d6
 759 0096 0368     		ldr	r3, [r0]
 760 0098 1B68     		ldr	r3, [r3]
 761 009a BCEEC77B 		vcvt.u32.f64	s14, d7
 762 009e 83ED0E7A 		vstr.32	s14, [r3, #56]	@ int
  90:../Core/Src/servo.c **** __HAL_TIM_SET_COMPARE(servo->htim, servo->tim_channel, servo->current_pwm * COUNTS_PER_US);
 763              		.loc 1 90 1 discriminator 3 view .LVU160
 764 00a2 DAE7     		b	.L43
 765              	.LVL55:
 766              	.L52:
  90:../Core/Src/servo.c **** __HAL_TIM_SET_COMPARE(servo->htim, servo->tim_channel, servo->current_pwm * COUNTS_PER_US);
 767              		.loc 1 90 1 discriminator 6 view .LVU161
 768 00a4 438B     		ldrh	r3, [r0, #26]
 769 00a6 07EE103A 		vmov	s14, r3	@ int
 770              	.LVL56:
  90:../Core/Src/servo.c **** __HAL_TIM_SET_COMPARE(servo->htim, servo->tim_channel, servo->current_pwm * COUNTS_PER_US);
 771              		.loc 1 90 1 discriminator 6 view .LVU162
 772 00aa B8EEC77B 		vcvt.f64.s32	d7, s14
ARM GAS  /tmp/ccpoNTqG.s 			page 16


 773 00ae 9FED206B 		vldr.64	d6, .L55+8
 774              	.LVL57:
  90:../Core/Src/servo.c **** __HAL_TIM_SET_COMPARE(servo->htim, servo->tim_channel, servo->current_pwm * COUNTS_PER_US);
 775              		.loc 1 90 1 discriminator 6 view .LVU163
 776 00b2 27EE067B 		vmul.f64	d7, d7, d6
 777 00b6 0368     		ldr	r3, [r0]
 778 00b8 1B68     		ldr	r3, [r3]
 779 00ba BCEEC77B 		vcvt.u32.f64	s14, d7
 780 00be 83ED0F7A 		vstr.32	s14, [r3, #60]	@ int
  90:../Core/Src/servo.c **** __HAL_TIM_SET_COMPARE(servo->htim, servo->tim_channel, servo->current_pwm * COUNTS_PER_US);
 781              		.loc 1 90 1 discriminator 6 view .LVU164
 782 00c2 CAE7     		b	.L43
 783              	.LVL58:
 784              	.L51:
  90:../Core/Src/servo.c **** __HAL_TIM_SET_COMPARE(servo->htim, servo->tim_channel, servo->current_pwm * COUNTS_PER_US);
 785              		.loc 1 90 1 discriminator 9 view .LVU165
 786 00c4 438B     		ldrh	r3, [r0, #26]
 787 00c6 07EE103A 		vmov	s14, r3	@ int
 788              	.LVL59:
  90:../Core/Src/servo.c **** __HAL_TIM_SET_COMPARE(servo->htim, servo->tim_channel, servo->current_pwm * COUNTS_PER_US);
 789              		.loc 1 90 1 discriminator 9 view .LVU166
 790 00ca B8EEC77B 		vcvt.f64.s32	d7, s14
 791 00ce 9FED186B 		vldr.64	d6, .L55+8
 792              	.LVL60:
  90:../Core/Src/servo.c **** __HAL_TIM_SET_COMPARE(servo->htim, servo->tim_channel, servo->current_pwm * COUNTS_PER_US);
 793              		.loc 1 90 1 discriminator 9 view .LVU167
 794 00d2 27EE067B 		vmul.f64	d7, d7, d6
 795 00d6 0368     		ldr	r3, [r0]
 796 00d8 1B68     		ldr	r3, [r3]
 797 00da BCEEC77B 		vcvt.u32.f64	s14, d7
 798 00de 83ED107A 		vstr.32	s14, [r3, #64]	@ int
  90:../Core/Src/servo.c **** __HAL_TIM_SET_COMPARE(servo->htim, servo->tim_channel, servo->current_pwm * COUNTS_PER_US);
 799              		.loc 1 90 1 discriminator 9 view .LVU168
 800 00e2 BAE7     		b	.L43
 801              	.LVL61:
 802              	.L49:
  90:../Core/Src/servo.c **** __HAL_TIM_SET_COMPARE(servo->htim, servo->tim_channel, servo->current_pwm * COUNTS_PER_US);
 803              		.loc 1 90 1 discriminator 12 view .LVU169
 804 00e4 438B     		ldrh	r3, [r0, #26]
 805 00e6 07EE103A 		vmov	s14, r3	@ int
 806              	.LVL62:
  90:../Core/Src/servo.c **** __HAL_TIM_SET_COMPARE(servo->htim, servo->tim_channel, servo->current_pwm * COUNTS_PER_US);
 807              		.loc 1 90 1 discriminator 12 view .LVU170
 808 00ea B8EEC77B 		vcvt.f64.s32	d7, s14
 809 00ee 9FED106B 		vldr.64	d6, .L55+8
 810              	.LVL63:
  90:../Core/Src/servo.c **** __HAL_TIM_SET_COMPARE(servo->htim, servo->tim_channel, servo->current_pwm * COUNTS_PER_US);
 811              		.loc 1 90 1 discriminator 12 view .LVU171
 812 00f2 27EE067B 		vmul.f64	d7, d7, d6
 813 00f6 0368     		ldr	r3, [r0]
 814 00f8 1B68     		ldr	r3, [r3]
 815 00fa BCEEC77B 		vcvt.u32.f64	s14, d7
 816 00fe 83ED167A 		vstr.32	s14, [r3, #88]	@ int
  90:../Core/Src/servo.c **** __HAL_TIM_SET_COMPARE(servo->htim, servo->tim_channel, servo->current_pwm * COUNTS_PER_US);
 817              		.loc 1 90 1 discriminator 12 view .LVU172
 818 0102 AAE7     		b	.L43
 819              	.LVL64:
ARM GAS  /tmp/ccpoNTqG.s 			page 17


 820              	.L48:
  90:../Core/Src/servo.c **** __HAL_TIM_SET_COMPARE(servo->htim, servo->tim_channel, servo->current_pwm * COUNTS_PER_US);
 821              		.loc 1 90 1 discriminator 13 view .LVU173
 822 0104 438B     		ldrh	r3, [r0, #26]
 823 0106 07EE103A 		vmov	s14, r3	@ int
 824              	.LVL65:
  90:../Core/Src/servo.c **** __HAL_TIM_SET_COMPARE(servo->htim, servo->tim_channel, servo->current_pwm * COUNTS_PER_US);
 825              		.loc 1 90 1 discriminator 13 view .LVU174
 826 010a B8EEC77B 		vcvt.f64.s32	d7, s14
 827 010e 9FED086B 		vldr.64	d6, .L55+8
 828              	.LVL66:
  90:../Core/Src/servo.c **** __HAL_TIM_SET_COMPARE(servo->htim, servo->tim_channel, servo->current_pwm * COUNTS_PER_US);
 829              		.loc 1 90 1 discriminator 13 view .LVU175
 830 0112 27EE067B 		vmul.f64	d7, d7, d6
 831 0116 0368     		ldr	r3, [r0]
 832 0118 1B68     		ldr	r3, [r3]
 833 011a BCEEC77B 		vcvt.u32.f64	s14, d7
 834 011e 83ED177A 		vstr.32	s14, [r3, #92]	@ int
  90:../Core/Src/servo.c **** __HAL_TIM_SET_COMPARE(servo->htim, servo->tim_channel, servo->current_pwm * COUNTS_PER_US);
 835              		.loc 1 90 1 discriminator 13 view .LVU176
 836 0122 9AE7     		b	.L43
 837              	.L56:
 838 0124 AFF30080 		.align	3
 839              	.L55:
 840 0128 70E99C5D 		.word	1570564464
 841 012c BFB30640 		.word	1074181055
 842 0130 9A999999 		.word	-1717986918
 843 0134 99990940 		.word	1074370969
 844              		.cfi_endproc
 845              	.LFE409:
 847              		.text
 848              	.Letext0:
 849              		.file 2 "/nix/store/lcj4nx7xv8c36cif7armkfa7b5cmfh74-gcc-arm-embedded-12.3.rel1/arm-none-eabi/incl
 850              		.file 3 "/nix/store/lcj4nx7xv8c36cif7armkfa7b5cmfh74-gcc-arm-embedded-12.3.rel1/arm-none-eabi/incl
 851              		.file 4 "Drivers/CMSIS/Device/ST/STM32H7xx/Include/stm32h725xx.h"
 852              		.file 5 "/nix/store/lcj4nx7xv8c36cif7armkfa7b5cmfh74-gcc-arm-embedded-12.3.rel1/lib/gcc/arm-none-e
 853              		.file 6 "Drivers/STM32H7xx_HAL_Driver/Inc/stm32h7xx_hal_def.h"
 854              		.file 7 "Drivers/STM32H7xx_HAL_Driver/Inc/stm32h7xx_hal_dma.h"
 855              		.file 8 "Drivers/STM32H7xx_HAL_Driver/Inc/stm32h7xx_hal_tim.h"
 856              		.file 9 "Drivers/STM32H7xx_HAL_Driver/Inc/stm32h7xx_hal_uart.h"
 857              		.file 10 "Core/Inc/portmacro.h"
 858              		.file 11 "../Core/Include/servo.h"
 859              		.file 12 "../Core/Include/adc.h"
 860              		.file 13 "Core/Inc/port_config.h"
 861              		.file 14 "/nix/store/lcj4nx7xv8c36cif7armkfa7b5cmfh74-gcc-arm-embedded-12.3.rel1/arm-none-eabi/inc
 862              		.file 15 "../Core/Include/globals.h"
ARM GAS  /tmp/ccpoNTqG.s 			page 18

