ARM GAS  /tmp/cc3CUIhP.s 			page 1


   1              		.cpu cortex-m7
   2              		.arch armv7e-m
   3              		.fpu fpv5-d16
   4              		.eabi_attribute 28, 1
   5              		.eabi_attribute 20, 1
   6              		.eabi_attribute 21, 1
   7              		.eabi_attribute 23, 3
   8              		.eabi_attribute 24, 1
   9              		.eabi_attribute 25, 1
  10              		.eabi_attribute 26, 1
  11              		.eabi_attribute 30, 1
  12              		.eabi_attribute 34, 1
  13              		.eabi_attribute 18, 4
  14              		.file	"telemetry_rx.c"
  15              		.text
  16              	.Ltext0:
  17              		.cfi_sections	.debug_frame
  18              		.file 1 "../Core/Src/telemetry_rx.c"
  19              		.section	.rodata.command_idle_to_ground.str1.4,"aMS",%progbits,1
  20              		.align	2
  21              	.LC0:
  22 0000 49646C65 		.ascii	"Idle to ground\015\012\000"
  22      20746F20 
  22      67726F75 
  22      6E640D0A 
  22      00
  23 0011 000000   		.align	2
  24              	.LC1:
  25 0014 474F00   		.ascii	"GO\000"
  26              		.section	.text.command_idle_to_ground,"ax",%progbits
  27              		.align	1
  28              		.global	command_idle_to_ground
  29              		.syntax unified
  30              		.thumb
  31              		.thumb_func
  33              	command_idle_to_ground:
  34              	.LFB401:
   1:../Core/Src/telemetry_rx.c **** #include "telemetry_rx.h"
   2:../Core/Src/telemetry_rx.c **** 
   3:../Core/Src/telemetry_rx.c **** void rx_process_byte(uint8_t byte, uint8_t *packet_buffer, uint8_t *extracted_buffer, uint8_t *pack
   4:../Core/Src/telemetry_rx.c **** 
   5:../Core/Src/telemetry_rx.c **** void process_command(int command_id);
   6:../Core/Src/telemetry_rx.c **** 
   7:../Core/Src/telemetry_rx.c **** void command_idle_to_ground();
   8:../Core/Src/telemetry_rx.c **** void command_fire_pyro();
   9:../Core/Src/telemetry_rx.c **** void command_flash_sd_card();
  10:../Core/Src/telemetry_rx.c **** void command_ignite();
  11:../Core/Src/telemetry_rx.c **** void command_zero_servos();
  12:../Core/Src/telemetry_rx.c **** 
  13:../Core/Src/telemetry_rx.c **** /**
  14:../Core/Src/telemetry_rx.c ****  * Task to handle incoming telemetry data
  15:../Core/Src/telemetry_rx.c ****  * @param args Unused
  16:../Core/Src/telemetry_rx.c ****  */
  17:../Core/Src/telemetry_rx.c **** void telemetry_rx_task(void *args) {
  18:../Core/Src/telemetry_rx.c ****     /* Buffer to hold received bytes before they are processed */
  19:../Core/Src/telemetry_rx.c ****     uint8_t bytes_to_process[TELEMETRY_RX_MAX_PROCESS_SIZE];
  20:../Core/Src/telemetry_rx.c **** 
ARM GAS  /tmp/cc3CUIhP.s 			page 2


  21:../Core/Src/telemetry_rx.c ****     /* Buffer to hold the incoming packet before it is extracted */
  22:../Core/Src/telemetry_rx.c ****     uint8_t packet_buffer[TELEMETRY_MAX_PACKET_SIZE];
  23:../Core/Src/telemetry_rx.c **** 
  24:../Core/Src/telemetry_rx.c ****     /* Buffer to hold the extracted packet */
  25:../Core/Src/telemetry_rx.c ****     uint8_t extracted_packet_buffer[TELEMETRY_MAX_PACKET_SIZE];
  26:../Core/Src/telemetry_rx.c **** 
  27:../Core/Src/telemetry_rx.c ****     /* Buffer to hold the UUIDs of recieved commands */
  28:../Core/Src/telemetry_rx.c ****     uint8_t recieved_uuids[256] = {0};
  29:../Core/Src/telemetry_rx.c **** 
  30:../Core/Src/telemetry_rx.c ****     /* Current size of incoming packet buffer */
  31:../Core/Src/telemetry_rx.c ****     uint8_t packet_buffer_size = 0;
  32:../Core/Src/telemetry_rx.c **** 
  33:../Core/Src/telemetry_rx.c ****     while (1) {
  34:../Core/Src/telemetry_rx.c ****         /* Wait for new bytes to read */
  35:../Core/Src/telemetry_rx.c ****         int bytes_read = xStreamBufferReceive(g_telemetry_rx_sb_handle, bytes_to_process, TELEMETRY
  36:../Core/Src/telemetry_rx.c **** 
  37:../Core/Src/telemetry_rx.c ****         /* Process them */
  38:../Core/Src/telemetry_rx.c ****         for (int i = 0; i < bytes_read; i ++) {
  39:../Core/Src/telemetry_rx.c ****             rx_process_byte(bytes_to_process[i], packet_buffer, extracted_packet_buffer, &packet_bu
  40:../Core/Src/telemetry_rx.c ****         }
  41:../Core/Src/telemetry_rx.c ****     }
  42:../Core/Src/telemetry_rx.c **** }
  43:../Core/Src/telemetry_rx.c **** 
  44:../Core/Src/telemetry_rx.c **** /**
  45:../Core/Src/telemetry_rx.c ****  * Process a single byte of incoming data
  46:../Core/Src/telemetry_rx.c ****  * @param byte The byte to process
  47:../Core/Src/telemetry_rx.c ****  * @param packet_buffer The buffer to hold the incoming packet
  48:../Core/Src/telemetry_rx.c ****  * @param packet_buffer_size The current size of the incoming packet buffer
  49:../Core/Src/telemetry_rx.c ****  * @param extracted_buffer The buffer to hold the extracted packet
  50:../Core/Src/telemetry_rx.c ****  */
  51:../Core/Src/telemetry_rx.c **** void rx_process_byte(uint8_t byte, uint8_t *packet_buffer, uint8_t *extracted_buffer, uint8_t *pack
  52:../Core/Src/telemetry_rx.c ****     int next_packet_buffer_size = process_incoming_byte(byte, packet_buffer, *packet_buffer_size);
  53:../Core/Src/telemetry_rx.c ****     char buf[100];
  54:../Core/Src/telemetry_rx.c ****     sprintf(buf, "Recieved byte: %02x\r\n", byte);
  55:../Core/Src/telemetry_rx.c ****     HAL_UART_Transmit(&debug_uart, (uint8_t *) buf, strlen(buf), HAL_MAX_DELAY);
  56:../Core/Src/telemetry_rx.c **** 
  57:../Core/Src/telemetry_rx.c ****     if (next_packet_buffer_size < 0) {
  58:../Core/Src/telemetry_rx.c ****         *packet_buffer_size = 0;
  59:../Core/Src/telemetry_rx.c ****         next_packet_buffer_size *= -1;
  60:../Core/Src/telemetry_rx.c **** 
  61:../Core/Src/telemetry_rx.c ****         if (verify_packet(packet_buffer, next_packet_buffer_size)) {
  62:../Core/Src/telemetry_rx.c ****             uint8_t message_id = extract_packet(packet_buffer, next_packet_buffer_size, extracted_b
  63:../Core/Src/telemetry_rx.c **** 
  64:../Core/Src/telemetry_rx.c ****             if (message_id != COMMAND_MSG_ID) {
  65:../Core/Src/telemetry_rx.c ****                 return;
  66:../Core/Src/telemetry_rx.c ****             }
  67:../Core/Src/telemetry_rx.c **** 
  68:../Core/Src/telemetry_rx.c ****             int command_id = extracted_buffer[0];
  69:../Core/Src/telemetry_rx.c ****             int command_uuid = extracted_buffer[1];
  70:../Core/Src/telemetry_rx.c **** 
  71:../Core/Src/telemetry_rx.c ****             if (recieved_uuids[command_uuid] == 1) {
  72:../Core/Src/telemetry_rx.c ****                 return;
  73:../Core/Src/telemetry_rx.c ****             }
  74:../Core/Src/telemetry_rx.c **** 
  75:../Core/Src/telemetry_rx.c ****             recieved_uuids[command_uuid] = 1;
  76:../Core/Src/telemetry_rx.c **** 
  77:../Core/Src/telemetry_rx.c ****             char buf2[100];
ARM GAS  /tmp/cc3CUIhP.s 			page 3


  78:../Core/Src/telemetry_rx.c ****             sprintf(buf2, "Command ID: %d, Command UUID: %d\r\n", command_id, command_uuid);
  79:../Core/Src/telemetry_rx.c ****             HAL_UART_Transmit(&debug_uart, (uint8_t *) buf2, strlen(buf2), HAL_MAX_DELAY);
  80:../Core/Src/telemetry_rx.c **** 
  81:../Core/Src/telemetry_rx.c ****             uint8_t payload[2];
  82:../Core/Src/telemetry_rx.c ****             payload[0] = command_id; // command id
  83:../Core/Src/telemetry_rx.c ****             payload[1] = command_uuid; // command uuid
  84:../Core/Src/telemetry_rx.c **** 
  85:../Core/Src/telemetry_rx.c ****             telemetry_send_message(payload, 2, COMMAND_ACK_MSG_ID);
  86:../Core/Src/telemetry_rx.c **** 
  87:../Core/Src/telemetry_rx.c ****             process_command(command_id);
  88:../Core/Src/telemetry_rx.c ****         }
  89:../Core/Src/telemetry_rx.c ****     } else if (next_packet_buffer_size < TELEMETRY_MAX_PACKET_SIZE) {
  90:../Core/Src/telemetry_rx.c ****         *packet_buffer_size = next_packet_buffer_size;
  91:../Core/Src/telemetry_rx.c ****     } else {
  92:../Core/Src/telemetry_rx.c ****         *packet_buffer_size = 0;
  93:../Core/Src/telemetry_rx.c ****     }
  94:../Core/Src/telemetry_rx.c **** }
  95:../Core/Src/telemetry_rx.c **** 
  96:../Core/Src/telemetry_rx.c **** /**
  97:../Core/Src/telemetry_rx.c ****  * Process ground station command
  98:../Core/Src/telemetry_rx.c ****  * @param command_id The id of the command to be processed
  99:../Core/Src/telemetry_rx.c ****  */
 100:../Core/Src/telemetry_rx.c **** void process_command(int command_id) {
 101:../Core/Src/telemetry_rx.c ****     switch (command_id) {
 102:../Core/Src/telemetry_rx.c **** #ifndef STATIC_FIRE
 103:../Core/Src/telemetry_rx.c ****         case ROCKET_IDLE_TO_GROUND_COMMAND_ID:
 104:../Core/Src/telemetry_rx.c ****             command_idle_to_ground();
 105:../Core/Src/telemetry_rx.c ****             break;
 106:../Core/Src/telemetry_rx.c ****         case ROCKET_FIRE_PYRO_COMMAND_ID:
 107:../Core/Src/telemetry_rx.c ****             command_fire_pyro();
 108:../Core/Src/telemetry_rx.c ****             break;
 109:../Core/Src/telemetry_rx.c ****         case ROCKET_FLASH_SD_CARD_COMMAND_ID:
 110:../Core/Src/telemetry_rx.c ****             command_flash_sd_card();
 111:../Core/Src/telemetry_rx.c ****             break;
 112:../Core/Src/telemetry_rx.c **** #else
 113:../Core/Src/telemetry_rx.c ****         case IGNITE_COMMAND_ID:
 114:../Core/Src/telemetry_rx.c ****             command_ignite();
 115:../Core/Src/telemetry_rx.c ****             break;
 116:../Core/Src/telemetry_rx.c ****         case ZERO_SERVOS_COMMAND_ID:
 117:../Core/Src/telemetry_rx.c ****             command_zero_servos();
 118:../Core/Src/telemetry_rx.c ****             break;
 119:../Core/Src/telemetry_rx.c **** #endif
 120:../Core/Src/telemetry_rx.c ****     }
 121:../Core/Src/telemetry_rx.c **** }
 122:../Core/Src/telemetry_rx.c **** 
 123:../Core/Src/telemetry_rx.c **** /**
 124:../Core/Src/telemetry_rx.c ****  * @brief Perform the idle to ground command
 125:../Core/Src/telemetry_rx.c ****  */
 126:../Core/Src/telemetry_rx.c **** void command_idle_to_ground() {
  35              		.loc 1 126 31 view -0
  36              		.cfi_startproc
  37              		@ args = 0, pretend = 0, frame = 0
  38              		@ frame_needed = 0, uses_anonymous_args = 0
  39 0000 00B5     		push	{lr}
  40              	.LCFI0:
  41              		.cfi_def_cfa_offset 4
  42              		.cfi_offset 14, -4
ARM GAS  /tmp/cc3CUIhP.s 			page 4


  43 0002 83B0     		sub	sp, sp, #12
  44              	.LCFI1:
  45              		.cfi_def_cfa_offset 16
 127:../Core/Src/telemetry_rx.c ****     HAL_UART_Transmit(&debug_uart, (uint8_t *) "Idle to ground\r\n", 17, HAL_MAX_DELAY);
  46              		.loc 1 127 5 view .LVU1
  47 0004 4FF0FF33 		mov	r3, #-1
  48 0008 1122     		movs	r2, #17
  49 000a 0B49     		ldr	r1, .L3
  50 000c 0B48     		ldr	r0, .L3+4
  51 000e FFF7FEFF 		bl	HAL_UART_Transmit
  52              	.LVL0:
 128:../Core/Src/telemetry_rx.c **** 
 129:../Core/Src/telemetry_rx.c ****     HAL_UART_Transmit(&state_uart, (uint8_t *) "GO", 2, HAL_MAX_DELAY);
  53              		.loc 1 129 5 view .LVU2
  54 0012 4FF0FF33 		mov	r3, #-1
  55 0016 0222     		movs	r2, #2
  56 0018 0949     		ldr	r1, .L3+8
  57 001a 0A48     		ldr	r0, .L3+12
  58 001c FFF7FEFF 		bl	HAL_UART_Transmit
  59              	.LVL1:
 130:../Core/Src/telemetry_rx.c **** 
 131:../Core/Src/telemetry_rx.c ****     xTaskNotify(g_state_tx_task_handle, BEGIN_STATE_TX_NOTIFICATION_BIT, eSetBits);
  60              		.loc 1 131 5 view .LVU3
  61 0020 0021     		movs	r1, #0
  62 0022 0091     		str	r1, [sp]
  63 0024 0123     		movs	r3, #1
  64 0026 1A46     		mov	r2, r3
  65 0028 0748     		ldr	r0, .L3+16
  66 002a 0068     		ldr	r0, [r0]
  67 002c FFF7FEFF 		bl	xTaskGenericNotify
  68              	.LVL2:
 132:../Core/Src/telemetry_rx.c **** }
  69              		.loc 1 132 1 is_stmt 0 view .LVU4
  70 0030 03B0     		add	sp, sp, #12
  71              	.LCFI2:
  72              		.cfi_def_cfa_offset 4
  73              		@ sp needed
  74 0032 5DF804FB 		ldr	pc, [sp], #4
  75              	.L4:
  76 0036 00BF     		.align	2
  77              	.L3:
  78 0038 00000000 		.word	.LC0
  79 003c 00000000 		.word	huart2
  80 0040 14000000 		.word	.LC1
  81 0044 00000000 		.word	huart5
  82 0048 00000000 		.word	g_state_tx_task_handle
  83              		.cfi_endproc
  84              	.LFE401:
  86              		.section	.text.command_fire_pyro,"ax",%progbits
  87              		.align	1
  88              		.global	command_fire_pyro
  89              		.syntax unified
  90              		.thumb
  91              		.thumb_func
  93              	command_fire_pyro:
  94              	.LFB402:
 133:../Core/Src/telemetry_rx.c **** 
ARM GAS  /tmp/cc3CUIhP.s 			page 5


 134:../Core/Src/telemetry_rx.c **** /**
 135:../Core/Src/telemetry_rx.c ****  * @brief Perform the fire pyro command
 136:../Core/Src/telemetry_rx.c ****  */
 137:../Core/Src/telemetry_rx.c **** void command_fire_pyro() {
  95              		.loc 1 137 26 is_stmt 1 view -0
  96              		.cfi_startproc
  97              		@ args = 0, pretend = 0, frame = 0
  98              		@ frame_needed = 0, uses_anonymous_args = 0
  99              		@ link register save eliminated.
 138:../Core/Src/telemetry_rx.c ****     /* Unimplemented */
 139:../Core/Src/telemetry_rx.c **** }
 100              		.loc 1 139 1 view .LVU6
 101 0000 7047     		bx	lr
 102              		.cfi_endproc
 103              	.LFE402:
 105              		.section	.rodata.command_flash_sd_card.str1.4,"aMS",%progbits,1
 106              		.align	2
 107              	.LC2:
 108 0000 466C6173 		.ascii	"Flash SD card\015\012\000"
 108      68205344 
 108      20636172 
 108      640D0A00 
 109              		.section	.text.command_flash_sd_card,"ax",%progbits
 110              		.align	1
 111              		.global	command_flash_sd_card
 112              		.syntax unified
 113              		.thumb
 114              		.thumb_func
 116              	command_flash_sd_card:
 117              	.LFB403:
 140:../Core/Src/telemetry_rx.c **** 
 141:../Core/Src/telemetry_rx.c **** /**
 142:../Core/Src/telemetry_rx.c ****  * @brief Perform the flash SD card command
 143:../Core/Src/telemetry_rx.c ****  */
 144:../Core/Src/telemetry_rx.c **** void command_flash_sd_card() {
 118              		.loc 1 144 30 view -0
 119              		.cfi_startproc
 120              		@ args = 0, pretend = 0, frame = 0
 121              		@ frame_needed = 0, uses_anonymous_args = 0
 122 0000 00B5     		push	{lr}
 123              	.LCFI3:
 124              		.cfi_def_cfa_offset 4
 125              		.cfi_offset 14, -4
 126 0002 83B0     		sub	sp, sp, #12
 127              	.LCFI4:
 128              		.cfi_def_cfa_offset 16
 145:../Core/Src/telemetry_rx.c ****     HAL_UART_Transmit(&debug_uart, (uint8_t *) "Flash SD card\r\n", 15, HAL_MAX_DELAY);
 129              		.loc 1 145 5 view .LVU8
 130 0004 4FF0FF33 		mov	r3, #-1
 131 0008 0F22     		movs	r2, #15
 132 000a 0749     		ldr	r1, .L8
 133 000c 0748     		ldr	r0, .L8+4
 134 000e FFF7FEFF 		bl	HAL_UART_Transmit
 135              	.LVL3:
 146:../Core/Src/telemetry_rx.c ****     xTaskNotify(g_state_flash_task_handle, FLASH_SD_CARD_NOTIFICATION_BIT, eSetBits);
 136              		.loc 1 146 5 view .LVU9
 137 0012 0021     		movs	r1, #0
ARM GAS  /tmp/cc3CUIhP.s 			page 6


 138 0014 0091     		str	r1, [sp]
 139 0016 0123     		movs	r3, #1
 140 0018 0222     		movs	r2, #2
 141 001a 0548     		ldr	r0, .L8+8
 142 001c 0068     		ldr	r0, [r0]
 143 001e FFF7FEFF 		bl	xTaskGenericNotify
 144              	.LVL4:
 147:../Core/Src/telemetry_rx.c **** }
 145              		.loc 1 147 1 is_stmt 0 view .LVU10
 146 0022 03B0     		add	sp, sp, #12
 147              	.LCFI5:
 148              		.cfi_def_cfa_offset 4
 149              		@ sp needed
 150 0024 5DF804FB 		ldr	pc, [sp], #4
 151              	.L9:
 152              		.align	2
 153              	.L8:
 154 0028 00000000 		.word	.LC2
 155 002c 00000000 		.word	huart2
 156 0030 00000000 		.word	g_state_flash_task_handle
 157              		.cfi_endproc
 158              	.LFE403:
 160              		.section	.rodata.command_ignite.str1.4,"aMS",%progbits,1
 161              		.align	2
 162              	.LC3:
 163 0000 49676E69 		.ascii	"Ignite\015\012\000"
 163      74650D0A 
 163      00
 164              		.section	.text.command_ignite,"ax",%progbits
 165              		.align	1
 166              		.global	command_ignite
 167              		.syntax unified
 168              		.thumb
 169              		.thumb_func
 171              	command_ignite:
 172              	.LFB404:
 148:../Core/Src/telemetry_rx.c **** 
 149:../Core/Src/telemetry_rx.c **** /**
 150:../Core/Src/telemetry_rx.c ****  * @brief Perform the ignite command
 151:../Core/Src/telemetry_rx.c ****  */
 152:../Core/Src/telemetry_rx.c **** void command_ignite() {
 173              		.loc 1 152 23 is_stmt 1 view -0
 174              		.cfi_startproc
 175              		@ args = 0, pretend = 0, frame = 0
 176              		@ frame_needed = 0, uses_anonymous_args = 0
 177 0000 10B5     		push	{r4, lr}
 178              	.LCFI6:
 179              		.cfi_def_cfa_offset 8
 180              		.cfi_offset 4, -8
 181              		.cfi_offset 14, -4
 182 0002 82B0     		sub	sp, sp, #8
 183              	.LCFI7:
 184              		.cfi_def_cfa_offset 16
 153:../Core/Src/telemetry_rx.c ****     HAL_UART_Transmit(&debug_uart, (uint8_t *) "Ignite\r\n", 8, HAL_MAX_DELAY);
 185              		.loc 1 153 5 view .LVU12
 186 0004 4FF0FF33 		mov	r3, #-1
 187 0008 0822     		movs	r2, #8
ARM GAS  /tmp/cc3CUIhP.s 			page 7


 188 000a 0F49     		ldr	r1, .L12
 189 000c 0F48     		ldr	r0, .L12+4
 190 000e FFF7FEFF 		bl	HAL_UART_Transmit
 191              	.LVL5:
 154:../Core/Src/telemetry_rx.c ****     xTaskNotify(g_state_tx_task_handle, BEGIN_STATE_TX_NOTIFICATION_BIT, eSetBits);
 192              		.loc 1 154 5 view .LVU13
 193 0012 0024     		movs	r4, #0
 194 0014 0094     		str	r4, [sp]
 195 0016 0123     		movs	r3, #1
 196 0018 1A46     		mov	r2, r3
 197 001a 2146     		mov	r1, r4
 198 001c 0C48     		ldr	r0, .L12+8
 199 001e 0068     		ldr	r0, [r0]
 200 0020 FFF7FEFF 		bl	xTaskGenericNotify
 201              	.LVL6:
 155:../Core/Src/telemetry_rx.c ****     xTaskNotify(g_state_flash_task_handle, BEGIN_STATE_FLASH_NOTIFICATION_BIT, eSetBits);
 202              		.loc 1 155 5 view .LVU14
 203 0024 0094     		str	r4, [sp]
 204 0026 0123     		movs	r3, #1
 205 0028 1A46     		mov	r2, r3
 206 002a 2146     		mov	r1, r4
 207 002c 0948     		ldr	r0, .L12+12
 208 002e 0068     		ldr	r0, [r0]
 209 0030 FFF7FEFF 		bl	xTaskGenericNotify
 210              	.LVL7:
 156:../Core/Src/telemetry_rx.c ****     xTaskNotify(g_static_fire_task_handle, BEGIN_STATIC_FIRE_NOTIFICATION_BIT, eSetBits);
 211              		.loc 1 156 5 view .LVU15
 212 0034 0094     		str	r4, [sp]
 213 0036 0123     		movs	r3, #1
 214 0038 0222     		movs	r2, #2
 215 003a 2146     		mov	r1, r4
 216 003c 0648     		ldr	r0, .L12+16
 217 003e 0068     		ldr	r0, [r0]
 218 0040 FFF7FEFF 		bl	xTaskGenericNotify
 219              	.LVL8:
 157:../Core/Src/telemetry_rx.c **** }
 220              		.loc 1 157 1 is_stmt 0 view .LVU16
 221 0044 02B0     		add	sp, sp, #8
 222              	.LCFI8:
 223              		.cfi_def_cfa_offset 8
 224              		@ sp needed
 225 0046 10BD     		pop	{r4, pc}
 226              	.L13:
 227              		.align	2
 228              	.L12:
 229 0048 00000000 		.word	.LC3
 230 004c 00000000 		.word	huart2
 231 0050 00000000 		.word	g_state_tx_task_handle
 232 0054 00000000 		.word	g_state_flash_task_handle
 233 0058 00000000 		.word	g_static_fire_task_handle
 234              		.cfi_endproc
 235              	.LFE404:
 237              		.section	.rodata.command_zero_servos.str1.4,"aMS",%progbits,1
 238              		.align	2
 239              	.LC4:
 240 0000 5A65726F 		.ascii	"Zero servos\015\012\000"
 240      20736572 
ARM GAS  /tmp/cc3CUIhP.s 			page 8


 240      766F730D 
 240      0A00
 241              		.section	.text.command_zero_servos,"ax",%progbits
 242              		.align	1
 243              		.global	command_zero_servos
 244              		.syntax unified
 245              		.thumb
 246              		.thumb_func
 248              	command_zero_servos:
 249              	.LFB405:
 158:../Core/Src/telemetry_rx.c **** 
 159:../Core/Src/telemetry_rx.c **** /**
 160:../Core/Src/telemetry_rx.c ****  * @brief Perform the zero servos command
 161:../Core/Src/telemetry_rx.c ****  */
 162:../Core/Src/telemetry_rx.c **** void command_zero_servos() {
 250              		.loc 1 162 28 is_stmt 1 view -0
 251              		.cfi_startproc
 252              		@ args = 0, pretend = 0, frame = 0
 253              		@ frame_needed = 0, uses_anonymous_args = 0
 254 0000 00B5     		push	{lr}
 255              	.LCFI9:
 256              		.cfi_def_cfa_offset 4
 257              		.cfi_offset 14, -4
 258 0002 83B0     		sub	sp, sp, #12
 259              	.LCFI10:
 260              		.cfi_def_cfa_offset 16
 163:../Core/Src/telemetry_rx.c ****     HAL_UART_Transmit(&debug_uart, (uint8_t *) "Zero servos\r\n", 12, HAL_MAX_DELAY);
 261              		.loc 1 163 5 view .LVU18
 262 0004 4FF0FF33 		mov	r3, #-1
 263 0008 0C22     		movs	r2, #12
 264 000a 0749     		ldr	r1, .L16
 265 000c 0748     		ldr	r0, .L16+4
 266 000e FFF7FEFF 		bl	HAL_UART_Transmit
 267              	.LVL9:
 164:../Core/Src/telemetry_rx.c ****     xTaskNotify(g_static_fire_task_handle, ZERO_SERVOS_NOTIFICATION_BIT, eSetBits);
 268              		.loc 1 164 5 view .LVU19
 269 0012 0021     		movs	r1, #0
 270 0014 0091     		str	r1, [sp]
 271 0016 0123     		movs	r3, #1
 272 0018 1A46     		mov	r2, r3
 273 001a 0548     		ldr	r0, .L16+8
 274 001c 0068     		ldr	r0, [r0]
 275 001e FFF7FEFF 		bl	xTaskGenericNotify
 276              	.LVL10:
 165:../Core/Src/telemetry_rx.c **** }...
 277              		.loc 1 165 1 is_stmt 0 view .LVU20
 278 0022 03B0     		add	sp, sp, #12
 279              	.LCFI11:
 280              		.cfi_def_cfa_offset 4
 281              		@ sp needed
 282 0024 5DF804FB 		ldr	pc, [sp], #4
 283              	.L17:
 284              		.align	2
 285              	.L16:
 286 0028 00000000 		.word	.LC4
 287 002c 00000000 		.word	huart2
 288 0030 00000000 		.word	g_static_fire_task_handle
ARM GAS  /tmp/cc3CUIhP.s 			page 9


 289              		.cfi_endproc
 290              	.LFE405:
 292              		.section	.text.process_command,"ax",%progbits
 293              		.align	1
 294              		.global	process_command
 295              		.syntax unified
 296              		.thumb
 297              		.thumb_func
 299              	process_command:
 300              	.LVL11:
 301              	.LFB400:
 100:../Core/Src/telemetry_rx.c **** void process_command(int command_id) {
 302              		.loc 1 100 38 is_stmt 1 view -0
 303              		.cfi_startproc
 304              		@ args = 0, pretend = 0, frame = 0
 305              		@ frame_needed = 0, uses_anonymous_args = 0
 100:../Core/Src/telemetry_rx.c **** void process_command(int command_id) {
 306              		.loc 1 100 38 is_stmt 0 view .LVU22
 307 0000 08B5     		push	{r3, lr}
 308              	.LCFI12:
 309              		.cfi_def_cfa_offset 8
 310              		.cfi_offset 3, -8
 311              		.cfi_offset 14, -4
 101:../Core/Src/telemetry_rx.c ****     switch (command_id) {
 312              		.loc 1 101 5 is_stmt 1 view .LVU23
 313 0002 0128     		cmp	r0, #1
 314 0004 02D0     		beq	.L19
 315 0006 0228     		cmp	r0, #2
 316 0008 03D0     		beq	.L20
 317              	.LVL12:
 318              	.L18:
 121:../Core/Src/telemetry_rx.c **** }
 319              		.loc 1 121 1 is_stmt 0 view .LVU24
 320 000a 08BD     		pop	{r3, pc}
 321              	.LVL13:
 322              	.L19:
 114:../Core/Src/telemetry_rx.c ****             command_ignite();
 323              		.loc 1 114 13 is_stmt 1 view .LVU25
 324 000c FFF7FEFF 		bl	command_ignite
 325              	.LVL14:
 115:../Core/Src/telemetry_rx.c ****             break;
 326              		.loc 1 115 13 view .LVU26
 327 0010 FBE7     		b	.L18
 328              	.LVL15:
 329              	.L20:
 117:../Core/Src/telemetry_rx.c ****             command_zero_servos();
 330              		.loc 1 117 13 view .LVU27
 331 0012 FFF7FEFF 		bl	command_zero_servos
 332              	.LVL16:
 118:../Core/Src/telemetry_rx.c ****             break;
 333              		.loc 1 118 13 view .LVU28
 121:../Core/Src/telemetry_rx.c **** }
 334              		.loc 1 121 1 is_stmt 0 view .LVU29
 335 0016 F8E7     		b	.L18
 336              		.cfi_endproc
 337              	.LFE400:
 339              		.section	.rodata.rx_process_byte.str1.4,"aMS",%progbits,1
ARM GAS  /tmp/cc3CUIhP.s 			page 10


 340              		.align	2
 341              	.LC5:
 342 0000 52656369 		.ascii	"Recieved byte: %02x\015\012\000"
 342      65766564 
 342      20627974 
 342      653A2025 
 342      3032780D 
 343 0016 0000     		.align	2
 344              	.LC6:
 345 0018 436F6D6D 		.ascii	"Command ID: %d, Command UUID: %d\015\012\000"
 345      616E6420 
 345      49443A20 
 345      25642C20 
 345      436F6D6D 
 346              		.section	.text.rx_process_byte,"ax",%progbits
 347              		.align	1
 348              		.global	rx_process_byte
 349              		.syntax unified
 350              		.thumb
 351              		.thumb_func
 353              	rx_process_byte:
 354              	.LVL17:
 355              	.LFB399:
  51:../Core/Src/telemetry_rx.c **** void rx_process_byte(uint8_t byte, uint8_t *packet_buffer, uint8_t *extracted_buffer, uint8_t *pack
 356              		.loc 1 51 141 is_stmt 1 view -0
 357              		.cfi_startproc
 358              		@ args = 4, pretend = 0, frame = 208
 359              		@ frame_needed = 0, uses_anonymous_args = 0
  51:../Core/Src/telemetry_rx.c **** void rx_process_byte(uint8_t byte, uint8_t *packet_buffer, uint8_t *extracted_buffer, uint8_t *pack
 360              		.loc 1 51 141 is_stmt 0 view .LVU31
 361 0000 2DE9F041 		push	{r4, r5, r6, r7, r8, lr}
 362              	.LCFI13:
 363              		.cfi_def_cfa_offset 24
 364              		.cfi_offset 4, -24
 365              		.cfi_offset 5, -20
 366              		.cfi_offset 6, -16
 367              		.cfi_offset 7, -12
 368              		.cfi_offset 8, -8
 369              		.cfi_offset 14, -4
 370 0004 B4B0     		sub	sp, sp, #208
 371              	.LCFI14:
 372              		.cfi_def_cfa_offset 232
 373 0006 8046     		mov	r8, r0
 374 0008 0E46     		mov	r6, r1
 375 000a 1746     		mov	r7, r2
 376 000c 1D46     		mov	r5, r3
  52:../Core/Src/telemetry_rx.c ****     int next_packet_buffer_size = process_incoming_byte(byte, packet_buffer, *packet_buffer_size);
 377              		.loc 1 52 5 is_stmt 1 view .LVU32
  52:../Core/Src/telemetry_rx.c ****     int next_packet_buffer_size = process_incoming_byte(byte, packet_buffer, *packet_buffer_size);
 378              		.loc 1 52 35 is_stmt 0 view .LVU33
 379 000e 1A78     		ldrb	r2, [r3]	@ zero_extendqisi2
 380              	.LVL18:
  52:../Core/Src/telemetry_rx.c ****     int next_packet_buffer_size = process_incoming_byte(byte, packet_buffer, *packet_buffer_size);
 381              		.loc 1 52 35 view .LVU34
 382 0010 FFF7FEFF 		bl	process_incoming_byte
 383              	.LVL19:
  52:../Core/Src/telemetry_rx.c ****     int next_packet_buffer_size = process_incoming_byte(byte, packet_buffer, *packet_buffer_size);
ARM GAS  /tmp/cc3CUIhP.s 			page 11


 384              		.loc 1 52 35 view .LVU35
 385 0014 0446     		mov	r4, r0
 386              	.LVL20:
  53:../Core/Src/telemetry_rx.c ****     char buf[100];
 387              		.loc 1 53 5 is_stmt 1 view .LVU36
  54:../Core/Src/telemetry_rx.c ****     sprintf(buf, "Recieved byte: %02x\r\n", byte);
 388              		.loc 1 54 5 view .LVU37
 389 0016 4246     		mov	r2, r8
 390 0018 2749     		ldr	r1, .L31
 391 001a 1BA8     		add	r0, sp, #108
 392              	.LVL21:
  54:../Core/Src/telemetry_rx.c ****     sprintf(buf, "Recieved byte: %02x\r\n", byte);
 393              		.loc 1 54 5 is_stmt 0 view .LVU38
 394 001c FFF7FEFF 		bl	sprintf
 395              	.LVL22:
  55:../Core/Src/telemetry_rx.c ****     HAL_UART_Transmit(&debug_uart, (uint8_t *) buf, strlen(buf), HAL_MAX_DELAY);
 396              		.loc 1 55 5 is_stmt 1 view .LVU39
  55:../Core/Src/telemetry_rx.c ****     HAL_UART_Transmit(&debug_uart, (uint8_t *) buf, strlen(buf), HAL_MAX_DELAY);
 397              		.loc 1 55 53 is_stmt 0 view .LVU40
 398 0020 1BA8     		add	r0, sp, #108
 399 0022 FFF7FEFF 		bl	strlen
 400              	.LVL23:
  55:../Core/Src/telemetry_rx.c ****     HAL_UART_Transmit(&debug_uart, (uint8_t *) buf, strlen(buf), HAL_MAX_DELAY);
 401              		.loc 1 55 5 view .LVU41
 402 0026 4FF0FF33 		mov	r3, #-1
 403 002a 82B2     		uxth	r2, r0
 404 002c 1BA9     		add	r1, sp, #108
 405 002e 2348     		ldr	r0, .L31+4
 406 0030 FFF7FEFF 		bl	HAL_UART_Transmit
 407              	.LVL24:
  57:../Core/Src/telemetry_rx.c ****     if (next_packet_buffer_size < 0) {
 408              		.loc 1 57 5 is_stmt 1 view .LVU42
  57:../Core/Src/telemetry_rx.c ****     if (next_packet_buffer_size < 0) {
 409              		.loc 1 57 8 is_stmt 0 view .LVU43
 410 0034 002C     		cmp	r4, #0
 411 0036 05DB     		blt	.L30
  89:../Core/Src/telemetry_rx.c ****     } else if (next_packet_buffer_size < TELEMETRY_MAX_PACKET_SIZE) {
 412              		.loc 1 89 12 is_stmt 1 view .LVU44
  89:../Core/Src/telemetry_rx.c ****     } else if (next_packet_buffer_size < TELEMETRY_MAX_PACKET_SIZE) {
 413              		.loc 1 89 15 is_stmt 0 view .LVU45
 414 0038 442C     		cmp	r4, #68
 415 003a 39DC     		bgt	.L28
  90:../Core/Src/telemetry_rx.c ****         *packet_buffer_size = next_packet_buffer_size;
 416              		.loc 1 90 9 is_stmt 1 view .LVU46
  90:../Core/Src/telemetry_rx.c ****         *packet_buffer_size = next_packet_buffer_size;
 417              		.loc 1 90 29 is_stmt 0 view .LVU47
 418 003c 2C70     		strb	r4, [r5]
 419              	.LVL25:
 420              	.L23:
  94:../Core/Src/telemetry_rx.c **** }
 421              		.loc 1 94 1 view .LVU48
 422 003e 34B0     		add	sp, sp, #208
 423              	.LCFI15:
 424              		.cfi_remember_state
 425              		.cfi_def_cfa_offset 24
 426              		@ sp needed
 427 0040 BDE8F081 		pop	{r4, r5, r6, r7, r8, pc}
ARM GAS  /tmp/cc3CUIhP.s 			page 12


 428              	.LVL26:
 429              	.L30:
 430              	.LCFI16:
 431              		.cfi_restore_state
  58:../Core/Src/telemetry_rx.c ****         *packet_buffer_size = 0;
 432              		.loc 1 58 9 is_stmt 1 view .LVU49
  58:../Core/Src/telemetry_rx.c ****         *packet_buffer_size = 0;
 433              		.loc 1 58 29 is_stmt 0 view .LVU50
 434 0044 0023     		movs	r3, #0
 435 0046 2B70     		strb	r3, [r5]
  59:../Core/Src/telemetry_rx.c ****         next_packet_buffer_size *= -1;
 436              		.loc 1 59 9 is_stmt 1 view .LVU51
  59:../Core/Src/telemetry_rx.c ****         next_packet_buffer_size *= -1;
 437              		.loc 1 59 33 is_stmt 0 view .LVU52
 438 0048 6442     		rsbs	r4, r4, #0
 439              	.LVL27:
  61:../Core/Src/telemetry_rx.c ****         if (verify_packet(packet_buffer, next_packet_buffer_size)) {
 440              		.loc 1 61 9 is_stmt 1 view .LVU53
  61:../Core/Src/telemetry_rx.c ****         if (verify_packet(packet_buffer, next_packet_buffer_size)) {
 441              		.loc 1 61 13 is_stmt 0 view .LVU54
 442 004a 2146     		mov	r1, r4
 443 004c 3046     		mov	r0, r6
 444 004e FFF7FEFF 		bl	verify_packet
 445              	.LVL28:
  61:../Core/Src/telemetry_rx.c ****         if (verify_packet(packet_buffer, next_packet_buffer_size)) {
 446              		.loc 1 61 12 view .LVU55
 447 0052 0028     		cmp	r0, #0
 448 0054 F3D0     		beq	.L23
 449              	.LBB2:
  62:../Core/Src/telemetry_rx.c ****             uint8_t message_id = extract_packet(packet_buffer, next_packet_buffer_size, extracted_b
 450              		.loc 1 62 13 is_stmt 1 view .LVU56
  62:../Core/Src/telemetry_rx.c ****             uint8_t message_id = extract_packet(packet_buffer, next_packet_buffer_size, extracted_b
 451              		.loc 1 62 34 is_stmt 0 view .LVU57
 452 0056 3A46     		mov	r2, r7
 453 0058 2146     		mov	r1, r4
 454 005a 3046     		mov	r0, r6
 455 005c FFF7FEFF 		bl	extract_packet
 456              	.LVL29:
  64:../Core/Src/telemetry_rx.c ****             if (message_id != COMMAND_MSG_ID) {
 457              		.loc 1 64 13 is_stmt 1 view .LVU58
  64:../Core/Src/telemetry_rx.c ****             if (message_id != COMMAND_MSG_ID) {
 458              		.loc 1 64 16 is_stmt 0 view .LVU59
 459 0060 0128     		cmp	r0, #1
 460 0062 ECD1     		bne	.L23
  68:../Core/Src/telemetry_rx.c ****             int command_id = extracted_buffer[0];
 461              		.loc 1 68 13 is_stmt 1 view .LVU60
  68:../Core/Src/telemetry_rx.c ****             int command_id = extracted_buffer[0];
 462              		.loc 1 68 46 is_stmt 0 view .LVU61
 463 0064 3D78     		ldrb	r5, [r7]	@ zero_extendqisi2
 464              	.LVL30:
  69:../Core/Src/telemetry_rx.c ****             int command_uuid = extracted_buffer[1];
 465              		.loc 1 69 13 is_stmt 1 view .LVU62
  69:../Core/Src/telemetry_rx.c ****             int command_uuid = extracted_buffer[1];
 466              		.loc 1 69 48 is_stmt 0 view .LVU63
 467 0066 7C78     		ldrb	r4, [r7, #1]	@ zero_extendqisi2
 468              	.LVL31:
  71:../Core/Src/telemetry_rx.c ****             if (recieved_uuids[command_uuid] == 1) {
ARM GAS  /tmp/cc3CUIhP.s 			page 13


 469              		.loc 1 71 13 is_stmt 1 view .LVU64
  71:../Core/Src/telemetry_rx.c ****             if (recieved_uuids[command_uuid] == 1) {
 470              		.loc 1 71 31 is_stmt 0 view .LVU65
 471 0068 3A9B     		ldr	r3, [sp, #232]
 472 006a 1B5D     		ldrb	r3, [r3, r4]	@ zero_extendqisi2
  71:../Core/Src/telemetry_rx.c ****             if (recieved_uuids[command_uuid] == 1) {
 473              		.loc 1 71 16 view .LVU66
 474 006c 012B     		cmp	r3, #1
 475 006e E6D0     		beq	.L23
  75:../Core/Src/telemetry_rx.c ****             recieved_uuids[command_uuid] = 1;
 476              		.loc 1 75 13 is_stmt 1 view .LVU67
  75:../Core/Src/telemetry_rx.c ****             recieved_uuids[command_uuid] = 1;
 477              		.loc 1 75 42 is_stmt 0 view .LVU68
 478 0070 0123     		movs	r3, #1
 479 0072 3A9A     		ldr	r2, [sp, #232]
 480 0074 1355     		strb	r3, [r2, r4]
  77:../Core/Src/telemetry_rx.c ****             char buf2[100];
 481              		.loc 1 77 13 is_stmt 1 view .LVU69
  78:../Core/Src/telemetry_rx.c ****             sprintf(buf2, "Command ID: %d, Command UUID: %d\r\n", command_id, command_uuid);
 482              		.loc 1 78 13 view .LVU70
 483 0076 2346     		mov	r3, r4
 484 0078 2A46     		mov	r2, r5
 485 007a 1149     		ldr	r1, .L31+8
 486 007c 02A8     		add	r0, sp, #8
 487              	.LVL32:
  78:../Core/Src/telemetry_rx.c ****             sprintf(buf2, "Command ID: %d, Command UUID: %d\r\n", command_id, command_uuid);
 488              		.loc 1 78 13 is_stmt 0 view .LVU71
 489 007e FFF7FEFF 		bl	sprintf
 490              	.LVL33:
  79:../Core/Src/telemetry_rx.c ****             HAL_UART_Transmit(&debug_uart, (uint8_t *) buf2, strlen(buf2), HAL_MAX_DELAY);
 491              		.loc 1 79 13 is_stmt 1 view .LVU72
  79:../Core/Src/telemetry_rx.c ****             HAL_UART_Transmit(&debug_uart, (uint8_t *) buf2, strlen(buf2), HAL_MAX_DELAY);
 492              		.loc 1 79 62 is_stmt 0 view .LVU73
 493 0082 02A8     		add	r0, sp, #8
 494 0084 FFF7FEFF 		bl	strlen
 495              	.LVL34:
  79:../Core/Src/telemetry_rx.c ****             HAL_UART_Transmit(&debug_uart, (uint8_t *) buf2, strlen(buf2), HAL_MAX_DELAY);
 496              		.loc 1 79 13 view .LVU74
 497 0088 4FF0FF33 		mov	r3, #-1
 498 008c 82B2     		uxth	r2, r0
 499 008e 02A9     		add	r1, sp, #8
 500 0090 0A48     		ldr	r0, .L31+4
 501 0092 FFF7FEFF 		bl	HAL_UART_Transmit
 502              	.LVL35:
  81:../Core/Src/telemetry_rx.c ****             uint8_t payload[2];
 503              		.loc 1 81 13 is_stmt 1 view .LVU75
  82:../Core/Src/telemetry_rx.c ****             payload[0] = command_id; // command id
 504              		.loc 1 82 13 view .LVU76
  82:../Core/Src/telemetry_rx.c ****             payload[0] = command_id; // command id
 505              		.loc 1 82 24 is_stmt 0 view .LVU77
 506 0096 8DF80450 		strb	r5, [sp, #4]
  83:../Core/Src/telemetry_rx.c ****             payload[1] = command_uuid; // command uuid
 507              		.loc 1 83 13 is_stmt 1 view .LVU78
  83:../Core/Src/telemetry_rx.c ****             payload[1] = command_uuid; // command uuid
 508              		.loc 1 83 24 is_stmt 0 view .LVU79
 509 009a 8DF80540 		strb	r4, [sp, #5]
  85:../Core/Src/telemetry_rx.c ****             telemetry_send_message(payload, 2, COMMAND_ACK_MSG_ID);
ARM GAS  /tmp/cc3CUIhP.s 			page 14


 510              		.loc 1 85 13 is_stmt 1 view .LVU80
 511 009e 0222     		movs	r2, #2
 512 00a0 1146     		mov	r1, r2
 513 00a2 01A8     		add	r0, sp, #4
 514 00a4 FFF7FEFF 		bl	telemetry_send_message
 515              	.LVL36:
  87:../Core/Src/telemetry_rx.c ****             process_command(command_id);
 516              		.loc 1 87 13 view .LVU81
 517 00a8 2846     		mov	r0, r5
 518 00aa FFF7FEFF 		bl	process_command
 519              	.LVL37:
 520 00ae C6E7     		b	.L23
 521              	.LVL38:
 522              	.L28:
  87:../Core/Src/telemetry_rx.c ****             process_command(command_id);
 523              		.loc 1 87 13 is_stmt 0 view .LVU82
 524              	.LBE2:
  92:../Core/Src/telemetry_rx.c ****         *packet_buffer_size = 0;
 525              		.loc 1 92 9 is_stmt 1 view .LVU83
  92:../Core/Src/telemetry_rx.c ****         *packet_buffer_size = 0;
 526              		.loc 1 92 29 is_stmt 0 view .LVU84
 527 00b0 0023     		movs	r3, #0
 528 00b2 2B70     		strb	r3, [r5]
 529 00b4 C3E7     		b	.L23
 530              	.L32:
 531 00b6 00BF     		.align	2
 532              	.L31:
 533 00b8 00000000 		.word	.LC5
 534 00bc 00000000 		.word	huart2
 535 00c0 18000000 		.word	.LC6
 536              		.cfi_endproc
 537              	.LFE399:
 539              		.section	.text.telemetry_rx_task,"ax",%progbits
 540              		.align	1
 541              		.global	telemetry_rx_task
 542              		.syntax unified
 543              		.thumb
 544              		.thumb_func
 546              	telemetry_rx_task:
 547              	.LVL39:
 548              	.LFB398:
  17:../Core/Src/telemetry_rx.c **** void telemetry_rx_task(void *args) {
 549              		.loc 1 17 36 is_stmt 1 view -0
 550              		.cfi_startproc
 551              		@ args = 0, pretend = 0, frame = 472
 552              		@ frame_needed = 0, uses_anonymous_args = 0
  17:../Core/Src/telemetry_rx.c **** void telemetry_rx_task(void *args) {
 553              		.loc 1 17 36 is_stmt 0 view .LVU86
 554 0000 30B5     		push	{r4, r5, lr}
 555              	.LCFI17:
 556              		.cfi_def_cfa_offset 12
 557              		.cfi_offset 4, -12
 558              		.cfi_offset 5, -8
 559              		.cfi_offset 14, -4
 560 0002 F9B0     		sub	sp, sp, #484
 561              	.LCFI18:
 562              		.cfi_def_cfa_offset 496
ARM GAS  /tmp/cc3CUIhP.s 			page 15


  19:../Core/Src/telemetry_rx.c ****     uint8_t bytes_to_process[TELEMETRY_RX_MAX_PROCESS_SIZE];
 563              		.loc 1 19 5 is_stmt 1 view .LVU87
  22:../Core/Src/telemetry_rx.c ****     uint8_t packet_buffer[TELEMETRY_MAX_PACKET_SIZE];
 564              		.loc 1 22 5 view .LVU88
  25:../Core/Src/telemetry_rx.c ****     uint8_t extracted_packet_buffer[TELEMETRY_MAX_PACKET_SIZE];
 565              		.loc 1 25 5 view .LVU89
  28:../Core/Src/telemetry_rx.c ****     uint8_t recieved_uuids[256] = {0};
 566              		.loc 1 28 5 view .LVU90
  28:../Core/Src/telemetry_rx.c ****     uint8_t recieved_uuids[256] = {0};
 567              		.loc 1 28 13 is_stmt 0 view .LVU91
 568 0004 0024     		movs	r4, #0
 569 0006 0494     		str	r4, [sp, #16]
 570 0008 FC22     		movs	r2, #252
 571 000a 2146     		mov	r1, r4
 572 000c 05A8     		add	r0, sp, #20
 573              	.LVL40:
  28:../Core/Src/telemetry_rx.c ****     uint8_t recieved_uuids[256] = {0};
 574              		.loc 1 28 13 view .LVU92
 575 000e FFF7FEFF 		bl	memset
 576              	.LVL41:
  31:../Core/Src/telemetry_rx.c ****     uint8_t packet_buffer_size = 0;
 577              		.loc 1 31 5 is_stmt 1 view .LVU93
  31:../Core/Src/telemetry_rx.c ****     uint8_t packet_buffer_size = 0;
 578              		.loc 1 31 13 is_stmt 0 view .LVU94
 579 0012 8DF80F40 		strb	r4, [sp, #15]
 580              	.L36:
  33:../Core/Src/telemetry_rx.c ****     while (1) {
 581              		.loc 1 33 5 is_stmt 1 view .LVU95
 582              	.LBB3:
  35:../Core/Src/telemetry_rx.c ****         int bytes_read = xStreamBufferReceive(g_telemetry_rx_sb_handle, bytes_to_process, TELEMETRY
 583              		.loc 1 35 9 view .LVU96
  35:../Core/Src/telemetry_rx.c ****         int bytes_read = xStreamBufferReceive(g_telemetry_rx_sb_handle, bytes_to_process, TELEMETRY
 584              		.loc 1 35 26 is_stmt 0 view .LVU97
 585 0016 4FF0FF33 		mov	r3, #-1
 586 001a 4022     		movs	r2, #64
 587 001c 68A9     		add	r1, sp, #416
 588 001e 0C48     		ldr	r0, .L38
 589 0020 0068     		ldr	r0, [r0]
 590 0022 FFF7FEFF 		bl	xStreamBufferReceive
 591              	.LVL42:
 592 0026 0446     		mov	r4, r0
 593              	.LVL43:
  38:../Core/Src/telemetry_rx.c ****         for (int i = 0; i < bytes_read; i ++) {
 594              		.loc 1 38 9 is_stmt 1 view .LVU98
 595              	.LBB4:
  38:../Core/Src/telemetry_rx.c ****         for (int i = 0; i < bytes_read; i ++) {
 596              		.loc 1 38 14 view .LVU99
  38:../Core/Src/telemetry_rx.c ****         for (int i = 0; i < bytes_read; i ++) {
 597              		.loc 1 38 18 is_stmt 0 view .LVU100
 598 0028 0025     		movs	r5, #0
 599              	.LVL44:
 600              	.L34:
  38:../Core/Src/telemetry_rx.c ****         for (int i = 0; i < bytes_read; i ++) {
 601              		.loc 1 38 27 is_stmt 1 discriminator 1 view .LVU101
 602 002a A542     		cmp	r5, r4
 603 002c F3DA     		bge	.L36
  39:../Core/Src/telemetry_rx.c ****             rx_process_byte(bytes_to_process[i], packet_buffer, extracted_packet_buffer, &packet_bu
ARM GAS  /tmp/cc3CUIhP.s 			page 16


 604              		.loc 1 39 13 discriminator 3 view .LVU102
 605 002e 05F5F073 		add	r3, r5, #480
 606 0032 0DEB0300 		add	r0, sp, r3
 607 0036 04AB     		add	r3, sp, #16
 608 0038 0093     		str	r3, [sp]
 609 003a 0DF10F03 		add	r3, sp, #15
 610 003e 44AA     		add	r2, sp, #272
 611 0040 56A9     		add	r1, sp, #344
 612 0042 10F8400C 		ldrb	r0, [r0, #-64]	@ zero_extendqisi2
 613 0046 FFF7FEFF 		bl	rx_process_byte
 614              	.LVL45:
  38:../Core/Src/telemetry_rx.c ****         for (int i = 0; i < bytes_read; i ++) {
 615              		.loc 1 38 43 discriminator 3 view .LVU103
 616 004a 0135     		adds	r5, r5, #1
 617              	.LVL46:
  38:../Core/Src/telemetry_rx.c ****         for (int i = 0; i < bytes_read; i ++) {
 618              		.loc 1 38 43 is_stmt 0 discriminator 3 view .LVU104
 619 004c EDE7     		b	.L34
 620              	.L39:
 621 004e 00BF     		.align	2
 622              	.L38:
 623 0050 00000000 		.word	g_telemetry_rx_sb_handle
 624              	.LBE4:
 625              	.LBE3:
 626              		.cfi_endproc
 627              	.LFE398:
 629              		.text
 630              	.Letext0:
 631              		.file 2 "/nix/store/lcj4nx7xv8c36cif7armkfa7b5cmfh74-gcc-arm-embedded-12.3.rel1/arm-none-eabi/incl
 632              		.file 3 "/nix/store/lcj4nx7xv8c36cif7armkfa7b5cmfh74-gcc-arm-embedded-12.3.rel1/arm-none-eabi/incl
 633              		.file 4 "Drivers/CMSIS/Device/ST/STM32H7xx/Include/stm32h725xx.h"
 634              		.file 5 "/nix/store/lcj4nx7xv8c36cif7armkfa7b5cmfh74-gcc-arm-embedded-12.3.rel1/lib/gcc/arm-none-e
 635              		.file 6 "Drivers/STM32H7xx_HAL_Driver/Inc/stm32h7xx_hal_def.h"
 636              		.file 7 "Drivers/STM32H7xx_HAL_Driver/Inc/stm32h7xx_hal_dma.h"
 637              		.file 8 "Drivers/STM32H7xx_HAL_Driver/Inc/stm32h7xx_hal_uart.h"
 638              		.file 9 "Core/Inc/portmacro.h"
 639              		.file 10 "../Core/Include/adc.h"
 640              		.file 11 "Core/Inc/port_config.h"
 641              		.file 12 "../Core/FreeRTOS-Kernel/include/stream_buffer.h"
 642              		.file 13 "../Core/FreeRTOS-Kernel/include/task.h"
 643              		.file 14 "../Core/Include/globals.h"
 644              		.file 15 "../Core/Include/telemetry.h"
 645              		.file 16 "../Core/Include/packet_encode.h"
 646              		.file 17 "/nix/store/lcj4nx7xv8c36cif7armkfa7b5cmfh74-gcc-arm-embedded-12.3.rel1/arm-none-eabi/inc
 647              		.file 18 "/nix/store/lcj4nx7xv8c36cif7armkfa7b5cmfh74-gcc-arm-embedded-12.3.rel1/arm-none-eabi/inc
 648              		.file 19 "<built-in>"
ARM GAS  /tmp/cc3CUIhP.s 			page 17

