ARM GAS  /tmp/cc9q7Mpg.s 			page 1


   1              		.cpu cortex-m7
   2              		.arch armv7e-m
   3              		.fpu fpv5-d16
   4              		.eabi_attribute 28, 1
   5              		.eabi_attribute 20, 1
   6              		.eabi_attribute 21, 1
   7              		.eabi_attribute 23, 3
   8              		.eabi_attribute 24, 1
   9              		.eabi_attribute 25, 1
  10              		.eabi_attribute 26, 1
  11              		.eabi_attribute 30, 1
  12              		.eabi_attribute 34, 1
  13              		.eabi_attribute 18, 4
  14              		.file	"uart_isr.c"
  15              		.text
  16              	.Ltext0:
  17              		.cfi_sections	.debug_frame
  18              		.file 1 "../Core/Src/uart_isr.c"
  19              		.section	.text.begin_uart_listen,"ax",%progbits
  20              		.align	1
  21              		.global	begin_uart_listen
  22              		.syntax unified
  23              		.thumb
  24              		.thumb_func
  26              	begin_uart_listen:
  27              	.LFB398:
   1:../Core/Src/uart_isr.c **** #include "uart_isr.h"
   2:../Core/Src/uart_isr.c **** 
   3:../Core/Src/uart_isr.c **** uint8_t telemetry_uart_rx_buf[TELEMETRY_RX_MAX_PROCESS_SIZE];
   4:../Core/Src/uart_isr.c **** uint8_t state_uart_rx_buf[STATE_PACKET_SIZE];
   5:../Core/Src/uart_isr.c **** 
   6:../Core/Src/uart_isr.c **** uint8_t state_bytes[STATE_PACKET_SIZE];
   7:../Core/Src/uart_isr.c **** 
   8:../Core/Src/uart_isr.c **** uint8_t state_bytes_received = 0;
   9:../Core/Src/uart_isr.c **** 
  10:../Core/Src/uart_isr.c **** void process_state_bytes(uint16_t size, BaseType_t *xHigherPriorityTaskWoken);
  11:../Core/Src/uart_isr.c **** void update_rocket_state(BaseType_t *xHigherPriorityTaskWoken);
  12:../Core/Src/uart_isr.c **** 
  13:../Core/Src/uart_isr.c **** /**
  14:../Core/Src/uart_isr.c ****  * @brief Begin listening for UART data over telemetry_uart and state_uart
  15:../Core/Src/uart_isr.c ****  * @return 1 if successful, 0 otherwise
  16:../Core/Src/uart_isr.c ****  */
  17:../Core/Src/uart_isr.c **** int begin_uart_listen(void) {
  28              		.loc 1 17 29 view -0
  29              		.cfi_startproc
  30              		@ args = 0, pretend = 0, frame = 0
  31              		@ frame_needed = 0, uses_anonymous_args = 0
  32 0000 08B5     		push	{r3, lr}
  33              	.LCFI0:
  34              		.cfi_def_cfa_offset 8
  35              		.cfi_offset 3, -8
  36              		.cfi_offset 14, -4
  18:../Core/Src/uart_isr.c ****     /**
  19:../Core/Src/uart_isr.c ****      * RecieveToIdle will call the RxEventCallback interrupt when either an idle event is detected
  20:../Core/Src/uart_isr.c ****      * or the expected amount of data is recieved
  21:../Core/Src/uart_isr.c ****     */ 
  22:../Core/Src/uart_isr.c ****     if (HAL_UARTEx_ReceiveToIdle_IT(&telemetry_uart, telemetry_uart_rx_buf, TELEMETRY_RX_MAX_PROCES
ARM GAS  /tmp/cc9q7Mpg.s 			page 2


  37              		.loc 1 22 5 view .LVU1
  38              		.loc 1 22 9 is_stmt 0 view .LVU2
  39 0002 4022     		movs	r2, #64
  40 0004 0849     		ldr	r1, .L7
  41 0006 0948     		ldr	r0, .L7+4
  42 0008 FFF7FEFF 		bl	HAL_UARTEx_ReceiveToIdle_IT
  43              	.LVL0:
  44              		.loc 1 22 8 view .LVU3
  45 000c 08B1     		cbz	r0, .L6
  23:../Core/Src/uart_isr.c ****         return 0;
  46              		.loc 1 23 16 view .LVU4
  47 000e 0020     		movs	r0, #0
  48              	.L1:
  24:../Core/Src/uart_isr.c ****     }
  25:../Core/Src/uart_isr.c ****     
  26:../Core/Src/uart_isr.c ****     if (HAL_UARTEx_ReceiveToIdle_IT(&state_uart, state_uart_rx_buf, STATE_PACKET_SIZE) != HAL_OK) {
  27:../Core/Src/uart_isr.c ****         return 0;
  28:../Core/Src/uart_isr.c ****     }
  29:../Core/Src/uart_isr.c **** 
  30:../Core/Src/uart_isr.c ****     return 1;
  31:../Core/Src/uart_isr.c **** }
  49              		.loc 1 31 1 view .LVU5
  50 0010 08BD     		pop	{r3, pc}
  51              	.L6:
  26:../Core/Src/uart_isr.c ****         return 0;
  52              		.loc 1 26 5 is_stmt 1 view .LVU6
  26:../Core/Src/uart_isr.c ****         return 0;
  53              		.loc 1 26 9 is_stmt 0 view .LVU7
  54 0012 7622     		movs	r2, #118
  55 0014 0649     		ldr	r1, .L7+8
  56 0016 0748     		ldr	r0, .L7+12
  57 0018 FFF7FEFF 		bl	HAL_UARTEx_ReceiveToIdle_IT
  58              	.LVL1:
  26:../Core/Src/uart_isr.c ****         return 0;
  59              		.loc 1 26 8 view .LVU8
  60 001c 08B9     		cbnz	r0, .L4
  30:../Core/Src/uart_isr.c **** }
  61              		.loc 1 30 12 view .LVU9
  62 001e 0120     		movs	r0, #1
  63 0020 F6E7     		b	.L1
  64              	.L4:
  27:../Core/Src/uart_isr.c ****     }
  65              		.loc 1 27 16 view .LVU10
  66 0022 0020     		movs	r0, #0
  67 0024 F4E7     		b	.L1
  68              	.L8:
  69 0026 00BF     		.align	2
  70              	.L7:
  71 0028 00000000 		.word	telemetry_uart_rx_buf
  72 002c 00000000 		.word	huart4
  73 0030 00000000 		.word	state_uart_rx_buf
  74 0034 00000000 		.word	huart5
  75              		.cfi_endproc
  76              	.LFE398:
  78              		.section	.text.process_state_bytes,"ax",%progbits
  79              		.align	1
  80              		.global	process_state_bytes
ARM GAS  /tmp/cc9q7Mpg.s 			page 3


  81              		.syntax unified
  82              		.thumb
  83              		.thumb_func
  85              	process_state_bytes:
  86              	.LVL2:
  87              	.LFB400:
  32:../Core/Src/uart_isr.c **** 
  33:../Core/Src/uart_isr.c **** void HAL_UARTEx_RxEventCallback(UART_HandleTypeDef *huart, uint16_t size) {
  34:../Core/Src/uart_isr.c ****     /* FreeRTOS boilerplate */
  35:../Core/Src/uart_isr.c ****     BaseType_t xHigherPriorityTaskWoken = pdFALSE;
  36:../Core/Src/uart_isr.c ****     HAL_UART_Transmit(&debug_uart, (uint8_t *) "Recieved data\r\n", 15, HAL_MAX_DELAY);
  37:../Core/Src/uart_isr.c **** 
  38:../Core/Src/uart_isr.c ****     /* Direct uart data to the appropriate place */
  39:../Core/Src/uart_isr.c ****     if (huart->Instance == telemetry_uart.Instance) {
  40:../Core/Src/uart_isr.c ****         /* Send telemetry data to the telemetry_rx task */
  41:../Core/Src/uart_isr.c ****         xStreamBufferSendFromISR(g_telemetry_rx_sb_handle, telemetry_uart_rx_buf, size, &xHigherPri
  42:../Core/Src/uart_isr.c ****         HAL_UARTEx_ReceiveToIdle_IT(&telemetry_uart, telemetry_uart_rx_buf, TELEMETRY_RX_MAX_PROCES
  43:../Core/Src/uart_isr.c ****     } else if (huart->Instance == state_uart.Instance) {
  44:../Core/Src/uart_isr.c ****         process_state_bytes(size, &xHigherPriorityTaskWoken);
  45:../Core/Src/uart_isr.c ****         HAL_UARTEx_ReceiveToIdle_IT(&state_uart, state_uart_rx_buf, STATE_PACKET_SIZE);
  46:../Core/Src/uart_isr.c ****     }
  47:../Core/Src/uart_isr.c **** 
  48:../Core/Src/uart_isr.c ****     /* FreeRTOS boilerplate */
  49:../Core/Src/uart_isr.c ****     portYIELD_FROM_ISR(xHigherPriorityTaskWoken);
  50:../Core/Src/uart_isr.c **** }
  51:../Core/Src/uart_isr.c **** 
  52:../Core/Src/uart_isr.c **** /**
  53:../Core/Src/uart_isr.c ****  * @brief Process bytes recieved from the state estimation over UART
  54:../Core/Src/uart_isr.c ****  * When a full packet is recieved, update the rocket state
  55:../Core/Src/uart_isr.c ****  * @param size Number of bytes recieved
  56:../Core/Src/uart_isr.c ****  * @param xHigherPriorityTaskWoken FreeRTOS boilerplate
  57:../Core/Src/uart_isr.c ****  */
  58:../Core/Src/uart_isr.c **** void process_state_bytes(uint16_t size, BaseType_t *xHigherPriorityTaskWoken) {
  88              		.loc 1 58 79 is_stmt 1 view -0
  89              		.cfi_startproc
  90              		@ args = 0, pretend = 0, frame = 0
  91              		@ frame_needed = 0, uses_anonymous_args = 0
  92              		.loc 1 58 79 is_stmt 0 view .LVU12
  93 0000 70B5     		push	{r4, r5, r6, lr}
  94              	.LCFI1:
  95              		.cfi_def_cfa_offset 16
  96              		.cfi_offset 4, -16
  97              		.cfi_offset 5, -12
  98              		.cfi_offset 6, -8
  99              		.cfi_offset 14, -4
 100 0002 0446     		mov	r4, r0
  59:../Core/Src/uart_isr.c ****     uint16_t size_to_recieve = size;
 101              		.loc 1 59 5 is_stmt 1 view .LVU13
 102              	.LVL3:
  60:../Core/Src/uart_isr.c ****     
  61:../Core/Src/uart_isr.c ****     /* Clamp initial size to recieve to not exceed STATE_PACKET_SIZE */
  62:../Core/Src/uart_isr.c ****     if (state_bytes_received + size > STATE_PACKET_SIZE) {
 103              		.loc 1 62 5 view .LVU14
 104              		.loc 1 62 30 is_stmt 0 view .LVU15
 105 0004 154B     		ldr	r3, .L15
 106 0006 1B78     		ldrb	r3, [r3]	@ zero_extendqisi2
 107 0008 1A18     		adds	r2, r3, r0
ARM GAS  /tmp/cc9q7Mpg.s 			page 4


 108              		.loc 1 62 8 view .LVU16
 109 000a 762A     		cmp	r2, #118
 110 000c 1FDD     		ble	.L12
  63:../Core/Src/uart_isr.c ****         size_to_recieve = STATE_PACKET_SIZE - state_bytes_received;
 111              		.loc 1 63 9 is_stmt 1 view .LVU17
 112              		.loc 1 63 25 is_stmt 0 view .LVU18
 113 000e C3F17605 		rsb	r5, r3, #118
 114 0012 ADB2     		uxth	r5, r5
 115              	.LVL4:
 116              	.L10:
  64:../Core/Src/uart_isr.c ****     }
  65:../Core/Src/uart_isr.c **** 
  66:../Core/Src/uart_isr.c ****     /* Fill state buffer */
  67:../Core/Src/uart_isr.c ****     memcpy(state_bytes + state_bytes_received, state_uart_rx_buf, size_to_recieve);
 117              		.loc 1 67 5 is_stmt 1 view .LVU19
 118 0014 2E46     		mov	r6, r5
 119 0016 2A46     		mov	r2, r5
 120 0018 1149     		ldr	r1, .L15+4
 121              	.LVL5:
 122              		.loc 1 67 5 is_stmt 0 view .LVU20
 123 001a 1248     		ldr	r0, .L15+8
 124              	.LVL6:
 125              		.loc 1 67 5 view .LVU21
 126 001c 1844     		add	r0, r0, r3
 127 001e FFF7FEFF 		bl	memcpy
 128              	.LVL7:
  68:../Core/Src/uart_isr.c ****     state_bytes_received += size_to_recieve;
 129              		.loc 1 68 5 is_stmt 1 view .LVU22
 130              		.loc 1 68 26 is_stmt 0 view .LVU23
 131 0022 0E4A     		ldr	r2, .L15
 132 0024 1378     		ldrb	r3, [r2]	@ zero_extendqisi2
 133 0026 2B44     		add	r3, r3, r5
 134 0028 DBB2     		uxtb	r3, r3
 135 002a 1370     		strb	r3, [r2]
  69:../Core/Src/uart_isr.c **** 
  70:../Core/Src/uart_isr.c ****     /* If a full packet is recieved, update the rocket state */
  71:../Core/Src/uart_isr.c ****     if (state_bytes_received == STATE_PACKET_SIZE) {
 136              		.loc 1 71 5 is_stmt 1 view .LVU24
 137              		.loc 1 71 8 is_stmt 0 view .LVU25
 138 002c 762B     		cmp	r3, #118
 139 002e 10D0     		beq	.L14
 140              	.L11:
  72:../Core/Src/uart_isr.c ****         update_rocket_state(xHigherPriorityTaskWoken);
  73:../Core/Src/uart_isr.c ****         state_bytes_received = 0;
  74:../Core/Src/uart_isr.c ****     }
  75:../Core/Src/uart_isr.c **** 
  76:../Core/Src/uart_isr.c ****     uint16_t remaining_size = size - size_to_recieve;
 141              		.loc 1 76 5 is_stmt 1 view .LVU26
 142              		.loc 1 76 14 is_stmt 0 view .LVU27
 143 0030 641B     		subs	r4, r4, r5
 144 0032 A4B2     		uxth	r4, r4
 145              	.LVL8:
  77:../Core/Src/uart_isr.c **** 
  78:../Core/Src/uart_isr.c ****     /* Copy remaining data */
  79:../Core/Src/uart_isr.c ****     memcpy(state_bytes + state_bytes_received, state_uart_rx_buf + size_to_recieve, remaining_size)
 146              		.loc 1 79 5 is_stmt 1 view .LVU28
 147 0034 094D     		ldr	r5, .L15
ARM GAS  /tmp/cc9q7Mpg.s 			page 5


 148              	.LVL9:
 149              		.loc 1 79 5 is_stmt 0 view .LVU29
 150 0036 2B78     		ldrb	r3, [r5]	@ zero_extendqisi2
 151 0038 2246     		mov	r2, r4
 152 003a 0949     		ldr	r1, .L15+4
 153 003c 3144     		add	r1, r1, r6
 154 003e 0948     		ldr	r0, .L15+8
 155 0040 1844     		add	r0, r0, r3
 156 0042 FFF7FEFF 		bl	memcpy
 157              	.LVL10:
  80:../Core/Src/uart_isr.c ****     state_bytes_received += remaining_size;
 158              		.loc 1 80 5 is_stmt 1 view .LVU30
 159              		.loc 1 80 26 is_stmt 0 view .LVU31
 160 0046 2B78     		ldrb	r3, [r5]	@ zero_extendqisi2
 161 0048 2344     		add	r3, r3, r4
 162 004a 2B70     		strb	r3, [r5]
  81:../Core/Src/uart_isr.c **** }
 163              		.loc 1 81 1 view .LVU32
 164 004c 70BD     		pop	{r4, r5, r6, pc}
 165              	.LVL11:
 166              	.L12:
  59:../Core/Src/uart_isr.c ****     
 167              		.loc 1 59 14 view .LVU33
 168 004e 0546     		mov	r5, r0
 169 0050 E0E7     		b	.L10
 170              	.LVL12:
 171              	.L14:
  72:../Core/Src/uart_isr.c ****         state_bytes_received = 0;
 172              		.loc 1 72 9 is_stmt 1 view .LVU34
  73:../Core/Src/uart_isr.c ****     }
 173              		.loc 1 73 9 view .LVU35
  73:../Core/Src/uart_isr.c ****     }
 174              		.loc 1 73 30 is_stmt 0 view .LVU36
 175 0052 1346     		mov	r3, r2
 176 0054 0022     		movs	r2, #0
 177 0056 1A70     		strb	r2, [r3]
 178 0058 EAE7     		b	.L11
 179              	.L16:
 180 005a 00BF     		.align	2
 181              	.L15:
 182 005c 00000000 		.word	state_bytes_received
 183 0060 00000000 		.word	state_uart_rx_buf
 184 0064 00000000 		.word	state_bytes
 185              		.cfi_endproc
 186              	.LFE400:
 188              		.section	.rodata.HAL_UARTEx_RxEventCallback.str1.4,"aMS",%progbits,1
 189              		.align	2
 190              	.LC0:
 191 0000 52656369 		.ascii	"Recieved data\015\012\000"
 191      65766564 
 191      20646174 
 191      610D0A00 
 192              		.section	.text.HAL_UARTEx_RxEventCallback,"ax",%progbits
 193              		.align	1
 194              		.global	HAL_UARTEx_RxEventCallback
 195              		.syntax unified
 196              		.thumb
ARM GAS  /tmp/cc9q7Mpg.s 			page 6


 197              		.thumb_func
 199              	HAL_UARTEx_RxEventCallback:
 200              	.LVL13:
 201              	.LFB399:
  33:../Core/Src/uart_isr.c ****     /* FreeRTOS boilerplate */
 202              		.loc 1 33 75 is_stmt 1 view -0
 203              		.cfi_startproc
 204              		@ args = 0, pretend = 0, frame = 8
 205              		@ frame_needed = 0, uses_anonymous_args = 0
  33:../Core/Src/uart_isr.c ****     /* FreeRTOS boilerplate */
 206              		.loc 1 33 75 is_stmt 0 view .LVU38
 207 0000 30B5     		push	{r4, r5, lr}
 208              	.LCFI2:
 209              		.cfi_def_cfa_offset 12
 210              		.cfi_offset 4, -12
 211              		.cfi_offset 5, -8
 212              		.cfi_offset 14, -4
 213 0002 83B0     		sub	sp, sp, #12
 214              	.LCFI3:
 215              		.cfi_def_cfa_offset 24
 216 0004 0446     		mov	r4, r0
 217 0006 0D46     		mov	r5, r1
  35:../Core/Src/uart_isr.c ****     HAL_UART_Transmit(&debug_uart, (uint8_t *) "Recieved data\r\n", 15, HAL_MAX_DELAY);
 218              		.loc 1 35 5 is_stmt 1 view .LVU39
  35:../Core/Src/uart_isr.c ****     HAL_UART_Transmit(&debug_uart, (uint8_t *) "Recieved data\r\n", 15, HAL_MAX_DELAY);
 219              		.loc 1 35 16 is_stmt 0 view .LVU40
 220 0008 0023     		movs	r3, #0
 221 000a 0193     		str	r3, [sp, #4]
  36:../Core/Src/uart_isr.c **** 
 222              		.loc 1 36 5 is_stmt 1 view .LVU41
 223 000c 4FF0FF33 		mov	r3, #-1
 224 0010 0F22     		movs	r2, #15
 225 0012 1949     		ldr	r1, .L24
 226              	.LVL14:
  36:../Core/Src/uart_isr.c **** 
 227              		.loc 1 36 5 is_stmt 0 view .LVU42
 228 0014 1948     		ldr	r0, .L24+4
 229              	.LVL15:
  36:../Core/Src/uart_isr.c **** 
 230              		.loc 1 36 5 view .LVU43
 231 0016 FFF7FEFF 		bl	HAL_UART_Transmit
 232              	.LVL16:
  39:../Core/Src/uart_isr.c ****         /* Send telemetry data to the telemetry_rx task */
 233              		.loc 1 39 5 is_stmt 1 view .LVU44
  39:../Core/Src/uart_isr.c ****         /* Send telemetry data to the telemetry_rx task */
 234              		.loc 1 39 14 is_stmt 0 view .LVU45
 235 001a 2368     		ldr	r3, [r4]
  39:../Core/Src/uart_isr.c ****         /* Send telemetry data to the telemetry_rx task */
 236              		.loc 1 39 42 view .LVU46
 237 001c 184C     		ldr	r4, .L24+8
 238              	.LVL17:
  39:../Core/Src/uart_isr.c ****         /* Send telemetry data to the telemetry_rx task */
 239              		.loc 1 39 42 view .LVU47
 240 001e 2468     		ldr	r4, [r4]
  39:../Core/Src/uart_isr.c ****         /* Send telemetry data to the telemetry_rx task */
 241              		.loc 1 39 8 view .LVU48
 242 0020 A342     		cmp	r3, r4
ARM GAS  /tmp/cc9q7Mpg.s 			page 7


 243 0022 11D0     		beq	.L22
  43:../Core/Src/uart_isr.c ****         process_state_bytes(size, &xHigherPriorityTaskWoken);
 244              		.loc 1 43 12 is_stmt 1 view .LVU49
  43:../Core/Src/uart_isr.c ****         process_state_bytes(size, &xHigherPriorityTaskWoken);
 245              		.loc 1 43 45 is_stmt 0 view .LVU50
 246 0024 174A     		ldr	r2, .L24+12
 247 0026 1268     		ldr	r2, [r2]
  43:../Core/Src/uart_isr.c ****         process_state_bytes(size, &xHigherPriorityTaskWoken);
 248              		.loc 1 43 15 view .LVU51
 249 0028 9342     		cmp	r3, r2
 250 002a 1BD0     		beq	.L23
 251              	.L19:
  49:../Core/Src/uart_isr.c **** }
 252              		.loc 1 49 5 is_stmt 1 view .LVU52
  49:../Core/Src/uart_isr.c **** }
 253              		.loc 1 49 5 view .LVU53
 254 002c 019B     		ldr	r3, [sp, #4]
 255 002e 4BB1     		cbz	r3, .L17
  49:../Core/Src/uart_isr.c **** }
 256              		.loc 1 49 5 discriminator 1 view .LVU54
  49:../Core/Src/uart_isr.c **** }
 257              		.loc 1 49 5 discriminator 1 view .LVU55
 258 0030 4FF0E023 		mov	r3, #-536813568
 259 0034 4FF08052 		mov	r2, #268435456
 260 0038 C3F8042D 		str	r2, [r3, #3332]
  49:../Core/Src/uart_isr.c **** }
 261              		.loc 1 49 5 discriminator 1 view .LVU56
 262              		.syntax unified
 263              	@ 49 "../Core/Src/uart_isr.c" 1
 264 003c BFF34F8F 		dsb
 265              	@ 0 "" 2
  49:../Core/Src/uart_isr.c **** }
 266              		.loc 1 49 5 discriminator 1 view .LVU57
 267              	@ 49 "../Core/Src/uart_isr.c" 1
 268 0040 BFF36F8F 		isb
 269              	@ 0 "" 2
  49:../Core/Src/uart_isr.c **** }
 270              		.loc 1 49 5 discriminator 1 view .LVU58
  49:../Core/Src/uart_isr.c **** }
 271              		.loc 1 49 5 discriminator 1 view .LVU59
  49:../Core/Src/uart_isr.c **** }
 272              		.loc 1 49 5 discriminator 1 view .LVU60
 273              		.thumb
 274              		.syntax unified
 275              	.L17:
  50:../Core/Src/uart_isr.c **** 
 276              		.loc 1 50 1 is_stmt 0 view .LVU61
 277 0044 03B0     		add	sp, sp, #12
 278              	.LCFI4:
 279              		.cfi_remember_state
 280              		.cfi_def_cfa_offset 12
 281              		@ sp needed
 282 0046 30BD     		pop	{r4, r5, pc}
 283              	.L22:
 284              	.LCFI5:
 285              		.cfi_restore_state
  41:../Core/Src/uart_isr.c ****         HAL_UARTEx_ReceiveToIdle_IT(&telemetry_uart, telemetry_uart_rx_buf, TELEMETRY_RX_MAX_PROCES
ARM GAS  /tmp/cc9q7Mpg.s 			page 8


 286              		.loc 1 41 9 is_stmt 1 view .LVU62
 287 0048 0F4C     		ldr	r4, .L24+16
 288 004a 01AB     		add	r3, sp, #4
 289 004c 2A46     		mov	r2, r5
 290 004e 2146     		mov	r1, r4
 291 0050 0E48     		ldr	r0, .L24+20
 292 0052 0068     		ldr	r0, [r0]
 293 0054 FFF7FEFF 		bl	xStreamBufferSendFromISR
 294              	.LVL18:
  42:../Core/Src/uart_isr.c ****     } else if (huart->Instance == state_uart.Instance) {
 295              		.loc 1 42 9 view .LVU63
 296 0058 4022     		movs	r2, #64
 297 005a 2146     		mov	r1, r4
 298 005c 0848     		ldr	r0, .L24+8
 299 005e FFF7FEFF 		bl	HAL_UARTEx_ReceiveToIdle_IT
 300              	.LVL19:
 301 0062 E3E7     		b	.L19
 302              	.L23:
  44:../Core/Src/uart_isr.c ****         HAL_UARTEx_ReceiveToIdle_IT(&state_uart, state_uart_rx_buf, STATE_PACKET_SIZE);
 303              		.loc 1 44 9 view .LVU64
 304 0064 01A9     		add	r1, sp, #4
 305 0066 2846     		mov	r0, r5
 306 0068 FFF7FEFF 		bl	process_state_bytes
 307              	.LVL20:
  45:../Core/Src/uart_isr.c ****     }
 308              		.loc 1 45 9 view .LVU65
 309 006c 7622     		movs	r2, #118
 310 006e 0849     		ldr	r1, .L24+24
 311 0070 0448     		ldr	r0, .L24+12
 312 0072 FFF7FEFF 		bl	HAL_UARTEx_ReceiveToIdle_IT
 313              	.LVL21:
 314 0076 D9E7     		b	.L19
 315              	.L25:
 316              		.align	2
 317              	.L24:
 318 0078 00000000 		.word	.LC0
 319 007c 00000000 		.word	huart2
 320 0080 00000000 		.word	huart4
 321 0084 00000000 		.word	huart5
 322 0088 00000000 		.word	telemetry_uart_rx_buf
 323 008c 00000000 		.word	g_telemetry_rx_sb_handle
 324 0090 00000000 		.word	state_uart_rx_buf
 325              		.cfi_endproc
 326              	.LFE399:
 328              		.section	.text.update_rocket_state,"ax",%progbits
 329              		.align	1
 330              		.global	update_rocket_state
 331              		.syntax unified
 332              		.thumb
 333              		.thumb_func
 335              	update_rocket_state:
 336              	.LVL22:
 337              	.LFB401:
  82:../Core/Src/uart_isr.c **** 
  83:../Core/Src/uart_isr.c **** /**
  84:../Core/Src/uart_isr.c ****  * @brief Update the rocket state from the data in the state_bytes buffer
  85:../Core/Src/uart_isr.c ****  * @param xHigherPriorityTaskWoken FreeRTOS boilerplate
ARM GAS  /tmp/cc9q7Mpg.s 			page 9


  86:../Core/Src/uart_isr.c ****  */
  87:../Core/Src/uart_isr.c **** void update_rocket_state(BaseType_t *xHigherPriorityTaskWoken) {
 338              		.loc 1 87 64 view -0
 339              		.cfi_startproc
 340              		@ args = 0, pretend = 0, frame = 0
 341              		@ frame_needed = 0, uses_anonymous_args = 0
 342              		@ link register save eliminated.
  88:../Core/Src/uart_isr.c **** #ifndef STATIC_FIRE
  89:../Core/Src/uart_isr.c ****     /* Always use mutex with g_current_state */
  90:../Core/Src/uart_isr.c ****     if (xSemaphoreTakeFromISR(g_state_mutex_handle, xHigherPriorityTaskWoken) == pdTRUE) {
  91:../Core/Src/uart_isr.c ****         /**
  92:../Core/Src/uart_isr.c ****          * This code here should REALLY be auto-generated. All it does is take the bytes 
  93:../Core/Src/uart_isr.c ****          * and copy them to the correct fields in g_current_state. The reason we do this
  94:../Core/Src/uart_isr.c ****          * manually instead of in one memcpy is to avoid alignment issues.
  95:../Core/Src/uart_isr.c ****         */
  96:../Core/Src/uart_isr.c **** 
  97:../Core/Src/uart_isr.c ****         uint8_t *serial_buffer = state_bytes + 37;
  98:../Core/Src/uart_isr.c ****         uint8_t *sensors_buffer = state_bytes;
  99:../Core/Src/uart_isr.c **** 
 100:../Core/Src/uart_isr.c ****         uint16_t offset = 1;
 101:../Core/Src/uart_isr.c ****         memcpy(&g_current_state.sensor_data.accelerometer_x, sensors_buffer + offset, 4);
 102:../Core/Src/uart_isr.c ****         offset += 4;
 103:../Core/Src/uart_isr.c ****         memcpy(&g_current_state.sensor_data.accelerometer_y, sensors_buffer + offset, 4);
 104:../Core/Src/uart_isr.c ****         offset += 4;
 105:../Core/Src/uart_isr.c ****         memcpy(&g_current_state.sensor_data.accelerometer_z, sensors_buffer + offset, 4);
 106:../Core/Src/uart_isr.c ****         offset += 4;
 107:../Core/Src/uart_isr.c ****         memcpy(&g_current_state.sensor_data.gyro_x, sensors_buffer + offset, 4);
 108:../Core/Src/uart_isr.c ****         offset += 4;
 109:../Core/Src/uart_isr.c ****         memcpy(&g_current_state.sensor_data.gyro_y, sensors_buffer + offset, 4);
 110:../Core/Src/uart_isr.c ****         offset += 4;
 111:../Core/Src/uart_isr.c ****         memcpy(&g_current_state.sensor_data.gyro_z, sensors_buffer + offset, 4);
 112:../Core/Src/uart_isr.c ****         offset += 4;
 113:../Core/Src/uart_isr.c ****         memcpy(&g_current_state.sensor_data.gps_x, sensors_buffer + offset, 4);
 114:../Core/Src/uart_isr.c ****         offset += 4;
 115:../Core/Src/uart_isr.c ****         memcpy(&g_current_state.sensor_data.gps_y, sensors_buffer + offset, 4);
 116:../Core/Src/uart_isr.c ****         offset += 4;
 117:../Core/Src/uart_isr.c ****         memcpy(&g_current_state.sensor_data.gps_z, sensors_buffer + offset, 4);
 118:../Core/Src/uart_isr.c ****         
 119:../Core/Src/uart_isr.c ****         offset = 0;
 120:../Core/Src/uart_isr.c **** 
 121:../Core/Src/uart_isr.c ****         memcpy(&g_current_state.rocket_state.rocket_state, serial_buffer + offset, sizeof(uint8_t))
 122:../Core/Src/uart_isr.c ****         offset += sizeof(uint8_t);
 123:../Core/Src/uart_isr.c ****         memcpy(&g_current_state.state_vector.position_x, serial_buffer + offset, 4);
 124:../Core/Src/uart_isr.c ****         offset += 4;
 125:../Core/Src/uart_isr.c ****         memcpy(&g_current_state.state_vector.position_y, serial_buffer + offset, 4);
 126:../Core/Src/uart_isr.c ****         offset += 4;
 127:../Core/Src/uart_isr.c ****         memcpy(&g_current_state.state_vector.position_z, serial_buffer + offset, 4);
 128:../Core/Src/uart_isr.c ****         offset += 4;
 129:../Core/Src/uart_isr.c ****         memcpy(&g_current_state.state_vector.velocity_x, serial_buffer + offset, 4);
 130:../Core/Src/uart_isr.c ****         offset += 4;
 131:../Core/Src/uart_isr.c ****         memcpy(&g_current_state.state_vector.velocity_y, serial_buffer + offset, 4);
 132:../Core/Src/uart_isr.c ****         offset += 4;
 133:../Core/Src/uart_isr.c ****         memcpy(&g_current_state.state_vector.velocity_z, serial_buffer + offset, 4);
 134:../Core/Src/uart_isr.c ****         offset += 4;
 135:../Core/Src/uart_isr.c ****         memcpy(&g_current_state.state_vector.attitude_w, serial_buffer + offset, 4);
 136:../Core/Src/uart_isr.c ****         offset += 4;
 137:../Core/Src/uart_isr.c ****         memcpy(&g_current_state.state_vector.attitude_x, serial_buffer + offset, 4);
ARM GAS  /tmp/cc9q7Mpg.s 			page 10


 138:../Core/Src/uart_isr.c ****         offset += 4;
 139:../Core/Src/uart_isr.c ****         memcpy(&g_current_state.state_vector.attitude_y, serial_buffer + offset, 4);
 140:../Core/Src/uart_isr.c ****         offset += 4;
 141:../Core/Src/uart_isr.c ****         memcpy(&g_current_state.state_vector.attitude_z, serial_buffer + offset, 4);
 142:../Core/Src/uart_isr.c ****         offset += 4;
 143:../Core/Src/uart_isr.c ****         memcpy(&g_current_state.state_vector.world_x, serial_buffer + offset, 4);
 144:../Core/Src/uart_isr.c ****         offset += 4;
 145:../Core/Src/uart_isr.c ****         memcpy(&g_current_state.state_vector.world_y, serial_buffer + offset, 4);
 146:../Core/Src/uart_isr.c ****         offset += 4;
 147:../Core/Src/uart_isr.c ****         memcpy(&g_current_state.state_vector.world_z, serial_buffer + offset, 4);
 148:../Core/Src/uart_isr.c ****         offset += 4;
 149:../Core/Src/uart_isr.c ****         memcpy(&g_current_state.ground_ekf.pn_matrix_d1, serial_buffer + offset, 4);
 150:../Core/Src/uart_isr.c ****         offset += 4;
 151:../Core/Src/uart_isr.c ****         memcpy(&g_current_state.ground_ekf.pn_matrix_d2, serial_buffer + offset, 4);
 152:../Core/Src/uart_isr.c ****         offset += 4;
 153:../Core/Src/uart_isr.c ****         memcpy(&g_current_state.ground_ekf.pn_matrix_d3, serial_buffer + offset, 4);
 154:../Core/Src/uart_isr.c ****         offset += 4;
 155:../Core/Src/uart_isr.c ****         memcpy(&g_current_state.ground_ekf.pn_matrix_d4, serial_buffer + offset, 4);
 156:../Core/Src/uart_isr.c ****         offset += 4;
 157:../Core/Src/uart_isr.c ****         memcpy(&g_current_state.ground_ekf.pn_matrix_d5, serial_buffer + offset, 4);
 158:../Core/Src/uart_isr.c ****         offset += 4;
 159:../Core/Src/uart_isr.c ****         memcpy(&g_current_state.ground_ekf.pn_matrix_d6, serial_buffer + offset, 4);
 160:../Core/Src/uart_isr.c ****         offset += 4;
 161:../Core/Src/uart_isr.c **** 
 162:../Core/Src/uart_isr.c ****         TickType_t ticks = xTaskGetTickCount();
 163:../Core/Src/uart_isr.c **** 
 164:../Core/Src/uart_isr.c ****         g_current_state.analog_feedback_data.timestamp = ticks;
 165:../Core/Src/uart_isr.c ****         g_current_state.ground_ekf.timestamp = ticks;
 166:../Core/Src/uart_isr.c ****         g_current_state.state_vector.timestamp = ticks;
 167:../Core/Src/uart_isr.c ****         g_current_state.sensor_data.timestamp = ticks;
 168:../Core/Src/uart_isr.c ****         g_current_state.rocket_state.timestamp = ticks;
 169:../Core/Src/uart_isr.c ****         g_current_state.servo_deflection.timestamp = ticks;
 170:../Core/Src/uart_isr.c **** 
 171:../Core/Src/uart_isr.c ****         xSemaphoreGiveFromISR(g_state_mutex_handle, xHigherPriorityTaskWoken);
 172:../Core/Src/uart_isr.c **** 
 173:../Core/Src/uart_isr.c ****         /* Notify tasks to do something with the updated state */
 174:../Core/Src/uart_isr.c ****         xTaskNotifyFromISR(g_state_tx_task_handle, SEND_STATE_NOTIFICATION_BIT, eSetBits, xHigherPr
 175:../Core/Src/uart_isr.c ****         xTaskNotifyFromISR(g_state_flash_task_handle, FLASH_STATE_NOTIFICATION_BIT, eSetBits, xHigh
 176:../Core/Src/uart_isr.c ****     }
 177:../Core/Src/uart_isr.c **** 
 178:../Core/Src/uart_isr.c ****     /* Check for specific conditions in the rocket state */
 179:../Core/Src/uart_isr.c ****     check_state_markers(xHigherPriorityTaskWoken);
 180:../Core/Src/uart_isr.c **** #endif
 181:../Core/Src/uart_isr.c **** }
 343              		.loc 1 181 1 view .LVU67
 344 0000 7047     		bx	lr
 345              		.cfi_endproc
 346              	.LFE401:
 348              		.section	.text.check_state_markers,"ax",%progbits
 349              		.align	1
 350              		.global	check_state_markers
 351              		.syntax unified
 352              		.thumb
 353              		.thumb_func
 355              	check_state_markers:
 356              	.LVL23:
 357              	.LFB402:
ARM GAS  /tmp/cc9q7Mpg.s 			page 11


 182:../Core/Src/uart_isr.c **** 
 183:../Core/Src/uart_isr.c **** /**
 184:../Core/Src/uart_isr.c ****  * @brief Check for specific conditions in the rocket state
 185:../Core/Src/uart_isr.c ****  * @param xHigherPriorityTaskWoken FreeRTOS boilerplate
 186:../Core/Src/uart_isr.c ****  */
 187:../Core/Src/uart_isr.c **** void check_state_markers(BaseType_t *xHigherPriorityTaskWoken) {
 358              		.loc 1 187 64 view -0
 359              		.cfi_startproc
 360              		@ args = 0, pretend = 0, frame = 0
 361              		@ frame_needed = 0, uses_anonymous_args = 0
 362              		@ link register save eliminated.
 188:../Core/Src/uart_isr.c **** #ifndef STATIC_FIRE
 189:../Core/Src/uart_isr.c ****     static uint8_t launched = 0;
 190:../Core/Src/uart_isr.c ****     static uint8_t landed = 0;
 191:../Core/Src/uart_isr.c **** 
 192:../Core/Src/uart_isr.c ****     static uint8_t drogue_parachute_deploy = 0;
 193:../Core/Src/uart_isr.c ****     static uint8_t main_parachute_deploy = 0;
 194:../Core/Src/uart_isr.c **** 
 195:../Core/Src/uart_isr.c ****     /* Launched */
 196:../Core/Src/uart_isr.c ****     if (launched == 0 && g_current_state.rocket_state.rocket_state >= 2) {
 197:../Core/Src/uart_isr.c ****         launched = 1;
 198:../Core/Src/uart_isr.c ****         g_current_state.launch_timestamp = xTaskGetTickCount();
 199:../Core/Src/uart_isr.c ****         xTaskNotifyFromISR(g_run_controls_task_handle, BEGIN_CONTROLS_NOTIFICATION_BIT, eSetBits, x
 200:../Core/Src/uart_isr.c ****     }
 201:../Core/Src/uart_isr.c **** 
 202:../Core/Src/uart_isr.c ****     /* Landed */
 203:../Core/Src/uart_isr.c ****     if (landed == 0 && g_current_state.rocket_state.rocket_state == 6) {
 204:../Core/Src/uart_isr.c ****         landed = 1;        
 205:../Core/Src/uart_isr.c ****         xTaskNotifyFromISR(g_state_flash_task_handle, FLASH_SD_CARD_NOTIFICATION_BIT, eSetBits, xHi
 206:../Core/Src/uart_isr.c ****     }
 207:../Core/Src/uart_isr.c **** 
 208:../Core/Src/uart_isr.c ****     /* Deploy drogue parachute */
 209:../Core/Src/uart_isr.c ****     if (drogue_parachute_deploy == 0 && g_current_state.rocket_state.rocket_state == 5) {
 210:../Core/Src/uart_isr.c ****         drogue_parachute_deploy = 1;
 211:../Core/Src/uart_isr.c ****         g_current_state.rocket_state.firing_channel_1 = 1;
 212:../Core/Src/uart_isr.c ****     }
 213:../Core/Src/uart_isr.c **** 
 214:../Core/Src/uart_isr.c ****     /* Deploy main parachute */
 215:../Core/Src/uart_isr.c ****     if (main_parachute_deploy == 0 && (g_current_state.rocket_state.rocket_state == 5 && (g_current
 216:../Core/Src/uart_isr.c ****         main_parachute_deploy = 1;
 217:../Core/Src/uart_isr.c ****         g_current_state.rocket_state.firing_channel_2 = 1;
 218:../Core/Src/uart_isr.c ****     }
 219:../Core/Src/uart_isr.c **** #endif
 220:../Core/Src/uart_isr.c **** }
 363              		.loc 1 220 1 view .LVU69
 364 0000 7047     		bx	lr
 365              		.cfi_endproc
 366              	.LFE402:
 368              		.global	state_bytes_received
 369              		.section	.bss.state_bytes_received,"aw",%nobits
 372              	state_bytes_received:
 373 0000 00       		.space	1
 374              		.global	state_bytes
 375              		.section	.bss.state_bytes,"aw",%nobits
 376              		.align	2
 379              	state_bytes:
 380 0000 00000000 		.space	118
ARM GAS  /tmp/cc9q7Mpg.s 			page 12


 380      00000000 
 380      00000000 
 380      00000000 
 380      00000000 
 381              		.global	state_uart_rx_buf
 382              		.section	.bss.state_uart_rx_buf,"aw",%nobits
 383              		.align	2
 386              	state_uart_rx_buf:
 387 0000 00000000 		.space	118
 387      00000000 
 387      00000000 
 387      00000000 
 387      00000000 
 388              		.global	telemetry_uart_rx_buf
 389              		.section	.bss.telemetry_uart_rx_buf,"aw",%nobits
 390              		.align	2
 393              	telemetry_uart_rx_buf:
 394 0000 00000000 		.space	64
 394      00000000 
 394      00000000 
 394      00000000 
 394      00000000 
 395              		.text
 396              	.Letext0:
 397              		.file 2 "/nix/store/lcj4nx7xv8c36cif7armkfa7b5cmfh74-gcc-arm-embedded-12.3.rel1/arm-none-eabi/incl
 398              		.file 3 "/nix/store/lcj4nx7xv8c36cif7armkfa7b5cmfh74-gcc-arm-embedded-12.3.rel1/arm-none-eabi/incl
 399              		.file 4 "Drivers/CMSIS/Device/ST/STM32H7xx/Include/stm32h725xx.h"
 400              		.file 5 "/nix/store/lcj4nx7xv8c36cif7armkfa7b5cmfh74-gcc-arm-embedded-12.3.rel1/lib/gcc/arm-none-e
 401              		.file 6 "Drivers/STM32H7xx_HAL_Driver/Inc/stm32h7xx_hal_def.h"
 402              		.file 7 "Drivers/STM32H7xx_HAL_Driver/Inc/stm32h7xx_hal_dma.h"
 403              		.file 8 "Drivers/STM32H7xx_HAL_Driver/Inc/stm32h7xx_hal_uart.h"
 404              		.file 9 "Core/Inc/portmacro.h"
 405              		.file 10 "../Core/Include/adc.h"
 406              		.file 11 "Core/Inc/port_config.h"
 407              		.file 12 "../Core/FreeRTOS-Kernel/include/stream_buffer.h"
 408              		.file 13 "../Core/Include/globals.h"
 409              		.file 14 "/nix/store/lcj4nx7xv8c36cif7armkfa7b5cmfh74-gcc-arm-embedded-12.3.rel1/arm-none-eabi/inc
 410              		.file 15 "Drivers/STM32H7xx_HAL_Driver/Inc/stm32h7xx_hal_uart_ex.h"
 411              		.file 16 "<built-in>"
ARM GAS  /tmp/cc9q7Mpg.s 			page 13

