ARM GAS  /tmp/cc1JITe9.s 			page 1


   1              		.cpu cortex-m4
   2              		.eabi_attribute 27, 1
   3              		.eabi_attribute 28, 1
   4              		.eabi_attribute 20, 1
   5              		.eabi_attribute 21, 1
   6              		.eabi_attribute 23, 3
   7              		.eabi_attribute 24, 1
   8              		.eabi_attribute 25, 1
   9              		.eabi_attribute 26, 1
  10              		.eabi_attribute 30, 1
  11              		.eabi_attribute 34, 1
  12              		.eabi_attribute 18, 4
  13              		.file	"port_layer.c"
  14              		.text
  15              	.Ltext0:
  16              		.cfi_sections	.debug_frame
  17              		.section	.rodata.port_init.str1.4,"aMS",%progbits,1
  18              		.align	2
  19              	.LC0:
  20 0000 666C6173 		.ascii	"flash_task\000"
  20      685F7461 
  20      736B00
  21 000b 00       		.align	2
  22              	.LC1:
  23 000c 74656C65 		.ascii	"telemetry_tx_task\000"
  23      6D657472 
  23      795F7478 
  23      5F746173 
  23      6B00
  24 001e 0000     		.align	2
  25              	.LC2:
  26 0020 74656C65 		.ascii	"telemetry_rx_task\000"
  26      6D657472 
  26      795F7278 
  26      5F746173 
  26      6B00
  27 0032 0000     		.align	2
  28              	.LC3:
  29 0034 73746174 		.ascii	"state_rx_task\000"
  29      655F7278 
  29      5F746173 
  29      6B00
  30 0042 0000     		.align	2
  31              	.LC4:
  32 0044 74657374 		.ascii	"test_task\000"
  32      5F746173 
  32      6B00
  33 004e 0000     		.align	2
  34              	.LC5:
  35 0050 496E6974 		.ascii	"Init ok\015\012\000"
  35      206F6B0D 
  35      0A00
  36              		.section	.text.port_init,"ax",%progbits
  37              		.align	1
  38              		.global	port_init
  39              		.arch armv7e-m
  40              		.syntax unified
ARM GAS  /tmp/cc1JITe9.s 			page 2


  41              		.thumb
  42              		.thumb_func
  43              		.fpu fpv4-sp-d16
  45              	port_init:
  46              	.LFB138:
  47              		.file 1 "../Core/Src/port_layer.c"
   1:../Core/Src/port_layer.c **** #include "port_layer.h"
   2:../Core/Src/port_layer.c **** 
   3:../Core/Src/port_layer.c **** TaskHandle_t g_test_task_handle;
   4:../Core/Src/port_layer.c **** StackType_t test_task_stack[8192];
   5:../Core/Src/port_layer.c **** StaticTask_t test_task_buff;
   6:../Core/Src/port_layer.c **** 
   7:../Core/Src/port_layer.c **** TaskHandle_t g_sdio_task_handle;
   8:../Core/Src/port_layer.c **** StackType_t sdio_task_stack[4096];
   9:../Core/Src/port_layer.c **** StaticTask_t sdio_task_buff;
  10:../Core/Src/port_layer.c **** 
  11:../Core/Src/port_layer.c **** TaskHandle_t g_telemetry_tx_task_handle;
  12:../Core/Src/port_layer.c **** StackType_t telemetry_tx_task_stack[4096];
  13:../Core/Src/port_layer.c **** StaticTask_t telemetry_tx_task_buff;
  14:../Core/Src/port_layer.c **** 
  15:../Core/Src/port_layer.c **** TaskHandle_t g_telemetry_rx_task_handle;
  16:../Core/Src/port_layer.c **** StackType_t telemetry_rx_task_stack[4096];
  17:../Core/Src/port_layer.c **** StaticTask_t telemetry_rx_task_buff;
  18:../Core/Src/port_layer.c **** 
  19:../Core/Src/port_layer.c **** TaskHandle_t g_state_rx_task_handle;
  20:../Core/Src/port_layer.c **** StackType_t state_rx_task_stack[4096];
  21:../Core/Src/port_layer.c **** StaticTask_t state_rx_task_buff;
  22:../Core/Src/port_layer.c **** 
  23:../Core/Src/port_layer.c **** SemaphoreHandle_t g_state_mutex_handle;
  24:../Core/Src/port_layer.c **** StaticSemaphore_t state_mutex_buff;
  25:../Core/Src/port_layer.c **** 
  26:../Core/Src/port_layer.c **** StreamBufferHandle_t g_telemetry_rx_sb_handle;
  27:../Core/Src/port_layer.c **** uint8_t telemetry_rx_sb_storage[16 + 1];
  28:../Core/Src/port_layer.c **** StaticStreamBuffer_t telemetry_rx_sb_buff;
  29:../Core/Src/port_layer.c **** 
  30:../Core/Src/port_layer.c **** MessageBufferHandle_t g_telemetry_tx_mb_handle;
  31:../Core/Src/port_layer.c **** uint8_t telemetry_tx_mb_storage[TX_MESSAGE_BUFFER_SIZE];
  32:../Core/Src/port_layer.c **** StaticMessageBuffer_t telemetry_tx_mb_buff;
  33:../Core/Src/port_layer.c **** 
  34:../Core/Src/port_layer.c **** StreamBufferHandle_t g_state_rx_sb_handle;
  35:../Core/Src/port_layer.c **** uint8_t state_rx_sb_storage[STATE_STRUCT_SIZE * 2 + 1];
  36:../Core/Src/port_layer.c **** StaticMessageBuffer_t state_rx_sb_buff;
  37:../Core/Src/port_layer.c **** 
  38:../Core/Src/port_layer.c **** MessageBufferHandle_t g_sdio_mb_handle;
  39:../Core/Src/port_layer.c **** uint8_t sdio_mb_storage[256];
  40:../Core/Src/port_layer.c **** StaticMessageBuffer_t sdio_mb_buff;
  41:../Core/Src/port_layer.c **** 
  42:../Core/Src/port_layer.c **** uint8_t telemetry_uart_rx_buf[UART2_RX_BUFFER_SIZE];
  43:../Core/Src/port_layer.c **** uint8_t state_uart_rx_buf[UART3_RX_BUFFER_SIZE];
  44:../Core/Src/port_layer.c **** 
  45:../Core/Src/port_layer.c **** int port_init(void) {
  48              		.loc 1 45 21 view -0
  49              		.cfi_startproc
  50              		@ args = 0, pretend = 0, frame = 0
  51              		@ frame_needed = 0, uses_anonymous_args = 0
  52 0000 10B5     		push	{r4, lr}
  53              	.LCFI0:
ARM GAS  /tmp/cc1JITe9.s 			page 3


  54              		.cfi_def_cfa_offset 8
  55              		.cfi_offset 4, -8
  56              		.cfi_offset 14, -4
  57 0002 84B0     		sub	sp, sp, #16
  58              	.LCFI1:
  59              		.cfi_def_cfa_offset 24
  46:../Core/Src/port_layer.c ****     /* Create mutexes */
  47:../Core/Src/port_layer.c ****     g_state_mutex_handle = xSemaphoreCreateMutexStatic(&state_mutex_buff);
  60              		.loc 1 47 5 view .LVU1
  61              		.loc 1 47 28 is_stmt 0 view .LVU2
  62 0004 5E49     		ldr	r1, .L16
  63 0006 0120     		movs	r0, #1
  64 0008 FFF7FEFF 		bl	xQueueCreateMutexStatic
  65              	.LVL0:
  66              		.loc 1 47 26 view .LVU3
  67 000c 5D4B     		ldr	r3, .L16+4
  68 000e 1860     		str	r0, [r3]
  48:../Core/Src/port_layer.c **** 
  49:../Core/Src/port_layer.c ****     if (g_state_mutex_handle == NULL) {
  69              		.loc 1 49 5 is_stmt 1 view .LVU4
  70              		.loc 1 49 8 is_stmt 0 view .LVU5
  71 0010 0028     		cmp	r0, #0
  72 0012 00F09F80 		beq	.L3
  50:../Core/Src/port_layer.c ****         return 0;
  51:../Core/Src/port_layer.c ****     }
  52:../Core/Src/port_layer.c **** 
  53:../Core/Src/port_layer.c ****     /* Create stream/message buffers */
  54:../Core/Src/port_layer.c ****     g_telemetry_rx_sb_handle = xStreamBufferCreateStatic(16 + 1, 1, telemetry_rx_sb_storage, &telem
  73              		.loc 1 54 5 is_stmt 1 view .LVU6
  74              		.loc 1 54 32 is_stmt 0 view .LVU7
  75 0016 0022     		movs	r2, #0
  76 0018 0292     		str	r2, [sp, #8]
  77 001a 0192     		str	r2, [sp, #4]
  78 001c 5A4B     		ldr	r3, .L16+8
  79 001e 0093     		str	r3, [sp]
  80 0020 5A4B     		ldr	r3, .L16+12
  81 0022 0121     		movs	r1, #1
  82 0024 1120     		movs	r0, #17
  83 0026 FFF7FEFF 		bl	xStreamBufferGenericCreateStatic
  84              	.LVL1:
  85              		.loc 1 54 30 view .LVU8
  86 002a 594B     		ldr	r3, .L16+16
  87 002c 1860     		str	r0, [r3]
  55:../Core/Src/port_layer.c ****     if (g_telemetry_rx_sb_handle == NULL) return 0;
  88              		.loc 1 55 5 is_stmt 1 view .LVU9
  89              		.loc 1 55 8 is_stmt 0 view .LVU10
  90 002e 0028     		cmp	r0, #0
  91 0030 00F09380 		beq	.L4
  56:../Core/Src/port_layer.c **** 
  57:../Core/Src/port_layer.c ****     g_telemetry_tx_mb_handle = xMessageBufferCreateStatic(TX_MESSAGE_BUFFER_SIZE + 1, telemetry_tx_
  92              		.loc 1 57 5 is_stmt 1 view .LVU11
  93              		.loc 1 57 32 is_stmt 0 view .LVU12
  94 0034 0021     		movs	r1, #0
  95 0036 0291     		str	r1, [sp, #8]
  96 0038 0191     		str	r1, [sp, #4]
  97 003a 564B     		ldr	r3, .L16+20
  98 003c 0093     		str	r3, [sp]
ARM GAS  /tmp/cc1JITe9.s 			page 4


  99 003e 564B     		ldr	r3, .L16+24
 100 0040 0122     		movs	r2, #1
 101 0042 40F20940 		movw	r0, #1033
 102 0046 FFF7FEFF 		bl	xStreamBufferGenericCreateStatic
 103              	.LVL2:
 104              		.loc 1 57 30 view .LVU13
 105 004a 544B     		ldr	r3, .L16+28
 106 004c 1860     		str	r0, [r3]
  58:../Core/Src/port_layer.c ****     if (g_telemetry_tx_mb_handle == NULL) return 0;
 107              		.loc 1 58 5 is_stmt 1 view .LVU14
 108              		.loc 1 58 8 is_stmt 0 view .LVU15
 109 004e 0028     		cmp	r0, #0
 110 0050 00F08580 		beq	.L5
  59:../Core/Src/port_layer.c **** 
  60:../Core/Src/port_layer.c ****     g_state_rx_sb_handle = xStreamBufferCreateStatic(STATE_STRUCT_SIZE * 2 + 1, 1, state_rx_sb_stor
 111              		.loc 1 60 5 is_stmt 1 view .LVU16
 112              		.loc 1 60 28 is_stmt 0 view .LVU17
 113 0054 0022     		movs	r2, #0
 114 0056 0292     		str	r2, [sp, #8]
 115 0058 0192     		str	r2, [sp, #4]
 116 005a 514B     		ldr	r3, .L16+32
 117 005c 0093     		str	r3, [sp]
 118 005e 514B     		ldr	r3, .L16+36
 119 0060 0121     		movs	r1, #1
 120 0062 1D20     		movs	r0, #29
 121 0064 FFF7FEFF 		bl	xStreamBufferGenericCreateStatic
 122              	.LVL3:
 123              		.loc 1 60 26 view .LVU18
 124 0068 4F4B     		ldr	r3, .L16+40
 125 006a 1860     		str	r0, [r3]
  61:../Core/Src/port_layer.c ****     if (g_state_rx_sb_handle == NULL) return 0;
 126              		.loc 1 61 5 is_stmt 1 view .LVU19
 127              		.loc 1 61 8 is_stmt 0 view .LVU20
 128 006c 0028     		cmp	r0, #0
 129 006e 78D0     		beq	.L6
  62:../Core/Src/port_layer.c **** 
  63:../Core/Src/port_layer.c ****     g_sdio_mb_handle = xMessageBufferCreateStatic(SD_MB_SIZE + 1, sdio_mb_storage, &sdio_mb_buff);
 130              		.loc 1 63 5 is_stmt 1 view .LVU21
 131              		.loc 1 63 24 is_stmt 0 view .LVU22
 132 0070 0024     		movs	r4, #0
 133 0072 0294     		str	r4, [sp, #8]
 134 0074 0194     		str	r4, [sp, #4]
 135 0076 4D4B     		ldr	r3, .L16+44
 136 0078 0093     		str	r3, [sp]
 137 007a 4D4B     		ldr	r3, .L16+48
 138 007c 0122     		movs	r2, #1
 139 007e 2146     		mov	r1, r4
 140 0080 4120     		movs	r0, #65
 141 0082 FFF7FEFF 		bl	xStreamBufferGenericCreateStatic
 142              	.LVL4:
 143              		.loc 1 63 22 view .LVU23
 144 0086 4B4B     		ldr	r3, .L16+52
 145 0088 1860     		str	r0, [r3]
  64:../Core/Src/port_layer.c **** 
  65:../Core/Src/port_layer.c ****     /* Create tasks */
  66:../Core/Src/port_layer.c ****     g_sdio_task_handle = xTaskCreateStatic(sdio_task, "flash_task", 4096, NULL, tskIDLE_PRIORITY, s
 146              		.loc 1 66 5 is_stmt 1 view .LVU24
ARM GAS  /tmp/cc1JITe9.s 			page 5


 147              		.loc 1 66 26 is_stmt 0 view .LVU25
 148 008a 4B4B     		ldr	r3, .L16+56
 149 008c 0293     		str	r3, [sp, #8]
 150 008e 4B4B     		ldr	r3, .L16+60
 151 0090 0193     		str	r3, [sp, #4]
 152 0092 0094     		str	r4, [sp]
 153 0094 2346     		mov	r3, r4
 154 0096 4FF48052 		mov	r2, #4096
 155 009a 4949     		ldr	r1, .L16+64
 156 009c 4948     		ldr	r0, .L16+68
 157 009e FFF7FEFF 		bl	xTaskCreateStatic
 158              	.LVL5:
 159              		.loc 1 66 24 view .LVU26
 160 00a2 494B     		ldr	r3, .L16+72
 161 00a4 1860     		str	r0, [r3]
  67:../Core/Src/port_layer.c ****     if (g_sdio_task_handle == NULL) return 0;
 162              		.loc 1 67 5 is_stmt 1 view .LVU27
 163              		.loc 1 67 8 is_stmt 0 view .LVU28
 164 00a6 0028     		cmp	r0, #0
 165 00a8 5DD0     		beq	.L7
  68:../Core/Src/port_layer.c ****     
  69:../Core/Src/port_layer.c ****     g_telemetry_tx_task_handle = xTaskCreateStatic(telemetry_tx_task, "telemetry_tx_task", 4096, NU
 166              		.loc 1 69 5 is_stmt 1 view .LVU29
 167              		.loc 1 69 34 is_stmt 0 view .LVU30
 168 00aa 484B     		ldr	r3, .L16+76
 169 00ac 0293     		str	r3, [sp, #8]
 170 00ae 484B     		ldr	r3, .L16+80
 171 00b0 0193     		str	r3, [sp, #4]
 172 00b2 2346     		mov	r3, r4
 173 00b4 0094     		str	r4, [sp]
 174 00b6 4FF48052 		mov	r2, #4096
 175 00ba 4649     		ldr	r1, .L16+84
 176 00bc 4648     		ldr	r0, .L16+88
 177 00be FFF7FEFF 		bl	xTaskCreateStatic
 178              	.LVL6:
 179              		.loc 1 69 32 view .LVU31
 180 00c2 464B     		ldr	r3, .L16+92
 181 00c4 1860     		str	r0, [r3]
  70:../Core/Src/port_layer.c ****     if (g_telemetry_tx_task_handle == NULL) return 0;
 182              		.loc 1 70 5 is_stmt 1 view .LVU32
 183              		.loc 1 70 8 is_stmt 0 view .LVU33
 184 00c6 0028     		cmp	r0, #0
 185 00c8 4FD0     		beq	.L8
  71:../Core/Src/port_layer.c ****     
  72:../Core/Src/port_layer.c ****     g_telemetry_rx_task_handle = xTaskCreateStatic(telemetry_rx_task, "telemetry_rx_task", 4096, NU
 186              		.loc 1 72 5 is_stmt 1 view .LVU34
 187              		.loc 1 72 34 is_stmt 0 view .LVU35
 188 00ca 454B     		ldr	r3, .L16+96
 189 00cc 0293     		str	r3, [sp, #8]
 190 00ce 454B     		ldr	r3, .L16+100
 191 00d0 0193     		str	r3, [sp, #4]
 192 00d2 2346     		mov	r3, r4
 193 00d4 0094     		str	r4, [sp]
 194 00d6 4FF48052 		mov	r2, #4096
 195 00da 4349     		ldr	r1, .L16+104
 196 00dc 4348     		ldr	r0, .L16+108
 197 00de FFF7FEFF 		bl	xTaskCreateStatic
ARM GAS  /tmp/cc1JITe9.s 			page 6


 198              	.LVL7:
 199              		.loc 1 72 32 view .LVU36
 200 00e2 434B     		ldr	r3, .L16+112
 201 00e4 1860     		str	r0, [r3]
  73:../Core/Src/port_layer.c ****     if (g_telemetry_rx_task_handle == NULL) return 0;
 202              		.loc 1 73 5 is_stmt 1 view .LVU37
 203              		.loc 1 73 8 is_stmt 0 view .LVU38
 204 00e6 0028     		cmp	r0, #0
 205 00e8 41D0     		beq	.L9
  74:../Core/Src/port_layer.c ****     
  75:../Core/Src/port_layer.c ****     g_state_rx_task_handle = xTaskCreateStatic(state_rx_task, "state_rx_task", 4096, NULL, tskIDLE_
 206              		.loc 1 75 5 is_stmt 1 view .LVU39
 207              		.loc 1 75 30 is_stmt 0 view .LVU40
 208 00ea 424B     		ldr	r3, .L16+116
 209 00ec 0293     		str	r3, [sp, #8]
 210 00ee 424B     		ldr	r3, .L16+120
 211 00f0 0193     		str	r3, [sp, #4]
 212 00f2 2346     		mov	r3, r4
 213 00f4 0094     		str	r4, [sp]
 214 00f6 4FF48052 		mov	r2, #4096
 215 00fa 4049     		ldr	r1, .L16+124
 216 00fc 4048     		ldr	r0, .L16+128
 217 00fe FFF7FEFF 		bl	xTaskCreateStatic
 218              	.LVL8:
 219              		.loc 1 75 28 view .LVU41
 220 0102 404B     		ldr	r3, .L16+132
 221 0104 1860     		str	r0, [r3]
  76:../Core/Src/port_layer.c ****     if (g_state_rx_task_handle == NULL) return 0;
 222              		.loc 1 76 5 is_stmt 1 view .LVU42
 223              		.loc 1 76 8 is_stmt 0 view .LVU43
 224 0106 0028     		cmp	r0, #0
 225 0108 33D0     		beq	.L10
  77:../Core/Src/port_layer.c **** 
  78:../Core/Src/port_layer.c ****     g_test_task_handle = xTaskCreateStatic(test_task, "test_task", 8192, NULL, tskIDLE_PRIORITY, te
 226              		.loc 1 78 5 is_stmt 1 view .LVU44
 227              		.loc 1 78 26 is_stmt 0 view .LVU45
 228 010a 3F4B     		ldr	r3, .L16+136
 229 010c 0293     		str	r3, [sp, #8]
 230 010e 3F4B     		ldr	r3, .L16+140
 231 0110 0193     		str	r3, [sp, #4]
 232 0112 2346     		mov	r3, r4
 233 0114 0094     		str	r4, [sp]
 234 0116 4FF40052 		mov	r2, #8192
 235 011a 3D49     		ldr	r1, .L16+144
 236 011c 3D48     		ldr	r0, .L16+148
 237 011e FFF7FEFF 		bl	xTaskCreateStatic
 238              	.LVL9:
 239              		.loc 1 78 24 view .LVU46
 240 0122 3D4B     		ldr	r3, .L16+152
 241 0124 1860     		str	r0, [r3]
  79:../Core/Src/port_layer.c ****     if (g_test_task_handle == NULL) return 0;
 242              		.loc 1 79 5 is_stmt 1 view .LVU47
 243              		.loc 1 79 8 is_stmt 0 view .LVU48
 244 0126 30B3     		cbz	r0, .L11
  80:../Core/Src/port_layer.c **** 
  81:../Core/Src/port_layer.c ****     /* Begin listening over uart */
  82:../Core/Src/port_layer.c ****     
ARM GAS  /tmp/cc1JITe9.s 			page 7


  83:../Core/Src/port_layer.c ****     if (HAL_UARTEx_ReceiveToIdle_DMA(&telemetry_uart, telemetry_uart_rx_buf, UART2_RX_BUFFER_SIZE) 
 245              		.loc 1 83 5 is_stmt 1 view .LVU49
 246              		.loc 1 83 9 is_stmt 0 view .LVU50
 247 0128 1022     		movs	r2, #16
 248 012a 3C49     		ldr	r1, .L16+156
 249 012c 3C48     		ldr	r0, .L16+160
 250 012e FFF7FEFF 		bl	HAL_UARTEx_ReceiveToIdle_DMA
 251              	.LVL10:
 252              		.loc 1 83 8 view .LVU51
 253 0132 08B1     		cbz	r0, .L15
  84:../Core/Src/port_layer.c ****         return 0;
 254              		.loc 1 84 16 view .LVU52
 255 0134 0020     		movs	r0, #0
 256 0136 0EE0     		b	.L1
 257              	.L15:
  85:../Core/Src/port_layer.c ****     } else {
  86:../Core/Src/port_layer.c ****         HAL_UART_Transmit_DMA(&telemetry_uart, "Init ok\r\n", 9);
 258              		.loc 1 86 9 is_stmt 1 view .LVU53
 259 0138 0922     		movs	r2, #9
 260 013a 3A49     		ldr	r1, .L16+164
 261 013c 3848     		ldr	r0, .L16+160
 262 013e FFF7FEFF 		bl	HAL_UART_Transmit_DMA
 263              	.LVL11:
  87:../Core/Src/port_layer.c ****     }
  88:../Core/Src/port_layer.c ****     
  89:../Core/Src/port_layer.c **** 
  90:../Core/Src/port_layer.c ****     if (HAL_UARTEx_ReceiveToIdle_DMA(&state_uart, state_uart_rx_buf, UART3_RX_BUFFER_SIZE) != HAL_O
 264              		.loc 1 90 5 view .LVU54
 265              		.loc 1 90 9 is_stmt 0 view .LVU55
 266 0142 4FF48072 		mov	r2, #256
 267 0146 3849     		ldr	r1, .L16+168
 268 0148 3848     		ldr	r0, .L16+172
 269 014a FFF7FEFF 		bl	HAL_UARTEx_ReceiveToIdle_DMA
 270              	.LVL12:
 271              		.loc 1 90 8 view .LVU56
 272 014e A0B9     		cbnz	r0, .L13
  91:../Core/Src/port_layer.c ****         return 0;
  92:../Core/Src/port_layer.c ****     }
  93:../Core/Src/port_layer.c ****     
  94:../Core/Src/port_layer.c ****     return 1;
 273              		.loc 1 94 12 view .LVU57
 274 0150 0120     		movs	r0, #1
 275 0152 00E0     		b	.L1
 276              	.L3:
  50:../Core/Src/port_layer.c ****     }
 277              		.loc 1 50 16 view .LVU58
 278 0154 0020     		movs	r0, #0
 279              	.L1:
  95:../Core/Src/port_layer.c **** }
 280              		.loc 1 95 1 view .LVU59
 281 0156 04B0     		add	sp, sp, #16
 282              	.LCFI2:
 283              		.cfi_remember_state
 284              		.cfi_def_cfa_offset 8
 285              		@ sp needed
 286 0158 10BD     		pop	{r4, pc}
 287              	.L4:
ARM GAS  /tmp/cc1JITe9.s 			page 8


 288              	.LCFI3:
 289              		.cfi_restore_state
  55:../Core/Src/port_layer.c **** 
 290              		.loc 1 55 50 view .LVU60
 291 015a 0020     		movs	r0, #0
 292 015c FBE7     		b	.L1
 293              	.L5:
  58:../Core/Src/port_layer.c **** 
 294              		.loc 1 58 50 view .LVU61
 295 015e 0020     		movs	r0, #0
 296 0160 F9E7     		b	.L1
 297              	.L6:
  61:../Core/Src/port_layer.c **** 
 298              		.loc 1 61 46 view .LVU62
 299 0162 0020     		movs	r0, #0
 300 0164 F7E7     		b	.L1
 301              	.L7:
  67:../Core/Src/port_layer.c ****     
 302              		.loc 1 67 44 view .LVU63
 303 0166 0020     		movs	r0, #0
 304 0168 F5E7     		b	.L1
 305              	.L8:
  70:../Core/Src/port_layer.c ****     
 306              		.loc 1 70 52 view .LVU64
 307 016a 0020     		movs	r0, #0
 308 016c F3E7     		b	.L1
 309              	.L9:
  73:../Core/Src/port_layer.c ****     
 310              		.loc 1 73 52 view .LVU65
 311 016e 0020     		movs	r0, #0
 312 0170 F1E7     		b	.L1
 313              	.L10:
  76:../Core/Src/port_layer.c **** 
 314              		.loc 1 76 48 view .LVU66
 315 0172 0020     		movs	r0, #0
 316 0174 EFE7     		b	.L1
 317              	.L11:
  79:../Core/Src/port_layer.c **** 
 318              		.loc 1 79 44 view .LVU67
 319 0176 0020     		movs	r0, #0
 320 0178 EDE7     		b	.L1
 321              	.L13:
  91:../Core/Src/port_layer.c ****     }
 322              		.loc 1 91 16 view .LVU68
 323 017a 0020     		movs	r0, #0
 324 017c EBE7     		b	.L1
 325              	.L17:
 326 017e 00BF     		.align	2
 327              	.L16:
 328 0180 00000000 		.word	.LANCHOR0
 329 0184 00000000 		.word	.LANCHOR1
 330 0188 00000000 		.word	.LANCHOR3
 331 018c 00000000 		.word	.LANCHOR2
 332 0190 00000000 		.word	.LANCHOR4
 333 0194 00000000 		.word	.LANCHOR6
 334 0198 00000000 		.word	.LANCHOR5
 335 019c 00000000 		.word	.LANCHOR7
ARM GAS  /tmp/cc1JITe9.s 			page 9


 336 01a0 00000000 		.word	.LANCHOR9
 337 01a4 00000000 		.word	.LANCHOR8
 338 01a8 00000000 		.word	.LANCHOR10
 339 01ac 00000000 		.word	.LANCHOR12
 340 01b0 00000000 		.word	.LANCHOR11
 341 01b4 00000000 		.word	.LANCHOR13
 342 01b8 00000000 		.word	.LANCHOR14
 343 01bc 00000000 		.word	sdio_task_stack
 344 01c0 00000000 		.word	.LC0
 345 01c4 00000000 		.word	sdio_task
 346 01c8 00000000 		.word	.LANCHOR15
 347 01cc 00000000 		.word	.LANCHOR16
 348 01d0 00000000 		.word	telemetry_tx_task_stack
 349 01d4 0C000000 		.word	.LC1
 350 01d8 00000000 		.word	telemetry_tx_task
 351 01dc 00000000 		.word	.LANCHOR17
 352 01e0 00000000 		.word	.LANCHOR18
 353 01e4 00000000 		.word	telemetry_rx_task_stack
 354 01e8 20000000 		.word	.LC2
 355 01ec 00000000 		.word	telemetry_rx_task
 356 01f0 00000000 		.word	.LANCHOR19
 357 01f4 00000000 		.word	.LANCHOR20
 358 01f8 00000000 		.word	state_rx_task_stack
 359 01fc 34000000 		.word	.LC3
 360 0200 00000000 		.word	state_rx_task
 361 0204 00000000 		.word	.LANCHOR21
 362 0208 00000000 		.word	.LANCHOR22
 363 020c 00000000 		.word	test_task_stack
 364 0210 44000000 		.word	.LC4
 365 0214 00000000 		.word	telemetry_test_task
 366 0218 00000000 		.word	.LANCHOR23
 367 021c 00000000 		.word	.LANCHOR24
 368 0220 00000000 		.word	huart2
 369 0224 50000000 		.word	.LC5
 370 0228 00000000 		.word	.LANCHOR25
 371 022c 00000000 		.word	huart6
 372              		.cfi_endproc
 373              	.LFE138:
 375              		.section	.text.port_start,"ax",%progbits
 376              		.align	1
 377              		.global	port_start
 378              		.syntax unified
 379              		.thumb
 380              		.thumb_func
 381              		.fpu fpv4-sp-d16
 383              	port_start:
 384              	.LFB139:
  96:../Core/Src/port_layer.c **** 
  97:../Core/Src/port_layer.c **** void port_start(void) {
 385              		.loc 1 97 23 is_stmt 1 view -0
 386              		.cfi_startproc
 387              		@ args = 0, pretend = 0, frame = 0
 388              		@ frame_needed = 0, uses_anonymous_args = 0
 389 0000 08B5     		push	{r3, lr}
 390              	.LCFI4:
 391              		.cfi_def_cfa_offset 8
 392              		.cfi_offset 3, -8
ARM GAS  /tmp/cc1JITe9.s 			page 10


 393              		.cfi_offset 14, -4
  98:../Core/Src/port_layer.c ****     vTaskStartScheduler();
 394              		.loc 1 98 5 view .LVU70
 395 0002 FFF7FEFF 		bl	vTaskStartScheduler
 396              	.LVL13:
  99:../Core/Src/port_layer.c **** }
 397              		.loc 1 99 1 is_stmt 0 view .LVU71
 398 0006 08BD     		pop	{r3, pc}
 399              		.cfi_endproc
 400              	.LFE139:
 402              		.global	uart_rx_count
 403              		.global	prev_size_uart_state
 404              		.global	prev_size_uart_telemetry
 405              		.global	state_uart_rx_buf
 406              		.global	telemetry_uart_rx_buf
 407              		.global	sdio_mb_buff
 408              		.global	sdio_mb_storage
 409              		.global	g_sdio_mb_handle
 410              		.global	state_rx_sb_buff
 411              		.global	state_rx_sb_storage
 412              		.global	g_state_rx_sb_handle
 413              		.global	telemetry_tx_mb_buff
 414              		.global	telemetry_tx_mb_storage
 415              		.global	g_telemetry_tx_mb_handle
 416              		.global	telemetry_rx_sb_buff
 417              		.global	telemetry_rx_sb_storage
 418              		.global	g_telemetry_rx_sb_handle
 419              		.global	state_mutex_buff
 420              		.global	g_state_mutex_handle
 421              		.global	state_rx_task_buff
 422              		.global	state_rx_task_stack
 423              		.global	g_state_rx_task_handle
 424              		.global	telemetry_rx_task_buff
 425              		.global	telemetry_rx_task_stack
 426              		.global	g_telemetry_rx_task_handle
 427              		.global	telemetry_tx_task_buff
 428              		.global	telemetry_tx_task_stack
 429              		.global	g_telemetry_tx_task_handle
 430              		.global	sdio_task_buff
 431              		.global	sdio_task_stack
 432              		.global	g_sdio_task_handle
 433              		.global	test_task_buff
 434              		.global	test_task_stack
 435              		.global	g_test_task_handle
 436              		.section	.bss.g_sdio_mb_handle,"aw",%nobits
 437              		.align	2
 438              		.set	.LANCHOR13,. + 0
 441              	g_sdio_mb_handle:
 442 0000 00000000 		.space	4
 443              		.section	.bss.g_sdio_task_handle,"aw",%nobits
 444              		.align	2
 445              		.set	.LANCHOR15,. + 0
 448              	g_sdio_task_handle:
 449 0000 00000000 		.space	4
 450              		.section	.bss.g_state_mutex_handle,"aw",%nobits
 451              		.align	2
 452              		.set	.LANCHOR1,. + 0
ARM GAS  /tmp/cc1JITe9.s 			page 11


 455              	g_state_mutex_handle:
 456 0000 00000000 		.space	4
 457              		.section	.bss.g_state_rx_sb_handle,"aw",%nobits
 458              		.align	2
 459              		.set	.LANCHOR10,. + 0
 462              	g_state_rx_sb_handle:
 463 0000 00000000 		.space	4
 464              		.section	.bss.g_state_rx_task_handle,"aw",%nobits
 465              		.align	2
 466              		.set	.LANCHOR21,. + 0
 469              	g_state_rx_task_handle:
 470 0000 00000000 		.space	4
 471              		.section	.bss.g_telemetry_rx_sb_handle,"aw",%nobits
 472              		.align	2
 473              		.set	.LANCHOR4,. + 0
 476              	g_telemetry_rx_sb_handle:
 477 0000 00000000 		.space	4
 478              		.section	.bss.g_telemetry_rx_task_handle,"aw",%nobits
 479              		.align	2
 480              		.set	.LANCHOR19,. + 0
 483              	g_telemetry_rx_task_handle:
 484 0000 00000000 		.space	4
 485              		.section	.bss.g_telemetry_tx_mb_handle,"aw",%nobits
 486              		.align	2
 487              		.set	.LANCHOR7,. + 0
 490              	g_telemetry_tx_mb_handle:
 491 0000 00000000 		.space	4
 492              		.section	.bss.g_telemetry_tx_task_handle,"aw",%nobits
 493              		.align	2
 494              		.set	.LANCHOR17,. + 0
 497              	g_telemetry_tx_task_handle:
 498 0000 00000000 		.space	4
 499              		.section	.bss.g_test_task_handle,"aw",%nobits
 500              		.align	2
 501              		.set	.LANCHOR23,. + 0
 504              	g_test_task_handle:
 505 0000 00000000 		.space	4
 506              		.section	.bss.prev_size_uart_state,"aw",%nobits
 507              		.align	1
 510              	prev_size_uart_state:
 511 0000 0000     		.space	2
 512              		.section	.bss.prev_size_uart_telemetry,"aw",%nobits
 513              		.align	1
 516              	prev_size_uart_telemetry:
 517 0000 0000     		.space	2
 518              		.section	.bss.sdio_mb_buff,"aw",%nobits
 519              		.align	2
 520              		.set	.LANCHOR12,. + 0
 523              	sdio_mb_buff:
 524 0000 00000000 		.space	40
 524      00000000 
 524      00000000 
 524      00000000 
 524      00000000 
 525              		.section	.bss.sdio_mb_storage,"aw",%nobits
 526              		.align	2
 527              		.set	.LANCHOR11,. + 0
ARM GAS  /tmp/cc1JITe9.s 			page 12


 530              	sdio_mb_storage:
 531 0000 00000000 		.space	256
 531      00000000 
 531      00000000 
 531      00000000 
 531      00000000 
 532              		.section	.bss.sdio_task_buff,"aw",%nobits
 533              		.align	2
 534              		.set	.LANCHOR14,. + 0
 537              	sdio_task_buff:
 538 0000 00000000 		.space	92
 538      00000000 
 538      00000000 
 538      00000000 
 538      00000000 
 539              		.section	.bss.sdio_task_stack,"aw",%nobits
 540              		.align	2
 543              	sdio_task_stack:
 544 0000 00000000 		.space	16384
 544      00000000 
 544      00000000 
 544      00000000 
 544      00000000 
 545              		.section	.bss.state_mutex_buff,"aw",%nobits
 546              		.align	2
 547              		.set	.LANCHOR0,. + 0
 550              	state_mutex_buff:
 551 0000 00000000 		.space	80
 551      00000000 
 551      00000000 
 551      00000000 
 551      00000000 
 552              		.section	.bss.state_rx_sb_buff,"aw",%nobits
 553              		.align	2
 554              		.set	.LANCHOR9,. + 0
 557              	state_rx_sb_buff:
 558 0000 00000000 		.space	40
 558      00000000 
 558      00000000 
 558      00000000 
 558      00000000 
 559              		.section	.bss.state_rx_sb_storage,"aw",%nobits
 560              		.align	2
 561              		.set	.LANCHOR8,. + 0
 564              	state_rx_sb_storage:
 565 0000 00000000 		.space	29
 565      00000000 
 565      00000000 
 565      00000000 
 565      00000000 
 566              		.section	.bss.state_rx_task_buff,"aw",%nobits
 567              		.align	2
 568              		.set	.LANCHOR20,. + 0
 571              	state_rx_task_buff:
 572 0000 00000000 		.space	92
 572      00000000 
 572      00000000 
ARM GAS  /tmp/cc1JITe9.s 			page 13


 572      00000000 
 572      00000000 
 573              		.section	.bss.state_rx_task_stack,"aw",%nobits
 574              		.align	2
 577              	state_rx_task_stack:
 578 0000 00000000 		.space	16384
 578      00000000 
 578      00000000 
 578      00000000 
 578      00000000 
 579              		.section	.bss.state_uart_rx_buf,"aw",%nobits
 580              		.align	2
 581              		.set	.LANCHOR25,. + 0
 584              	state_uart_rx_buf:
 585 0000 00000000 		.space	256
 585      00000000 
 585      00000000 
 585      00000000 
 585      00000000 
 586              		.section	.bss.telemetry_rx_sb_buff,"aw",%nobits
 587              		.align	2
 588              		.set	.LANCHOR3,. + 0
 591              	telemetry_rx_sb_buff:
 592 0000 00000000 		.space	40
 592      00000000 
 592      00000000 
 592      00000000 
 592      00000000 
 593              		.section	.bss.telemetry_rx_sb_storage,"aw",%nobits
 594              		.align	2
 595              		.set	.LANCHOR2,. + 0
 598              	telemetry_rx_sb_storage:
 599 0000 00000000 		.space	17
 599      00000000 
 599      00000000 
 599      00000000 
 599      00
 600              		.section	.bss.telemetry_rx_task_buff,"aw",%nobits
 601              		.align	2
 602              		.set	.LANCHOR18,. + 0
 605              	telemetry_rx_task_buff:
 606 0000 00000000 		.space	92
 606      00000000 
 606      00000000 
 606      00000000 
 606      00000000 
 607              		.section	.bss.telemetry_rx_task_stack,"aw",%nobits
 608              		.align	2
 611              	telemetry_rx_task_stack:
 612 0000 00000000 		.space	16384
 612      00000000 
 612      00000000 
 612      00000000 
 612      00000000 
 613              		.section	.bss.telemetry_tx_mb_buff,"aw",%nobits
 614              		.align	2
 615              		.set	.LANCHOR6,. + 0
ARM GAS  /tmp/cc1JITe9.s 			page 14


 618              	telemetry_tx_mb_buff:
 619 0000 00000000 		.space	40
 619      00000000 
 619      00000000 
 619      00000000 
 619      00000000 
 620              		.section	.bss.telemetry_tx_mb_storage,"aw",%nobits
 621              		.align	2
 622              		.set	.LANCHOR5,. + 0
 625              	telemetry_tx_mb_storage:
 626 0000 00000000 		.space	1032
 626      00000000 
 626      00000000 
 626      00000000 
 626      00000000 
 627              		.section	.bss.telemetry_tx_task_buff,"aw",%nobits
 628              		.align	2
 629              		.set	.LANCHOR16,. + 0
 632              	telemetry_tx_task_buff:
 633 0000 00000000 		.space	92
 633      00000000 
 633      00000000 
 633      00000000 
 633      00000000 
 634              		.section	.bss.telemetry_tx_task_stack,"aw",%nobits
 635              		.align	2
 638              	telemetry_tx_task_stack:
 639 0000 00000000 		.space	16384
 639      00000000 
 639      00000000 
 639      00000000 
 639      00000000 
 640              		.section	.bss.telemetry_uart_rx_buf,"aw",%nobits
 641              		.align	2
 642              		.set	.LANCHOR24,. + 0
 645              	telemetry_uart_rx_buf:
 646 0000 00000000 		.space	16
 646      00000000 
 646      00000000 
 646      00000000 
 647              		.section	.bss.test_task_buff,"aw",%nobits
 648              		.align	2
 649              		.set	.LANCHOR22,. + 0
 652              	test_task_buff:
 653 0000 00000000 		.space	92
 653      00000000 
 653      00000000 
 653      00000000 
 653      00000000 
 654              		.section	.bss.test_task_stack,"aw",%nobits
 655              		.align	2
 658              	test_task_stack:
 659 0000 00000000 		.space	32768
 659      00000000 
 659      00000000 
 659      00000000 
 659      00000000 
ARM GAS  /tmp/cc1JITe9.s 			page 15


 660              		.section	.bss.uart_rx_count,"aw",%nobits
 661              		.align	1
 664              	uart_rx_count:
 665 0000 0000     		.space	2
 666              		.text
 667              	.Letext0:
 668              		.file 2 "/usr/lib/gcc/arm-none-eabi/10.3.1/include/stddef.h"
 669              		.file 3 "/usr/lib/gcc/arm-none-eabi/10.3.1/include/stdint.h"
 670              		.file 4 "Core/Inc/portmacro.h"
 671              		.file 5 "../Core/FreeRTOS-Kernel/include/FreeRTOS.h"
 672              		.file 6 "../Core/FreeRTOS-Kernel/include/task.h"
 673              		.file 7 "../Core/FreeRTOS-Kernel/include/stream_buffer.h"
 674              		.file 8 "../Core/FreeRTOS-Kernel/include/message_buffer.h"
 675              		.file 9 "../Core/FreeRTOS-Kernel/include/queue.h"
 676              		.file 10 "../Core/FreeRTOS-Kernel/include/semphr.h"
 677              		.file 11 "Drivers/CMSIS/Device/ST/STM32F4xx/Include/stm32f429xx.h"
 678              		.file 12 "Drivers/STM32F4xx_HAL_Driver/Inc/stm32f4xx_hal_def.h"
 679              		.file 13 "Drivers/STM32F4xx_HAL_Driver/Inc/stm32f4xx_hal_dma.h"
 680              		.file 14 "Drivers/STM32F4xx_HAL_Driver/Inc/stm32f4xx_hal_uart.h"
 681              		.file 15 "../Core/Include/globals.h"
ARM GAS  /tmp/cc1JITe9.s 			page 16


DEFINED SYMBOLS
                            *ABS*:0000000000000000 port_layer.c
     /tmp/cc1JITe9.s:18     .rodata.port_init.str1.4:0000000000000000 $d
     /tmp/cc1JITe9.s:37     .text.port_init:0000000000000000 $t
     /tmp/cc1JITe9.s:45     .text.port_init:0000000000000000 port_init
     /tmp/cc1JITe9.s:328    .text.port_init:0000000000000180 $d
     /tmp/cc1JITe9.s:543    .bss.sdio_task_stack:0000000000000000 sdio_task_stack
     /tmp/cc1JITe9.s:638    .bss.telemetry_tx_task_stack:0000000000000000 telemetry_tx_task_stack
     /tmp/cc1JITe9.s:611    .bss.telemetry_rx_task_stack:0000000000000000 telemetry_rx_task_stack
     /tmp/cc1JITe9.s:577    .bss.state_rx_task_stack:0000000000000000 state_rx_task_stack
     /tmp/cc1JITe9.s:658    .bss.test_task_stack:0000000000000000 test_task_stack
     /tmp/cc1JITe9.s:376    .text.port_start:0000000000000000 $t
     /tmp/cc1JITe9.s:383    .text.port_start:0000000000000000 port_start
     /tmp/cc1JITe9.s:664    .bss.uart_rx_count:0000000000000000 uart_rx_count
     /tmp/cc1JITe9.s:510    .bss.prev_size_uart_state:0000000000000000 prev_size_uart_state
     /tmp/cc1JITe9.s:516    .bss.prev_size_uart_telemetry:0000000000000000 prev_size_uart_telemetry
     /tmp/cc1JITe9.s:584    .bss.state_uart_rx_buf:0000000000000000 state_uart_rx_buf
     /tmp/cc1JITe9.s:645    .bss.telemetry_uart_rx_buf:0000000000000000 telemetry_uart_rx_buf
     /tmp/cc1JITe9.s:523    .bss.sdio_mb_buff:0000000000000000 sdio_mb_buff
     /tmp/cc1JITe9.s:530    .bss.sdio_mb_storage:0000000000000000 sdio_mb_storage
     /tmp/cc1JITe9.s:441    .bss.g_sdio_mb_handle:0000000000000000 g_sdio_mb_handle
     /tmp/cc1JITe9.s:557    .bss.state_rx_sb_buff:0000000000000000 state_rx_sb_buff
     /tmp/cc1JITe9.s:564    .bss.state_rx_sb_storage:0000000000000000 state_rx_sb_storage
     /tmp/cc1JITe9.s:462    .bss.g_state_rx_sb_handle:0000000000000000 g_state_rx_sb_handle
     /tmp/cc1JITe9.s:618    .bss.telemetry_tx_mb_buff:0000000000000000 telemetry_tx_mb_buff
     /tmp/cc1JITe9.s:625    .bss.telemetry_tx_mb_storage:0000000000000000 telemetry_tx_mb_storage
     /tmp/cc1JITe9.s:490    .bss.g_telemetry_tx_mb_handle:0000000000000000 g_telemetry_tx_mb_handle
     /tmp/cc1JITe9.s:591    .bss.telemetry_rx_sb_buff:0000000000000000 telemetry_rx_sb_buff
     /tmp/cc1JITe9.s:598    .bss.telemetry_rx_sb_storage:0000000000000000 telemetry_rx_sb_storage
     /tmp/cc1JITe9.s:476    .bss.g_telemetry_rx_sb_handle:0000000000000000 g_telemetry_rx_sb_handle
     /tmp/cc1JITe9.s:550    .bss.state_mutex_buff:0000000000000000 state_mutex_buff
     /tmp/cc1JITe9.s:455    .bss.g_state_mutex_handle:0000000000000000 g_state_mutex_handle
     /tmp/cc1JITe9.s:571    .bss.state_rx_task_buff:0000000000000000 state_rx_task_buff
     /tmp/cc1JITe9.s:469    .bss.g_state_rx_task_handle:0000000000000000 g_state_rx_task_handle
     /tmp/cc1JITe9.s:605    .bss.telemetry_rx_task_buff:0000000000000000 telemetry_rx_task_buff
     /tmp/cc1JITe9.s:483    .bss.g_telemetry_rx_task_handle:0000000000000000 g_telemetry_rx_task_handle
     /tmp/cc1JITe9.s:632    .bss.telemetry_tx_task_buff:0000000000000000 telemetry_tx_task_buff
     /tmp/cc1JITe9.s:497    .bss.g_telemetry_tx_task_handle:0000000000000000 g_telemetry_tx_task_handle
     /tmp/cc1JITe9.s:537    .bss.sdio_task_buff:0000000000000000 sdio_task_buff
     /tmp/cc1JITe9.s:448    .bss.g_sdio_task_handle:0000000000000000 g_sdio_task_handle
     /tmp/cc1JITe9.s:652    .bss.test_task_buff:0000000000000000 test_task_buff
     /tmp/cc1JITe9.s:504    .bss.g_test_task_handle:0000000000000000 g_test_task_handle
     /tmp/cc1JITe9.s:437    .bss.g_sdio_mb_handle:0000000000000000 $d
     /tmp/cc1JITe9.s:444    .bss.g_sdio_task_handle:0000000000000000 $d
     /tmp/cc1JITe9.s:451    .bss.g_state_mutex_handle:0000000000000000 $d
     /tmp/cc1JITe9.s:458    .bss.g_state_rx_sb_handle:0000000000000000 $d
     /tmp/cc1JITe9.s:465    .bss.g_state_rx_task_handle:0000000000000000 $d
     /tmp/cc1JITe9.s:472    .bss.g_telemetry_rx_sb_handle:0000000000000000 $d
     /tmp/cc1JITe9.s:479    .bss.g_telemetry_rx_task_handle:0000000000000000 $d
     /tmp/cc1JITe9.s:486    .bss.g_telemetry_tx_mb_handle:0000000000000000 $d
     /tmp/cc1JITe9.s:493    .bss.g_telemetry_tx_task_handle:0000000000000000 $d
     /tmp/cc1JITe9.s:500    .bss.g_test_task_handle:0000000000000000 $d
     /tmp/cc1JITe9.s:507    .bss.prev_size_uart_state:0000000000000000 $d
     /tmp/cc1JITe9.s:513    .bss.prev_size_uart_telemetry:0000000000000000 $d
     /tmp/cc1JITe9.s:519    .bss.sdio_mb_buff:0000000000000000 $d
     /tmp/cc1JITe9.s:526    .bss.sdio_mb_storage:0000000000000000 $d
     /tmp/cc1JITe9.s:533    .bss.sdio_task_buff:0000000000000000 $d
ARM GAS  /tmp/cc1JITe9.s 			page 17


     /tmp/cc1JITe9.s:540    .bss.sdio_task_stack:0000000000000000 $d
     /tmp/cc1JITe9.s:546    .bss.state_mutex_buff:0000000000000000 $d
     /tmp/cc1JITe9.s:553    .bss.state_rx_sb_buff:0000000000000000 $d
     /tmp/cc1JITe9.s:560    .bss.state_rx_sb_storage:0000000000000000 $d
     /tmp/cc1JITe9.s:567    .bss.state_rx_task_buff:0000000000000000 $d
     /tmp/cc1JITe9.s:574    .bss.state_rx_task_stack:0000000000000000 $d
     /tmp/cc1JITe9.s:580    .bss.state_uart_rx_buf:0000000000000000 $d
     /tmp/cc1JITe9.s:587    .bss.telemetry_rx_sb_buff:0000000000000000 $d
     /tmp/cc1JITe9.s:594    .bss.telemetry_rx_sb_storage:0000000000000000 $d
     /tmp/cc1JITe9.s:601    .bss.telemetry_rx_task_buff:0000000000000000 $d
     /tmp/cc1JITe9.s:608    .bss.telemetry_rx_task_stack:0000000000000000 $d
     /tmp/cc1JITe9.s:614    .bss.telemetry_tx_mb_buff:0000000000000000 $d
     /tmp/cc1JITe9.s:621    .bss.telemetry_tx_mb_storage:0000000000000000 $d
     /tmp/cc1JITe9.s:628    .bss.telemetry_tx_task_buff:0000000000000000 $d
     /tmp/cc1JITe9.s:635    .bss.telemetry_tx_task_stack:0000000000000000 $d
     /tmp/cc1JITe9.s:641    .bss.telemetry_uart_rx_buf:0000000000000000 $d
     /tmp/cc1JITe9.s:648    .bss.test_task_buff:0000000000000000 $d
     /tmp/cc1JITe9.s:655    .bss.test_task_stack:0000000000000000 $d
     /tmp/cc1JITe9.s:661    .bss.uart_rx_count:0000000000000000 $d

UNDEFINED SYMBOLS
xQueueCreateMutexStatic
xStreamBufferGenericCreateStatic
xTaskCreateStatic
HAL_UARTEx_ReceiveToIdle_DMA
HAL_UART_Transmit_DMA
sdio_task
telemetry_tx_task
telemetry_rx_task
state_rx_task
telemetry_test_task
huart2
huart6
vTaskStartScheduler
