ARM GAS  /tmp/ccJDKDJB.s 			page 1


   1              		.cpu cortex-m4
   2              		.eabi_attribute 27, 1
   3              		.eabi_attribute 28, 1
   4              		.eabi_attribute 20, 1
   5              		.eabi_attribute 21, 1
   6              		.eabi_attribute 23, 3
   7              		.eabi_attribute 24, 1
   8              		.eabi_attribute 25, 1
   9              		.eabi_attribute 26, 1
  10              		.eabi_attribute 30, 1
  11              		.eabi_attribute 34, 1
  12              		.eabi_attribute 18, 4
  13              		.file	"protocol.c"
  14              		.text
  15              	.Ltext0:
  16              		.cfi_sections	.debug_frame
  17              		.section	.text.is_command_packet,"ax",%progbits
  18              		.align	1
  19              		.global	is_command_packet
  20              		.arch armv7e-m
  21              		.syntax unified
  22              		.thumb
  23              		.thumb_func
  24              		.fpu fpv4-sp-d16
  26              	is_command_packet:
  27              	.LVL0:
  28              	.LFB3:
  29              		.file 1 "../Core/Src/protocol.c"
   1:../Core/Src/protocol.c **** #include "protocol.h"
   2:../Core/Src/protocol.c **** #include <time.h>
   3:../Core/Src/protocol.c **** #include <stdbool.h>
   4:../Core/Src/protocol.c **** #include <stdint.h>
   5:../Core/Src/protocol.c **** #include <stdio.h>
   6:../Core/Src/protocol.c **** #include <string.h>
   7:../Core/Src/protocol.c **** 
   8:../Core/Src/protocol.c **** //*************************************************************************************************
   9:../Core/Src/protocol.c **** //*************************************************************************************************
  10:../Core/Src/protocol.c **** //*************************************************************************************************
  11:../Core/Src/protocol.c **** // DISCLAIMER: THIS FILE WAS AUTO-GENERATED BY template_generator.py
  12:../Core/Src/protocol.c **** // DO NOT MODIFY THIS FILE DIRECTLY!
  13:../Core/Src/protocol.c **** // TO MODIFY THE PROTOCOL, EDIT protocol.json AND RE-RUN template_generator.py
  14:../Core/Src/protocol.c **** //*************************************************************************************************
  15:../Core/Src/protocol.c **** //*************************************************************************************************
  16:../Core/Src/protocol.c **** //*************************************************************************************************
  17:../Core/Src/protocol.c **** 
  18:../Core/Src/protocol.c **** int is_command_packet(uint8_t* packet, size_t packet_size) {
  30              		.loc 1 18 60 view -0
  31              		.cfi_startproc
  32              		@ args = 0, pretend = 0, frame = 0
  33              		@ frame_needed = 0, uses_anonymous_args = 0
  34              		@ link register save eliminated.
  19:../Core/Src/protocol.c **** 	if (packet_size != 7) return -1; // Incorrect size
  35              		.loc 1 19 2 view .LVU1
  36              		.loc 1 19 5 is_stmt 0 view .LVU2
  37 0000 0729     		cmp	r1, #7
  38 0002 04D1     		bne	.L3
  20:../Core/Src/protocol.c **** 	if (packet[1] != COMMAND_MSG_ID) return -1; // Incorrect command id
ARM GAS  /tmp/ccJDKDJB.s 			page 2


  39              		.loc 1 20 2 is_stmt 1 view .LVU3
  40              		.loc 1 20 12 is_stmt 0 view .LVU4
  41 0004 4378     		ldrb	r3, [r0, #1]	@ zero_extendqisi2
  42              		.loc 1 20 5 view .LVU5
  43 0006 012B     		cmp	r3, #1
  44 0008 04D1     		bne	.L4
  21:../Core/Src/protocol.c **** 	return packet[4];
  45              		.loc 1 21 2 is_stmt 1 view .LVU6
  46              		.loc 1 21 15 is_stmt 0 view .LVU7
  47 000a 0079     		ldrb	r0, [r0, #4]	@ zero_extendqisi2
  48              	.LVL1:
  49              		.loc 1 21 15 view .LVU8
  50 000c 7047     		bx	lr
  51              	.LVL2:
  52              	.L3:
  19:../Core/Src/protocol.c **** 	if (packet_size != 7) return -1; // Incorrect size
  53              		.loc 1 19 31 view .LVU9
  54 000e 4FF0FF30 		mov	r0, #-1
  55              	.LVL3:
  19:../Core/Src/protocol.c **** 	if (packet_size != 7) return -1; // Incorrect size
  56              		.loc 1 19 31 view .LVU10
  57 0012 7047     		bx	lr
  58              	.LVL4:
  59              	.L4:
  20:../Core/Src/protocol.c **** 	if (packet[1] != COMMAND_MSG_ID) return -1; // Incorrect command id
  60              		.loc 1 20 42 view .LVU11
  61 0014 4FF0FF30 		mov	r0, #-1
  62              	.LVL5:
  22:../Core/Src/protocol.c **** }
  63              		.loc 1 22 1 view .LVU12
  64 0018 7047     		bx	lr
  65              		.cfi_endproc
  66              	.LFE3:
  68              		.section	.text.reformat_as_command_ack_packet,"ax",%progbits
  69              		.align	1
  70              		.global	reformat_as_command_ack_packet
  71              		.syntax unified
  72              		.thumb
  73              		.thumb_func
  74              		.fpu fpv4-sp-d16
  76              	reformat_as_command_ack_packet:
  77              	.LVL6:
  78              	.LFB4:
  23:../Core/Src/protocol.c **** 
  24:../Core/Src/protocol.c **** void reformat_as_command_ack_packet(uint8_t* packet) {
  79              		.loc 1 24 54 is_stmt 1 view -0
  80              		.cfi_startproc
  81              		@ args = 0, pretend = 0, frame = 0
  82              		@ frame_needed = 0, uses_anonymous_args = 0
  83              		@ link register save eliminated.
  25:../Core/Src/protocol.c **** 	packet[1] = COMMAND_ACK_MSG_ID;
  84              		.loc 1 25 2 view .LVU14
  85              		.loc 1 25 12 is_stmt 0 view .LVU15
  86 0000 0223     		movs	r3, #2
  87 0002 4370     		strb	r3, [r0, #1]
  26:../Core/Src/protocol.c **** }
  88              		.loc 1 26 1 view .LVU16
ARM GAS  /tmp/ccJDKDJB.s 			page 3


  89 0004 7047     		bx	lr
  90              		.cfi_endproc
  91              	.LFE4:
  93              		.section	.text.generate_command_payload,"ax",%progbits
  94              		.align	1
  95              		.global	generate_command_payload
  96              		.syntax unified
  97              		.thumb
  98              		.thumb_func
  99              		.fpu fpv4-sp-d16
 101              	generate_command_payload:
 102              	.LVL7:
 103              	.LFB5:
  27:../Core/Src/protocol.c **** 
  28:../Core/Src/protocol.c **** size_t generate_command_payload(uint8_t *buffer, uint8_t command_id, uint8_t command_counter) {
 104              		.loc 1 28 95 is_stmt 1 view -0
 105              		.cfi_startproc
 106              		@ args = 0, pretend = 0, frame = 0
 107              		@ frame_needed = 0, uses_anonymous_args = 0
 108              		@ link register save eliminated.
  29:../Core/Src/protocol.c **** 	memcpy(buffer, &command_id, sizeof(command_id));	// Byte 1: command id
 109              		.loc 1 29 2 view .LVU18
 110 0000 0170     		strb	r1, [r0]
  30:../Core/Src/protocol.c **** 	memcpy(buffer + sizeof(command_id), &command_counter, sizeof(command_counter)); // byte 2 command 
 111              		.loc 1 30 2 view .LVU19
 112 0002 4270     		strb	r2, [r0, #1]
  31:../Core/Src/protocol.c **** 	return sizeof(command_id) + sizeof(command_counter);
 113              		.loc 1 31 2 view .LVU20
  32:../Core/Src/protocol.c **** }
 114              		.loc 1 32 1 is_stmt 0 view .LVU21
 115 0004 0220     		movs	r0, #2
 116              	.LVL8:
 117              		.loc 1 32 1 view .LVU22
 118 0006 7047     		bx	lr
 119              		.cfi_endproc
 120              	.LFE5:
 122              		.section	.text.extract_command,"ax",%progbits
 123              		.align	1
 124              		.global	extract_command
 125              		.syntax unified
 126              		.thumb
 127              		.thumb_func
 128              		.fpu fpv4-sp-d16
 130              	extract_command:
 131              	.LVL9:
 132              	.LFB6:
  33:../Core/Src/protocol.c **** 
  34:../Core/Src/protocol.c **** bool extract_command(uint8_t *buffer, uint8_t buffer_size, struct CommandStruct* destination) {
 133              		.loc 1 34 95 is_stmt 1 view -0
 134              		.cfi_startproc
 135              		@ args = 0, pretend = 0, frame = 0
 136              		@ frame_needed = 0, uses_anonymous_args = 0
 137              		@ link register save eliminated.
  35:../Core/Src/protocol.c **** 	if (buffer_size != 2) return false;
 138              		.loc 1 35 2 view .LVU24
 139              		.loc 1 35 5 is_stmt 0 view .LVU25
 140 0000 0229     		cmp	r1, #2
ARM GAS  /tmp/ccJDKDJB.s 			page 4


 141 0002 05D1     		bne	.L9
  36:../Core/Src/protocol.c **** 	destination->command_id = buffer[0];
 142              		.loc 1 36 2 is_stmt 1 view .LVU26
 143              		.loc 1 36 34 is_stmt 0 view .LVU27
 144 0004 0378     		ldrb	r3, [r0]	@ zero_extendqisi2
 145              		.loc 1 36 26 view .LVU28
 146 0006 1370     		strb	r3, [r2]
  37:../Core/Src/protocol.c **** 	destination->command_counter = buffer[1];
 147              		.loc 1 37 2 is_stmt 1 view .LVU29
 148              		.loc 1 37 31 is_stmt 0 view .LVU30
 149 0008 4378     		ldrb	r3, [r0, #1]	@ zero_extendqisi2
 150 000a 5370     		strb	r3, [r2, #1]
  38:../Core/Src/protocol.c **** 	return true;
 151              		.loc 1 38 2 is_stmt 1 view .LVU31
 152              		.loc 1 38 9 is_stmt 0 view .LVU32
 153 000c 0120     		movs	r0, #1
 154              	.LVL10:
 155              		.loc 1 38 9 view .LVU33
 156 000e 7047     		bx	lr
 157              	.LVL11:
 158              	.L9:
  35:../Core/Src/protocol.c **** 	destination->command_id = buffer[0];
 159              		.loc 1 35 31 view .LVU34
 160 0010 0020     		movs	r0, #0
 161              	.LVL12:
  39:../Core/Src/protocol.c **** }
 162              		.loc 1 39 1 view .LVU35
 163 0012 7047     		bx	lr
 164              		.cfi_endproc
 165              	.LFE6:
 167              		.section	.text.get_msg_size,"ax",%progbits
 168              		.align	1
 169              		.global	get_msg_size
 170              		.syntax unified
 171              		.thumb
 172              		.thumb_func
 173              		.fpu fpv4-sp-d16
 175              	get_msg_size:
 176              	.LVL13:
 177              	.LFB7:
  40:../Core/Src/protocol.c **** 
  41:../Core/Src/protocol.c **** int get_msg_size(int message_id) {
 178              		.loc 1 41 34 is_stmt 1 view -0
 179              		.cfi_startproc
 180              		@ args = 0, pretend = 0, frame = 0
 181              		@ frame_needed = 0, uses_anonymous_args = 0
 182              		@ link register save eliminated.
  42:../Core/Src/protocol.c **** 	switch (message_id) {
 183              		.loc 1 42 2 view .LVU37
 184 0000 0A38     		subs	r0, r0, #10
 185              	.LVL14:
 186              		.loc 1 42 2 is_stmt 0 view .LVU38
 187 0002 0428     		cmp	r0, #4
 188 0004 0CD8     		bhi	.L11
 189 0006 DFE800F0 		tbb	[pc, r0]
 190              	.L13:
 191 000a 03       		.byte	(.L17-.L13)/2
ARM GAS  /tmp/ccJDKDJB.s 			page 5


 192 000b 0E       		.byte	(.L18-.L13)/2
 193 000c 05       		.byte	(.L15-.L13)/2
 194 000d 07       		.byte	(.L14-.L13)/2
 195 000e 09       		.byte	(.L12-.L13)/2
 196 000f 00       		.p2align 1
 197              	.L17:
 198 0010 3C20     		movs	r0, #60
 199              	.LVL15:
 200              		.loc 1 42 2 view .LVU39
 201 0012 7047     		bx	lr
 202              	.L15:
  43:../Core/Src/protocol.c ****     	case ROCKETSTATEVECTOR_MSG_ID:
  44:../Core/Src/protocol.c **** 			return ROCKETSTATEVECTOR_SIZE;
  45:../Core/Src/protocol.c ****     	case ROCKETSERVODEFLECTION_MSG_ID:
  46:../Core/Src/protocol.c **** 			return ROCKETSERVODEFLECTION_SIZE;
  47:../Core/Src/protocol.c ****     	case ROCKETSTATE_MSG_ID:
  48:../Core/Src/protocol.c **** 			return ROCKETSTATE_SIZE;
 203              		.loc 1 48 4 is_stmt 1 view .LVU40
 204              		.loc 1 48 11 is_stmt 0 view .LVU41
 205 0014 0D20     		movs	r0, #13
 206 0016 7047     		bx	lr
 207              	.L14:
  49:../Core/Src/protocol.c ****     	case ROCKETGROUNDEKF_MSG_ID:
  50:../Core/Src/protocol.c **** 			return ROCKETGROUNDEKF_SIZE;
 208              		.loc 1 50 4 is_stmt 1 view .LVU42
 209              		.loc 1 50 11 is_stmt 0 view .LVU43
 210 0018 2020     		movs	r0, #32
 211 001a 7047     		bx	lr
 212              	.L12:
  51:../Core/Src/protocol.c ****     	case ROCKETSENSORDATA_MSG_ID:
  52:../Core/Src/protocol.c **** 			return ROCKETSENSORDATA_SIZE;
 213              		.loc 1 52 4 is_stmt 1 view .LVU44
 214              		.loc 1 52 11 is_stmt 0 view .LVU45
 215 001c 5820     		movs	r0, #88
 216 001e 7047     		bx	lr
 217              	.L11:
  53:../Core/Src/protocol.c ****     	default:
  54:../Core/Src/protocol.c **** 			return -1;
 218              		.loc 1 54 4 is_stmt 1 view .LVU46
 219              		.loc 1 54 11 is_stmt 0 view .LVU47
 220 0020 4FF0FF30 		mov	r0, #-1
 221 0024 7047     		bx	lr
 222              	.L18:
  46:../Core/Src/protocol.c ****     	case ROCKETSTATE_MSG_ID:
 223              		.loc 1 46 11 view .LVU48
 224 0026 1820     		movs	r0, #24
  55:../Core/Src/protocol.c **** 	}
  56:../Core/Src/protocol.c **** }
 225              		.loc 1 56 1 view .LVU49
 226 0028 7047     		bx	lr
 227              		.cfi_endproc
 228              	.LFE7:
 230              		.section	.text.is_data_send_msg,"ax",%progbits
 231              		.align	1
 232              		.global	is_data_send_msg
 233              		.syntax unified
 234              		.thumb
ARM GAS  /tmp/ccJDKDJB.s 			page 6


 235              		.thumb_func
 236              		.fpu fpv4-sp-d16
 238              	is_data_send_msg:
 239              	.LVL16:
 240              	.LFB8:
  57:../Core/Src/protocol.c **** 
  58:../Core/Src/protocol.c **** bool is_data_send_msg(int message_id) {
 241              		.loc 1 58 39 is_stmt 1 view -0
 242              		.cfi_startproc
 243              		@ args = 0, pretend = 0, frame = 0
 244              		@ frame_needed = 0, uses_anonymous_args = 0
 245              		@ link register save eliminated.
  59:../Core/Src/protocol.c **** 	return (message_id >= 10) && (message_id <= 10 + 5);
 246              		.loc 1 59 2 view .LVU51
 247              		.loc 1 59 28 is_stmt 0 view .LVU52
 248 0000 0A38     		subs	r0, r0, #10
 249              	.LVL17:
  60:../Core/Src/protocol.c **** }
 250              		.loc 1 60 1 view .LVU53
 251 0002 0528     		cmp	r0, #5
 252 0004 8CBF     		ite	hi
 253 0006 0020     		movhi	r0, #0
 254              	.LVL18:
 255              		.loc 1 60 1 view .LVU54
 256 0008 0120     		movls	r0, #1
 257 000a 7047     		bx	lr
 258              		.cfi_endproc
 259              	.LFE8:
 261              		.section	.text.RocketStateVector_encode,"ax",%progbits
 262              		.align	1
 263              		.global	RocketStateVector_encode
 264              		.syntax unified
 265              		.thumb
 266              		.thumb_func
 267              		.fpu fpv4-sp-d16
 269              	RocketStateVector_encode:
 270              	.LVL19:
 271              	.LFB9:
  61:../Core/Src/protocol.c **** 
  62:../Core/Src/protocol.c **** #ifdef INCLUDE_PROTOCOL_SQL_MACROS
  63:../Core/Src/protocol.c **** 	
  64:../Core/Src/protocol.c ****     bool convert_data_msg_to_sql_cmd(int message_id, uint8_t *data, size_t data_size, char *sql_cmd
  65:../Core/Src/protocol.c **** 		if (!is_data_send_msg(message_id)) {
  66:../Core/Src/protocol.c **** 			return false;
  67:../Core/Src/protocol.c **** 		}
  68:../Core/Src/protocol.c **** 
  69:../Core/Src/protocol.c **** 		switch (message_id) {
  70:../Core/Src/protocol.c ****     	    case ROCKETSTATEVECTOR_MSG_ID: {
  71:../Core/Src/protocol.c ****         if (data_size != ROCKETSTATEVECTOR_SIZE) {
  72:../Core/Src/protocol.c ****           printf("warning: wrong data size!\n");
  73:../Core/Src/protocol.c ****         }
  74:../Core/Src/protocol.c **** 				struct RocketStateVector cvt_data;
  75:../Core/Src/protocol.c **** 				RocketStateVector_decode(data, &cvt_data);
  76:../Core/Src/protocol.c **** 				ROCKETSTATEVECTOR_SQL_ADD_ENTRY(sql_cmd, &cvt_data);
  77:../Core/Src/protocol.c **** 				return true;
  78:../Core/Src/protocol.c **** 			} 
  79:../Core/Src/protocol.c ****     	    case ROCKETSERVODEFLECTION_MSG_ID: {
ARM GAS  /tmp/ccJDKDJB.s 			page 7


  80:../Core/Src/protocol.c ****         if (data_size != ROCKETSERVODEFLECTION_SIZE) {
  81:../Core/Src/protocol.c ****           printf("warning: wrong data size!\n");
  82:../Core/Src/protocol.c ****         }
  83:../Core/Src/protocol.c **** 				struct RocketServoDeflection cvt_data;
  84:../Core/Src/protocol.c **** 				RocketServoDeflection_decode(data, &cvt_data);
  85:../Core/Src/protocol.c **** 				ROCKETSERVODEFLECTION_SQL_ADD_ENTRY(sql_cmd, &cvt_data);
  86:../Core/Src/protocol.c **** 				return true;
  87:../Core/Src/protocol.c **** 			} 
  88:../Core/Src/protocol.c ****     	    case ROCKETSTATE_MSG_ID: {
  89:../Core/Src/protocol.c ****         if (data_size != ROCKETSTATE_SIZE) {
  90:../Core/Src/protocol.c ****           printf("warning: wrong data size!\n");
  91:../Core/Src/protocol.c ****         }
  92:../Core/Src/protocol.c **** 				struct RocketState cvt_data;
  93:../Core/Src/protocol.c **** 				RocketState_decode(data, &cvt_data);
  94:../Core/Src/protocol.c **** 				ROCKETSTATE_SQL_ADD_ENTRY(sql_cmd, &cvt_data);
  95:../Core/Src/protocol.c **** 				return true;
  96:../Core/Src/protocol.c **** 			} 
  97:../Core/Src/protocol.c ****     	    case ROCKETGROUNDEKF_MSG_ID: {
  98:../Core/Src/protocol.c ****         if (data_size != ROCKETGROUNDEKF_SIZE) {
  99:../Core/Src/protocol.c ****           printf("warning: wrong data size!\n");
 100:../Core/Src/protocol.c ****         }
 101:../Core/Src/protocol.c **** 				struct RocketGroundEKF cvt_data;
 102:../Core/Src/protocol.c **** 				RocketGroundEKF_decode(data, &cvt_data);
 103:../Core/Src/protocol.c **** 				ROCKETGROUNDEKF_SQL_ADD_ENTRY(sql_cmd, &cvt_data);
 104:../Core/Src/protocol.c **** 				return true;
 105:../Core/Src/protocol.c **** 			} 
 106:../Core/Src/protocol.c ****     	    case ROCKETSENSORDATA_MSG_ID: {
 107:../Core/Src/protocol.c ****         if (data_size != ROCKETSENSORDATA_SIZE) {
 108:../Core/Src/protocol.c ****           printf("warning: wrong data size!\n");
 109:../Core/Src/protocol.c ****         }
 110:../Core/Src/protocol.c **** 				struct RocketSensorData cvt_data;
 111:../Core/Src/protocol.c **** 				RocketSensorData_decode(data, &cvt_data);
 112:../Core/Src/protocol.c **** 				ROCKETSENSORDATA_SQL_ADD_ENTRY(sql_cmd, &cvt_data);
 113:../Core/Src/protocol.c **** 				return true;
 114:../Core/Src/protocol.c **** 			} 
 115:../Core/Src/protocol.c ****     		default:
 116:../Core/Src/protocol.c **** 				return false;
 117:../Core/Src/protocol.c **** 		}
 118:../Core/Src/protocol.c **** 	}
 119:../Core/Src/protocol.c **** 
 120:../Core/Src/protocol.c **** #endif
 121:../Core/Src/protocol.c **** 
 122:../Core/Src/protocol.c **** 
 123:../Core/Src/protocol.c **** void RocketStateVector_encode(struct RocketStateVector *input, uint8_t *output) {
 272              		.loc 1 123 81 is_stmt 1 view -0
 273              		.cfi_startproc
 274              		@ args = 0, pretend = 0, frame = 0
 275              		@ frame_needed = 0, uses_anonymous_args = 0
 276              		@ link register save eliminated.
 124:../Core/Src/protocol.c **** 		memcpy(output + 0, &input->velocity_x, 4);
 277              		.loc 1 124 3 view .LVU56
 278 0000 0368     		ldr	r3, [r0]	@ unaligned
 279 0002 0B60     		str	r3, [r1]	@ unaligned
 125:../Core/Src/protocol.c **** 		memcpy(output + 4, &input->velocity_y, 4);
 280              		.loc 1 125 3 view .LVU57
 281 0004 4368     		ldr	r3, [r0, #4]	@ unaligned
 282 0006 4B60     		str	r3, [r1, #4]	@ unaligned
ARM GAS  /tmp/ccJDKDJB.s 			page 8


 126:../Core/Src/protocol.c **** 		memcpy(output + 8, &input->velocity_z, 4);
 283              		.loc 1 126 3 view .LVU58
 284 0008 8368     		ldr	r3, [r0, #8]	@ unaligned
 285 000a 8B60     		str	r3, [r1, #8]	@ unaligned
 127:../Core/Src/protocol.c **** 		memcpy(output + 12, &input->angular_velocity_x, 4);
 286              		.loc 1 127 3 view .LVU59
 287 000c C368     		ldr	r3, [r0, #12]	@ unaligned
 288 000e CB60     		str	r3, [r1, #12]	@ unaligned
 128:../Core/Src/protocol.c **** 		memcpy(output + 16, &input->angular_velocity_y, 4);
 289              		.loc 1 128 3 view .LVU60
 290 0010 0369     		ldr	r3, [r0, #16]	@ unaligned
 291 0012 0B61     		str	r3, [r1, #16]	@ unaligned
 129:../Core/Src/protocol.c **** 		memcpy(output + 20, &input->angular_velocity_z, 4);
 292              		.loc 1 129 3 view .LVU61
 293 0014 4369     		ldr	r3, [r0, #20]	@ unaligned
 294 0016 4B61     		str	r3, [r1, #20]	@ unaligned
 130:../Core/Src/protocol.c **** 		memcpy(output + 24, &input->attitude_w, 4);
 295              		.loc 1 130 3 view .LVU62
 296 0018 8369     		ldr	r3, [r0, #24]	@ unaligned
 297 001a 8B61     		str	r3, [r1, #24]	@ unaligned
 131:../Core/Src/protocol.c **** 		memcpy(output + 28, &input->attitude_x, 4);
 298              		.loc 1 131 3 view .LVU63
 299 001c C369     		ldr	r3, [r0, #28]	@ unaligned
 300 001e CB61     		str	r3, [r1, #28]	@ unaligned
 132:../Core/Src/protocol.c **** 		memcpy(output + 32, &input->attitude_y, 4);
 301              		.loc 1 132 3 view .LVU64
 302 0020 036A     		ldr	r3, [r0, #32]	@ unaligned
 303 0022 0B62     		str	r3, [r1, #32]	@ unaligned
 133:../Core/Src/protocol.c **** 		memcpy(output + 36, &input->attitude_z, 4);
 304              		.loc 1 133 3 view .LVU65
 305 0024 436A     		ldr	r3, [r0, #36]	@ unaligned
 306 0026 4B62     		str	r3, [r1, #36]	@ unaligned
 134:../Core/Src/protocol.c **** 		memcpy(output + 40, &input->position_x, 4);
 307              		.loc 1 134 3 view .LVU66
 308 0028 836A     		ldr	r3, [r0, #40]	@ unaligned
 309 002a 8B62     		str	r3, [r1, #40]	@ unaligned
 135:../Core/Src/protocol.c **** 		memcpy(output + 44, &input->position_y, 4);
 310              		.loc 1 135 3 view .LVU67
 311 002c C36A     		ldr	r3, [r0, #44]	@ unaligned
 312 002e CB62     		str	r3, [r1, #44]	@ unaligned
 136:../Core/Src/protocol.c **** 		memcpy(output + 48, &input->position_z, 4);
 313              		.loc 1 136 3 view .LVU68
 314 0030 036B     		ldr	r3, [r0, #48]	@ unaligned
 315 0032 0B63     		str	r3, [r1, #48]	@ unaligned
 137:../Core/Src/protocol.c **** 		memcpy(output + 52, &input->timestamp, 8);
 316              		.loc 1 137 3 view .LVU69
 317 0034 826B     		ldr	r2, [r0, #56]	@ unaligned
 318 0036 C36B     		ldr	r3, [r0, #60]	@ unaligned
 319 0038 4A63     		str	r2, [r1, #52]	@ unaligned
 320 003a 8B63     		str	r3, [r1, #56]	@ unaligned
 138:../Core/Src/protocol.c **** 
 139:../Core/Src/protocol.c **** }
 321              		.loc 1 139 1 is_stmt 0 view .LVU70
 322 003c 7047     		bx	lr
 323              		.cfi_endproc
 324              	.LFE9:
 326              		.section	.text.RocketStateVector_decode,"ax",%progbits
ARM GAS  /tmp/ccJDKDJB.s 			page 9


 327              		.align	1
 328              		.global	RocketStateVector_decode
 329              		.syntax unified
 330              		.thumb
 331              		.thumb_func
 332              		.fpu fpv4-sp-d16
 334              	RocketStateVector_decode:
 335              	.LVL20:
 336              	.LFB10:
 140:../Core/Src/protocol.c **** 
 141:../Core/Src/protocol.c **** void RocketStateVector_decode(uint8_t *input, struct RocketStateVector *output) {
 337              		.loc 1 141 81 is_stmt 1 view -0
 338              		.cfi_startproc
 339              		@ args = 0, pretend = 0, frame = 0
 340              		@ frame_needed = 0, uses_anonymous_args = 0
 341              		@ link register save eliminated.
 142:../Core/Src/protocol.c **** 		memcpy(&output->velocity_x, input + 0, 4);
 342              		.loc 1 142 3 view .LVU72
 343 0000 0368     		ldr	r3, [r0]	@ unaligned
 344 0002 0B60     		str	r3, [r1]	@ unaligned
 143:../Core/Src/protocol.c **** 		memcpy(&output->velocity_y, input + 4, 4);
 345              		.loc 1 143 3 view .LVU73
 346 0004 4368     		ldr	r3, [r0, #4]	@ unaligned
 347 0006 4B60     		str	r3, [r1, #4]	@ unaligned
 144:../Core/Src/protocol.c **** 		memcpy(&output->velocity_z, input + 8, 4);
 348              		.loc 1 144 3 view .LVU74
 349 0008 8368     		ldr	r3, [r0, #8]	@ unaligned
 350 000a 8B60     		str	r3, [r1, #8]	@ unaligned
 145:../Core/Src/protocol.c **** 		memcpy(&output->angular_velocity_x, input + 12, 4);
 351              		.loc 1 145 3 view .LVU75
 352 000c C368     		ldr	r3, [r0, #12]	@ unaligned
 353 000e CB60     		str	r3, [r1, #12]	@ unaligned
 146:../Core/Src/protocol.c **** 		memcpy(&output->angular_velocity_y, input + 16, 4);
 354              		.loc 1 146 3 view .LVU76
 355 0010 0369     		ldr	r3, [r0, #16]	@ unaligned
 356 0012 0B61     		str	r3, [r1, #16]	@ unaligned
 147:../Core/Src/protocol.c **** 		memcpy(&output->angular_velocity_z, input + 20, 4);
 357              		.loc 1 147 3 view .LVU77
 358 0014 4369     		ldr	r3, [r0, #20]	@ unaligned
 359 0016 4B61     		str	r3, [r1, #20]	@ unaligned
 148:../Core/Src/protocol.c **** 		memcpy(&output->attitude_w, input + 24, 4);
 360              		.loc 1 148 3 view .LVU78
 361 0018 8369     		ldr	r3, [r0, #24]	@ unaligned
 362 001a 8B61     		str	r3, [r1, #24]	@ unaligned
 149:../Core/Src/protocol.c **** 		memcpy(&output->attitude_x, input + 28, 4);
 363              		.loc 1 149 3 view .LVU79
 364 001c C369     		ldr	r3, [r0, #28]	@ unaligned
 365 001e CB61     		str	r3, [r1, #28]	@ unaligned
 150:../Core/Src/protocol.c **** 		memcpy(&output->attitude_y, input + 32, 4);
 366              		.loc 1 150 3 view .LVU80
 367 0020 036A     		ldr	r3, [r0, #32]	@ unaligned
 368 0022 0B62     		str	r3, [r1, #32]	@ unaligned
 151:../Core/Src/protocol.c **** 		memcpy(&output->attitude_z, input + 36, 4);
 369              		.loc 1 151 3 view .LVU81
 370 0024 436A     		ldr	r3, [r0, #36]	@ unaligned
 371 0026 4B62     		str	r3, [r1, #36]	@ unaligned
 152:../Core/Src/protocol.c **** 		memcpy(&output->position_x, input + 40, 4);
ARM GAS  /tmp/ccJDKDJB.s 			page 10


 372              		.loc 1 152 3 view .LVU82
 373 0028 836A     		ldr	r3, [r0, #40]	@ unaligned
 374 002a 8B62     		str	r3, [r1, #40]	@ unaligned
 153:../Core/Src/protocol.c **** 		memcpy(&output->position_y, input + 44, 4);
 375              		.loc 1 153 3 view .LVU83
 376 002c C36A     		ldr	r3, [r0, #44]	@ unaligned
 377 002e CB62     		str	r3, [r1, #44]	@ unaligned
 154:../Core/Src/protocol.c **** 		memcpy(&output->position_z, input + 48, 4);
 378              		.loc 1 154 3 view .LVU84
 379 0030 036B     		ldr	r3, [r0, #48]	@ unaligned
 380 0032 0B63     		str	r3, [r1, #48]	@ unaligned
 155:../Core/Src/protocol.c **** 		memcpy(&output->timestamp, input + 52, 8);
 381              		.loc 1 155 3 view .LVU85
 382 0034 426B     		ldr	r2, [r0, #52]	@ unaligned
 383 0036 836B     		ldr	r3, [r0, #56]	@ unaligned
 384 0038 8A63     		str	r2, [r1, #56]	@ unaligned
 385 003a CB63     		str	r3, [r1, #60]	@ unaligned
 156:../Core/Src/protocol.c **** 
 157:../Core/Src/protocol.c **** }
 386              		.loc 1 157 1 is_stmt 0 view .LVU86
 387 003c 7047     		bx	lr
 388              		.cfi_endproc
 389              	.LFE10:
 391              		.section	.text.RocketServoDeflection_encode,"ax",%progbits
 392              		.align	1
 393              		.global	RocketServoDeflection_encode
 394              		.syntax unified
 395              		.thumb
 396              		.thumb_func
 397              		.fpu fpv4-sp-d16
 399              	RocketServoDeflection_encode:
 400              	.LVL21:
 401              	.LFB11:
 158:../Core/Src/protocol.c **** 
 159:../Core/Src/protocol.c **** 
 160:../Core/Src/protocol.c **** void RocketServoDeflection_encode(struct RocketServoDeflection *input, uint8_t *output) {
 402              		.loc 1 160 89 is_stmt 1 view -0
 403              		.cfi_startproc
 404              		@ args = 0, pretend = 0, frame = 0
 405              		@ frame_needed = 0, uses_anonymous_args = 0
 406              		@ link register save eliminated.
 161:../Core/Src/protocol.c **** 		memcpy(output + 0, &input->servo_deflection_1, 4);
 407              		.loc 1 161 3 view .LVU88
 408 0000 0368     		ldr	r3, [r0]	@ unaligned
 409 0002 0B60     		str	r3, [r1]	@ unaligned
 162:../Core/Src/protocol.c **** 		memcpy(output + 4, &input->servo_deflection_2, 4);
 410              		.loc 1 162 3 view .LVU89
 411 0004 4368     		ldr	r3, [r0, #4]	@ unaligned
 412 0006 4B60     		str	r3, [r1, #4]	@ unaligned
 163:../Core/Src/protocol.c **** 		memcpy(output + 8, &input->servo_deflection_3, 4);
 413              		.loc 1 163 3 view .LVU90
 414 0008 8368     		ldr	r3, [r0, #8]	@ unaligned
 415 000a 8B60     		str	r3, [r1, #8]	@ unaligned
 164:../Core/Src/protocol.c **** 		memcpy(output + 12, &input->servo_deflection_4, 4);
 416              		.loc 1 164 3 view .LVU91
 417 000c C368     		ldr	r3, [r0, #12]	@ unaligned
 418 000e CB60     		str	r3, [r1, #12]	@ unaligned
ARM GAS  /tmp/ccJDKDJB.s 			page 11


 165:../Core/Src/protocol.c **** 		memcpy(output + 16, &input->timestamp, 8);
 419              		.loc 1 165 3 view .LVU92
 420 0010 0269     		ldr	r2, [r0, #16]	@ unaligned
 421 0012 4369     		ldr	r3, [r0, #20]	@ unaligned
 422 0014 0A61     		str	r2, [r1, #16]	@ unaligned
 423 0016 4B61     		str	r3, [r1, #20]	@ unaligned
 166:../Core/Src/protocol.c **** 
 167:../Core/Src/protocol.c **** }
 424              		.loc 1 167 1 is_stmt 0 view .LVU93
 425 0018 7047     		bx	lr
 426              		.cfi_endproc
 427              	.LFE11:
 429              		.section	.text.RocketServoDeflection_decode,"ax",%progbits
 430              		.align	1
 431              		.global	RocketServoDeflection_decode
 432              		.syntax unified
 433              		.thumb
 434              		.thumb_func
 435              		.fpu fpv4-sp-d16
 437              	RocketServoDeflection_decode:
 438              	.LVL22:
 439              	.LFB12:
 168:../Core/Src/protocol.c **** 
 169:../Core/Src/protocol.c **** void RocketServoDeflection_decode(uint8_t *input, struct RocketServoDeflection *output) {
 440              		.loc 1 169 89 is_stmt 1 view -0
 441              		.cfi_startproc
 442              		@ args = 0, pretend = 0, frame = 0
 443              		@ frame_needed = 0, uses_anonymous_args = 0
 444              		@ link register save eliminated.
 170:../Core/Src/protocol.c **** 		memcpy(&output->servo_deflection_1, input + 0, 4);
 445              		.loc 1 170 3 view .LVU95
 446 0000 0368     		ldr	r3, [r0]	@ unaligned
 447 0002 0B60     		str	r3, [r1]	@ unaligned
 171:../Core/Src/protocol.c **** 		memcpy(&output->servo_deflection_2, input + 4, 4);
 448              		.loc 1 171 3 view .LVU96
 449 0004 4368     		ldr	r3, [r0, #4]	@ unaligned
 450 0006 4B60     		str	r3, [r1, #4]	@ unaligned
 172:../Core/Src/protocol.c **** 		memcpy(&output->servo_deflection_3, input + 8, 4);
 451              		.loc 1 172 3 view .LVU97
 452 0008 8368     		ldr	r3, [r0, #8]	@ unaligned
 453 000a 8B60     		str	r3, [r1, #8]	@ unaligned
 173:../Core/Src/protocol.c **** 		memcpy(&output->servo_deflection_4, input + 12, 4);
 454              		.loc 1 173 3 view .LVU98
 455 000c C368     		ldr	r3, [r0, #12]	@ unaligned
 456 000e CB60     		str	r3, [r1, #12]	@ unaligned
 174:../Core/Src/protocol.c **** 		memcpy(&output->timestamp, input + 16, 8);
 457              		.loc 1 174 3 view .LVU99
 458 0010 0269     		ldr	r2, [r0, #16]	@ unaligned
 459 0012 4369     		ldr	r3, [r0, #20]	@ unaligned
 460 0014 0A61     		str	r2, [r1, #16]	@ unaligned
 461 0016 4B61     		str	r3, [r1, #20]	@ unaligned
 175:../Core/Src/protocol.c **** 
 176:../Core/Src/protocol.c **** }
 462              		.loc 1 176 1 is_stmt 0 view .LVU100
 463 0018 7047     		bx	lr
 464              		.cfi_endproc
 465              	.LFE12:
ARM GAS  /tmp/ccJDKDJB.s 			page 12


 467              		.section	.text.RocketState_encode,"ax",%progbits
 468              		.align	1
 469              		.global	RocketState_encode
 470              		.syntax unified
 471              		.thumb
 472              		.thumb_func
 473              		.fpu fpv4-sp-d16
 475              	RocketState_encode:
 476              	.LVL23:
 477              	.LFB13:
 177:../Core/Src/protocol.c **** 
 178:../Core/Src/protocol.c **** 
 179:../Core/Src/protocol.c **** void RocketState_encode(struct RocketState *input, uint8_t *output) {
 478              		.loc 1 179 69 is_stmt 1 view -0
 479              		.cfi_startproc
 480              		@ args = 0, pretend = 0, frame = 0
 481              		@ frame_needed = 0, uses_anonymous_args = 0
 482              		@ link register save eliminated.
 180:../Core/Src/protocol.c **** 		memcpy(output + 0, &input->rocket_state, 1);
 483              		.loc 1 180 3 view .LVU102
 484 0000 0378     		ldrb	r3, [r0]	@ zero_extendqisi2
 485 0002 0B70     		strb	r3, [r1]
 181:../Core/Src/protocol.c **** 		memcpy(output + 1, &input->firing_channel_1, 1);
 486              		.loc 1 181 3 view .LVU103
 487 0004 4378     		ldrb	r3, [r0, #1]	@ zero_extendqisi2
 488 0006 4B70     		strb	r3, [r1, #1]
 182:../Core/Src/protocol.c **** 		memcpy(output + 2, &input->firing_channel_2, 1);
 489              		.loc 1 182 3 view .LVU104
 490 0008 8378     		ldrb	r3, [r0, #2]	@ zero_extendqisi2
 491 000a 8B70     		strb	r3, [r1, #2]
 183:../Core/Src/protocol.c **** 		memcpy(output + 3, &input->firing_channel_3, 1);
 492              		.loc 1 183 3 view .LVU105
 493 000c C378     		ldrb	r3, [r0, #3]	@ zero_extendqisi2
 494 000e CB70     		strb	r3, [r1, #3]
 184:../Core/Src/protocol.c **** 		memcpy(output + 4, &input->firing_channel_4, 1);
 495              		.loc 1 184 3 view .LVU106
 496 0010 0379     		ldrb	r3, [r0, #4]	@ zero_extendqisi2
 497 0012 0B71     		strb	r3, [r1, #4]
 185:../Core/Src/protocol.c **** 		memcpy(output + 5, &input->timestamp, 8);
 498              		.loc 1 185 3 view .LVU107
 499 0014 8268     		ldr	r2, [r0, #8]	@ unaligned
 500 0016 C368     		ldr	r3, [r0, #12]	@ unaligned
 501 0018 C1F80520 		str	r2, [r1, #5]	@ unaligned
 502 001c C1F80930 		str	r3, [r1, #9]	@ unaligned
 186:../Core/Src/protocol.c **** 
 187:../Core/Src/protocol.c **** }
 503              		.loc 1 187 1 is_stmt 0 view .LVU108
 504 0020 7047     		bx	lr
 505              		.cfi_endproc
 506              	.LFE13:
 508              		.section	.text.RocketState_decode,"ax",%progbits
 509              		.align	1
 510              		.global	RocketState_decode
 511              		.syntax unified
 512              		.thumb
 513              		.thumb_func
 514              		.fpu fpv4-sp-d16
ARM GAS  /tmp/ccJDKDJB.s 			page 13


 516              	RocketState_decode:
 517              	.LVL24:
 518              	.LFB14:
 188:../Core/Src/protocol.c **** 
 189:../Core/Src/protocol.c **** void RocketState_decode(uint8_t *input, struct RocketState *output) {
 519              		.loc 1 189 69 is_stmt 1 view -0
 520              		.cfi_startproc
 521              		@ args = 0, pretend = 0, frame = 0
 522              		@ frame_needed = 0, uses_anonymous_args = 0
 523              		@ link register save eliminated.
 190:../Core/Src/protocol.c **** 		memcpy(&output->rocket_state, input + 0, 1);
 524              		.loc 1 190 3 view .LVU110
 525 0000 0378     		ldrb	r3, [r0]	@ zero_extendqisi2
 526 0002 0B70     		strb	r3, [r1]
 191:../Core/Src/protocol.c **** 		memcpy(&output->firing_channel_1, input + 1, 1);
 527              		.loc 1 191 3 view .LVU111
 528 0004 4378     		ldrb	r3, [r0, #1]	@ zero_extendqisi2
 529 0006 4B70     		strb	r3, [r1, #1]
 192:../Core/Src/protocol.c **** 		memcpy(&output->firing_channel_2, input + 2, 1);
 530              		.loc 1 192 3 view .LVU112
 531 0008 8378     		ldrb	r3, [r0, #2]	@ zero_extendqisi2
 532 000a 8B70     		strb	r3, [r1, #2]
 193:../Core/Src/protocol.c **** 		memcpy(&output->firing_channel_3, input + 3, 1);
 533              		.loc 1 193 3 view .LVU113
 534 000c C378     		ldrb	r3, [r0, #3]	@ zero_extendqisi2
 535 000e CB70     		strb	r3, [r1, #3]
 194:../Core/Src/protocol.c **** 		memcpy(&output->firing_channel_4, input + 4, 1);
 536              		.loc 1 194 3 view .LVU114
 537 0010 0379     		ldrb	r3, [r0, #4]	@ zero_extendqisi2
 538 0012 0B71     		strb	r3, [r1, #4]
 195:../Core/Src/protocol.c **** 		memcpy(&output->timestamp, input + 5, 8);
 539              		.loc 1 195 3 view .LVU115
 540 0014 D0F80520 		ldr	r2, [r0, #5]	@ unaligned
 541 0018 D0F80930 		ldr	r3, [r0, #9]	@ unaligned
 542 001c 8A60     		str	r2, [r1, #8]	@ unaligned
 543 001e CB60     		str	r3, [r1, #12]	@ unaligned
 196:../Core/Src/protocol.c **** 
 197:../Core/Src/protocol.c **** }
 544              		.loc 1 197 1 is_stmt 0 view .LVU116
 545 0020 7047     		bx	lr
 546              		.cfi_endproc
 547              	.LFE14:
 549              		.section	.text.RocketGroundEKF_encode,"ax",%progbits
 550              		.align	1
 551              		.global	RocketGroundEKF_encode
 552              		.syntax unified
 553              		.thumb
 554              		.thumb_func
 555              		.fpu fpv4-sp-d16
 557              	RocketGroundEKF_encode:
 558              	.LVL25:
 559              	.LFB15:
 198:../Core/Src/protocol.c **** 
 199:../Core/Src/protocol.c **** 
 200:../Core/Src/protocol.c **** void RocketGroundEKF_encode(struct RocketGroundEKF *input, uint8_t *output) {
 560              		.loc 1 200 77 is_stmt 1 view -0
 561              		.cfi_startproc
ARM GAS  /tmp/ccJDKDJB.s 			page 14


 562              		@ args = 0, pretend = 0, frame = 0
 563              		@ frame_needed = 0, uses_anonymous_args = 0
 564              		@ link register save eliminated.
 201:../Core/Src/protocol.c **** 		memcpy(output + 0, &input->pn_matrix_d1, 4);
 565              		.loc 1 201 3 view .LVU118
 566 0000 0368     		ldr	r3, [r0]	@ unaligned
 567 0002 0B60     		str	r3, [r1]	@ unaligned
 202:../Core/Src/protocol.c **** 		memcpy(output + 4, &input->pn_matrix_d2, 4);
 568              		.loc 1 202 3 view .LVU119
 569 0004 4368     		ldr	r3, [r0, #4]	@ unaligned
 570 0006 4B60     		str	r3, [r1, #4]	@ unaligned
 203:../Core/Src/protocol.c **** 		memcpy(output + 8, &input->pn_matrix_d3, 4);
 571              		.loc 1 203 3 view .LVU120
 572 0008 8368     		ldr	r3, [r0, #8]	@ unaligned
 573 000a 8B60     		str	r3, [r1, #8]	@ unaligned
 204:../Core/Src/protocol.c **** 		memcpy(output + 12, &input->pn_matrix_d4, 4);
 574              		.loc 1 204 3 view .LVU121
 575 000c C368     		ldr	r3, [r0, #12]	@ unaligned
 576 000e CB60     		str	r3, [r1, #12]	@ unaligned
 205:../Core/Src/protocol.c **** 		memcpy(output + 16, &input->pn_matrix_d5, 4);
 577              		.loc 1 205 3 view .LVU122
 578 0010 0369     		ldr	r3, [r0, #16]	@ unaligned
 579 0012 0B61     		str	r3, [r1, #16]	@ unaligned
 206:../Core/Src/protocol.c **** 		memcpy(output + 20, &input->pn_matrix_d6, 4);
 580              		.loc 1 206 3 view .LVU123
 581 0014 4369     		ldr	r3, [r0, #20]	@ unaligned
 582 0016 4B61     		str	r3, [r1, #20]	@ unaligned
 207:../Core/Src/protocol.c **** 		memcpy(output + 24, &input->timestamp, 8);
 583              		.loc 1 207 3 view .LVU124
 584 0018 8269     		ldr	r2, [r0, #24]	@ unaligned
 585 001a C369     		ldr	r3, [r0, #28]	@ unaligned
 586 001c 8A61     		str	r2, [r1, #24]	@ unaligned
 587 001e CB61     		str	r3, [r1, #28]	@ unaligned
 208:../Core/Src/protocol.c **** 
 209:../Core/Src/protocol.c **** }
 588              		.loc 1 209 1 is_stmt 0 view .LVU125
 589 0020 7047     		bx	lr
 590              		.cfi_endproc
 591              	.LFE15:
 593              		.section	.text.RocketGroundEKF_decode,"ax",%progbits
 594              		.align	1
 595              		.global	RocketGroundEKF_decode
 596              		.syntax unified
 597              		.thumb
 598              		.thumb_func
 599              		.fpu fpv4-sp-d16
 601              	RocketGroundEKF_decode:
 602              	.LVL26:
 603              	.LFB16:
 210:../Core/Src/protocol.c **** 
 211:../Core/Src/protocol.c **** void RocketGroundEKF_decode(uint8_t *input, struct RocketGroundEKF *output) {
 604              		.loc 1 211 77 is_stmt 1 view -0
 605              		.cfi_startproc
 606              		@ args = 0, pretend = 0, frame = 0
 607              		@ frame_needed = 0, uses_anonymous_args = 0
 608              		@ link register save eliminated.
 212:../Core/Src/protocol.c **** 		memcpy(&output->pn_matrix_d1, input + 0, 4);
ARM GAS  /tmp/ccJDKDJB.s 			page 15


 609              		.loc 1 212 3 view .LVU127
 610 0000 0368     		ldr	r3, [r0]	@ unaligned
 611 0002 0B60     		str	r3, [r1]	@ unaligned
 213:../Core/Src/protocol.c **** 		memcpy(&output->pn_matrix_d2, input + 4, 4);
 612              		.loc 1 213 3 view .LVU128
 613 0004 4368     		ldr	r3, [r0, #4]	@ unaligned
 614 0006 4B60     		str	r3, [r1, #4]	@ unaligned
 214:../Core/Src/protocol.c **** 		memcpy(&output->pn_matrix_d3, input + 8, 4);
 615              		.loc 1 214 3 view .LVU129
 616 0008 8368     		ldr	r3, [r0, #8]	@ unaligned
 617 000a 8B60     		str	r3, [r1, #8]	@ unaligned
 215:../Core/Src/protocol.c **** 		memcpy(&output->pn_matrix_d4, input + 12, 4);
 618              		.loc 1 215 3 view .LVU130
 619 000c C368     		ldr	r3, [r0, #12]	@ unaligned
 620 000e CB60     		str	r3, [r1, #12]	@ unaligned
 216:../Core/Src/protocol.c **** 		memcpy(&output->pn_matrix_d5, input + 16, 4);
 621              		.loc 1 216 3 view .LVU131
 622 0010 0369     		ldr	r3, [r0, #16]	@ unaligned
 623 0012 0B61     		str	r3, [r1, #16]	@ unaligned
 217:../Core/Src/protocol.c **** 		memcpy(&output->pn_matrix_d6, input + 20, 4);
 624              		.loc 1 217 3 view .LVU132
 625 0014 4369     		ldr	r3, [r0, #20]	@ unaligned
 626 0016 4B61     		str	r3, [r1, #20]	@ unaligned
 218:../Core/Src/protocol.c **** 		memcpy(&output->timestamp, input + 24, 8);
 627              		.loc 1 218 3 view .LVU133
 628 0018 8269     		ldr	r2, [r0, #24]	@ unaligned
 629 001a C369     		ldr	r3, [r0, #28]	@ unaligned
 630 001c 8A61     		str	r2, [r1, #24]	@ unaligned
 631 001e CB61     		str	r3, [r1, #28]	@ unaligned
 219:../Core/Src/protocol.c **** 
 220:../Core/Src/protocol.c **** }
 632              		.loc 1 220 1 is_stmt 0 view .LVU134
 633 0020 7047     		bx	lr
 634              		.cfi_endproc
 635              	.LFE16:
 637              		.section	.text.RocketSensorData_encode,"ax",%progbits
 638              		.align	1
 639              		.global	RocketSensorData_encode
 640              		.syntax unified
 641              		.thumb
 642              		.thumb_func
 643              		.fpu fpv4-sp-d16
 645              	RocketSensorData_encode:
 646              	.LVL27:
 647              	.LFB17:
 221:../Core/Src/protocol.c **** 
 222:../Core/Src/protocol.c **** 
 223:../Core/Src/protocol.c **** void RocketSensorData_encode(struct RocketSensorData *input, uint8_t *output) {
 648              		.loc 1 223 79 is_stmt 1 view -0
 649              		.cfi_startproc
 650              		@ args = 0, pretend = 0, frame = 0
 651              		@ frame_needed = 0, uses_anonymous_args = 0
 652              		@ link register save eliminated.
 224:../Core/Src/protocol.c **** 		memcpy(output + 0, &input->accelerometer_x, 4);
 653              		.loc 1 224 3 view .LVU136
 654 0000 0368     		ldr	r3, [r0]	@ unaligned
 655 0002 0B60     		str	r3, [r1]	@ unaligned
ARM GAS  /tmp/ccJDKDJB.s 			page 16


 225:../Core/Src/protocol.c **** 		memcpy(output + 4, &input->accelerometer_y, 4);
 656              		.loc 1 225 3 view .LVU137
 657 0004 4368     		ldr	r3, [r0, #4]	@ unaligned
 658 0006 4B60     		str	r3, [r1, #4]	@ unaligned
 226:../Core/Src/protocol.c **** 		memcpy(output + 8, &input->accelerometer_z, 4);
 659              		.loc 1 226 3 view .LVU138
 660 0008 8368     		ldr	r3, [r0, #8]	@ unaligned
 661 000a 8B60     		str	r3, [r1, #8]	@ unaligned
 227:../Core/Src/protocol.c **** 		memcpy(output + 12, &input->gyro_x, 4);
 662              		.loc 1 227 3 view .LVU139
 663 000c C368     		ldr	r3, [r0, #12]	@ unaligned
 664 000e CB60     		str	r3, [r1, #12]	@ unaligned
 228:../Core/Src/protocol.c **** 		memcpy(output + 16, &input->gyro_y, 4);
 665              		.loc 1 228 3 view .LVU140
 666 0010 0369     		ldr	r3, [r0, #16]	@ unaligned
 667 0012 0B61     		str	r3, [r1, #16]	@ unaligned
 229:../Core/Src/protocol.c **** 		memcpy(output + 20, &input->gyro_z, 4);
 668              		.loc 1 229 3 view .LVU141
 669 0014 4369     		ldr	r3, [r0, #20]	@ unaligned
 670 0016 4B61     		str	r3, [r1, #20]	@ unaligned
 230:../Core/Src/protocol.c **** 		memcpy(output + 24, &input->gps_x, 4);
 671              		.loc 1 230 3 view .LVU142
 672 0018 8369     		ldr	r3, [r0, #24]	@ unaligned
 673 001a 8B61     		str	r3, [r1, #24]	@ unaligned
 231:../Core/Src/protocol.c **** 		memcpy(output + 28, &input->gps_y, 4);
 674              		.loc 1 231 3 view .LVU143
 675 001c C369     		ldr	r3, [r0, #28]	@ unaligned
 676 001e CB61     		str	r3, [r1, #28]	@ unaligned
 232:../Core/Src/protocol.c **** 		memcpy(output + 32, &input->gps_z, 4);
 677              		.loc 1 232 3 view .LVU144
 678 0020 036A     		ldr	r3, [r0, #32]	@ unaligned
 679 0022 0B62     		str	r3, [r1, #32]	@ unaligned
 233:../Core/Src/protocol.c **** 		memcpy(output + 36, &input->barometer, 4);
 680              		.loc 1 233 3 view .LVU145
 681 0024 436A     		ldr	r3, [r0, #36]	@ unaligned
 682 0026 4B62     		str	r3, [r1, #36]	@ unaligned
 234:../Core/Src/protocol.c **** 		memcpy(output + 40, &input->accel_bias_x, 4);
 683              		.loc 1 234 3 view .LVU146
 684 0028 836A     		ldr	r3, [r0, #40]	@ unaligned
 685 002a 8B62     		str	r3, [r1, #40]	@ unaligned
 235:../Core/Src/protocol.c **** 		memcpy(output + 44, &input->accel_bias_y, 4);
 686              		.loc 1 235 3 view .LVU147
 687 002c C36A     		ldr	r3, [r0, #44]	@ unaligned
 688 002e CB62     		str	r3, [r1, #44]	@ unaligned
 236:../Core/Src/protocol.c **** 		memcpy(output + 48, &input->accel_bias_z, 4);
 689              		.loc 1 236 3 view .LVU148
 690 0030 036B     		ldr	r3, [r0, #48]	@ unaligned
 691 0032 0B63     		str	r3, [r1, #48]	@ unaligned
 237:../Core/Src/protocol.c **** 		memcpy(output + 52, &input->gyro_bias_x, 4);
 692              		.loc 1 237 3 view .LVU149
 693 0034 436B     		ldr	r3, [r0, #52]	@ unaligned
 694 0036 4B63     		str	r3, [r1, #52]	@ unaligned
 238:../Core/Src/protocol.c **** 		memcpy(output + 56, &input->gyro_bias_y, 4);
 695              		.loc 1 238 3 view .LVU150
 696 0038 836B     		ldr	r3, [r0, #56]	@ unaligned
 697 003a 8B63     		str	r3, [r1, #56]	@ unaligned
 239:../Core/Src/protocol.c **** 		memcpy(output + 60, &input->gyro_bias_z, 4);
ARM GAS  /tmp/ccJDKDJB.s 			page 17


 698              		.loc 1 239 3 view .LVU151
 699 003c C36B     		ldr	r3, [r0, #60]	@ unaligned
 700 003e CB63     		str	r3, [r1, #60]	@ unaligned
 240:../Core/Src/protocol.c **** 		memcpy(output + 64, &input->gps_offset_x, 4);
 701              		.loc 1 240 3 view .LVU152
 702 0040 036C     		ldr	r3, [r0, #64]	@ unaligned
 703 0042 0B64     		str	r3, [r1, #64]	@ unaligned
 241:../Core/Src/protocol.c **** 		memcpy(output + 68, &input->gps_offset_y, 4);
 704              		.loc 1 241 3 view .LVU153
 705 0044 436C     		ldr	r3, [r0, #68]	@ unaligned
 706 0046 4B64     		str	r3, [r1, #68]	@ unaligned
 242:../Core/Src/protocol.c **** 		memcpy(output + 72, &input->gps_offset_z, 4);
 707              		.loc 1 242 3 view .LVU154
 708 0048 836C     		ldr	r3, [r0, #72]	@ unaligned
 709 004a 8B64     		str	r3, [r1, #72]	@ unaligned
 243:../Core/Src/protocol.c **** 		memcpy(output + 76, &input->barometer_offset, 4);
 710              		.loc 1 243 3 view .LVU155
 711 004c C36C     		ldr	r3, [r0, #76]	@ unaligned
 712 004e CB64     		str	r3, [r1, #76]	@ unaligned
 244:../Core/Src/protocol.c **** 		memcpy(output + 80, &input->timestamp, 8);
 713              		.loc 1 244 3 view .LVU156
 714 0050 026D     		ldr	r2, [r0, #80]	@ unaligned
 715 0052 436D     		ldr	r3, [r0, #84]	@ unaligned
 716 0054 0A65     		str	r2, [r1, #80]	@ unaligned
 717 0056 4B65     		str	r3, [r1, #84]	@ unaligned
 245:../Core/Src/protocol.c **** 
 246:../Core/Src/protocol.c **** }
 718              		.loc 1 246 1 is_stmt 0 view .LVU157
 719 0058 7047     		bx	lr
 720              		.cfi_endproc
 721              	.LFE17:
 723              		.section	.text.RocketSensorData_decode,"ax",%progbits
 724              		.align	1
 725              		.global	RocketSensorData_decode
 726              		.syntax unified
 727              		.thumb
 728              		.thumb_func
 729              		.fpu fpv4-sp-d16
 731              	RocketSensorData_decode:
 732              	.LVL28:
 733              	.LFB18:
 247:../Core/Src/protocol.c **** 
 248:../Core/Src/protocol.c **** void RocketSensorData_decode(uint8_t *input, struct RocketSensorData *output) {
 734              		.loc 1 248 79 is_stmt 1 view -0
 735              		.cfi_startproc
 736              		@ args = 0, pretend = 0, frame = 0
 737              		@ frame_needed = 0, uses_anonymous_args = 0
 738              		@ link register save eliminated.
 249:../Core/Src/protocol.c **** 		memcpy(&output->accelerometer_x, input + 0, 4);
 739              		.loc 1 249 3 view .LVU159
 740 0000 0368     		ldr	r3, [r0]	@ unaligned
 741 0002 0B60     		str	r3, [r1]	@ unaligned
 250:../Core/Src/protocol.c **** 		memcpy(&output->accelerometer_y, input + 4, 4);
 742              		.loc 1 250 3 view .LVU160
 743 0004 4368     		ldr	r3, [r0, #4]	@ unaligned
 744 0006 4B60     		str	r3, [r1, #4]	@ unaligned
 251:../Core/Src/protocol.c **** 		memcpy(&output->accelerometer_z, input + 8, 4);
ARM GAS  /tmp/ccJDKDJB.s 			page 18


 745              		.loc 1 251 3 view .LVU161
 746 0008 8368     		ldr	r3, [r0, #8]	@ unaligned
 747 000a 8B60     		str	r3, [r1, #8]	@ unaligned
 252:../Core/Src/protocol.c **** 		memcpy(&output->gyro_x, input + 12, 4);
 748              		.loc 1 252 3 view .LVU162
 749 000c C368     		ldr	r3, [r0, #12]	@ unaligned
 750 000e CB60     		str	r3, [r1, #12]	@ unaligned
 253:../Core/Src/protocol.c **** 		memcpy(&output->gyro_y, input + 16, 4);
 751              		.loc 1 253 3 view .LVU163
 752 0010 0369     		ldr	r3, [r0, #16]	@ unaligned
 753 0012 0B61     		str	r3, [r1, #16]	@ unaligned
 254:../Core/Src/protocol.c **** 		memcpy(&output->gyro_z, input + 20, 4);
 754              		.loc 1 254 3 view .LVU164
 755 0014 4369     		ldr	r3, [r0, #20]	@ unaligned
 756 0016 4B61     		str	r3, [r1, #20]	@ unaligned
 255:../Core/Src/protocol.c **** 		memcpy(&output->gps_x, input + 24, 4);
 757              		.loc 1 255 3 view .LVU165
 758 0018 8369     		ldr	r3, [r0, #24]	@ unaligned
 759 001a 8B61     		str	r3, [r1, #24]	@ unaligned
 256:../Core/Src/protocol.c **** 		memcpy(&output->gps_y, input + 28, 4);
 760              		.loc 1 256 3 view .LVU166
 761 001c C369     		ldr	r3, [r0, #28]	@ unaligned
 762 001e CB61     		str	r3, [r1, #28]	@ unaligned
 257:../Core/Src/protocol.c **** 		memcpy(&output->gps_z, input + 32, 4);
 763              		.loc 1 257 3 view .LVU167
 764 0020 036A     		ldr	r3, [r0, #32]	@ unaligned
 765 0022 0B62     		str	r3, [r1, #32]	@ unaligned
 258:../Core/Src/protocol.c **** 		memcpy(&output->barometer, input + 36, 4);
 766              		.loc 1 258 3 view .LVU168
 767 0024 436A     		ldr	r3, [r0, #36]	@ unaligned
 768 0026 4B62     		str	r3, [r1, #36]	@ unaligned
 259:../Core/Src/protocol.c **** 		memcpy(&output->accel_bias_x, input + 40, 4);
 769              		.loc 1 259 3 view .LVU169
 770 0028 836A     		ldr	r3, [r0, #40]	@ unaligned
 771 002a 8B62     		str	r3, [r1, #40]	@ unaligned
 260:../Core/Src/protocol.c **** 		memcpy(&output->accel_bias_y, input + 44, 4);
 772              		.loc 1 260 3 view .LVU170
 773 002c C36A     		ldr	r3, [r0, #44]	@ unaligned
 774 002e CB62     		str	r3, [r1, #44]	@ unaligned
 261:../Core/Src/protocol.c **** 		memcpy(&output->accel_bias_z, input + 48, 4);
 775              		.loc 1 261 3 view .LVU171
 776 0030 036B     		ldr	r3, [r0, #48]	@ unaligned
 777 0032 0B63     		str	r3, [r1, #48]	@ unaligned
 262:../Core/Src/protocol.c **** 		memcpy(&output->gyro_bias_x, input + 52, 4);
 778              		.loc 1 262 3 view .LVU172
 779 0034 436B     		ldr	r3, [r0, #52]	@ unaligned
 780 0036 4B63     		str	r3, [r1, #52]	@ unaligned
 263:../Core/Src/protocol.c **** 		memcpy(&output->gyro_bias_y, input + 56, 4);
 781              		.loc 1 263 3 view .LVU173
 782 0038 836B     		ldr	r3, [r0, #56]	@ unaligned
 783 003a 8B63     		str	r3, [r1, #56]	@ unaligned
 264:../Core/Src/protocol.c **** 		memcpy(&output->gyro_bias_z, input + 60, 4);
 784              		.loc 1 264 3 view .LVU174
 785 003c C36B     		ldr	r3, [r0, #60]	@ unaligned
 786 003e CB63     		str	r3, [r1, #60]	@ unaligned
 265:../Core/Src/protocol.c **** 		memcpy(&output->gps_offset_x, input + 64, 4);
 787              		.loc 1 265 3 view .LVU175
ARM GAS  /tmp/ccJDKDJB.s 			page 19


 788 0040 036C     		ldr	r3, [r0, #64]	@ unaligned
 789 0042 0B64     		str	r3, [r1, #64]	@ unaligned
 266:../Core/Src/protocol.c **** 		memcpy(&output->gps_offset_y, input + 68, 4);
 790              		.loc 1 266 3 view .LVU176
 791 0044 436C     		ldr	r3, [r0, #68]	@ unaligned
 792 0046 4B64     		str	r3, [r1, #68]	@ unaligned
 267:../Core/Src/protocol.c **** 		memcpy(&output->gps_offset_z, input + 72, 4);
 793              		.loc 1 267 3 view .LVU177
 794 0048 836C     		ldr	r3, [r0, #72]	@ unaligned
 795 004a 8B64     		str	r3, [r1, #72]	@ unaligned
 268:../Core/Src/protocol.c **** 		memcpy(&output->barometer_offset, input + 76, 4);
 796              		.loc 1 268 3 view .LVU178
 797 004c C36C     		ldr	r3, [r0, #76]	@ unaligned
 798 004e CB64     		str	r3, [r1, #76]	@ unaligned
 269:../Core/Src/protocol.c **** 		memcpy(&output->timestamp, input + 80, 8);
 799              		.loc 1 269 3 view .LVU179
 800 0050 026D     		ldr	r2, [r0, #80]	@ unaligned
 801 0052 436D     		ldr	r3, [r0, #84]	@ unaligned
 802 0054 0A65     		str	r2, [r1, #80]	@ unaligned
 803 0056 4B65     		str	r3, [r1, #84]	@ unaligned
 270:../Core/Src/protocol.c **** 
 271:../Core/Src/protocol.c **** }...
 804              		.loc 1 271 1 is_stmt 0 view .LVU180
 805 0058 7047     		bx	lr
 806              		.cfi_endproc
 807              	.LFE18:
 809              		.text
 810              	.Letext0:
 811              		.file 2 "/usr/include/newlib/machine/_default_types.h"
 812              		.file 3 "/usr/lib/gcc/arm-none-eabi/10.3.1/include/stddef.h"
 813              		.file 4 "/usr/include/newlib/sys/_stdint.h"
 814              		.file 5 "../Core/Include/protocol.h"
ARM GAS  /tmp/ccJDKDJB.s 			page 20

