ARM GAS  /tmp/ccUz18aa.s 			page 1


   1              		.cpu cortex-m7
   2              		.eabi_attribute 28, 1
   3              		.eabi_attribute 20, 1
   4              		.eabi_attribute 21, 1
   5              		.eabi_attribute 23, 3
   6              		.eabi_attribute 24, 1
   7              		.eabi_attribute 25, 1
   8              		.eabi_attribute 26, 1
   9              		.eabi_attribute 30, 1
  10              		.eabi_attribute 34, 1
  11              		.eabi_attribute 18, 4
  12              		.file	"protocol.c"
  13              		.text
  14              	.Ltext0:
  15              		.cfi_sections	.debug_frame
  16              		.section	.text.get_msg_size,"ax",%progbits
  17              		.align	1
  18              		.global	get_msg_size
  19              		.arch armv7e-m
  20              		.syntax unified
  21              		.thumb
  22              		.thumb_func
  23              		.fpu fpv5-d16
  25              	get_msg_size:
  26              	.LVL0:
  27              	.LFB3:
  28              		.file 1 "../Core/Src/protocol.c"
   1:../Core/Src/protocol.c **** #include "protocol.h"
   2:../Core/Src/protocol.c **** #include <time.h>
   3:../Core/Src/protocol.c **** #include <stdbool.h>
   4:../Core/Src/protocol.c **** #include <stdint.h>
   5:../Core/Src/protocol.c **** #include <stdio.h>
   6:../Core/Src/protocol.c **** 
   7:../Core/Src/protocol.c **** //*************************************************************************************************
   8:../Core/Src/protocol.c **** //*************************************************************************************************
   9:../Core/Src/protocol.c **** //*************************************************************************************************
  10:../Core/Src/protocol.c **** // DISCLAIMER: THIS FILE WAS AUTO-GENERATED BY protocol_generator.py
  11:../Core/Src/protocol.c **** // DO NOT MODIFY THIS FILE DIRECTLY!
  12:../Core/Src/protocol.c **** // TO MODIFY THE PROTOCOL, EDIT protocol.json AND RE-RUN protocol_generator.py
  13:../Core/Src/protocol.c **** //*************************************************************************************************
  14:../Core/Src/protocol.c **** //*************************************************************************************************
  15:../Core/Src/protocol.c **** //*************************************************************************************************
  16:../Core/Src/protocol.c **** 
  17:../Core/Src/protocol.c **** 
  18:../Core/Src/protocol.c **** int get_msg_size(int message_id) {
  29              		.loc 1 18 34 view -0
  30              		.cfi_startproc
  31              		@ args = 0, pretend = 0, frame = 0
  32              		@ frame_needed = 0, uses_anonymous_args = 0
  33              		@ link register save eliminated.
  19:../Core/Src/protocol.c **** 	switch (message_id) {
  34              		.loc 1 19 2 view .LVU1
  35 0000 0238     		subs	r0, r0, #2
  36              	.LVL1:
  37              		.loc 1 19 2 is_stmt 0 view .LVU2
  38 0002 0428     		cmp	r0, #4
  39 0004 0AD8     		bhi	.L2
ARM GAS  /tmp/ccUz18aa.s 			page 2


  40 0006 DFE800F0 		tbb	[pc, r0]
  41              	.L4:
  42 000a 03       		.byte	(.L7-.L4)/2
  43 000b 0C       		.byte	(.L8-.L4)/2
  44 000c 05       		.byte	(.L6-.L4)/2
  45 000d 0C       		.byte	(.L8-.L4)/2
  46 000e 07       		.byte	(.L3-.L4)/2
  47 000f 00       		.p2align 1
  48              	.L7:
  49 0010 2020     		movs	r0, #32
  50              	.LVL2:
  51              		.loc 1 19 2 view .LVU3
  52 0012 7047     		bx	lr
  53              	.L6:
  20:../Core/Src/protocol.c **** 		case ROCKETKINEMATICS_MSG_ID:
  21:../Core/Src/protocol.c **** 			return ROCKETKINEMATICS_SIZE;
  22:../Core/Src/protocol.c **** 		case MASTERELECTRIC_MSG_ID:
  23:../Core/Src/protocol.c **** 			return MASTERELECTRIC_SIZE;
  24:../Core/Src/protocol.c **** 		case ROCKETSTATE_MSG_ID:
  25:../Core/Src/protocol.c **** 			return ROCKETSTATE_SIZE;
  54              		.loc 1 25 4 is_stmt 1 view .LVU4
  55              		.loc 1 25 11 is_stmt 0 view .LVU5
  56 0014 1020     		movs	r0, #16
  57 0016 7047     		bx	lr
  58              	.L3:
  26:../Core/Src/protocol.c **** 		case ACTUATORHEALTHS_MSG_ID:
  27:../Core/Src/protocol.c **** 			return ACTUATORHEALTHS_SIZE;
  28:../Core/Src/protocol.c **** 		case PARACHUTEDEPLOYMENTPHASE_MSG_ID:
  29:../Core/Src/protocol.c **** 			return PARACHUTEDEPLOYMENTPHASE_SIZE;
  59              		.loc 1 29 4 is_stmt 1 view .LVU6
  60              		.loc 1 29 11 is_stmt 0 view .LVU7
  61 0018 1020     		movs	r0, #16
  62 001a 7047     		bx	lr
  63              	.L2:
  30:../Core/Src/protocol.c **** 		default:
  31:../Core/Src/protocol.c **** 			return -1;
  64              		.loc 1 31 4 is_stmt 1 view .LVU8
  65              		.loc 1 31 11 is_stmt 0 view .LVU9
  66 001c 4FF0FF30 		mov	r0, #-1
  67 0020 7047     		bx	lr
  68              	.L8:
  23:../Core/Src/protocol.c **** 		case ROCKETSTATE_MSG_ID:
  69              		.loc 1 23 11 view .LVU10
  70 0022 1820     		movs	r0, #24
  32:../Core/Src/protocol.c **** 	}
  33:../Core/Src/protocol.c **** }
  71              		.loc 1 33 1 view .LVU11
  72 0024 7047     		bx	lr
  73              		.cfi_endproc
  74              	.LFE3:
  76              		.section	.text.is_data_send_msg,"ax",%progbits
  77              		.align	1
  78              		.global	is_data_send_msg
  79              		.syntax unified
  80              		.thumb
  81              		.thumb_func
  82              		.fpu fpv5-d16
ARM GAS  /tmp/ccUz18aa.s 			page 3


  84              	is_data_send_msg:
  85              	.LVL3:
  86              	.LFB4:
  34:../Core/Src/protocol.c **** 
  35:../Core/Src/protocol.c **** bool is_data_send_msg(int message_id) {
  87              		.loc 1 35 39 is_stmt 1 view -0
  88              		.cfi_startproc
  89              		@ args = 0, pretend = 0, frame = 0
  90              		@ frame_needed = 0, uses_anonymous_args = 0
  91              		@ link register save eliminated.
  36:../Core/Src/protocol.c **** 	return (message_id >= 2) && (message_id <= 6);
  92              		.loc 1 36 2 view .LVU13
  93              		.loc 1 36 27 is_stmt 0 view .LVU14
  94 0000 0238     		subs	r0, r0, #2
  95              	.LVL4:
  37:../Core/Src/protocol.c **** }
  96              		.loc 1 37 1 view .LVU15
  97 0002 0428     		cmp	r0, #4
  98 0004 8CBF     		ite	hi
  99 0006 0020     		movhi	r0, #0
 100              	.LVL5:
 101              		.loc 1 37 1 view .LVU16
 102 0008 0120     		movls	r0, #1
 103 000a 7047     		bx	lr
 104              		.cfi_endproc
 105              	.LFE4:
 107              		.text
 108              	.Letext0:
ARM GAS  /tmp/ccUz18aa.s 			page 4


DEFINED SYMBOLS
                            *ABS*:0000000000000000 protocol.c
     /tmp/ccUz18aa.s:17     .text.get_msg_size:0000000000000000 $t
     /tmp/ccUz18aa.s:25     .text.get_msg_size:0000000000000000 get_msg_size
     /tmp/ccUz18aa.s:42     .text.get_msg_size:000000000000000a $d
     /tmp/ccUz18aa.s:77     .text.is_data_send_msg:0000000000000000 $t
     /tmp/ccUz18aa.s:84     .text.is_data_send_msg:0000000000000000 is_data_send_msg
     /tmp/ccUz18aa.s:47     .text.get_msg_size:000000000000000f $d
     /tmp/ccUz18aa.s:47     .text.get_msg_size:0000000000000010 $t

NO UNDEFINED SYMBOLS
