ARM GAS  /var/folders/cy/8kgpsxf90rz6cg1g85ws44fm0000gn/T//ccsOzXaP.s 			page 1


   1              		.cpu cortex-m7
   2              		.arch armv7e-m
   3              		.fpu fpv5-d16
   4              		.eabi_attribute 28, 1
   5              		.eabi_attribute 20, 1
   6              		.eabi_attribute 21, 1
   7              		.eabi_attribute 23, 3
   8              		.eabi_attribute 24, 1
   9              		.eabi_attribute 25, 1
  10              		.eabi_attribute 26, 1
  11              		.eabi_attribute 30, 1
  12              		.eabi_attribute 34, 1
  13              		.eabi_attribute 18, 4
  14              		.file	"diskio.c"
  15              		.text
  16              	.Ltext0:
  17              		.cfi_sections	.debug_frame
  18              		.file 1 "../../Extensions/fatfs//src/diskio.c"
  19              		.section	.text.disk_status,"ax",%progbits
  20              		.align	1
  21              		.global	disk_status
  22              		.syntax unified
  23              		.thumb
  24              		.thumb_func
  26              	disk_status:
  27              	.LVL0:
  28              	.LFB350:
   1:../../Extensions/fatfs//src/diskio.c **** /*-----------------------------------------------------------------------*/
   2:../../Extensions/fatfs//src/diskio.c **** /* Low level disk I/O module skeleton for FatFs     (C)ChaN, 2017        */
   3:../../Extensions/fatfs//src/diskio.c **** /*                                                                       */
   4:../../Extensions/fatfs//src/diskio.c **** /*   Portions COPYRIGHT 2017 STMicroelectronics                          */
   5:../../Extensions/fatfs//src/diskio.c **** /*   Portions Copyright (C) 2017, ChaN, all right reserved               */
   6:../../Extensions/fatfs//src/diskio.c **** /*-----------------------------------------------------------------------*/
   7:../../Extensions/fatfs//src/diskio.c **** /* If a working storage control module is available, it should be        */
   8:../../Extensions/fatfs//src/diskio.c **** /* attached to the FatFs via a glue function rather than modifying it.   */
   9:../../Extensions/fatfs//src/diskio.c **** /* This is an example of glue functions to attach various existing      */
  10:../../Extensions/fatfs//src/diskio.c **** /* storage control modules to the FatFs module with a defined API.       */
  11:../../Extensions/fatfs//src/diskio.c **** /*-----------------------------------------------------------------------*/
  12:../../Extensions/fatfs//src/diskio.c **** 
  13:../../Extensions/fatfs//src/diskio.c **** /* Includes ------------------------------------------------------------------*/
  14:../../Extensions/fatfs//src/diskio.c **** #include "diskio.h"
  15:../../Extensions/fatfs//src/diskio.c **** #include "ff_gen_drv.h"
  16:../../Extensions/fatfs//src/diskio.c **** 
  17:../../Extensions/fatfs//src/diskio.c **** #if defined ( __GNUC__ )
  18:../../Extensions/fatfs//src/diskio.c **** #ifndef __weak
  19:../../Extensions/fatfs//src/diskio.c **** #define __weak __attribute__((weak))
  20:../../Extensions/fatfs//src/diskio.c **** #endif
  21:../../Extensions/fatfs//src/diskio.c **** #endif
  22:../../Extensions/fatfs//src/diskio.c **** 
  23:../../Extensions/fatfs//src/diskio.c **** /* Private typedef -----------------------------------------------------------*/
  24:../../Extensions/fatfs//src/diskio.c **** /* Private define ------------------------------------------------------------*/
  25:../../Extensions/fatfs//src/diskio.c **** /* Private variables ---------------------------------------------------------*/
  26:../../Extensions/fatfs//src/diskio.c **** extern Disk_drvTypeDef  disk;
  27:../../Extensions/fatfs//src/diskio.c **** 
  28:../../Extensions/fatfs//src/diskio.c **** /* Private function prototypes -----------------------------------------------*/
  29:../../Extensions/fatfs//src/diskio.c **** /* Private functions ---------------------------------------------------------*/
  30:../../Extensions/fatfs//src/diskio.c **** 
ARM GAS  /var/folders/cy/8kgpsxf90rz6cg1g85ws44fm0000gn/T//ccsOzXaP.s 			page 2


  31:../../Extensions/fatfs//src/diskio.c **** /**
  32:../../Extensions/fatfs//src/diskio.c ****   * @brief  Gets Disk Status
  33:../../Extensions/fatfs//src/diskio.c ****   * @param  pdrv: Physical drive number (0..)
  34:../../Extensions/fatfs//src/diskio.c ****   * @retval DSTATUS: Operation status
  35:../../Extensions/fatfs//src/diskio.c ****   */
  36:../../Extensions/fatfs//src/diskio.c **** DSTATUS disk_status (
  37:../../Extensions/fatfs//src/diskio.c **** 	BYTE pdrv		/* Physical drive number to identify the drive */
  38:../../Extensions/fatfs//src/diskio.c **** )
  39:../../Extensions/fatfs//src/diskio.c **** {
  29              		.loc 1 39 1 view -0
  30              		.cfi_startproc
  31              		@ args = 0, pretend = 0, frame = 0
  32              		@ frame_needed = 0, uses_anonymous_args = 0
  33              		.loc 1 39 1 is_stmt 0 view .LVU1
  34 0000 08B5     		push	{r3, lr}
  35              	.LCFI0:
  36              		.cfi_def_cfa_offset 8
  37              		.cfi_offset 3, -8
  38              		.cfi_offset 14, -4
  40:../../Extensions/fatfs//src/diskio.c ****   DSTATUS stat;
  39              		.loc 1 40 3 is_stmt 1 view .LVU2
  41:../../Extensions/fatfs//src/diskio.c **** 
  42:../../Extensions/fatfs//src/diskio.c ****   stat = disk.drv[pdrv]->disk_status(disk.lun[pdrv]);
  40              		.loc 1 42 3 view .LVU3
  41              		.loc 1 42 18 is_stmt 0 view .LVU4
  42 0002 044B     		ldr	r3, .L3
  43 0004 03EB8002 		add	r2, r3, r0, lsl #2
  44 0008 5268     		ldr	r2, [r2, #4]
  45              		.loc 1 42 24 view .LVU5
  46 000a 5268     		ldr	r2, [r2, #4]
  47              		.loc 1 42 10 view .LVU6
  48 000c 0344     		add	r3, r3, r0
  49 000e 187A     		ldrb	r0, [r3, #8]	@ zero_extendqisi2
  50              	.LVL1:
  51              		.loc 1 42 10 view .LVU7
  52 0010 9047     		blx	r2
  53              	.LVL2:
  43:../../Extensions/fatfs//src/diskio.c ****   return stat;
  54              		.loc 1 43 3 is_stmt 1 view .LVU8
  44:../../Extensions/fatfs//src/diskio.c **** }
  55              		.loc 1 44 1 is_stmt 0 view .LVU9
  56 0012 08BD     		pop	{r3, pc}
  57              	.L4:
  58              		.align	2
  59              	.L3:
  60 0014 00000000 		.word	disk
  61              		.cfi_endproc
  62              	.LFE350:
  64              		.section	.text.disk_initialize,"ax",%progbits
  65              		.align	1
  66              		.global	disk_initialize
  67              		.syntax unified
  68              		.thumb
  69              		.thumb_func
  71              	disk_initialize:
  72              	.LVL3:
  73              	.LFB351:
ARM GAS  /var/folders/cy/8kgpsxf90rz6cg1g85ws44fm0000gn/T//ccsOzXaP.s 			page 3


  45:../../Extensions/fatfs//src/diskio.c **** 
  46:../../Extensions/fatfs//src/diskio.c **** /**
  47:../../Extensions/fatfs//src/diskio.c ****   * @brief  Initializes a Drive
  48:../../Extensions/fatfs//src/diskio.c ****   * @param  pdrv: Physical drive number (0..)
  49:../../Extensions/fatfs//src/diskio.c ****   * @retval DSTATUS: Operation status
  50:../../Extensions/fatfs//src/diskio.c ****   */
  51:../../Extensions/fatfs//src/diskio.c **** DSTATUS disk_initialize (
  52:../../Extensions/fatfs//src/diskio.c **** 	BYTE pdrv				/* Physical drive nmuber to identify the drive */
  53:../../Extensions/fatfs//src/diskio.c **** )
  54:../../Extensions/fatfs//src/diskio.c **** {
  74              		.loc 1 54 1 is_stmt 1 view -0
  75              		.cfi_startproc
  76              		@ args = 0, pretend = 0, frame = 0
  77              		@ frame_needed = 0, uses_anonymous_args = 0
  55:../../Extensions/fatfs//src/diskio.c ****   DSTATUS stat = RES_OK;
  78              		.loc 1 55 3 view .LVU11
  56:../../Extensions/fatfs//src/diskio.c **** 
  57:../../Extensions/fatfs//src/diskio.c ****   if(disk.is_initialized[pdrv] == 0)
  79              		.loc 1 57 3 view .LVU12
  80              		.loc 1 57 25 is_stmt 0 view .LVU13
  81 0000 094B     		ldr	r3, .L12
  82 0002 1B5C     		ldrb	r3, [r3, r0]	@ zero_extendqisi2
  83              		.loc 1 57 5 view .LVU14
  84 0004 73B9     		cbnz	r3, .L7
  54:../../Extensions/fatfs//src/diskio.c ****   DSTATUS stat = RES_OK;
  85              		.loc 1 54 1 view .LVU15
  86 0006 10B5     		push	{r4, lr}
  87              	.LCFI1:
  88              		.cfi_def_cfa_offset 8
  89              		.cfi_offset 4, -8
  90              		.cfi_offset 14, -4
  91 0008 0446     		mov	r4, r0
  58:../../Extensions/fatfs//src/diskio.c ****   {
  59:../../Extensions/fatfs//src/diskio.c ****     stat = disk.drv[pdrv]->disk_initialize(disk.lun[pdrv]);
  92              		.loc 1 59 5 is_stmt 1 view .LVU16
  93              		.loc 1 59 20 is_stmt 0 view .LVU17
  94 000a 074B     		ldr	r3, .L12
  95 000c 03EB8002 		add	r2, r3, r0, lsl #2
  96 0010 5268     		ldr	r2, [r2, #4]
  97              		.loc 1 59 26 view .LVU18
  98 0012 1268     		ldr	r2, [r2]
  99              		.loc 1 59 12 view .LVU19
 100 0014 0344     		add	r3, r3, r0
 101 0016 187A     		ldrb	r0, [r3, #8]	@ zero_extendqisi2
 102              	.LVL4:
 103              		.loc 1 59 12 view .LVU20
 104 0018 9047     		blx	r2
 105              	.LVL5:
  60:../../Extensions/fatfs//src/diskio.c ****     if(stat == RES_OK)
 106              		.loc 1 60 5 is_stmt 1 view .LVU21
 107              		.loc 1 60 7 is_stmt 0 view .LVU22
 108 001a 10B9     		cbnz	r0, .L6
  61:../../Extensions/fatfs//src/diskio.c ****     {
  62:../../Extensions/fatfs//src/diskio.c ****       disk.is_initialized[pdrv] = 1;
 109              		.loc 1 62 7 is_stmt 1 view .LVU23
 110              		.loc 1 62 33 is_stmt 0 view .LVU24
 111 001c 024B     		ldr	r3, .L12
ARM GAS  /var/folders/cy/8kgpsxf90rz6cg1g85ws44fm0000gn/T//ccsOzXaP.s 			page 4


 112 001e 0122     		movs	r2, #1
 113 0020 1A55     		strb	r2, [r3, r4]
 114              	.L6:
  63:../../Extensions/fatfs//src/diskio.c ****     }
  64:../../Extensions/fatfs//src/diskio.c ****   }
  65:../../Extensions/fatfs//src/diskio.c ****   return stat;
 115              		.loc 1 65 3 is_stmt 1 view .LVU25
  66:../../Extensions/fatfs//src/diskio.c **** }
 116              		.loc 1 66 1 is_stmt 0 view .LVU26
 117 0022 10BD     		pop	{r4, pc}
 118              	.LVL6:
 119              	.L7:
 120              	.LCFI2:
 121              		.cfi_def_cfa_offset 0
 122              		.cfi_restore 4
 123              		.cfi_restore 14
  55:../../Extensions/fatfs//src/diskio.c **** 
 124              		.loc 1 55 11 view .LVU27
 125 0024 0020     		movs	r0, #0
 126              	.LVL7:
  65:../../Extensions/fatfs//src/diskio.c **** }
 127              		.loc 1 65 3 is_stmt 1 view .LVU28
 128              		.loc 1 66 1 is_stmt 0 view .LVU29
 129 0026 7047     		bx	lr
 130              	.L13:
 131              		.align	2
 132              	.L12:
 133 0028 00000000 		.word	disk
 134              		.cfi_endproc
 135              	.LFE351:
 137              		.section	.text.disk_read,"ax",%progbits
 138              		.align	1
 139              		.global	disk_read
 140              		.syntax unified
 141              		.thumb
 142              		.thumb_func
 144              	disk_read:
 145              	.LVL8:
 146              	.LFB352:
  67:../../Extensions/fatfs//src/diskio.c **** 
  68:../../Extensions/fatfs//src/diskio.c **** /**
  69:../../Extensions/fatfs//src/diskio.c ****   * @brief  Reads Sector(s)
  70:../../Extensions/fatfs//src/diskio.c ****   * @param  pdrv: Physical drive number (0..)
  71:../../Extensions/fatfs//src/diskio.c ****   * @param  *buff: Data buffer to store read data
  72:../../Extensions/fatfs//src/diskio.c ****   * @param  sector: Sector address (LBA)
  73:../../Extensions/fatfs//src/diskio.c ****   * @param  count: Number of sectors to read (1..128)
  74:../../Extensions/fatfs//src/diskio.c ****   * @retval DRESULT: Operation result
  75:../../Extensions/fatfs//src/diskio.c ****   */
  76:../../Extensions/fatfs//src/diskio.c **** DRESULT disk_read (
  77:../../Extensions/fatfs//src/diskio.c **** 	BYTE pdrv,		/* Physical drive nmuber to identify the drive */
  78:../../Extensions/fatfs//src/diskio.c **** 	BYTE *buff,		/* Data buffer to store read data */
  79:../../Extensions/fatfs//src/diskio.c **** 	DWORD sector,	        /* Sector address in LBA */
  80:../../Extensions/fatfs//src/diskio.c **** 	UINT count		/* Number of sectors to read */
  81:../../Extensions/fatfs//src/diskio.c **** )
  82:../../Extensions/fatfs//src/diskio.c **** {
 147              		.loc 1 82 1 is_stmt 1 view -0
 148              		.cfi_startproc
ARM GAS  /var/folders/cy/8kgpsxf90rz6cg1g85ws44fm0000gn/T//ccsOzXaP.s 			page 5


 149              		@ args = 0, pretend = 0, frame = 0
 150              		@ frame_needed = 0, uses_anonymous_args = 0
 151              		.loc 1 82 1 is_stmt 0 view .LVU31
 152 0000 38B5     		push	{r3, r4, r5, lr}
 153              	.LCFI3:
 154              		.cfi_def_cfa_offset 16
 155              		.cfi_offset 3, -16
 156              		.cfi_offset 4, -12
 157              		.cfi_offset 5, -8
 158              		.cfi_offset 14, -4
  83:../../Extensions/fatfs//src/diskio.c ****   DRESULT res;
 159              		.loc 1 83 3 is_stmt 1 view .LVU32
  84:../../Extensions/fatfs//src/diskio.c **** 
  85:../../Extensions/fatfs//src/diskio.c ****   res = disk.drv[pdrv]->disk_read(disk.lun[pdrv], buff, sector, count);
 160              		.loc 1 85 3 view .LVU33
 161              		.loc 1 85 17 is_stmt 0 view .LVU34
 162 0002 044C     		ldr	r4, .L16
 163 0004 04EB8005 		add	r5, r4, r0, lsl #2
 164 0008 6D68     		ldr	r5, [r5, #4]
 165              		.loc 1 85 23 view .LVU35
 166 000a AD68     		ldr	r5, [r5, #8]
 167              		.loc 1 85 9 view .LVU36
 168 000c 0444     		add	r4, r4, r0
 169 000e 207A     		ldrb	r0, [r4, #8]	@ zero_extendqisi2
 170              	.LVL9:
 171              		.loc 1 85 9 view .LVU37
 172 0010 A847     		blx	r5
 173              	.LVL10:
  86:../../Extensions/fatfs//src/diskio.c ****   return res;
 174              		.loc 1 86 3 is_stmt 1 view .LVU38
  87:../../Extensions/fatfs//src/diskio.c **** }
 175              		.loc 1 87 1 is_stmt 0 view .LVU39
 176 0012 38BD     		pop	{r3, r4, r5, pc}
 177              	.L17:
 178              		.align	2
 179              	.L16:
 180 0014 00000000 		.word	disk
 181              		.cfi_endproc
 182              	.LFE352:
 184              		.section	.text.disk_write,"ax",%progbits
 185              		.align	1
 186              		.global	disk_write
 187              		.syntax unified
 188              		.thumb
 189              		.thumb_func
 191              	disk_write:
 192              	.LVL11:
 193              	.LFB353:
  88:../../Extensions/fatfs//src/diskio.c **** 
  89:../../Extensions/fatfs//src/diskio.c **** /**
  90:../../Extensions/fatfs//src/diskio.c ****   * @brief  Writes Sector(s)
  91:../../Extensions/fatfs//src/diskio.c ****   * @param  pdrv: Physical drive number (0..)
  92:../../Extensions/fatfs//src/diskio.c ****   * @param  *buff: Data to be written
  93:../../Extensions/fatfs//src/diskio.c ****   * @param  sector: Sector address (LBA)
  94:../../Extensions/fatfs//src/diskio.c ****   * @param  count: Number of sectors to write (1..128)
  95:../../Extensions/fatfs//src/diskio.c ****   * @retval DRESULT: Operation result
  96:../../Extensions/fatfs//src/diskio.c ****   */
ARM GAS  /var/folders/cy/8kgpsxf90rz6cg1g85ws44fm0000gn/T//ccsOzXaP.s 			page 6


  97:../../Extensions/fatfs//src/diskio.c **** #if _USE_WRITE == 1
  98:../../Extensions/fatfs//src/diskio.c **** DRESULT disk_write (
  99:../../Extensions/fatfs//src/diskio.c **** 	BYTE pdrv,		/* Physical drive nmuber to identify the drive */
 100:../../Extensions/fatfs//src/diskio.c **** 	const BYTE *buff,	/* Data to be written */
 101:../../Extensions/fatfs//src/diskio.c **** 	DWORD sector,		/* Sector address in LBA */
 102:../../Extensions/fatfs//src/diskio.c **** 	UINT count        	/* Number of sectors to write */
 103:../../Extensions/fatfs//src/diskio.c **** )
 104:../../Extensions/fatfs//src/diskio.c **** {
 194              		.loc 1 104 1 is_stmt 1 view -0
 195              		.cfi_startproc
 196              		@ args = 0, pretend = 0, frame = 0
 197              		@ frame_needed = 0, uses_anonymous_args = 0
 198              		.loc 1 104 1 is_stmt 0 view .LVU41
 199 0000 38B5     		push	{r3, r4, r5, lr}
 200              	.LCFI4:
 201              		.cfi_def_cfa_offset 16
 202              		.cfi_offset 3, -16
 203              		.cfi_offset 4, -12
 204              		.cfi_offset 5, -8
 205              		.cfi_offset 14, -4
 105:../../Extensions/fatfs//src/diskio.c ****   DRESULT res;
 206              		.loc 1 105 3 is_stmt 1 view .LVU42
 106:../../Extensions/fatfs//src/diskio.c **** 
 107:../../Extensions/fatfs//src/diskio.c ****   res = disk.drv[pdrv]->disk_write(disk.lun[pdrv], buff, sector, count);
 207              		.loc 1 107 3 view .LVU43
 208              		.loc 1 107 17 is_stmt 0 view .LVU44
 209 0002 044C     		ldr	r4, .L20
 210 0004 04EB8005 		add	r5, r4, r0, lsl #2
 211 0008 6D68     		ldr	r5, [r5, #4]
 212              		.loc 1 107 23 view .LVU45
 213 000a ED68     		ldr	r5, [r5, #12]
 214              		.loc 1 107 9 view .LVU46
 215 000c 0444     		add	r4, r4, r0
 216 000e 207A     		ldrb	r0, [r4, #8]	@ zero_extendqisi2
 217              	.LVL12:
 218              		.loc 1 107 9 view .LVU47
 219 0010 A847     		blx	r5
 220              	.LVL13:
 108:../../Extensions/fatfs//src/diskio.c ****   return res;
 221              		.loc 1 108 3 is_stmt 1 view .LVU48
 109:../../Extensions/fatfs//src/diskio.c **** }
 222              		.loc 1 109 1 is_stmt 0 view .LVU49
 223 0012 38BD     		pop	{r3, r4, r5, pc}
 224              	.L21:
 225              		.align	2
 226              	.L20:
 227 0014 00000000 		.word	disk
 228              		.cfi_endproc
 229              	.LFE353:
 231              		.section	.text.disk_ioctl,"ax",%progbits
 232              		.align	1
 233              		.global	disk_ioctl
 234              		.syntax unified
 235              		.thumb
 236              		.thumb_func
 238              	disk_ioctl:
 239              	.LVL14:
ARM GAS  /var/folders/cy/8kgpsxf90rz6cg1g85ws44fm0000gn/T//ccsOzXaP.s 			page 7


 240              	.LFB354:
 110:../../Extensions/fatfs//src/diskio.c **** #endif /* _USE_WRITE == 1 */
 111:../../Extensions/fatfs//src/diskio.c **** 
 112:../../Extensions/fatfs//src/diskio.c **** /**
 113:../../Extensions/fatfs//src/diskio.c ****   * @brief  I/O control operation
 114:../../Extensions/fatfs//src/diskio.c ****   * @param  pdrv: Physical drive number (0..)
 115:../../Extensions/fatfs//src/diskio.c ****   * @param  cmd: Control code
 116:../../Extensions/fatfs//src/diskio.c ****   * @param  *buff: Buffer to send/receive control data
 117:../../Extensions/fatfs//src/diskio.c ****   * @retval DRESULT: Operation result
 118:../../Extensions/fatfs//src/diskio.c ****   */
 119:../../Extensions/fatfs//src/diskio.c **** #if _USE_IOCTL == 1
 120:../../Extensions/fatfs//src/diskio.c **** DRESULT disk_ioctl (
 121:../../Extensions/fatfs//src/diskio.c **** 	BYTE pdrv,		/* Physical drive nmuber (0..) */
 122:../../Extensions/fatfs//src/diskio.c **** 	BYTE cmd,		/* Control code */
 123:../../Extensions/fatfs//src/diskio.c **** 	void *buff		/* Buffer to send/receive control data */
 124:../../Extensions/fatfs//src/diskio.c **** )
 125:../../Extensions/fatfs//src/diskio.c **** {
 241              		.loc 1 125 1 is_stmt 1 view -0
 242              		.cfi_startproc
 243              		@ args = 0, pretend = 0, frame = 0
 244              		@ frame_needed = 0, uses_anonymous_args = 0
 245              		.loc 1 125 1 is_stmt 0 view .LVU51
 246 0000 10B5     		push	{r4, lr}
 247              	.LCFI5:
 248              		.cfi_def_cfa_offset 8
 249              		.cfi_offset 4, -8
 250              		.cfi_offset 14, -4
 126:../../Extensions/fatfs//src/diskio.c ****   DRESULT res;
 251              		.loc 1 126 3 is_stmt 1 view .LVU52
 127:../../Extensions/fatfs//src/diskio.c **** 
 128:../../Extensions/fatfs//src/diskio.c ****   res = disk.drv[pdrv]->disk_ioctl(disk.lun[pdrv], cmd, buff);
 252              		.loc 1 128 3 view .LVU53
 253              		.loc 1 128 17 is_stmt 0 view .LVU54
 254 0002 044B     		ldr	r3, .L24
 255 0004 03EB8004 		add	r4, r3, r0, lsl #2
 256 0008 6468     		ldr	r4, [r4, #4]
 257              		.loc 1 128 23 view .LVU55
 258 000a 2469     		ldr	r4, [r4, #16]
 259              		.loc 1 128 9 view .LVU56
 260 000c 0344     		add	r3, r3, r0
 261 000e 187A     		ldrb	r0, [r3, #8]	@ zero_extendqisi2
 262              	.LVL15:
 263              		.loc 1 128 9 view .LVU57
 264 0010 A047     		blx	r4
 265              	.LVL16:
 129:../../Extensions/fatfs//src/diskio.c ****   return res;
 266              		.loc 1 129 3 is_stmt 1 view .LVU58
 130:../../Extensions/fatfs//src/diskio.c **** }
 267              		.loc 1 130 1 is_stmt 0 view .LVU59
 268 0012 10BD     		pop	{r4, pc}
 269              	.L25:
 270              		.align	2
 271              	.L24:
 272 0014 00000000 		.word	disk
 273              		.cfi_endproc
 274              	.LFE354:
 276              		.section	.text.get_fattime,"ax",%progbits
ARM GAS  /var/folders/cy/8kgpsxf90rz6cg1g85ws44fm0000gn/T//ccsOzXaP.s 			page 8


 277              		.align	1
 278              		.weak	get_fattime
 279              		.syntax unified
 280              		.thumb
 281              		.thumb_func
 283              	get_fattime:
 284              	.LFB355:
 131:../../Extensions/fatfs//src/diskio.c **** #endif /* _USE_IOCTL == 1 */
 132:../../Extensions/fatfs//src/diskio.c **** 
 133:../../Extensions/fatfs//src/diskio.c **** /**
 134:../../Extensions/fatfs//src/diskio.c ****   * @brief  Gets Time from RTC
 135:../../Extensions/fatfs//src/diskio.c ****   * @param  None
 136:../../Extensions/fatfs//src/diskio.c ****   * @retval Time in DWORD
 137:../../Extensions/fatfs//src/diskio.c ****   */
 138:../../Extensions/fatfs//src/diskio.c **** __weak DWORD get_fattime (void)
 139:../../Extensions/fatfs//src/diskio.c **** {
 285              		.loc 1 139 1 is_stmt 1 view -0
 286              		.cfi_startproc
 287              		@ args = 0, pretend = 0, frame = 0
 288              		@ frame_needed = 0, uses_anonymous_args = 0
 289              		@ link register save eliminated.
 140:../../Extensions/fatfs//src/diskio.c ****   return 0;
 290              		.loc 1 140 3 view .LVU61
 141:../../Extensions/fatfs//src/diskio.c **** }
 291              		.loc 1 141 1 is_stmt 0 view .LVU62
 292 0000 0020     		movs	r0, #0
 293 0002 7047     		bx	lr
 294              		.cfi_endproc
 295              	.LFE355:
 297              		.text
 298              	.Letext0:
 299              		.file 2 "../../Extensions/fatfs//src/integer.h"
 300              		.file 3 "../../Extensions/fatfs//src/diskio.h"
 301              		.file 4 "/Applications/ArmGNUToolchain/14.3.rel1/arm-none-eabi/arm-none-eabi/include/machine/_defa
 302              		.file 5 "/Applications/ArmGNUToolchain/14.3.rel1/arm-none-eabi/arm-none-eabi/include/sys/_stdint.h
 303              		.file 6 "../../Extensions/fatfs//src/ff_gen_drv.h"
ARM GAS  /var/folders/cy/8kgpsxf90rz6cg1g85ws44fm0000gn/T//ccsOzXaP.s 			page 9

