ARM GAS  /var/folders/cy/8kgpsxf90rz6cg1g85ws44fm0000gn/T//cczI5vHG.s 			page 1


   1              		.cpu cortex-m7
   2              		.arch armv7e-m
   3              		.fpu fpv5-d16
   4              		.eabi_attribute 28, 1
   5              		.eabi_attribute 20, 1
   6              		.eabi_attribute 21, 1
   7              		.eabi_attribute 23, 3
   8              		.eabi_attribute 24, 1
   9              		.eabi_attribute 25, 1
  10              		.eabi_attribute 26, 1
  11              		.eabi_attribute 30, 1
  12              		.eabi_attribute 34, 1
  13              		.eabi_attribute 18, 4
  14              		.file	"stm32h7xx_it.c"
  15              		.text
  16              	.Ltext0:
  17              		.cfi_sections	.debug_frame
  18              		.file 1 "Core/Src/stm32h7xx_it.c"
  19              		.section	.text.NMI_Handler,"ax",%progbits
  20              		.align	1
  21              		.global	NMI_Handler
  22              		.syntax unified
  23              		.thumb
  24              		.thumb_func
  26              	NMI_Handler:
  27              	.LFB350:
   1:Core/Src/stm32h7xx_it.c **** /* USER CODE BEGIN Header */
   2:Core/Src/stm32h7xx_it.c **** /**
   3:Core/Src/stm32h7xx_it.c ****   ******************************************************************************
   4:Core/Src/stm32h7xx_it.c ****   * @file    stm32h7xx_it.c
   5:Core/Src/stm32h7xx_it.c ****   * @brief   Interrupt Service Routines.
   6:Core/Src/stm32h7xx_it.c ****   ******************************************************************************
   7:Core/Src/stm32h7xx_it.c ****   * @attention
   8:Core/Src/stm32h7xx_it.c ****   *
   9:Core/Src/stm32h7xx_it.c ****   * Copyright (c) 2024 STMicroelectronics.
  10:Core/Src/stm32h7xx_it.c ****   * All rights reserved.
  11:Core/Src/stm32h7xx_it.c ****   *
  12:Core/Src/stm32h7xx_it.c ****   * This software is licensed under terms that can be found in the LICENSE file
  13:Core/Src/stm32h7xx_it.c ****   * in the root directory of this software component.
  14:Core/Src/stm32h7xx_it.c ****   * If no LICENSE file comes with this software, it is provided AS-IS.
  15:Core/Src/stm32h7xx_it.c ****   *
  16:Core/Src/stm32h7xx_it.c ****   ******************************************************************************
  17:Core/Src/stm32h7xx_it.c ****   */
  18:Core/Src/stm32h7xx_it.c **** /* USER CODE END Header */
  19:Core/Src/stm32h7xx_it.c **** 
  20:Core/Src/stm32h7xx_it.c **** /* Includes ------------------------------------------------------------------*/
  21:Core/Src/stm32h7xx_it.c **** #include "main.h"
  22:Core/Src/stm32h7xx_it.c **** #include "stm32h7xx_it.h"
  23:Core/Src/stm32h7xx_it.c **** /* Private includes ----------------------------------------------------------*/
  24:Core/Src/stm32h7xx_it.c **** /* USER CODE BEGIN Includes */
  25:Core/Src/stm32h7xx_it.c **** /* USER CODE END Includes */
  26:Core/Src/stm32h7xx_it.c **** 
  27:Core/Src/stm32h7xx_it.c **** /* Private typedef -----------------------------------------------------------*/
  28:Core/Src/stm32h7xx_it.c **** /* USER CODE BEGIN TD */
  29:Core/Src/stm32h7xx_it.c **** 
  30:Core/Src/stm32h7xx_it.c **** /* USER CODE END TD */
  31:Core/Src/stm32h7xx_it.c **** 
ARM GAS  /var/folders/cy/8kgpsxf90rz6cg1g85ws44fm0000gn/T//cczI5vHG.s 			page 2


  32:Core/Src/stm32h7xx_it.c **** /* Private define ------------------------------------------------------------*/
  33:Core/Src/stm32h7xx_it.c **** /* USER CODE BEGIN PD */
  34:Core/Src/stm32h7xx_it.c **** 
  35:Core/Src/stm32h7xx_it.c **** /* USER CODE END PD */
  36:Core/Src/stm32h7xx_it.c **** 
  37:Core/Src/stm32h7xx_it.c **** /* Private macro -------------------------------------------------------------*/
  38:Core/Src/stm32h7xx_it.c **** /* USER CODE BEGIN PM */
  39:Core/Src/stm32h7xx_it.c **** 
  40:Core/Src/stm32h7xx_it.c **** /* USER CODE END PM */
  41:Core/Src/stm32h7xx_it.c **** 
  42:Core/Src/stm32h7xx_it.c **** /* Private variables ---------------------------------------------------------*/
  43:Core/Src/stm32h7xx_it.c **** /* USER CODE BEGIN PV */
  44:Core/Src/stm32h7xx_it.c **** 
  45:Core/Src/stm32h7xx_it.c **** /* USER CODE END PV */
  46:Core/Src/stm32h7xx_it.c **** 
  47:Core/Src/stm32h7xx_it.c **** /* Private function prototypes -----------------------------------------------*/
  48:Core/Src/stm32h7xx_it.c **** /* USER CODE BEGIN PFP */
  49:Core/Src/stm32h7xx_it.c **** 
  50:Core/Src/stm32h7xx_it.c **** /* USER CODE END PFP */
  51:Core/Src/stm32h7xx_it.c **** 
  52:Core/Src/stm32h7xx_it.c **** /* Private user code ---------------------------------------------------------*/
  53:Core/Src/stm32h7xx_it.c **** /* USER CODE BEGIN 0 */
  54:Core/Src/stm32h7xx_it.c **** 
  55:Core/Src/stm32h7xx_it.c **** /* USER CODE END 0 */
  56:Core/Src/stm32h7xx_it.c **** 
  57:Core/Src/stm32h7xx_it.c **** /* External variables --------------------------------------------------------*/
  58:Core/Src/stm32h7xx_it.c **** extern ADC_HandleTypeDef hadc1;
  59:Core/Src/stm32h7xx_it.c **** extern ADC_HandleTypeDef hadc2;
  60:Core/Src/stm32h7xx_it.c **** extern ADC_HandleTypeDef hadc3;
  61:Core/Src/stm32h7xx_it.c **** extern OSPI_HandleTypeDef hospi1;
  62:Core/Src/stm32h7xx_it.c **** extern TIM_HandleTypeDef htim2;
  63:Core/Src/stm32h7xx_it.c **** extern UART_HandleTypeDef huart4;
  64:Core/Src/stm32h7xx_it.c **** extern UART_HandleTypeDef huart5;
  65:Core/Src/stm32h7xx_it.c **** extern UART_HandleTypeDef huart2;
  66:Core/Src/stm32h7xx_it.c **** extern TIM_HandleTypeDef htim1;
  67:Core/Src/stm32h7xx_it.c **** 
  68:Core/Src/stm32h7xx_it.c **** /* USER CODE BEGIN EV */
  69:Core/Src/stm32h7xx_it.c **** 
  70:Core/Src/stm32h7xx_it.c **** /* USER CODE END EV */
  71:Core/Src/stm32h7xx_it.c **** 
  72:Core/Src/stm32h7xx_it.c **** /******************************************************************************/
  73:Core/Src/stm32h7xx_it.c **** /*           Cortex Processor Interruption and Exception Handlers          */
  74:Core/Src/stm32h7xx_it.c **** /******************************************************************************/
  75:Core/Src/stm32h7xx_it.c **** /**
  76:Core/Src/stm32h7xx_it.c ****   * @brief This function handles Non maskable interrupt.
  77:Core/Src/stm32h7xx_it.c ****   */
  78:Core/Src/stm32h7xx_it.c **** void NMI_Handler(void)
  79:Core/Src/stm32h7xx_it.c **** {
  28              		.loc 1 79 1 view -0
  29              		.cfi_startproc
  30              		@ Volatile: function does not return.
  31              		@ args = 0, pretend = 0, frame = 0
  32              		@ frame_needed = 0, uses_anonymous_args = 0
  33              		@ link register save eliminated.
  34              	.L2:
  80:Core/Src/stm32h7xx_it.c ****   /* USER CODE BEGIN NonMaskableInt_IRQn 0 */
  81:Core/Src/stm32h7xx_it.c **** 
ARM GAS  /var/folders/cy/8kgpsxf90rz6cg1g85ws44fm0000gn/T//cczI5vHG.s 			page 3


  82:Core/Src/stm32h7xx_it.c ****   /* USER CODE END NonMaskableInt_IRQn 0 */
  83:Core/Src/stm32h7xx_it.c ****   /* USER CODE BEGIN NonMaskableInt_IRQn 1 */
  84:Core/Src/stm32h7xx_it.c ****    while (1)
  35              		.loc 1 84 4 view .LVU1
  85:Core/Src/stm32h7xx_it.c ****   {
  86:Core/Src/stm32h7xx_it.c ****   }
  36              		.loc 1 86 3 view .LVU2
  84:Core/Src/stm32h7xx_it.c ****   {
  37              		.loc 1 84 10 view .LVU3
  38 0000 FEE7     		b	.L2
  39              		.cfi_endproc
  40              	.LFE350:
  42              		.section	.text.HardFault_Handler,"ax",%progbits
  43              		.align	1
  44              		.global	HardFault_Handler
  45              		.syntax unified
  46              		.thumb
  47              		.thumb_func
  49              	HardFault_Handler:
  50              	.LFB351:
  87:Core/Src/stm32h7xx_it.c ****   /* USER CODE END NonMaskableInt_IRQn 1 */
  88:Core/Src/stm32h7xx_it.c **** }
  89:Core/Src/stm32h7xx_it.c **** 
  90:Core/Src/stm32h7xx_it.c **** /**
  91:Core/Src/stm32h7xx_it.c ****   * @brief This function handles Hard fault interrupt.
  92:Core/Src/stm32h7xx_it.c ****   */
  93:Core/Src/stm32h7xx_it.c **** void HardFault_Handler(void)
  94:Core/Src/stm32h7xx_it.c **** {
  51              		.loc 1 94 1 view -0
  52              		.cfi_startproc
  53              		@ Volatile: function does not return.
  54              		@ args = 0, pretend = 0, frame = 0
  55              		@ frame_needed = 0, uses_anonymous_args = 0
  56              		@ link register save eliminated.
  57              	.L4:
  95:Core/Src/stm32h7xx_it.c ****   /* USER CODE BEGIN HardFault_IRQn 0 */
  96:Core/Src/stm32h7xx_it.c **** 
  97:Core/Src/stm32h7xx_it.c ****   /* USER CODE END HardFault_IRQn 0 */
  98:Core/Src/stm32h7xx_it.c ****   while (1)
  58              		.loc 1 98 3 view .LVU5
  99:Core/Src/stm32h7xx_it.c ****   {
 100:Core/Src/stm32h7xx_it.c ****     /* USER CODE BEGIN W1_HardFault_IRQn 0 */
 101:Core/Src/stm32h7xx_it.c ****     /* USER CODE END W1_HardFault_IRQn 0 */
 102:Core/Src/stm32h7xx_it.c ****   }
  59              		.loc 1 102 3 view .LVU6
  98:Core/Src/stm32h7xx_it.c ****   {
  60              		.loc 1 98 9 view .LVU7
  61 0000 FEE7     		b	.L4
  62              		.cfi_endproc
  63              	.LFE351:
  65              		.section	.text.MemManage_Handler,"ax",%progbits
  66              		.align	1
  67              		.global	MemManage_Handler
  68              		.syntax unified
  69              		.thumb
  70              		.thumb_func
  72              	MemManage_Handler:
ARM GAS  /var/folders/cy/8kgpsxf90rz6cg1g85ws44fm0000gn/T//cczI5vHG.s 			page 4


  73              	.LFB352:
 103:Core/Src/stm32h7xx_it.c **** }
 104:Core/Src/stm32h7xx_it.c **** 
 105:Core/Src/stm32h7xx_it.c **** /**
 106:Core/Src/stm32h7xx_it.c ****   * @brief This function handles Memory management fault.
 107:Core/Src/stm32h7xx_it.c ****   */
 108:Core/Src/stm32h7xx_it.c **** void MemManage_Handler(void)
 109:Core/Src/stm32h7xx_it.c **** {
  74              		.loc 1 109 1 view -0
  75              		.cfi_startproc
  76              		@ Volatile: function does not return.
  77              		@ args = 0, pretend = 0, frame = 0
  78              		@ frame_needed = 0, uses_anonymous_args = 0
  79              		@ link register save eliminated.
  80              	.L6:
 110:Core/Src/stm32h7xx_it.c ****   /* USER CODE BEGIN MemoryManagement_IRQn 0 */
 111:Core/Src/stm32h7xx_it.c **** 
 112:Core/Src/stm32h7xx_it.c ****   /* USER CODE END MemoryManagement_IRQn 0 */
 113:Core/Src/stm32h7xx_it.c ****   while (1)
  81              		.loc 1 113 3 view .LVU9
 114:Core/Src/stm32h7xx_it.c ****   {
 115:Core/Src/stm32h7xx_it.c ****     /* USER CODE BEGIN W1_MemoryManagement_IRQn 0 */
 116:Core/Src/stm32h7xx_it.c ****     /* USER CODE END W1_MemoryManagement_IRQn 0 */
 117:Core/Src/stm32h7xx_it.c ****   }
  82              		.loc 1 117 3 view .LVU10
 113:Core/Src/stm32h7xx_it.c ****   {
  83              		.loc 1 113 9 view .LVU11
  84 0000 FEE7     		b	.L6
  85              		.cfi_endproc
  86              	.LFE352:
  88              		.section	.text.BusFault_Handler,"ax",%progbits
  89              		.align	1
  90              		.global	BusFault_Handler
  91              		.syntax unified
  92              		.thumb
  93              		.thumb_func
  95              	BusFault_Handler:
  96              	.LFB353:
 118:Core/Src/stm32h7xx_it.c **** }
 119:Core/Src/stm32h7xx_it.c **** 
 120:Core/Src/stm32h7xx_it.c **** /**
 121:Core/Src/stm32h7xx_it.c ****   * @brief This function handles Pre-fetch fault, memory access fault.
 122:Core/Src/stm32h7xx_it.c ****   */
 123:Core/Src/stm32h7xx_it.c **** void BusFault_Handler(void)
 124:Core/Src/stm32h7xx_it.c **** {
  97              		.loc 1 124 1 view -0
  98              		.cfi_startproc
  99              		@ Volatile: function does not return.
 100              		@ args = 0, pretend = 0, frame = 0
 101              		@ frame_needed = 0, uses_anonymous_args = 0
 102              		@ link register save eliminated.
 103              	.L8:
 125:Core/Src/stm32h7xx_it.c ****   /* USER CODE BEGIN BusFault_IRQn 0 */
 126:Core/Src/stm32h7xx_it.c **** 
 127:Core/Src/stm32h7xx_it.c ****   /* USER CODE END BusFault_IRQn 0 */
 128:Core/Src/stm32h7xx_it.c ****   while (1)
 104              		.loc 1 128 3 view .LVU13
ARM GAS  /var/folders/cy/8kgpsxf90rz6cg1g85ws44fm0000gn/T//cczI5vHG.s 			page 5


 129:Core/Src/stm32h7xx_it.c ****   {
 130:Core/Src/stm32h7xx_it.c ****     /* USER CODE BEGIN W1_BusFault_IRQn 0 */
 131:Core/Src/stm32h7xx_it.c ****     /* USER CODE END W1_BusFault_IRQn 0 */
 132:Core/Src/stm32h7xx_it.c ****   }
 105              		.loc 1 132 3 view .LVU14
 128:Core/Src/stm32h7xx_it.c ****   {
 106              		.loc 1 128 9 view .LVU15
 107 0000 FEE7     		b	.L8
 108              		.cfi_endproc
 109              	.LFE353:
 111              		.section	.text.UsageFault_Handler,"ax",%progbits
 112              		.align	1
 113              		.global	UsageFault_Handler
 114              		.syntax unified
 115              		.thumb
 116              		.thumb_func
 118              	UsageFault_Handler:
 119              	.LFB354:
 133:Core/Src/stm32h7xx_it.c **** }
 134:Core/Src/stm32h7xx_it.c **** 
 135:Core/Src/stm32h7xx_it.c **** /**
 136:Core/Src/stm32h7xx_it.c ****   * @brief This function handles Undefined instruction or illegal state.
 137:Core/Src/stm32h7xx_it.c ****   */
 138:Core/Src/stm32h7xx_it.c **** void UsageFault_Handler(void)
 139:Core/Src/stm32h7xx_it.c **** {
 120              		.loc 1 139 1 view -0
 121              		.cfi_startproc
 122              		@ Volatile: function does not return.
 123              		@ args = 0, pretend = 0, frame = 0
 124              		@ frame_needed = 0, uses_anonymous_args = 0
 125              		@ link register save eliminated.
 126              	.L10:
 140:Core/Src/stm32h7xx_it.c ****   /* USER CODE BEGIN UsageFault_IRQn 0 */
 141:Core/Src/stm32h7xx_it.c **** 
 142:Core/Src/stm32h7xx_it.c ****   /* USER CODE END UsageFault_IRQn 0 */
 143:Core/Src/stm32h7xx_it.c ****   while (1)
 127              		.loc 1 143 3 view .LVU17
 144:Core/Src/stm32h7xx_it.c ****   {
 145:Core/Src/stm32h7xx_it.c ****     /* USER CODE BEGIN W1_UsageFault_IRQn 0 */
 146:Core/Src/stm32h7xx_it.c ****     /* USER CODE END W1_UsageFault_IRQn 0 */
 147:Core/Src/stm32h7xx_it.c ****   }
 128              		.loc 1 147 3 view .LVU18
 143:Core/Src/stm32h7xx_it.c ****   {
 129              		.loc 1 143 9 view .LVU19
 130 0000 FEE7     		b	.L10
 131              		.cfi_endproc
 132              	.LFE354:
 134              		.section	.text.DebugMon_Handler,"ax",%progbits
 135              		.align	1
 136              		.global	DebugMon_Handler
 137              		.syntax unified
 138              		.thumb
 139              		.thumb_func
 141              	DebugMon_Handler:
 142              	.LFB355:
 148:Core/Src/stm32h7xx_it.c **** }
 149:Core/Src/stm32h7xx_it.c **** 
ARM GAS  /var/folders/cy/8kgpsxf90rz6cg1g85ws44fm0000gn/T//cczI5vHG.s 			page 6


 150:Core/Src/stm32h7xx_it.c **** /**
 151:Core/Src/stm32h7xx_it.c ****   * @brief This function handles System service call via SWI instruction.
 152:Core/Src/stm32h7xx_it.c ****   */
 153:Core/Src/stm32h7xx_it.c **** //void SVC_Handler(void)
 154:Core/Src/stm32h7xx_it.c **** //{
 155:Core/Src/stm32h7xx_it.c **** //  /* USER CODE BEGIN SVCall_IRQn 0 */
 156:Core/Src/stm32h7xx_it.c **** ///////////////////////////////////////////////////////////////////////////////////////////////////
 157:Core/Src/stm32h7xx_it.c **** //  /* USER CODE END SVCall_IRQn 0 */
 158:Core/Src/stm32h7xx_it.c **** //  /* USER CODE BEGIN SVCall_IRQn 1 */
 159:Core/Src/stm32h7xx_it.c **** ///////////////////////////////////////////////////////////////////////////////////////////////////
 160:Core/Src/stm32h7xx_it.c **** //  /* USER CODE END SVCall_IRQn 1 */
 161:Core/Src/stm32h7xx_it.c **** //}
 162:Core/Src/stm32h7xx_it.c **** //
 163:Core/Src/stm32h7xx_it.c **** /**
 164:Core/Src/stm32h7xx_it.c ****   * @brief This function handles Debug monitor.
 165:Core/Src/stm32h7xx_it.c ****   */
 166:Core/Src/stm32h7xx_it.c **** void DebugMon_Handler(void)
 167:Core/Src/stm32h7xx_it.c **** {
 143              		.loc 1 167 1 view -0
 144              		.cfi_startproc
 145              		@ args = 0, pretend = 0, frame = 0
 146              		@ frame_needed = 0, uses_anonymous_args = 0
 147              		@ link register save eliminated.
 168:Core/Src/stm32h7xx_it.c ****   /* USER CODE BEGIN DebugMonitor_IRQn 0 */
 169:Core/Src/stm32h7xx_it.c **** 
 170:Core/Src/stm32h7xx_it.c ****   /* USER CODE END DebugMonitor_IRQn 0 */
 171:Core/Src/stm32h7xx_it.c ****   /* USER CODE BEGIN DebugMonitor_IRQn 1 */
 172:Core/Src/stm32h7xx_it.c **** 
 173:Core/Src/stm32h7xx_it.c ****   /* USER CODE END DebugMonitor_IRQn 1 */
 174:Core/Src/stm32h7xx_it.c **** }
 148              		.loc 1 174 1 view .LVU21
 149 0000 7047     		bx	lr
 150              		.cfi_endproc
 151              	.LFE355:
 153              		.section	.text.ADC_IRQHandler,"ax",%progbits
 154              		.align	1
 155              		.global	ADC_IRQHandler
 156              		.syntax unified
 157              		.thumb
 158              		.thumb_func
 160              	ADC_IRQHandler:
 161              	.LFB356:
 175:Core/Src/stm32h7xx_it.c **** 
 176:Core/Src/stm32h7xx_it.c **** /**
 177:Core/Src/stm32h7xx_it.c ****   * @brief This function handles Pendable request for system service.
 178:Core/Src/stm32h7xx_it.c ****   */
 179:Core/Src/stm32h7xx_it.c **** //void PendSV_Handler(void)
 180:Core/Src/stm32h7xx_it.c **** //{
 181:Core/Src/stm32h7xx_it.c **** //  /* USER CODE BEGIN PendSV_IRQn 0 */
 182:Core/Src/stm32h7xx_it.c **** ///////////////////////////////////////////////////////////////////////////////////////////////////
 183:Core/Src/stm32h7xx_it.c **** //  /* USER CODE END PendSV_IRQn 0 */
 184:Core/Src/stm32h7xx_it.c **** //  /* USER CODE BEGIN PendSV_IRQn 1 */
 185:Core/Src/stm32h7xx_it.c **** ///////////////////////////////////////////////////////////////////////////////////////////////////
 186:Core/Src/stm32h7xx_it.c **** //  /* USER CODE END PendSV_IRQn 1 */
 187:Core/Src/stm32h7xx_it.c **** //}
 188:Core/Src/stm32h7xx_it.c **** //
 189:Core/Src/stm32h7xx_it.c **** /**
ARM GAS  /var/folders/cy/8kgpsxf90rz6cg1g85ws44fm0000gn/T//cczI5vHG.s 			page 7


 190:Core/Src/stm32h7xx_it.c ****   * @brief This function handles System tick timer.
 191:Core/Src/stm32h7xx_it.c ****   */
 192:Core/Src/stm32h7xx_it.c **** //void SysTick_Handler(void)
 193:Core/Src/stm32h7xx_it.c **** //{
 194:Core/Src/stm32h7xx_it.c **** //  /* USER CODE BEGIN SysTick_IRQn 0 */
 195:Core/Src/stm32h7xx_it.c **** ///////////////////////////////////////////////////////////////////////////////////////////////////
 196:Core/Src/stm32h7xx_it.c **** //  /* USER CODE END SysTick_IRQn 0 */
 197:Core/Src/stm32h7xx_it.c **** //
 198:Core/Src/stm32h7xx_it.c **** //  /* USER CODE BEGIN SysTick_IRQn 1 */
 199:Core/Src/stm32h7xx_it.c **** ///////////////////////////////////////////////////////////////////////////////////////////////////
 200:Core/Src/stm32h7xx_it.c **** //  /* USER CODE END SysTick_IRQn 1 */
 201:Core/Src/stm32h7xx_it.c **** //}
 202:Core/Src/stm32h7xx_it.c **** 
 203:Core/Src/stm32h7xx_it.c **** /******************************************************************************/
 204:Core/Src/stm32h7xx_it.c **** /* STM32H7xx Peripheral Interrupt Handlers                                    */
 205:Core/Src/stm32h7xx_it.c **** /* Add here the Interrupt Handlers for the used peripherals.                  */
 206:Core/Src/stm32h7xx_it.c **** /* For the available peripheral interrupt handler names,                      */
 207:Core/Src/stm32h7xx_it.c **** /* please refer to the startup file (startup_stm32h7xx.s).                    */
 208:Core/Src/stm32h7xx_it.c **** /******************************************************************************/
 209:Core/Src/stm32h7xx_it.c **** 
 210:Core/Src/stm32h7xx_it.c **** /**
 211:Core/Src/stm32h7xx_it.c ****   * @brief This function handles ADC1 and ADC2 global interrupts.
 212:Core/Src/stm32h7xx_it.c ****   */
 213:Core/Src/stm32h7xx_it.c **** void ADC_IRQHandler(void)
 214:Core/Src/stm32h7xx_it.c **** {
 162              		.loc 1 214 1 view -0
 163              		.cfi_startproc
 164              		@ args = 0, pretend = 0, frame = 0
 165              		@ frame_needed = 0, uses_anonymous_args = 0
 166 0000 08B5     		push	{r3, lr}
 167              	.LCFI0:
 168              		.cfi_def_cfa_offset 8
 169              		.cfi_offset 3, -8
 170              		.cfi_offset 14, -4
 215:Core/Src/stm32h7xx_it.c ****   /* USER CODE BEGIN ADC_IRQn 0 */
 216:Core/Src/stm32h7xx_it.c **** 
 217:Core/Src/stm32h7xx_it.c ****   /* USER CODE END ADC_IRQn 0 */
 218:Core/Src/stm32h7xx_it.c ****   HAL_ADC_IRQHandler(&hadc1);
 171              		.loc 1 218 3 view .LVU23
 172 0002 0348     		ldr	r0, .L14
 173 0004 FFF7FEFF 		bl	HAL_ADC_IRQHandler
 174              	.LVL0:
 219:Core/Src/stm32h7xx_it.c ****   HAL_ADC_IRQHandler(&hadc2);
 175              		.loc 1 219 3 view .LVU24
 176 0008 0248     		ldr	r0, .L14+4
 177 000a FFF7FEFF 		bl	HAL_ADC_IRQHandler
 178              	.LVL1:
 220:Core/Src/stm32h7xx_it.c ****   /* USER CODE BEGIN ADC_IRQn 1 */
 221:Core/Src/stm32h7xx_it.c **** 
 222:Core/Src/stm32h7xx_it.c ****   /* USER CODE END ADC_IRQn 1 */
 223:Core/Src/stm32h7xx_it.c **** }
 179              		.loc 1 223 1 is_stmt 0 view .LVU25
 180 000e 08BD     		pop	{r3, pc}
 181              	.L15:
 182              		.align	2
 183              	.L14:
 184 0010 00000000 		.word	hadc1
ARM GAS  /var/folders/cy/8kgpsxf90rz6cg1g85ws44fm0000gn/T//cczI5vHG.s 			page 8


 185 0014 00000000 		.word	hadc2
 186              		.cfi_endproc
 187              	.LFE356:
 189              		.section	.text.TIM1_UP_IRQHandler,"ax",%progbits
 190              		.align	1
 191              		.global	TIM1_UP_IRQHandler
 192              		.syntax unified
 193              		.thumb
 194              		.thumb_func
 196              	TIM1_UP_IRQHandler:
 197              	.LFB357:
 224:Core/Src/stm32h7xx_it.c **** 
 225:Core/Src/stm32h7xx_it.c **** /**
 226:Core/Src/stm32h7xx_it.c ****   * @brief This function handles TIM1 update interrupt.
 227:Core/Src/stm32h7xx_it.c ****   */
 228:Core/Src/stm32h7xx_it.c **** void TIM1_UP_IRQHandler(void)
 229:Core/Src/stm32h7xx_it.c **** {
 198              		.loc 1 229 1 is_stmt 1 view -0
 199              		.cfi_startproc
 200              		@ args = 0, pretend = 0, frame = 0
 201              		@ frame_needed = 0, uses_anonymous_args = 0
 202 0000 08B5     		push	{r3, lr}
 203              	.LCFI1:
 204              		.cfi_def_cfa_offset 8
 205              		.cfi_offset 3, -8
 206              		.cfi_offset 14, -4
 230:Core/Src/stm32h7xx_it.c ****   /* USER CODE BEGIN TIM1_UP_IRQn 0 */
 231:Core/Src/stm32h7xx_it.c **** 
 232:Core/Src/stm32h7xx_it.c ****   /* USER CODE END TIM1_UP_IRQn 0 */
 233:Core/Src/stm32h7xx_it.c ****   HAL_TIM_IRQHandler(&htim1);
 207              		.loc 1 233 3 view .LVU27
 208 0002 0248     		ldr	r0, .L18
 209 0004 FFF7FEFF 		bl	HAL_TIM_IRQHandler
 210              	.LVL2:
 234:Core/Src/stm32h7xx_it.c ****   /* USER CODE BEGIN TIM1_UP_IRQn 1 */
 235:Core/Src/stm32h7xx_it.c **** 
 236:Core/Src/stm32h7xx_it.c ****   /* USER CODE END TIM1_UP_IRQn 1 */
 237:Core/Src/stm32h7xx_it.c **** }
 211              		.loc 1 237 1 is_stmt 0 view .LVU28
 212 0008 08BD     		pop	{r3, pc}
 213              	.L19:
 214 000a 00BF     		.align	2
 215              	.L18:
 216 000c 00000000 		.word	htim1
 217              		.cfi_endproc
 218              	.LFE357:
 220              		.section	.text.TIM2_IRQHandler,"ax",%progbits
 221              		.align	1
 222              		.global	TIM2_IRQHandler
 223              		.syntax unified
 224              		.thumb
 225              		.thumb_func
 227              	TIM2_IRQHandler:
 228              	.LFB358:
 238:Core/Src/stm32h7xx_it.c **** 
 239:Core/Src/stm32h7xx_it.c **** /**
 240:Core/Src/stm32h7xx_it.c ****   * @brief This function handles TIM2 global interrupt.
ARM GAS  /var/folders/cy/8kgpsxf90rz6cg1g85ws44fm0000gn/T//cczI5vHG.s 			page 9


 241:Core/Src/stm32h7xx_it.c ****   */
 242:Core/Src/stm32h7xx_it.c **** void TIM2_IRQHandler(void)
 243:Core/Src/stm32h7xx_it.c **** {
 229              		.loc 1 243 1 is_stmt 1 view -0
 230              		.cfi_startproc
 231              		@ args = 0, pretend = 0, frame = 0
 232              		@ frame_needed = 0, uses_anonymous_args = 0
 233 0000 08B5     		push	{r3, lr}
 234              	.LCFI2:
 235              		.cfi_def_cfa_offset 8
 236              		.cfi_offset 3, -8
 237              		.cfi_offset 14, -4
 244:Core/Src/stm32h7xx_it.c ****   /* USER CODE BEGIN TIM2_IRQn 0 */
 245:Core/Src/stm32h7xx_it.c **** 
 246:Core/Src/stm32h7xx_it.c ****   /* USER CODE END TIM2_IRQn 0 */
 247:Core/Src/stm32h7xx_it.c ****   HAL_TIM_IRQHandler(&htim2);
 238              		.loc 1 247 3 view .LVU30
 239 0002 0248     		ldr	r0, .L22
 240 0004 FFF7FEFF 		bl	HAL_TIM_IRQHandler
 241              	.LVL3:
 248:Core/Src/stm32h7xx_it.c ****   /* USER CODE BEGIN TIM2_IRQn 1 */
 249:Core/Src/stm32h7xx_it.c **** 
 250:Core/Src/stm32h7xx_it.c ****   /* USER CODE END TIM2_IRQn 1 */
 251:Core/Src/stm32h7xx_it.c **** }
 242              		.loc 1 251 1 is_stmt 0 view .LVU31
 243 0008 08BD     		pop	{r3, pc}
 244              	.L23:
 245 000a 00BF     		.align	2
 246              	.L22:
 247 000c 00000000 		.word	htim2
 248              		.cfi_endproc
 249              	.LFE358:
 251              		.section	.text.USART2_IRQHandler,"ax",%progbits
 252              		.align	1
 253              		.global	USART2_IRQHandler
 254              		.syntax unified
 255              		.thumb
 256              		.thumb_func
 258              	USART2_IRQHandler:
 259              	.LFB359:
 252:Core/Src/stm32h7xx_it.c **** 
 253:Core/Src/stm32h7xx_it.c **** /**
 254:Core/Src/stm32h7xx_it.c ****   * @brief This function handles USART2 global interrupt.
 255:Core/Src/stm32h7xx_it.c ****   */
 256:Core/Src/stm32h7xx_it.c **** void USART2_IRQHandler(void)
 257:Core/Src/stm32h7xx_it.c **** {
 260              		.loc 1 257 1 is_stmt 1 view -0
 261              		.cfi_startproc
 262              		@ args = 0, pretend = 0, frame = 0
 263              		@ frame_needed = 0, uses_anonymous_args = 0
 264 0000 08B5     		push	{r3, lr}
 265              	.LCFI3:
 266              		.cfi_def_cfa_offset 8
 267              		.cfi_offset 3, -8
 268              		.cfi_offset 14, -4
 258:Core/Src/stm32h7xx_it.c ****   /* USER CODE BEGIN USART2_IRQn 0 */
 259:Core/Src/stm32h7xx_it.c **** 
ARM GAS  /var/folders/cy/8kgpsxf90rz6cg1g85ws44fm0000gn/T//cczI5vHG.s 			page 10


 260:Core/Src/stm32h7xx_it.c ****   /* USER CODE END USART2_IRQn 0 */
 261:Core/Src/stm32h7xx_it.c ****   HAL_UART_IRQHandler(&huart2);
 269              		.loc 1 261 3 view .LVU33
 270 0002 0248     		ldr	r0, .L26
 271 0004 FFF7FEFF 		bl	HAL_UART_IRQHandler
 272              	.LVL4:
 262:Core/Src/stm32h7xx_it.c ****   /* USER CODE BEGIN USART2_IRQn 1 */
 263:Core/Src/stm32h7xx_it.c **** 
 264:Core/Src/stm32h7xx_it.c ****   /* USER CODE END USART2_IRQn 1 */
 265:Core/Src/stm32h7xx_it.c **** }
 273              		.loc 1 265 1 is_stmt 0 view .LVU34
 274 0008 08BD     		pop	{r3, pc}
 275              	.L27:
 276 000a 00BF     		.align	2
 277              	.L26:
 278 000c 00000000 		.word	huart2
 279              		.cfi_endproc
 280              	.LFE359:
 282              		.section	.text.UART4_IRQHandler,"ax",%progbits
 283              		.align	1
 284              		.global	UART4_IRQHandler
 285              		.syntax unified
 286              		.thumb
 287              		.thumb_func
 289              	UART4_IRQHandler:
 290              	.LFB360:
 266:Core/Src/stm32h7xx_it.c **** 
 267:Core/Src/stm32h7xx_it.c **** /**
 268:Core/Src/stm32h7xx_it.c ****   * @brief This function handles UART4 global interrupt.
 269:Core/Src/stm32h7xx_it.c ****   */
 270:Core/Src/stm32h7xx_it.c **** void UART4_IRQHandler(void)
 271:Core/Src/stm32h7xx_it.c **** {
 291              		.loc 1 271 1 is_stmt 1 view -0
 292              		.cfi_startproc
 293              		@ args = 0, pretend = 0, frame = 0
 294              		@ frame_needed = 0, uses_anonymous_args = 0
 295 0000 08B5     		push	{r3, lr}
 296              	.LCFI4:
 297              		.cfi_def_cfa_offset 8
 298              		.cfi_offset 3, -8
 299              		.cfi_offset 14, -4
 272:Core/Src/stm32h7xx_it.c ****   /* USER CODE BEGIN UART4_IRQn 0 */
 273:Core/Src/stm32h7xx_it.c **** 
 274:Core/Src/stm32h7xx_it.c ****   /* USER CODE END UART4_IRQn 0 */
 275:Core/Src/stm32h7xx_it.c ****   HAL_UART_IRQHandler(&huart4);
 300              		.loc 1 275 3 view .LVU36
 301 0002 0248     		ldr	r0, .L30
 302 0004 FFF7FEFF 		bl	HAL_UART_IRQHandler
 303              	.LVL5:
 276:Core/Src/stm32h7xx_it.c ****   /* USER CODE BEGIN UART4_IRQn 1 */
 277:Core/Src/stm32h7xx_it.c **** 
 278:Core/Src/stm32h7xx_it.c ****   /* USER CODE END UART4_IRQn 1 */
 279:Core/Src/stm32h7xx_it.c **** }
 304              		.loc 1 279 1 is_stmt 0 view .LVU37
 305 0008 08BD     		pop	{r3, pc}
 306              	.L31:
 307 000a 00BF     		.align	2
ARM GAS  /var/folders/cy/8kgpsxf90rz6cg1g85ws44fm0000gn/T//cczI5vHG.s 			page 11


 308              	.L30:
 309 000c 00000000 		.word	huart4
 310              		.cfi_endproc
 311              	.LFE360:
 313              		.section	.text.UART5_IRQHandler,"ax",%progbits
 314              		.align	1
 315              		.global	UART5_IRQHandler
 316              		.syntax unified
 317              		.thumb
 318              		.thumb_func
 320              	UART5_IRQHandler:
 321              	.LFB361:
 280:Core/Src/stm32h7xx_it.c **** 
 281:Core/Src/stm32h7xx_it.c **** /**
 282:Core/Src/stm32h7xx_it.c ****   * @brief This function handles UART5 global interrupt.
 283:Core/Src/stm32h7xx_it.c ****   */
 284:Core/Src/stm32h7xx_it.c **** void UART5_IRQHandler(void)
 285:Core/Src/stm32h7xx_it.c **** {
 322              		.loc 1 285 1 is_stmt 1 view -0
 323              		.cfi_startproc
 324              		@ args = 0, pretend = 0, frame = 0
 325              		@ frame_needed = 0, uses_anonymous_args = 0
 326 0000 08B5     		push	{r3, lr}
 327              	.LCFI5:
 328              		.cfi_def_cfa_offset 8
 329              		.cfi_offset 3, -8
 330              		.cfi_offset 14, -4
 286:Core/Src/stm32h7xx_it.c ****   /* USER CODE BEGIN UART5_IRQn 0 */
 287:Core/Src/stm32h7xx_it.c **** 
 288:Core/Src/stm32h7xx_it.c ****   /* USER CODE END UART5_IRQn 0 */
 289:Core/Src/stm32h7xx_it.c ****   HAL_UART_IRQHandler(&huart5);
 331              		.loc 1 289 3 view .LVU39
 332 0002 0248     		ldr	r0, .L34
 333 0004 FFF7FEFF 		bl	HAL_UART_IRQHandler
 334              	.LVL6:
 290:Core/Src/stm32h7xx_it.c ****   /* USER CODE BEGIN UART5_IRQn 1 */
 291:Core/Src/stm32h7xx_it.c **** 
 292:Core/Src/stm32h7xx_it.c ****   /* USER CODE END UART5_IRQn 1 */
 293:Core/Src/stm32h7xx_it.c **** }
 335              		.loc 1 293 1 is_stmt 0 view .LVU40
 336 0008 08BD     		pop	{r3, pc}
 337              	.L35:
 338 000a 00BF     		.align	2
 339              	.L34:
 340 000c 00000000 		.word	huart5
 341              		.cfi_endproc
 342              	.LFE361:
 344              		.section	.text.OCTOSPI1_IRQHandler,"ax",%progbits
 345              		.align	1
 346              		.global	OCTOSPI1_IRQHandler
 347              		.syntax unified
 348              		.thumb
 349              		.thumb_func
 351              	OCTOSPI1_IRQHandler:
 352              	.LFB362:
 294:Core/Src/stm32h7xx_it.c **** 
 295:Core/Src/stm32h7xx_it.c **** /**
ARM GAS  /var/folders/cy/8kgpsxf90rz6cg1g85ws44fm0000gn/T//cczI5vHG.s 			page 12


 296:Core/Src/stm32h7xx_it.c ****   * @brief This function handles OCTOSPI1 global interrupt.
 297:Core/Src/stm32h7xx_it.c ****   */
 298:Core/Src/stm32h7xx_it.c **** void OCTOSPI1_IRQHandler(void)
 299:Core/Src/stm32h7xx_it.c **** {
 353              		.loc 1 299 1 is_stmt 1 view -0
 354              		.cfi_startproc
 355              		@ args = 0, pretend = 0, frame = 0
 356              		@ frame_needed = 0, uses_anonymous_args = 0
 357 0000 08B5     		push	{r3, lr}
 358              	.LCFI6:
 359              		.cfi_def_cfa_offset 8
 360              		.cfi_offset 3, -8
 361              		.cfi_offset 14, -4
 300:Core/Src/stm32h7xx_it.c ****   /* USER CODE BEGIN OCTOSPI1_IRQn 0 */
 301:Core/Src/stm32h7xx_it.c **** 
 302:Core/Src/stm32h7xx_it.c ****   /* USER CODE END OCTOSPI1_IRQn 0 */
 303:Core/Src/stm32h7xx_it.c ****   HAL_OSPI_IRQHandler(&hospi1);
 362              		.loc 1 303 3 view .LVU42
 363 0002 0248     		ldr	r0, .L38
 364 0004 FFF7FEFF 		bl	HAL_OSPI_IRQHandler
 365              	.LVL7:
 304:Core/Src/stm32h7xx_it.c ****   /* USER CODE BEGIN OCTOSPI1_IRQn 1 */
 305:Core/Src/stm32h7xx_it.c **** 
 306:Core/Src/stm32h7xx_it.c ****   /* USER CODE END OCTOSPI1_IRQn 1 */
 307:Core/Src/stm32h7xx_it.c **** }
 366              		.loc 1 307 1 is_stmt 0 view .LVU43
 367 0008 08BD     		pop	{r3, pc}
 368              	.L39:
 369 000a 00BF     		.align	2
 370              	.L38:
 371 000c 00000000 		.word	hospi1
 372              		.cfi_endproc
 373              	.LFE362:
 375              		.section	.text.ADC3_IRQHandler,"ax",%progbits
 376              		.align	1
 377              		.global	ADC3_IRQHandler
 378              		.syntax unified
 379              		.thumb
 380              		.thumb_func
 382              	ADC3_IRQHandler:
 383              	.LFB363:
 308:Core/Src/stm32h7xx_it.c **** 
 309:Core/Src/stm32h7xx_it.c **** /**
 310:Core/Src/stm32h7xx_it.c ****   * @brief This function handles ADC3 global interrupt.
 311:Core/Src/stm32h7xx_it.c ****   */
 312:Core/Src/stm32h7xx_it.c **** void ADC3_IRQHandler(void)
 313:Core/Src/stm32h7xx_it.c **** {
 384              		.loc 1 313 1 is_stmt 1 view -0
 385              		.cfi_startproc
 386              		@ args = 0, pretend = 0, frame = 0
 387              		@ frame_needed = 0, uses_anonymous_args = 0
 388 0000 08B5     		push	{r3, lr}
 389              	.LCFI7:
 390              		.cfi_def_cfa_offset 8
 391              		.cfi_offset 3, -8
 392              		.cfi_offset 14, -4
 314:Core/Src/stm32h7xx_it.c ****   /* USER CODE BEGIN ADC3_IRQn 0 */
ARM GAS  /var/folders/cy/8kgpsxf90rz6cg1g85ws44fm0000gn/T//cczI5vHG.s 			page 13


 315:Core/Src/stm32h7xx_it.c **** 
 316:Core/Src/stm32h7xx_it.c ****   /* USER CODE END ADC3_IRQn 0 */
 317:Core/Src/stm32h7xx_it.c ****   HAL_ADC_IRQHandler(&hadc3);
 393              		.loc 1 317 3 view .LVU45
 394 0002 0248     		ldr	r0, .L42
 395 0004 FFF7FEFF 		bl	HAL_ADC_IRQHandler
 396              	.LVL8:
 318:Core/Src/stm32h7xx_it.c ****   /* USER CODE BEGIN ADC3_IRQn 1 */
 319:Core/Src/stm32h7xx_it.c **** 
 320:Core/Src/stm32h7xx_it.c ****   /* USER CODE END ADC3_IRQn 1 */
 321:Core/Src/stm32h7xx_it.c **** }
 397              		.loc 1 321 1 is_stmt 0 view .LVU46
 398 0008 08BD     		pop	{r3, pc}
 399              	.L43:
 400 000a 00BF     		.align	2
 401              	.L42:
 402 000c 00000000 		.word	hadc3
 403              		.cfi_endproc
 404              	.LFE363:
 406              		.text
 407              	.Letext0:
 408              		.file 2 "/Applications/ArmGNUToolchain/14.3.rel1/arm-none-eabi/arm-none-eabi/include/machine/_defa
 409              		.file 3 "/Applications/ArmGNUToolchain/14.3.rel1/arm-none-eabi/arm-none-eabi/include/sys/_stdint.h
 410              		.file 4 "Drivers/CMSIS/Device/ST/STM32H7xx/Include/stm32h725xx.h"
 411              		.file 5 "Drivers/CMSIS/Device/ST/STM32H7xx/Include/stm32h7xx.h"
 412              		.file 6 "Drivers/STM32H7xx_HAL_Driver/Inc/stm32h7xx_hal_def.h"
 413              		.file 7 "Drivers/STM32H7xx_HAL_Driver/Inc/stm32h7xx_hal_dma.h"
 414              		.file 8 "Drivers/STM32H7xx_HAL_Driver/Inc/stm32h7xx_hal_mdma.h"
 415              		.file 9 "Drivers/STM32H7xx_HAL_Driver/Inc/stm32h7xx_hal_adc.h"
 416              		.file 10 "Drivers/STM32H7xx_HAL_Driver/Inc/stm32h7xx_hal_ospi.h"
 417              		.file 11 "Drivers/STM32H7xx_HAL_Driver/Inc/stm32h7xx_hal_tim.h"
 418              		.file 12 "Drivers/STM32H7xx_HAL_Driver/Inc/stm32h7xx_hal_uart.h"
ARM GAS  /var/folders/cy/8kgpsxf90rz6cg1g85ws44fm0000gn/T//cczI5vHG.s 			page 14

