ARM GAS  /tmp/ccqy7meM.s 			page 1


   1              		.cpu cortex-m7
   2              		.eabi_attribute 28, 1
   3              		.eabi_attribute 20, 1
   4              		.eabi_attribute 21, 1
   5              		.eabi_attribute 23, 3
   6              		.eabi_attribute 24, 1
   7              		.eabi_attribute 25, 1
   8              		.eabi_attribute 26, 1
   9              		.eabi_attribute 30, 1
  10              		.eabi_attribute 34, 1
  11              		.eabi_attribute 18, 4
  12              		.file	"sdio.c"
  13              		.text
  14              	.Ltext0:
  15              		.cfi_sections	.debug_frame
  16              		.section	.text.sd_channel_init,"ax",%progbits
  17              		.align	1
  18              		.global	sd_channel_init
  19              		.arch armv7e-m
  20              		.syntax unified
  21              		.thumb
  22              		.thumb_func
  23              		.fpu fpv5-d16
  25              	sd_channel_init:
  26              	.LVL0:
  27              	.LFB148:
  28              		.file 1 "../Core/Src/sdio.c"
   1:../Core/Src/sdio.c **** #include "sdio.h"
   2:../Core/Src/sdio.c **** 
   3:../Core/Src/sdio.c **** #include "FreeRTOS.h"
   4:../Core/Src/sdio.c **** #include "stream_buffer.h"
   5:../Core/Src/sdio.c **** #include "task.h"
   6:../Core/Src/sdio.c **** 
   7:../Core/Src/sdio.c **** #include "main.h"
   8:../Core/Src/sdio.c **** #include "ff.h"
   9:../Core/Src/sdio.c **** 
  10:../Core/Src/sdio.c **** #include "globals.h"
  11:../Core/Src/sdio.c **** 
  12:../Core/Src/sdio.c **** void sd_save_complete(SDChannel *channel, int status, size_t bytes_saved);
  13:../Core/Src/sdio.c **** void sd_load_complete(SDChannel *channel, int status, size_t bytes_loaded);
  14:../Core/Src/sdio.c **** int load_operation(FATFS *fs, SDOperation *operation, uint8_t *data_buffer, size_t *bytes_loaded, u
  15:../Core/Src/sdio.c **** int save_operation(SDOperation *operation, uint8_t *data_buffer, size_t *bytes_saved, uint8_t sd_mo
  16:../Core/Src/sdio.c **** 
  17:../Core/Src/sdio.c **** /**
  18:../Core/Src/sdio.c ****  * Initializes an SD channel
  19:../Core/Src/sdio.c ****  * @param channel The channel to initialize
  20:../Core/Src/sdio.c ****  * @param file_path The path of the file to read/write to
  21:../Core/Src/sdio.c ****  * @param mode The mode of the channel (SD_MODE_READ or SD_MODE_WRITE)
  22:../Core/Src/sdio.c ****  * @param id The ID of the channel. Must be unique.
  23:../Core/Src/sdio.c ****  * @param sb_buff The static stream buffer to use internally
  24:../Core/Src/sdio.c ****  * @param sb_storage_area The storage area for the internal stream buffer (should be at least sb_si
  25:../Core/Src/sdio.c ****  * @param sb_size The size of the internal stream buffer.
  26:../Core/Src/sdio.c ****  * @return 1 if successful, 0 otherwise
  27:../Core/Src/sdio.c ****  */
  28:../Core/Src/sdio.c **** int sd_channel_init(SDChannel *channel, const char *file_path, uint8_t mode, uint8_t id, StaticStre
  29              		.loc 1 28 163 view -0
  30              		.cfi_startproc
ARM GAS  /tmp/ccqy7meM.s 			page 2


  31              		@ args = 12, pretend = 0, frame = 0
  32              		@ frame_needed = 0, uses_anonymous_args = 0
  33              		.loc 1 28 163 is_stmt 0 view .LVU1
  34 0000 30B5     		push	{r4, r5, lr}
  35              	.LCFI0:
  36              		.cfi_def_cfa_offset 12
  37              		.cfi_offset 4, -12
  38              		.cfi_offset 5, -8
  39              		.cfi_offset 14, -4
  40 0002 85B0     		sub	sp, sp, #20
  41              	.LCFI1:
  42              		.cfi_def_cfa_offset 32
  43 0004 099D     		ldr	r5, [sp, #36]
  29:../Core/Src/sdio.c ****     if (channel == NULL || sb_storage_area == NULL || file_path == NULL) {
  44              		.loc 1 29 5 is_stmt 1 view .LVU2
  45              		.loc 1 29 8 is_stmt 0 view .LVU3
  46 0006 002D     		cmp	r5, #0
  47 0008 18BF     		it	ne
  48 000a 0028     		cmpne	r0, #0
  49 000c 14D0     		beq	.L3
  50 000e 0446     		mov	r4, r0
  51              		.loc 1 29 52 discriminator 1 view .LVU4
  52 0010 A1B1     		cbz	r1, .L4
  30:../Core/Src/sdio.c ****         return 0;
  31:../Core/Src/sdio.c ****     }
  32:../Core/Src/sdio.c **** 
  33:../Core/Src/sdio.c ****     channel->id = id;
  53              		.loc 1 33 5 is_stmt 1 view .LVU5
  54              		.loc 1 33 17 is_stmt 0 view .LVU6
  55 0012 4371     		strb	r3, [r0, #5]
  34:../Core/Src/sdio.c ****     channel->file_path = file_path;
  56              		.loc 1 34 5 is_stmt 1 view .LVU7
  57              		.loc 1 34 24 is_stmt 0 view .LVU8
  58 0014 0160     		str	r1, [r0]
  35:../Core/Src/sdio.c ****     channel->mode = mode;
  59              		.loc 1 35 5 is_stmt 1 view .LVU9
  60              		.loc 1 35 19 is_stmt 0 view .LVU10
  61 0016 0271     		strb	r2, [r0, #4]
  36:../Core/Src/sdio.c **** 
  37:../Core/Src/sdio.c ****     StreamBufferHandle_t sb_handle = xStreamBufferCreateStatic(sb_size + 1, 1, sb_storage_area, sb_
  62              		.loc 1 37 5 is_stmt 1 view .LVU11
  63              		.loc 1 37 38 is_stmt 0 view .LVU12
  64 0018 0022     		movs	r2, #0
  65              	.LVL1:
  66              		.loc 1 37 38 view .LVU13
  67 001a 0292     		str	r2, [sp, #8]
  68              	.LVL2:
  69              		.loc 1 37 38 view .LVU14
  70 001c 0192     		str	r2, [sp, #4]
  71 001e 089B     		ldr	r3, [sp, #32]
  72              	.LVL3:
  73              		.loc 1 37 38 view .LVU15
  74 0020 0093     		str	r3, [sp]
  75 0022 2B46     		mov	r3, r5
  76 0024 0121     		movs	r1, #1
  77              	.LVL4:
  78              		.loc 1 37 38 view .LVU16
ARM GAS  /tmp/ccqy7meM.s 			page 3


  79 0026 0A98     		ldr	r0, [sp, #40]
  80              	.LVL5:
  81              		.loc 1 37 38 view .LVU17
  82 0028 0844     		add	r0, r0, r1
  83 002a FFF7FEFF 		bl	xStreamBufferGenericCreateStatic
  84              	.LVL6:
  38:../Core/Src/sdio.c **** 
  39:../Core/Src/sdio.c ****     if (sb_handle == NULL) {
  85              		.loc 1 39 5 is_stmt 1 view .LVU18
  86              		.loc 1 39 8 is_stmt 0 view .LVU19
  87 002e 38B1     		cbz	r0, .L5
  40:../Core/Src/sdio.c ****         return 0;
  41:../Core/Src/sdio.c ****     }
  42:../Core/Src/sdio.c **** 
  43:../Core/Src/sdio.c ****     channel->sb_handle = sb_handle;
  88              		.loc 1 43 5 is_stmt 1 view .LVU20
  89              		.loc 1 43 24 is_stmt 0 view .LVU21
  90 0030 A060     		str	r0, [r4, #8]
  44:../Core/Src/sdio.c **** 
  45:../Core/Src/sdio.c ****     return 1;
  91              		.loc 1 45 5 is_stmt 1 view .LVU22
  92              		.loc 1 45 12 is_stmt 0 view .LVU23
  93 0032 0120     		movs	r0, #1
  94              	.LVL7:
  95              	.L1:
  46:../Core/Src/sdio.c **** }
  96              		.loc 1 46 1 view .LVU24
  97 0034 05B0     		add	sp, sp, #20
  98              	.LCFI2:
  99              		.cfi_remember_state
 100              		.cfi_def_cfa_offset 12
 101              		@ sp needed
 102 0036 30BD     		pop	{r4, r5, pc}
 103              	.LVL8:
 104              	.L3:
 105              	.LCFI3:
 106              		.cfi_restore_state
  30:../Core/Src/sdio.c ****     }
 107              		.loc 1 30 16 view .LVU25
 108 0038 0020     		movs	r0, #0
 109              	.LVL9:
  30:../Core/Src/sdio.c ****     }
 110              		.loc 1 30 16 view .LVU26
 111 003a FBE7     		b	.L1
 112              	.LVL10:
 113              	.L4:
  30:../Core/Src/sdio.c ****     }
 114              		.loc 1 30 16 view .LVU27
 115 003c 0020     		movs	r0, #0
 116              	.LVL11:
  30:../Core/Src/sdio.c ****     }
 117              		.loc 1 30 16 view .LVU28
 118 003e F9E7     		b	.L1
 119              	.LVL12:
 120              	.L5:
  40:../Core/Src/sdio.c ****     }
 121              		.loc 1 40 16 view .LVU29
ARM GAS  /tmp/ccqy7meM.s 			page 4


 122 0040 0020     		movs	r0, #0
 123              	.LVL13:
  40:../Core/Src/sdio.c ****     }
 124              		.loc 1 40 16 view .LVU30
 125 0042 F7E7     		b	.L1
 126              		.cfi_endproc
 127              	.LFE148:
 129              		.section	.text.sd_channel_get_free,"ax",%progbits
 130              		.align	1
 131              		.global	sd_channel_get_free
 132              		.syntax unified
 133              		.thumb
 134              		.thumb_func
 135              		.fpu fpv5-d16
 137              	sd_channel_get_free:
 138              	.LVL14:
 139              	.LFB149:
  47:../Core/Src/sdio.c **** 
  48:../Core/Src/sdio.c **** /**
  49:../Core/Src/sdio.c ****  * Get the number of bytes available to write to or read into in a channel
  50:../Core/Src/sdio.c ****  * @param channel The channel to check
  51:../Core/Src/sdio.c ****  * @return The number of bytes available
  52:../Core/Src/sdio.c ****  */
  53:../Core/Src/sdio.c **** size_t sd_channel_get_free(SDChannel *channel) {
 140              		.loc 1 53 48 is_stmt 1 view -0
 141              		.cfi_startproc
 142              		@ args = 0, pretend = 0, frame = 0
 143              		@ frame_needed = 0, uses_anonymous_args = 0
  54:../Core/Src/sdio.c ****     if (channel == NULL) {
 144              		.loc 1 54 5 view .LVU32
 145              		.loc 1 54 8 is_stmt 0 view .LVU33
 146 0000 20B1     		cbz	r0, .L9
  53:../Core/Src/sdio.c ****     if (channel == NULL) {
 147              		.loc 1 53 48 view .LVU34
 148 0002 08B5     		push	{r3, lr}
 149              	.LCFI4:
 150              		.cfi_def_cfa_offset 8
 151              		.cfi_offset 3, -8
 152              		.cfi_offset 14, -4
  55:../Core/Src/sdio.c ****         return 0;
  56:../Core/Src/sdio.c ****     }
  57:../Core/Src/sdio.c **** 
  58:../Core/Src/sdio.c ****     return xStreamBufferSpacesAvailable(channel->sb_handle);
 153              		.loc 1 58 5 is_stmt 1 view .LVU35
 154              		.loc 1 58 12 is_stmt 0 view .LVU36
 155 0004 8068     		ldr	r0, [r0, #8]
 156              	.LVL15:
 157              		.loc 1 58 12 view .LVU37
 158 0006 FFF7FEFF 		bl	xStreamBufferSpacesAvailable
 159              	.LVL16:
  59:../Core/Src/sdio.c **** }
 160              		.loc 1 59 1 view .LVU38
 161 000a 08BD     		pop	{r3, pc}
 162              	.LVL17:
 163              	.L9:
 164              	.LCFI5:
 165              		.cfi_def_cfa_offset 0
ARM GAS  /tmp/ccqy7meM.s 			page 5


 166              		.cfi_restore 3
 167              		.cfi_restore 14
  55:../Core/Src/sdio.c ****         return 0;
 168              		.loc 1 55 16 view .LVU39
 169 000c 0020     		movs	r0, #0
 170              	.LVL18:
 171              		.loc 1 59 1 view .LVU40
 172 000e 7047     		bx	lr
 173              		.cfi_endproc
 174              	.LFE149:
 176              		.section	.text.sd_channel_get_full,"ax",%progbits
 177              		.align	1
 178              		.global	sd_channel_get_full
 179              		.syntax unified
 180              		.thumb
 181              		.thumb_func
 182              		.fpu fpv5-d16
 184              	sd_channel_get_full:
 185              	.LVL19:
 186              	.LFB150:
  60:../Core/Src/sdio.c **** 
  61:../Core/Src/sdio.c **** /**
  62:../Core/Src/sdio.c ****  * Get the number of bytes that have been written to or read into in a channel
  63:../Core/Src/sdio.c ****  * @param channel The channel to check
  64:../Core/Src/sdio.c ****  * @return The number of bytes written or read
  65:../Core/Src/sdio.c ****  */
  66:../Core/Src/sdio.c **** size_t sd_channel_get_full(SDChannel *channel) {
 187              		.loc 1 66 48 is_stmt 1 view -0
 188              		.cfi_startproc
 189              		@ args = 0, pretend = 0, frame = 0
 190              		@ frame_needed = 0, uses_anonymous_args = 0
  67:../Core/Src/sdio.c ****     if (channel == NULL) {
 191              		.loc 1 67 5 view .LVU42
 192              		.loc 1 67 8 is_stmt 0 view .LVU43
 193 0000 20B1     		cbz	r0, .L16
  66:../Core/Src/sdio.c ****     if (channel == NULL) {
 194              		.loc 1 66 48 view .LVU44
 195 0002 08B5     		push	{r3, lr}
 196              	.LCFI6:
 197              		.cfi_def_cfa_offset 8
 198              		.cfi_offset 3, -8
 199              		.cfi_offset 14, -4
  68:../Core/Src/sdio.c ****         return 0;
  69:../Core/Src/sdio.c ****     }
  70:../Core/Src/sdio.c **** 
  71:../Core/Src/sdio.c ****     return xStreamBufferBytesAvailable(channel->sb_handle);
 200              		.loc 1 71 5 is_stmt 1 view .LVU45
 201              		.loc 1 71 12 is_stmt 0 view .LVU46
 202 0004 8068     		ldr	r0, [r0, #8]
 203              	.LVL20:
 204              		.loc 1 71 12 view .LVU47
 205 0006 FFF7FEFF 		bl	xStreamBufferBytesAvailable
 206              	.LVL21:
  72:../Core/Src/sdio.c **** }
 207              		.loc 1 72 1 view .LVU48
 208 000a 08BD     		pop	{r3, pc}
 209              	.LVL22:
ARM GAS  /tmp/ccqy7meM.s 			page 6


 210              	.L16:
 211              	.LCFI7:
 212              		.cfi_def_cfa_offset 0
 213              		.cfi_restore 3
 214              		.cfi_restore 14
  68:../Core/Src/sdio.c ****         return 0;
 215              		.loc 1 68 16 view .LVU49
 216 000c 0020     		movs	r0, #0
 217              	.LVL23:
 218              		.loc 1 72 1 view .LVU50
 219 000e 7047     		bx	lr
 220              		.cfi_endproc
 221              	.LFE150:
 223              		.section	.text.sd_write_channel,"ax",%progbits
 224              		.align	1
 225              		.global	sd_write_channel
 226              		.syntax unified
 227              		.thumb
 228              		.thumb_func
 229              		.fpu fpv5-d16
 231              	sd_write_channel:
 232              	.LVL24:
 233              	.LFB151:
  73:../Core/Src/sdio.c **** 
  74:../Core/Src/sdio.c **** /**
  75:../Core/Src/sdio.c ****  * Write data to the internal buffer of a channel. 
  76:../Core/Src/sdio.c ****  * This does NOT save the data to the SD card. 
  77:../Core/Src/sdio.c ****  * The channel must be in write mode.
  78:../Core/Src/sdio.c ****  * @param channel The channel to write to
  79:../Core/Src/sdio.c ****  * @param data The data to write
  80:../Core/Src/sdio.c ****  * @param len The length of the data. Must not exceed SD_MAX_READ_WRITE_SIZE
  81:../Core/Src/sdio.c ****  * @return 1 if successful, 0 otherwise
  82:../Core/Src/sdio.c ****  */
  83:../Core/Src/sdio.c **** int sd_write_channel(SDChannel *channel, uint8_t *data, size_t len) {
 234              		.loc 1 83 69 is_stmt 1 view -0
 235              		.cfi_startproc
 236              		@ args = 0, pretend = 0, frame = 0
 237              		@ frame_needed = 0, uses_anonymous_args = 0
  84:../Core/Src/sdio.c ****     if (channel == NULL || data == NULL || channel->mode != SD_MODE_WRITE || len > SD_MAX_READ_WRIT
 238              		.loc 1 84 5 view .LVU52
 239              		.loc 1 84 8 is_stmt 0 view .LVU53
 240 0000 0029     		cmp	r1, #0
 241 0002 18BF     		it	ne
 242 0004 0028     		cmpne	r0, #0
 243 0006 1AD0     		beq	.L23
  83:../Core/Src/sdio.c ****     if (channel == NULL || data == NULL || channel->mode != SD_MODE_WRITE || len > SD_MAX_READ_WRIT
 244              		.loc 1 83 69 discriminator 1 view .LVU54
 245 0008 70B5     		push	{r4, r5, r6, lr}
 246              	.LCFI8:
 247              		.cfi_def_cfa_offset 16
 248              		.cfi_offset 4, -16
 249              		.cfi_offset 5, -12
 250              		.cfi_offset 6, -8
 251              		.cfi_offset 14, -4
 252 000a 1446     		mov	r4, r2
 253 000c 0546     		mov	r5, r0
 254 000e 0E46     		mov	r6, r1
ARM GAS  /tmp/ccqy7meM.s 			page 7


 255              		.loc 1 84 51 discriminator 1 view .LVU55
 256 0010 0379     		ldrb	r3, [r0, #4]	@ zero_extendqisi2
 257              		.loc 1 84 41 discriminator 1 view .LVU56
 258 0012 012B     		cmp	r3, #1
 259 0014 15D1     		bne	.L24
 260              		.loc 1 84 75 discriminator 2 view .LVU57
 261 0016 B2F5007F 		cmp	r2, #512
 262 001a 01D9     		bls	.L31
  85:../Core/Src/sdio.c ****         return 0;
 263              		.loc 1 85 16 view .LVU58
 264 001c 0020     		movs	r0, #0
 265              	.LVL25:
 266              		.loc 1 85 16 view .LVU59
 267 001e 11E0     		b	.L21
 268              	.LVL26:
 269              	.L31:
  86:../Core/Src/sdio.c ****     }
  87:../Core/Src/sdio.c **** 
  88:../Core/Src/sdio.c ****     if (xStreamBufferSpacesAvailable(channel->sb_handle) < len) {
 270              		.loc 1 88 5 is_stmt 1 view .LVU60
 271              		.loc 1 88 9 is_stmt 0 view .LVU61
 272 0020 8068     		ldr	r0, [r0, #8]
 273              	.LVL27:
 274              		.loc 1 88 9 view .LVU62
 275 0022 FFF7FEFF 		bl	xStreamBufferSpacesAvailable
 276              	.LVL28:
 277              		.loc 1 88 8 view .LVU63
 278 0026 A042     		cmp	r0, r4
 279 0028 01D2     		bcs	.L32
  89:../Core/Src/sdio.c ****         return 0;
 280              		.loc 1 89 16 view .LVU64
 281 002a 0020     		movs	r0, #0
 282 002c 0AE0     		b	.L21
 283              	.L32:
  90:../Core/Src/sdio.c ****     }
  91:../Core/Src/sdio.c **** 
  92:../Core/Src/sdio.c ****     xStreamBufferSend(channel->sb_handle, data, len, 0);
 284              		.loc 1 92 5 is_stmt 1 view .LVU65
 285 002e 0023     		movs	r3, #0
 286 0030 2246     		mov	r2, r4
 287 0032 3146     		mov	r1, r6
 288 0034 A868     		ldr	r0, [r5, #8]
 289 0036 FFF7FEFF 		bl	xStreamBufferSend
 290              	.LVL29:
  93:../Core/Src/sdio.c **** 
  94:../Core/Src/sdio.c ****     return 1;
 291              		.loc 1 94 5 view .LVU66
 292              		.loc 1 94 12 is_stmt 0 view .LVU67
 293 003a 0120     		movs	r0, #1
 294 003c 02E0     		b	.L21
 295              	.LVL30:
 296              	.L23:
 297              	.LCFI9:
 298              		.cfi_def_cfa_offset 0
 299              		.cfi_restore 4
 300              		.cfi_restore 5
 301              		.cfi_restore 6
ARM GAS  /tmp/ccqy7meM.s 			page 8


 302              		.cfi_restore 14
  85:../Core/Src/sdio.c ****     }
 303              		.loc 1 85 16 view .LVU68
 304 003e 0020     		movs	r0, #0
 305              	.LVL31:
  95:../Core/Src/sdio.c **** }
 306              		.loc 1 95 1 view .LVU69
 307 0040 7047     		bx	lr
 308              	.LVL32:
 309              	.L24:
 310              	.LCFI10:
 311              		.cfi_def_cfa_offset 16
 312              		.cfi_offset 4, -16
 313              		.cfi_offset 5, -12
 314              		.cfi_offset 6, -8
 315              		.cfi_offset 14, -4
  85:../Core/Src/sdio.c ****     }
 316              		.loc 1 85 16 view .LVU70
 317 0042 0020     		movs	r0, #0
 318              	.LVL33:
 319              	.L21:
 320              		.loc 1 95 1 view .LVU71
 321 0044 70BD     		pop	{r4, r5, r6, pc}
 322              		.loc 1 95 1 view .LVU72
 323              		.cfi_endproc
 324              	.LFE151:
 326              		.section	.text.sd_save_channel,"ax",%progbits
 327              		.align	1
 328              		.global	sd_save_channel
 329              		.syntax unified
 330              		.thumb
 331              		.thumb_func
 332              		.fpu fpv5-d16
 334              	sd_save_channel:
 335              	.LVL34:
 336              	.LFB152:
  96:../Core/Src/sdio.c **** 
  97:../Core/Src/sdio.c **** /**
  98:../Core/Src/sdio.c ****  * Save the data in a channel to the SD card. The channel must be in write mode.
  99:../Core/Src/sdio.c ****  * @param channel The channel to save
 100:../Core/Src/sdio.c ****  * @return 1 if successful, 0 otherwise
 101:../Core/Src/sdio.c ****  */
 102:../Core/Src/sdio.c **** int sd_save_channel(SDChannel *channel) {
 337              		.loc 1 102 41 is_stmt 1 view -0
 338              		.cfi_startproc
 339              		@ args = 0, pretend = 0, frame = 16
 340              		@ frame_needed = 0, uses_anonymous_args = 0
 103:../Core/Src/sdio.c ****     /* Validate channel */
 104:../Core/Src/sdio.c ****     if (channel == NULL || channel->mode != SD_MODE_WRITE) {
 341              		.loc 1 104 5 view .LVU74
 342              		.loc 1 104 8 is_stmt 0 view .LVU75
 343 0000 C0B1     		cbz	r0, .L35
 344              		.loc 1 104 35 discriminator 1 view .LVU76
 345 0002 0279     		ldrb	r2, [r0, #4]	@ zero_extendqisi2
 346              		.loc 1 104 25 discriminator 1 view .LVU77
 347 0004 012A     		cmp	r2, #1
 348 0006 01D0     		beq	.L42
ARM GAS  /tmp/ccqy7meM.s 			page 9


 105:../Core/Src/sdio.c ****         return 0;
 349              		.loc 1 105 16 view .LVU78
 350 0008 0020     		movs	r0, #0
 351              	.LVL35:
 106:../Core/Src/sdio.c ****     }
 107:../Core/Src/sdio.c **** 
 108:../Core/Src/sdio.c ****     SDOperation operation = {
 109:../Core/Src/sdio.c ****         .type = SD_OPERATION_SAVE,
 110:../Core/Src/sdio.c ****         .channel = channel,
 111:../Core/Src/sdio.c ****         .offset = 0, /* Unused */
 112:../Core/Src/sdio.c ****         .n_bytes = 0, /* Unused */
 113:../Core/Src/sdio.c ****     };
 114:../Core/Src/sdio.c **** 
 115:../Core/Src/sdio.c ****     size_t bytes_written = xMessageBufferSend(g_sdio_mb_handle, &operation, sizeof(SDOperation), 0)
 116:../Core/Src/sdio.c **** 
 117:../Core/Src/sdio.c ****     if (bytes_written != sizeof(SDOperation)) {
 118:../Core/Src/sdio.c ****         return 0;
 119:../Core/Src/sdio.c ****     }
 120:../Core/Src/sdio.c **** 
 121:../Core/Src/sdio.c ****     return 1;
 122:../Core/Src/sdio.c **** }
 352              		.loc 1 122 1 view .LVU79
 353 000a 7047     		bx	lr
 354              	.LVL36:
 355              	.L42:
 102:../Core/Src/sdio.c ****     /* Validate channel */
 356              		.loc 1 102 41 view .LVU80
 357 000c 00B5     		push	{lr}
 358              	.LCFI11:
 359              		.cfi_def_cfa_offset 4
 360              		.cfi_offset 14, -4
 361 000e 85B0     		sub	sp, sp, #20
 362              	.LCFI12:
 363              		.cfi_def_cfa_offset 24
 108:../Core/Src/sdio.c ****         .type = SD_OPERATION_SAVE,
 364              		.loc 1 108 5 is_stmt 1 view .LVU81
 108:../Core/Src/sdio.c ****         .type = SD_OPERATION_SAVE,
 365              		.loc 1 108 17 is_stmt 0 view .LVU82
 366 0010 8DF80020 		strb	r2, [sp]
 367 0014 0190     		str	r0, [sp, #4]
 368 0016 0023     		movs	r3, #0
 369 0018 0293     		str	r3, [sp, #8]
 370 001a 0393     		str	r3, [sp, #12]
 115:../Core/Src/sdio.c **** 
 371              		.loc 1 115 5 is_stmt 1 view .LVU83
 115:../Core/Src/sdio.c **** 
 372              		.loc 1 115 28 is_stmt 0 view .LVU84
 373 001c 1022     		movs	r2, #16
 374 001e 6946     		mov	r1, sp
 375 0020 0648     		ldr	r0, .L43
 376              	.LVL37:
 115:../Core/Src/sdio.c **** 
 377              		.loc 1 115 28 view .LVU85
 378 0022 0068     		ldr	r0, [r0]
 379 0024 FFF7FEFF 		bl	xStreamBufferSend
 380              	.LVL38:
 117:../Core/Src/sdio.c ****         return 0;
ARM GAS  /tmp/ccqy7meM.s 			page 10


 381              		.loc 1 117 5 is_stmt 1 view .LVU86
 117:../Core/Src/sdio.c ****         return 0;
 382              		.loc 1 117 8 is_stmt 0 view .LVU87
 383 0028 1028     		cmp	r0, #16
 384 002a 05D1     		bne	.L37
 121:../Core/Src/sdio.c **** }
 385              		.loc 1 121 12 view .LVU88
 386 002c 0120     		movs	r0, #1
 387              	.LVL39:
 388              	.L33:
 389              		.loc 1 122 1 view .LVU89
 390 002e 05B0     		add	sp, sp, #20
 391              	.LCFI13:
 392              		.cfi_def_cfa_offset 4
 393              		@ sp needed
 394 0030 5DF804FB 		ldr	pc, [sp], #4
 395              	.LVL40:
 396              	.L35:
 397              	.LCFI14:
 398              		.cfi_def_cfa_offset 0
 399              		.cfi_restore 14
 105:../Core/Src/sdio.c ****     }
 400              		.loc 1 105 16 view .LVU90
 401 0034 0020     		movs	r0, #0
 402              	.LVL41:
 105:../Core/Src/sdio.c ****     }
 403              		.loc 1 105 16 view .LVU91
 404 0036 7047     		bx	lr
 405              	.LVL42:
 406              	.L37:
 407              	.LCFI15:
 408              		.cfi_def_cfa_offset 24
 409              		.cfi_offset 14, -4
 118:../Core/Src/sdio.c ****     }
 410              		.loc 1 118 16 view .LVU92
 411 0038 0020     		movs	r0, #0
 412              	.LVL43:
 118:../Core/Src/sdio.c ****     }
 413              		.loc 1 118 16 view .LVU93
 414 003a F8E7     		b	.L33
 415              	.L44:
 416              		.align	2
 417              	.L43:
 418 003c 00000000 		.word	g_sdio_mb_handle
 419              		.cfi_endproc
 420              	.LFE152:
 422              		.section	.text.sd_load_channel,"ax",%progbits
 423              		.align	1
 424              		.global	sd_load_channel
 425              		.syntax unified
 426              		.thumb
 427              		.thumb_func
 428              		.fpu fpv5-d16
 430              	sd_load_channel:
 431              	.LVL44:
 432              	.LFB153:
 123:../Core/Src/sdio.c **** 
ARM GAS  /tmp/ccqy7meM.s 			page 11


 124:../Core/Src/sdio.c **** /**
 125:../Core/Src/sdio.c ****  * Load data from the SD card into a channel. The channel must be in read mode.
 126:../Core/Src/sdio.c ****  * @param channel The channel to load from
 127:../Core/Src/sdio.c ****  * @param offset The byte offset to start reading from
 128:../Core/Src/sdio.c ****  * @param bytes_to_read The number of bytes to read
 129:../Core/Src/sdio.c ****  * @return 1 if successful, 0 otherwise
 130:../Core/Src/sdio.c ****  */
 131:../Core/Src/sdio.c **** int sd_load_channel(SDChannel *channel, size_t offset, size_t bytes_to_read) {
 433              		.loc 1 131 78 is_stmt 1 view -0
 434              		.cfi_startproc
 435              		@ args = 0, pretend = 0, frame = 16
 436              		@ frame_needed = 0, uses_anonymous_args = 0
 132:../Core/Src/sdio.c ****     /* Validate channel */
 133:../Core/Src/sdio.c ****     if (channel == NULL || channel->mode != SD_MODE_READ) {
 437              		.loc 1 133 5 view .LVU95
 438              		.loc 1 133 8 is_stmt 0 view .LVU96
 439 0000 A8B1     		cbz	r0, .L47
 131:../Core/Src/sdio.c ****     /* Validate channel */
 440              		.loc 1 131 78 discriminator 1 view .LVU97
 441 0002 10B5     		push	{r4, lr}
 442              	.LCFI16:
 443              		.cfi_def_cfa_offset 8
 444              		.cfi_offset 4, -8
 445              		.cfi_offset 14, -4
 446 0004 84B0     		sub	sp, sp, #16
 447              	.LCFI17:
 448              		.cfi_def_cfa_offset 24
 449              		.loc 1 133 35 discriminator 1 view .LVU98
 450 0006 0379     		ldrb	r3, [r0, #4]	@ zero_extendqisi2
 451              		.loc 1 133 25 discriminator 1 view .LVU99
 452 0008 13B1     		cbz	r3, .L54
 134:../Core/Src/sdio.c ****         return 0;
 453              		.loc 1 134 16 view .LVU100
 454 000a 0020     		movs	r0, #0
 455              	.LVL45:
 456              	.L45:
 135:../Core/Src/sdio.c ****     }
 136:../Core/Src/sdio.c **** 
 137:../Core/Src/sdio.c ****     SDOperation operation = {
 138:../Core/Src/sdio.c ****         .type = SD_OPERATION_LOAD,
 139:../Core/Src/sdio.c ****         .channel = channel,
 140:../Core/Src/sdio.c ****         .offset = offset,
 141:../Core/Src/sdio.c ****         .n_bytes = bytes_to_read,
 142:../Core/Src/sdio.c ****     };
 143:../Core/Src/sdio.c **** 
 144:../Core/Src/sdio.c ****     size_t bytes_written = xMessageBufferSend(g_sdio_mb_handle, &operation, sizeof(SDOperation), 0)
 145:../Core/Src/sdio.c **** 
 146:../Core/Src/sdio.c ****     if (bytes_written != sizeof(SDOperation)) {
 147:../Core/Src/sdio.c ****         return 0;
 148:../Core/Src/sdio.c ****     }
 149:../Core/Src/sdio.c **** 
 150:../Core/Src/sdio.c ****     return 1;
 151:../Core/Src/sdio.c **** }
 457              		.loc 1 151 1 view .LVU101
 458 000c 04B0     		add	sp, sp, #16
 459              	.LCFI18:
 460              		.cfi_remember_state
ARM GAS  /tmp/ccqy7meM.s 			page 12


 461              		.cfi_def_cfa_offset 8
 462              		@ sp needed
 463 000e 10BD     		pop	{r4, pc}
 464              	.LVL46:
 465              	.L54:
 466              	.LCFI19:
 467              		.cfi_restore_state
 137:../Core/Src/sdio.c ****         .type = SD_OPERATION_LOAD,
 468              		.loc 1 137 5 is_stmt 1 view .LVU102
 137:../Core/Src/sdio.c ****         .type = SD_OPERATION_LOAD,
 469              		.loc 1 137 17 is_stmt 0 view .LVU103
 470 0010 8DF80030 		strb	r3, [sp]
 471 0014 0190     		str	r0, [sp, #4]
 472 0016 0291     		str	r1, [sp, #8]
 473 0018 0392     		str	r2, [sp, #12]
 144:../Core/Src/sdio.c **** 
 474              		.loc 1 144 5 is_stmt 1 view .LVU104
 144:../Core/Src/sdio.c **** 
 475              		.loc 1 144 28 is_stmt 0 view .LVU105
 476 001a 1022     		movs	r2, #16
 477              	.LVL47:
 144:../Core/Src/sdio.c **** 
 478              		.loc 1 144 28 view .LVU106
 479 001c 6946     		mov	r1, sp
 480              	.LVL48:
 144:../Core/Src/sdio.c **** 
 481              		.loc 1 144 28 view .LVU107
 482 001e 0648     		ldr	r0, .L55
 483              	.LVL49:
 144:../Core/Src/sdio.c **** 
 484              		.loc 1 144 28 view .LVU108
 485 0020 0068     		ldr	r0, [r0]
 486 0022 FFF7FEFF 		bl	xStreamBufferSend
 487              	.LVL50:
 146:../Core/Src/sdio.c ****         return 0;
 488              		.loc 1 146 5 is_stmt 1 view .LVU109
 146:../Core/Src/sdio.c ****         return 0;
 489              		.loc 1 146 8 is_stmt 0 view .LVU110
 490 0026 1028     		cmp	r0, #16
 491 0028 03D1     		bne	.L49
 150:../Core/Src/sdio.c **** }
 492              		.loc 1 150 12 view .LVU111
 493 002a 0120     		movs	r0, #1
 494              	.LVL51:
 150:../Core/Src/sdio.c **** }
 495              		.loc 1 150 12 view .LVU112
 496 002c EEE7     		b	.L45
 497              	.LVL52:
 498              	.L47:
 499              	.LCFI20:
 500              		.cfi_def_cfa_offset 0
 501              		.cfi_restore 4
 502              		.cfi_restore 14
 134:../Core/Src/sdio.c ****     }
 503              		.loc 1 134 16 view .LVU113
 504 002e 0020     		movs	r0, #0
 505              	.LVL53:
ARM GAS  /tmp/ccqy7meM.s 			page 13


 506              		.loc 1 151 1 view .LVU114
 507 0030 7047     		bx	lr
 508              	.LVL54:
 509              	.L49:
 510              	.LCFI21:
 511              		.cfi_def_cfa_offset 24
 512              		.cfi_offset 4, -8
 513              		.cfi_offset 14, -4
 147:../Core/Src/sdio.c ****     }
 514              		.loc 1 147 16 view .LVU115
 515 0032 0020     		movs	r0, #0
 516              	.LVL55:
 147:../Core/Src/sdio.c ****     }
 517              		.loc 1 147 16 view .LVU116
 518 0034 EAE7     		b	.L45
 519              	.L56:
 520 0036 00BF     		.align	2
 521              	.L55:
 522 0038 00000000 		.word	g_sdio_mb_handle
 523              		.cfi_endproc
 524              	.LFE153:
 526              		.section	.text.sd_read_channel,"ax",%progbits
 527              		.align	1
 528              		.global	sd_read_channel
 529              		.syntax unified
 530              		.thumb
 531              		.thumb_func
 532              		.fpu fpv5-d16
 534              	sd_read_channel:
 535              	.LVL56:
 536              	.LFB154:
 152:../Core/Src/sdio.c **** 
 153:../Core/Src/sdio.c **** /**
 154:../Core/Src/sdio.c ****  * Read data from a channel. The channel must be in read mode.
 155:../Core/Src/sdio.c ****  * @param channel The channel to read from
 156:../Core/Src/sdio.c ****  * @param data The buffer to read into
 157:../Core/Src/sdio.c ****  * @param len The target number of bytes to read
 158:../Core/Src/sdio.c ****  * @return The number of bytes read
 159:../Core/Src/sdio.c ****  */
 160:../Core/Src/sdio.c **** int sd_read_channel(SDChannel *channel, uint8_t *data, size_t len) {
 537              		.loc 1 160 68 is_stmt 1 view -0
 538              		.cfi_startproc
 539              		@ args = 0, pretend = 0, frame = 0
 540              		@ frame_needed = 0, uses_anonymous_args = 0
 161:../Core/Src/sdio.c ****     if (channel == NULL || data == NULL || channel->mode != SD_MODE_READ) {
 541              		.loc 1 161 5 view .LVU118
 542              		.loc 1 161 8 is_stmt 0 view .LVU119
 543 0000 0029     		cmp	r1, #0
 544 0002 18BF     		it	ne
 545 0004 0028     		cmpne	r0, #0
 546 0006 09D0     		beq	.L59
 160:../Core/Src/sdio.c ****     if (channel == NULL || data == NULL || channel->mode != SD_MODE_READ) {
 547              		.loc 1 160 68 discriminator 1 view .LVU120
 548 0008 08B5     		push	{r3, lr}
 549              	.LCFI22:
 550              		.cfi_def_cfa_offset 8
 551              		.cfi_offset 3, -8
ARM GAS  /tmp/ccqy7meM.s 			page 14


 552              		.cfi_offset 14, -4
 553 000a 8E46     		mov	lr, r1
 554              		.loc 1 161 51 discriminator 1 view .LVU121
 555 000c 0379     		ldrb	r3, [r0, #4]	@ zero_extendqisi2
 556              		.loc 1 161 41 discriminator 1 view .LVU122
 557 000e 0BB1     		cbz	r3, .L65
 162:../Core/Src/sdio.c ****         return 0;
 558              		.loc 1 162 16 view .LVU123
 559 0010 0020     		movs	r0, #0
 560              	.LVL57:
 561              	.L57:
 163:../Core/Src/sdio.c ****     }
 164:../Core/Src/sdio.c **** 
 165:../Core/Src/sdio.c ****     return xStreamBufferReceive(channel->sb_handle, data, len, 0);
 166:../Core/Src/sdio.c **** }
 562              		.loc 1 166 1 view .LVU124
 563 0012 08BD     		pop	{r3, pc}
 564              	.LVL58:
 565              	.L65:
 165:../Core/Src/sdio.c **** }
 566              		.loc 1 165 5 is_stmt 1 view .LVU125
 165:../Core/Src/sdio.c **** }
 567              		.loc 1 165 12 is_stmt 0 view .LVU126
 568 0014 8068     		ldr	r0, [r0, #8]
 569              	.LVL59:
 165:../Core/Src/sdio.c **** }
 570              		.loc 1 165 12 view .LVU127
 571 0016 FFF7FEFF 		bl	xStreamBufferReceive
 572              	.LVL60:
 165:../Core/Src/sdio.c **** }
 573              		.loc 1 165 12 view .LVU128
 574 001a FAE7     		b	.L57
 575              	.LVL61:
 576              	.L59:
 577              	.LCFI23:
 578              		.cfi_def_cfa_offset 0
 579              		.cfi_restore 3
 580              		.cfi_restore 14
 162:../Core/Src/sdio.c ****         return 0;
 581              		.loc 1 162 16 view .LVU129
 582 001c 0020     		movs	r0, #0
 583              	.LVL62:
 584              		.loc 1 166 1 view .LVU130
 585 001e 7047     		bx	lr
 586              		.cfi_endproc
 587              	.LFE154:
 589              		.section	.text.load_operation,"ax",%progbits
 590              		.align	1
 591              		.global	load_operation
 592              		.syntax unified
 593              		.thumb
 594              		.thumb_func
 595              		.fpu fpv5-d16
 597              	load_operation:
 598              	.LVL63:
 599              	.LFB156:
 167:../Core/Src/sdio.c **** 
ARM GAS  /tmp/ccqy7meM.s 			page 15


 168:../Core/Src/sdio.c **** /**
 169:../Core/Src/sdio.c ****  * Task to handle SD card operations
 170:../Core/Src/sdio.c ****  * @param args Unused
 171:../Core/Src/sdio.c ****  */
 172:../Core/Src/sdio.c **** void sdio_task(void *args) {
 173:../Core/Src/sdio.c ****     uint8_t sd_mounted = 0;
 174:../Core/Src/sdio.c ****     FATFS fs;
 175:../Core/Src/sdio.c **** 
 176:../Core/Src/sdio.c ****     /* Buffer to mediate between fatfs and freertos stream buffer */
 177:../Core/Src/sdio.c ****     uint8_t data_buffer[SD_MAX_READ_WRITE_SIZE + 1]; // +1 because theres some weird buffer overflo
 178:../Core/Src/sdio.c **** 
 179:../Core/Src/sdio.c ****     /* Buffer to store operation messages */
 180:../Core/Src/sdio.c ****     uint8_t operation_buffer[sizeof(SDOperation)];
 181:../Core/Src/sdio.c **** 
 182:../Core/Src/sdio.c ****     /* Initial attempt to mount SD card */
 183:../Core/Src/sdio.c ****     if (f_mount(&fs, "/", 1) == FR_OK) {
 184:../Core/Src/sdio.c ****         sd_mounted = 1;
 185:../Core/Src/sdio.c ****     } else {
 186:../Core/Src/sdio.c ****         HAL_GPIO_TogglePin(LD3_GPIO_PORT, LD3_PIN);
 187:../Core/Src/sdio.c ****     }
 188:../Core/Src/sdio.c **** 
 189:../Core/Src/sdio.c ****     for (;;) {
 190:../Core/Src/sdio.c ****         /* Wait for an operation to be sent to us */
 191:../Core/Src/sdio.c ****         xMessageBufferReceive(g_sdio_mb_handle, operation_buffer, sizeof(SDOperation), portMAX_DELA
 192:../Core/Src/sdio.c **** 
 193:../Core/Src/sdio.c ****         /* Re-attempt to mount SD card if not already */
 194:../Core/Src/sdio.c ****         if (!sd_mounted && f_mount(&fs, "/", 1) == FR_OK) {
 195:../Core/Src/sdio.c ****             sd_mounted = 1;
 196:../Core/Src/sdio.c ****         }
 197:../Core/Src/sdio.c ****         
 198:../Core/Src/sdio.c ****         SDOperation *operation = (SDOperation *) operation_buffer;
 199:../Core/Src/sdio.c **** 
 200:../Core/Src/sdio.c ****         /* Perform a save/load operation */
 201:../Core/Src/sdio.c ****         if (operation->type == SD_OPERATION_SAVE) {
 202:../Core/Src/sdio.c ****             size_t bytes_saved = 0;
 203:../Core/Src/sdio.c ****             int status = save_operation(operation, data_buffer, &bytes_saved, sd_mounted);
 204:../Core/Src/sdio.c ****             sd_save_complete(operation->channel, status, bytes_saved);
 205:../Core/Src/sdio.c ****         } else if (operation->type == SD_OPERATION_LOAD) {
 206:../Core/Src/sdio.c ****             size_t bytes_loaded = 0;
 207:../Core/Src/sdio.c ****             int status = load_operation(&fs, operation, data_buffer, &bytes_loaded, sd_mounted);
 208:../Core/Src/sdio.c ****             sd_load_complete(operation->channel, status, bytes_loaded);
 209:../Core/Src/sdio.c ****         }
 210:../Core/Src/sdio.c ****     }
 211:../Core/Src/sdio.c **** }
 212:../Core/Src/sdio.c **** 
 213:../Core/Src/sdio.c **** /**
 214:../Core/Src/sdio.c ****  * Load data from the SD card into a channel.
 215:../Core/Src/sdio.c ****  * @param operation The operation to perform
 216:../Core/Src/sdio.c ****  * @param data_buffer The buffer to use as temporary storage
 217:../Core/Src/sdio.c ****  * @param sd_mounted Whether the SD card is mounted
 218:../Core/Src/sdio.c ****  * @return 1 if successful, 0 otherwise
 219:../Core/Src/sdio.c ****  */
 220:../Core/Src/sdio.c **** int load_operation(FATFS *fs, SDOperation *operation, uint8_t *data_buffer, size_t *bytes_loaded, u
 600              		.loc 1 220 119 is_stmt 1 view -0
 601              		.cfi_startproc
 602              		@ args = 4, pretend = 0, frame = 4152
 603              		@ frame_needed = 0, uses_anonymous_args = 0
ARM GAS  /tmp/ccqy7meM.s 			page 16


 604              		.loc 1 220 119 is_stmt 0 view .LVU132
 605 0000 F0B5     		push	{r4, r5, r6, r7, lr}
 606              	.LCFI24:
 607              		.cfi_def_cfa_offset 20
 608              		.cfi_offset 4, -20
 609              		.cfi_offset 5, -16
 610              		.cfi_offset 6, -12
 611              		.cfi_offset 7, -8
 612              		.cfi_offset 14, -4
 613 0002 ADF5815D 		sub	sp, sp, #4128
 614              	.LCFI25:
 615              		.cfi_def_cfa_offset 4148
 616 0006 87B0     		sub	sp, sp, #28
 617              	.LCFI26:
 618              		.cfi_def_cfa_offset 4176
 619 0008 1C46     		mov	r4, r3
 620 000a 41F25003 		movw	r3, #4176
 621              	.LVL64:
 622              		.loc 1 220 119 view .LVU133
 623 000e 6B44     		add	r3, sp, r3
 624 0010 1878     		ldrb	r0, [r3]	@ zero_extendqisi2
 625              	.LVL65:
 221:../Core/Src/sdio.c ****     if (!sd_mounted) {
 626              		.loc 1 221 5 is_stmt 1 view .LVU134
 627              		.loc 1 221 8 is_stmt 0 view .LVU135
 628 0012 20B9     		cbnz	r0, .L75
 222:../Core/Src/sdio.c ****         return 0;
 629              		.loc 1 222 16 view .LVU136
 630 0014 0020     		movs	r0, #0
 631              	.LVL66:
 632              	.L66:
 223:../Core/Src/sdio.c ****     }
 224:../Core/Src/sdio.c **** 
 225:../Core/Src/sdio.c ****     SDChannel *channel = operation->channel;
 226:../Core/Src/sdio.c ****     FIL fil;
 227:../Core/Src/sdio.c **** 
 228:../Core/Src/sdio.c ****     if (f_open(&fil, channel->file_path, FA_READ) != FR_OK) {
 229:../Core/Src/sdio.c ****         return 0;
 230:../Core/Src/sdio.c ****     }
 231:../Core/Src/sdio.c **** 
 232:../Core/Src/sdio.c ****     /* Set file pointer to an offset */
 233:../Core/Src/sdio.c ****     if (f_lseek(&fil, operation->offset) != FR_OK) {
 234:../Core/Src/sdio.c ****         return 0;
 235:../Core/Src/sdio.c ****     }
 236:../Core/Src/sdio.c ****     
 237:../Core/Src/sdio.c ****     UINT bytes_read; 
 238:../Core/Src/sdio.c ****     if (f_read(&fil, data_buffer, operation->n_bytes, &bytes_read) != FR_OK) {
 239:../Core/Src/sdio.c ****         return 0;
 240:../Core/Src/sdio.c ****     }
 241:../Core/Src/sdio.c **** 
 242:../Core/Src/sdio.c ****     size_t available = xStreamBufferSpacesAvailable(channel->sb_handle);
 243:../Core/Src/sdio.c **** 
 244:../Core/Src/sdio.c ****     if (available < bytes_read) {
 245:../Core/Src/sdio.c ****         return 0;
 246:../Core/Src/sdio.c ****     }
 247:../Core/Src/sdio.c **** 
 248:../Core/Src/sdio.c ****     *bytes_loaded = bytes_read;
ARM GAS  /tmp/ccqy7meM.s 			page 17


 249:../Core/Src/sdio.c **** 
 250:../Core/Src/sdio.c ****     xStreamBufferSend(channel->sb_handle, data_buffer, bytes_read, 0);
 251:../Core/Src/sdio.c **** 
 252:../Core/Src/sdio.c ****     if (f_close(&fil) != FR_OK) {
 253:../Core/Src/sdio.c ****         return 0;
 254:../Core/Src/sdio.c ****     }
 255:../Core/Src/sdio.c **** 
 256:../Core/Src/sdio.c ****     return 1;
 257:../Core/Src/sdio.c **** }
 633              		.loc 1 257 1 view .LVU137
 634 0016 0DF5815D 		add	sp, sp, #4128
 635 001a 07B0     		add	sp, sp, #28
 636              	.LCFI27:
 637              		.cfi_remember_state
 638              		.cfi_def_cfa_offset 20
 639              		@ sp needed
 640 001c F0BD     		pop	{r4, r5, r6, r7, pc}
 641              	.LVL67:
 642              	.L75:
 643              	.LCFI28:
 644              		.cfi_restore_state
 645              		.loc 1 257 1 view .LVU138
 646 001e 0E46     		mov	r6, r1
 647 0020 1546     		mov	r5, r2
 225:../Core/Src/sdio.c ****     FIL fil;
 648              		.loc 1 225 5 is_stmt 1 view .LVU139
 225:../Core/Src/sdio.c ****     FIL fil;
 649              		.loc 1 225 16 is_stmt 0 view .LVU140
 650 0022 4F68     		ldr	r7, [r1, #4]
 651              	.LVL68:
 226:../Core/Src/sdio.c **** 
 652              		.loc 1 226 5 is_stmt 1 view .LVU141
 228:../Core/Src/sdio.c ****         return 0;
 653              		.loc 1 228 5 view .LVU142
 228:../Core/Src/sdio.c ****         return 0;
 654              		.loc 1 228 9 is_stmt 0 view .LVU143
 655 0024 0122     		movs	r2, #1
 656              	.LVL69:
 228:../Core/Src/sdio.c ****         return 0;
 657              		.loc 1 228 9 view .LVU144
 658 0026 3968     		ldr	r1, [r7]
 659              	.LVL70:
 228:../Core/Src/sdio.c ****         return 0;
 660              		.loc 1 228 9 view .LVU145
 661 0028 02A8     		add	r0, sp, #8
 662 002a FFF7FEFF 		bl	f_open
 663              	.LVL71:
 228:../Core/Src/sdio.c ****         return 0;
 664              		.loc 1 228 8 view .LVU146
 665 002e 08B1     		cbz	r0, .L76
 229:../Core/Src/sdio.c ****     }
 666              		.loc 1 229 16 view .LVU147
 667 0030 0020     		movs	r0, #0
 668 0032 F0E7     		b	.L66
 669              	.L76:
 233:../Core/Src/sdio.c ****         return 0;
 670              		.loc 1 233 5 is_stmt 1 view .LVU148
ARM GAS  /tmp/ccqy7meM.s 			page 18


 233:../Core/Src/sdio.c ****         return 0;
 671              		.loc 1 233 9 is_stmt 0 view .LVU149
 672 0034 B168     		ldr	r1, [r6, #8]
 673 0036 02A8     		add	r0, sp, #8
 674 0038 FFF7FEFF 		bl	f_lseek
 675              	.LVL72:
 233:../Core/Src/sdio.c ****         return 0;
 676              		.loc 1 233 8 view .LVU150
 677 003c 08B1     		cbz	r0, .L77
 234:../Core/Src/sdio.c ****     }
 678              		.loc 1 234 16 view .LVU151
 679 003e 0020     		movs	r0, #0
 680 0040 E9E7     		b	.L66
 681              	.L77:
 237:../Core/Src/sdio.c ****     if (f_read(&fil, data_buffer, operation->n_bytes, &bytes_read) != FR_OK) {
 682              		.loc 1 237 5 is_stmt 1 view .LVU152
 238:../Core/Src/sdio.c ****         return 0;
 683              		.loc 1 238 5 view .LVU153
 238:../Core/Src/sdio.c ****         return 0;
 684              		.loc 1 238 9 is_stmt 0 view .LVU154
 685 0042 01AB     		add	r3, sp, #4
 686 0044 F268     		ldr	r2, [r6, #12]
 687 0046 2946     		mov	r1, r5
 688 0048 02A8     		add	r0, sp, #8
 689 004a FFF7FEFF 		bl	f_read
 690              	.LVL73:
 238:../Core/Src/sdio.c ****         return 0;
 691              		.loc 1 238 8 view .LVU155
 692 004e 08B1     		cbz	r0, .L78
 239:../Core/Src/sdio.c ****     }
 693              		.loc 1 239 16 view .LVU156
 694 0050 0020     		movs	r0, #0
 695 0052 E0E7     		b	.L66
 696              	.L78:
 242:../Core/Src/sdio.c **** 
 697              		.loc 1 242 5 is_stmt 1 view .LVU157
 242:../Core/Src/sdio.c **** 
 698              		.loc 1 242 24 is_stmt 0 view .LVU158
 699 0054 B868     		ldr	r0, [r7, #8]
 700 0056 FFF7FEFF 		bl	xStreamBufferSpacesAvailable
 701              	.LVL74:
 244:../Core/Src/sdio.c ****         return 0;
 702              		.loc 1 244 5 is_stmt 1 view .LVU159
 244:../Core/Src/sdio.c ****         return 0;
 703              		.loc 1 244 19 is_stmt 0 view .LVU160
 704 005a 019A     		ldr	r2, [sp, #4]
 244:../Core/Src/sdio.c ****         return 0;
 705              		.loc 1 244 8 view .LVU161
 706 005c 8242     		cmp	r2, r0
 707 005e 01D9     		bls	.L79
 245:../Core/Src/sdio.c ****     }
 708              		.loc 1 245 16 view .LVU162
 709 0060 0020     		movs	r0, #0
 710              	.LVL75:
 245:../Core/Src/sdio.c ****     }
 711              		.loc 1 245 16 view .LVU163
 712 0062 D8E7     		b	.L66
ARM GAS  /tmp/ccqy7meM.s 			page 19


 713              	.LVL76:
 714              	.L79:
 248:../Core/Src/sdio.c **** 
 715              		.loc 1 248 5 is_stmt 1 view .LVU164
 248:../Core/Src/sdio.c **** 
 716              		.loc 1 248 19 is_stmt 0 view .LVU165
 717 0064 2260     		str	r2, [r4]
 250:../Core/Src/sdio.c **** 
 718              		.loc 1 250 5 is_stmt 1 view .LVU166
 719 0066 0023     		movs	r3, #0
 720 0068 2946     		mov	r1, r5
 721 006a B868     		ldr	r0, [r7, #8]
 722              	.LVL77:
 250:../Core/Src/sdio.c **** 
 723              		.loc 1 250 5 is_stmt 0 view .LVU167
 724 006c FFF7FEFF 		bl	xStreamBufferSend
 725              	.LVL78:
 252:../Core/Src/sdio.c ****         return 0;
 726              		.loc 1 252 5 is_stmt 1 view .LVU168
 252:../Core/Src/sdio.c ****         return 0;
 727              		.loc 1 252 9 is_stmt 0 view .LVU169
 728 0070 02A8     		add	r0, sp, #8
 729 0072 FFF7FEFF 		bl	f_close
 730              	.LVL79:
 252:../Core/Src/sdio.c ****         return 0;
 731              		.loc 1 252 8 view .LVU170
 732 0076 08B9     		cbnz	r0, .L73
 256:../Core/Src/sdio.c **** }
 733              		.loc 1 256 12 view .LVU171
 734 0078 0120     		movs	r0, #1
 735 007a CCE7     		b	.L66
 736              	.L73:
 253:../Core/Src/sdio.c ****     }
 737              		.loc 1 253 16 view .LVU172
 738 007c 0020     		movs	r0, #0
 739 007e CAE7     		b	.L66
 740              		.cfi_endproc
 741              	.LFE156:
 743              		.section	.text.save_operation,"ax",%progbits
 744              		.align	1
 745              		.global	save_operation
 746              		.syntax unified
 747              		.thumb
 748              		.thumb_func
 749              		.fpu fpv5-d16
 751              	save_operation:
 752              	.LVL80:
 753              	.LFB157:
 258:../Core/Src/sdio.c **** 
 259:../Core/Src/sdio.c **** /**
 260:../Core/Src/sdio.c ****  * Save data to the SD card from a channel.
 261:../Core/Src/sdio.c ****  * @param operation The operation to perform
 262:../Core/Src/sdio.c ****  * @param data_buffer The buffer to use as temporary storage
 263:../Core/Src/sdio.c ****  * @param sd_mounted Whether the SD card is mounted
 264:../Core/Src/sdio.c ****  * @return 1 if successful, 0 otherwise
 265:../Core/Src/sdio.c ****  */
 266:../Core/Src/sdio.c **** int save_operation(SDOperation *operation, uint8_t *data_buffer, size_t *bytes_saved, uint8_t sd_mo
ARM GAS  /tmp/ccqy7meM.s 			page 20


 754              		.loc 1 266 107 is_stmt 1 view -0
 755              		.cfi_startproc
 756              		@ args = 0, pretend = 0, frame = 4152
 757              		@ frame_needed = 0, uses_anonymous_args = 0
 267:../Core/Src/sdio.c ****     if (!sd_mounted) {
 758              		.loc 1 267 5 view .LVU174
 759              		.loc 1 267 8 is_stmt 0 view .LVU175
 760 0000 0BB9     		cbnz	r3, .L90
 268:../Core/Src/sdio.c ****         return 0;
 761              		.loc 1 268 16 view .LVU176
 762 0002 0020     		movs	r0, #0
 763              	.LVL81:
 269:../Core/Src/sdio.c ****     }
 270:../Core/Src/sdio.c **** 
 271:../Core/Src/sdio.c ****     SDChannel *channel = operation->channel;
 272:../Core/Src/sdio.c ****     FIL fil;
 273:../Core/Src/sdio.c ****     
 274:../Core/Src/sdio.c ****     if (f_open(&fil, channel->file_path, FA_WRITE | FA_OPEN_APPEND) != FR_OK) {
 275:../Core/Src/sdio.c ****         return 0;
 276:../Core/Src/sdio.c ****     } 
 277:../Core/Src/sdio.c **** 
 278:../Core/Src/sdio.c ****     size_t available = xStreamBufferBytesAvailable(channel->sb_handle);
 279:../Core/Src/sdio.c ****     *bytes_saved = available;
 280:../Core/Src/sdio.c **** 
 281:../Core/Src/sdio.c ****     xStreamBufferReceive(channel->sb_handle, data_buffer, available, 0);
 282:../Core/Src/sdio.c ****     
 283:../Core/Src/sdio.c ****     UINT written;
 284:../Core/Src/sdio.c ****     if (f_write(&fil, data_buffer, available, &written) != FR_OK) {
 285:../Core/Src/sdio.c ****         return 0;
 286:../Core/Src/sdio.c ****     }
 287:../Core/Src/sdio.c ****     
 288:../Core/Src/sdio.c ****     if (f_close(&fil) != FR_OK) {
 289:../Core/Src/sdio.c ****         return 0;
 290:../Core/Src/sdio.c ****     }
 291:../Core/Src/sdio.c **** 
 292:../Core/Src/sdio.c ****     return 1;
 293:../Core/Src/sdio.c **** }
 764              		.loc 1 293 1 view .LVU177
 765 0004 7047     		bx	lr
 766              	.LVL82:
 767              	.L90:
 266:../Core/Src/sdio.c ****     if (!sd_mounted) {
 768              		.loc 1 266 107 view .LVU178
 769 0006 F0B5     		push	{r4, r5, r6, r7, lr}
 770              	.LCFI29:
 771              		.cfi_def_cfa_offset 20
 772              		.cfi_offset 4, -20
 773              		.cfi_offset 5, -16
 774              		.cfi_offset 6, -12
 775              		.cfi_offset 7, -8
 776              		.cfi_offset 14, -4
 777 0008 ADF5815D 		sub	sp, sp, #4128
 778              	.LCFI30:
 779              		.cfi_def_cfa_offset 4148
 780 000c 87B0     		sub	sp, sp, #28
 781              	.LCFI31:
 782              		.cfi_def_cfa_offset 4176
ARM GAS  /tmp/ccqy7meM.s 			page 21


 783 000e 0D46     		mov	r5, r1
 784 0010 1446     		mov	r4, r2
 271:../Core/Src/sdio.c ****     FIL fil;
 785              		.loc 1 271 5 is_stmt 1 view .LVU179
 271:../Core/Src/sdio.c ****     FIL fil;
 786              		.loc 1 271 16 is_stmt 0 view .LVU180
 787 0012 4668     		ldr	r6, [r0, #4]
 788              	.LVL83:
 272:../Core/Src/sdio.c ****     
 789              		.loc 1 272 5 is_stmt 1 view .LVU181
 274:../Core/Src/sdio.c ****         return 0;
 790              		.loc 1 274 5 view .LVU182
 274:../Core/Src/sdio.c ****         return 0;
 791              		.loc 1 274 9 is_stmt 0 view .LVU183
 792 0014 3222     		movs	r2, #50
 793              	.LVL84:
 274:../Core/Src/sdio.c ****         return 0;
 794              		.loc 1 274 9 view .LVU184
 795 0016 3168     		ldr	r1, [r6]
 796              	.LVL85:
 274:../Core/Src/sdio.c ****         return 0;
 797              		.loc 1 274 9 view .LVU185
 798 0018 02A8     		add	r0, sp, #8
 799              	.LVL86:
 274:../Core/Src/sdio.c ****         return 0;
 800              		.loc 1 274 9 view .LVU186
 801 001a FFF7FEFF 		bl	f_open
 802              	.LVL87:
 274:../Core/Src/sdio.c ****         return 0;
 803              		.loc 1 274 8 view .LVU187
 804 001e 20B1     		cbz	r0, .L91
 275:../Core/Src/sdio.c ****     } 
 805              		.loc 1 275 16 view .LVU188
 806 0020 0020     		movs	r0, #0
 807              	.L80:
 808              		.loc 1 293 1 view .LVU189
 809 0022 0DF5815D 		add	sp, sp, #4128
 810 0026 07B0     		add	sp, sp, #28
 811              	.LCFI32:
 812              		.cfi_remember_state
 813              		.cfi_def_cfa_offset 20
 814              		@ sp needed
 815 0028 F0BD     		pop	{r4, r5, r6, r7, pc}
 816              	.LVL88:
 817              	.L91:
 818              	.LCFI33:
 819              		.cfi_restore_state
 278:../Core/Src/sdio.c ****     *bytes_saved = available;
 820              		.loc 1 278 5 is_stmt 1 view .LVU190
 278:../Core/Src/sdio.c ****     *bytes_saved = available;
 821              		.loc 1 278 24 is_stmt 0 view .LVU191
 822 002a B068     		ldr	r0, [r6, #8]
 823 002c FFF7FEFF 		bl	xStreamBufferBytesAvailable
 824              	.LVL89:
 825 0030 0746     		mov	r7, r0
 826              	.LVL90:
 279:../Core/Src/sdio.c **** 
ARM GAS  /tmp/ccqy7meM.s 			page 22


 827              		.loc 1 279 5 is_stmt 1 view .LVU192
 279:../Core/Src/sdio.c **** 
 828              		.loc 1 279 18 is_stmt 0 view .LVU193
 829 0032 2060     		str	r0, [r4]
 281:../Core/Src/sdio.c ****     
 830              		.loc 1 281 5 is_stmt 1 view .LVU194
 831 0034 0023     		movs	r3, #0
 832 0036 0246     		mov	r2, r0
 833 0038 2946     		mov	r1, r5
 834 003a B068     		ldr	r0, [r6, #8]
 835              	.LVL91:
 281:../Core/Src/sdio.c ****     
 836              		.loc 1 281 5 is_stmt 0 view .LVU195
 837 003c FFF7FEFF 		bl	xStreamBufferReceive
 838              	.LVL92:
 283:../Core/Src/sdio.c ****     if (f_write(&fil, data_buffer, available, &written) != FR_OK) {
 839              		.loc 1 283 5 is_stmt 1 view .LVU196
 284:../Core/Src/sdio.c ****         return 0;
 840              		.loc 1 284 5 view .LVU197
 284:../Core/Src/sdio.c ****         return 0;
 841              		.loc 1 284 9 is_stmt 0 view .LVU198
 842 0040 01AB     		add	r3, sp, #4
 843 0042 3A46     		mov	r2, r7
 844 0044 2946     		mov	r1, r5
 845 0046 02A8     		add	r0, sp, #8
 846 0048 FFF7FEFF 		bl	f_write
 847              	.LVL93:
 284:../Core/Src/sdio.c ****         return 0;
 848              		.loc 1 284 8 view .LVU199
 849 004c 08B1     		cbz	r0, .L92
 285:../Core/Src/sdio.c ****     }
 850              		.loc 1 285 16 view .LVU200
 851 004e 0020     		movs	r0, #0
 852 0050 E7E7     		b	.L80
 853              	.L92:
 288:../Core/Src/sdio.c ****         return 0;
 854              		.loc 1 288 5 is_stmt 1 view .LVU201
 288:../Core/Src/sdio.c ****         return 0;
 855              		.loc 1 288 9 is_stmt 0 view .LVU202
 856 0052 02A8     		add	r0, sp, #8
 857 0054 FFF7FEFF 		bl	f_close
 858              	.LVL94:
 288:../Core/Src/sdio.c ****         return 0;
 859              		.loc 1 288 8 view .LVU203
 860 0058 08B9     		cbnz	r0, .L85
 292:../Core/Src/sdio.c **** }
 861              		.loc 1 292 12 view .LVU204
 862 005a 0120     		movs	r0, #1
 863 005c E1E7     		b	.L80
 864              	.L85:
 289:../Core/Src/sdio.c ****     }
 865              		.loc 1 289 16 view .LVU205
 866 005e 0020     		movs	r0, #0
 867 0060 DFE7     		b	.L80
 868              		.cfi_endproc
 869              	.LFE157:
 871              		.section	.text.sd_save_complete,"ax",%progbits
ARM GAS  /tmp/ccqy7meM.s 			page 23


 872              		.align	1
 873              		.global	sd_save_complete
 874              		.syntax unified
 875              		.thumb
 876              		.thumb_func
 877              		.fpu fpv5-d16
 879              	sd_save_complete:
 880              	.LVL95:
 881              	.LFB158:
 294:../Core/Src/sdio.c **** #include "sd_test.h"
 295:../Core/Src/sdio.c **** 
 296:../Core/Src/sdio.c **** /**
 297:../Core/Src/sdio.c ****  * Callback for when a save operation is complete
 298:../Core/Src/sdio.c ****  * @param channel The channel that was saved
 299:../Core/Src/sdio.c ****  * @param bytes_saved The number of bytes saved
 300:../Core/Src/sdio.c ****  * @param status The status of the save operation. 1 if successful, 0 otherwise
 301:../Core/Src/sdio.c ****  */
 302:../Core/Src/sdio.c **** void sd_save_complete(SDChannel *channel, int status, size_t bytes_saved) {
 882              		.loc 1 302 75 is_stmt 1 view -0
 883              		.cfi_startproc
 884              		@ args = 0, pretend = 0, frame = 0
 885              		@ frame_needed = 0, uses_anonymous_args = 0
 303:../Core/Src/sdio.c ****     if (channel->id == 0) {
 886              		.loc 1 303 5 view .LVU207
 887              		.loc 1 303 16 is_stmt 0 view .LVU208
 888 0000 4379     		ldrb	r3, [r0, #5]	@ zero_extendqisi2
 889              		.loc 1 303 8 view .LVU209
 890 0002 03B1     		cbz	r3, .L99
 891 0004 7047     		bx	lr
 892              	.L99:
 302:../Core/Src/sdio.c ****     if (channel->id == 0) {
 893              		.loc 1 302 75 view .LVU210
 894 0006 00B5     		push	{lr}
 895              	.LCFI34:
 896              		.cfi_def_cfa_offset 4
 897              		.cfi_offset 14, -4
 898 0008 83B0     		sub	sp, sp, #12
 899              	.LCFI35:
 900              		.cfi_def_cfa_offset 16
 304:../Core/Src/sdio.c ****         xTaskNotify(g_test_task_handle, SD_TASK_WRITE_COMPLETE_BIT, eSetBits);
 901              		.loc 1 304 9 is_stmt 1 view .LVU211
 902 000a 0021     		movs	r1, #0
 903              	.LVL96:
 904              		.loc 1 304 9 is_stmt 0 view .LVU212
 905 000c 0091     		str	r1, [sp]
 906 000e 0123     		movs	r3, #1
 907 0010 0222     		movs	r2, #2
 908              	.LVL97:
 909              		.loc 1 304 9 view .LVU213
 910 0012 0348     		ldr	r0, .L100
 911              	.LVL98:
 912              		.loc 1 304 9 view .LVU214
 913 0014 0068     		ldr	r0, [r0]
 914 0016 FFF7FEFF 		bl	xTaskGenericNotify
 915              	.LVL99:
 305:../Core/Src/sdio.c ****     }
 306:../Core/Src/sdio.c **** }
ARM GAS  /tmp/ccqy7meM.s 			page 24


 916              		.loc 1 306 1 view .LVU215
 917 001a 03B0     		add	sp, sp, #12
 918              	.LCFI36:
 919              		.cfi_def_cfa_offset 4
 920              		@ sp needed
 921 001c 5DF804FB 		ldr	pc, [sp], #4
 922              	.L101:
 923              		.align	2
 924              	.L100:
 925 0020 00000000 		.word	g_test_task_handle
 926              		.cfi_endproc
 927              	.LFE158:
 929              		.section	.text.sd_load_complete,"ax",%progbits
 930              		.align	1
 931              		.global	sd_load_complete
 932              		.syntax unified
 933              		.thumb
 934              		.thumb_func
 935              		.fpu fpv5-d16
 937              	sd_load_complete:
 938              	.LVL100:
 939              	.LFB159:
 307:../Core/Src/sdio.c **** 
 308:../Core/Src/sdio.c **** /**
 309:../Core/Src/sdio.c ****  * Callback for when a load operation is complete
 310:../Core/Src/sdio.c ****  * @param channel The channel that was loaded
 311:../Core/Src/sdio.c ****  * @param bytes_loaded The number of bytes loaded
 312:../Core/Src/sdio.c ****  * @param status The status of the load operation. 1 if successful, 0 otherwise
 313:../Core/Src/sdio.c ****  */
 314:../Core/Src/sdio.c **** void sd_load_complete(SDChannel *channel, int status, size_t bytes_loaded) {
 940              		.loc 1 314 76 is_stmt 1 view -0
 941              		.cfi_startproc
 942              		@ args = 0, pretend = 0, frame = 0
 943              		@ frame_needed = 0, uses_anonymous_args = 0
 315:../Core/Src/sdio.c ****     if (channel->id == 1) {
 944              		.loc 1 315 5 view .LVU217
 945              		.loc 1 315 16 is_stmt 0 view .LVU218
 946 0000 4379     		ldrb	r3, [r0, #5]	@ zero_extendqisi2
 947              		.loc 1 315 8 view .LVU219
 948 0002 012B     		cmp	r3, #1
 949 0004 00D0     		beq	.L108
 950 0006 7047     		bx	lr
 951              	.L108:
 314:../Core/Src/sdio.c ****     if (channel->id == 1) {
 952              		.loc 1 314 76 view .LVU220
 953 0008 00B5     		push	{lr}
 954              	.LCFI37:
 955              		.cfi_def_cfa_offset 4
 956              		.cfi_offset 14, -4
 957 000a 83B0     		sub	sp, sp, #12
 958              	.LCFI38:
 959              		.cfi_def_cfa_offset 16
 316:../Core/Src/sdio.c ****         xTaskNotify(g_test_task_handle, SD_TASK_READ_COMPLETE_BIT, eSetBits);
 960              		.loc 1 316 9 is_stmt 1 view .LVU221
 961 000c 0021     		movs	r1, #0
 962              	.LVL101:
 963              		.loc 1 316 9 is_stmt 0 view .LVU222
ARM GAS  /tmp/ccqy7meM.s 			page 25


 964 000e 0091     		str	r1, [sp]
 965 0010 1A46     		mov	r2, r3
 966              	.LVL102:
 967              		.loc 1 316 9 view .LVU223
 968 0012 0348     		ldr	r0, .L109
 969              	.LVL103:
 970              		.loc 1 316 9 view .LVU224
 971 0014 0068     		ldr	r0, [r0]
 972 0016 FFF7FEFF 		bl	xTaskGenericNotify
 973              	.LVL104:
 317:../Core/Src/sdio.c ****     }
 318:../Core/Src/sdio.c **** }
 974              		.loc 1 318 1 view .LVU225
 975 001a 03B0     		add	sp, sp, #12
 976              	.LCFI39:
 977              		.cfi_def_cfa_offset 4
 978              		@ sp needed
 979 001c 5DF804FB 		ldr	pc, [sp], #4
 980              	.L110:
 981              		.align	2
 982              	.L109:
 983 0020 00000000 		.word	g_test_task_handle
 984              		.cfi_endproc
 985              	.LFE159:
 987              		.section	.rodata.sdio_task.str1.4,"aMS",%progbits,1
 988              		.align	2
 989              	.LC0:
 990 0000 2F00     		.ascii	"/\000"
 991              		.section	.text.sdio_task,"ax",%progbits
 992              		.align	1
 993              		.global	sdio_task
 994              		.syntax unified
 995              		.thumb
 996              		.thumb_func
 997              		.fpu fpv5-d16
 999              	sdio_task:
 1000              	.LVL105:
 1001              	.LFB155:
 172:../Core/Src/sdio.c ****     uint8_t sd_mounted = 0;
 1002              		.loc 1 172 28 is_stmt 1 view -0
 1003              		.cfi_startproc
 1004              		@ args = 0, pretend = 0, frame = 4688
 1005              		@ frame_needed = 0, uses_anonymous_args = 0
 172:../Core/Src/sdio.c ****     uint8_t sd_mounted = 0;
 1006              		.loc 1 172 28 is_stmt 0 view .LVU227
 1007 0000 30B5     		push	{r4, r5, lr}
 1008              	.LCFI40:
 1009              		.cfi_def_cfa_offset 12
 1010              		.cfi_offset 4, -12
 1011              		.cfi_offset 5, -8
 1012              		.cfi_offset 14, -4
 1013 0002 ADF5925D 		sub	sp, sp, #4672
 1014              	.LCFI41:
 1015              		.cfi_def_cfa_offset 4684
 1016 0006 87B0     		sub	sp, sp, #28
 1017              	.LCFI42:
 1018              		.cfi_def_cfa_offset 4712
ARM GAS  /tmp/ccqy7meM.s 			page 26


 173:../Core/Src/sdio.c ****     FATFS fs;
 1019              		.loc 1 173 5 is_stmt 1 view .LVU228
 1020              	.LVL106:
 174:../Core/Src/sdio.c **** 
 1021              		.loc 1 174 5 view .LVU229
 177:../Core/Src/sdio.c **** 
 1022              		.loc 1 177 5 view .LVU230
 180:../Core/Src/sdio.c **** 
 1023              		.loc 1 180 5 view .LVU231
 183:../Core/Src/sdio.c ****         sd_mounted = 1;
 1024              		.loc 1 183 5 view .LVU232
 183:../Core/Src/sdio.c ****         sd_mounted = 1;
 1025              		.loc 1 183 9 is_stmt 0 view .LVU233
 1026 0008 0122     		movs	r2, #1
 1027 000a 2349     		ldr	r1, .L123
 1028 000c 88A8     		add	r0, sp, #544
 1029              	.LVL107:
 183:../Core/Src/sdio.c ****         sd_mounted = 1;
 1030              		.loc 1 183 9 view .LVU234
 1031 000e FFF7FEFF 		bl	f_mount
 1032              	.LVL108:
 183:../Core/Src/sdio.c ****         sd_mounted = 1;
 1033              		.loc 1 183 8 view .LVU235
 1034 0012 08B9     		cbnz	r0, .L120
 184:../Core/Src/sdio.c ****     } else {
 1035              		.loc 1 184 20 view .LVU236
 1036 0014 0124     		movs	r4, #1
 1037 0016 1DE0     		b	.L113
 1038              	.L120:
 186:../Core/Src/sdio.c ****     }
 1039              		.loc 1 186 9 is_stmt 1 view .LVU237
 1040 0018 4FF48041 		mov	r1, #16384
 1041 001c 1F48     		ldr	r0, .L123+4
 1042 001e FFF7FEFF 		bl	HAL_GPIO_TogglePin
 1043              	.LVL109:
 173:../Core/Src/sdio.c ****     FATFS fs;
 1044              		.loc 1 173 13 is_stmt 0 view .LVU238
 1045 0022 0024     		movs	r4, #0
 1046 0024 16E0     		b	.L113
 1047              	.LVL110:
 1048              	.L121:
 1049              	.LBB2:
 194:../Core/Src/sdio.c ****             sd_mounted = 1;
 1050              		.loc 1 194 28 discriminator 1 view .LVU239
 1051 0026 0122     		movs	r2, #1
 1052 0028 1B49     		ldr	r1, .L123
 1053 002a 88A8     		add	r0, sp, #544
 1054 002c FFF7FEFF 		bl	f_mount
 1055              	.LVL111:
 194:../Core/Src/sdio.c ****             sd_mounted = 1;
 1056              		.loc 1 194 25 discriminator 1 view .LVU240
 1057 0030 D0B9     		cbnz	r0, .L114
 195:../Core/Src/sdio.c ****         }
 1058              		.loc 1 195 24 view .LVU241
 1059 0032 0124     		movs	r4, #1
 1060              	.LVL112:
 195:../Core/Src/sdio.c ****         }
ARM GAS  /tmp/ccqy7meM.s 			page 27


 1061              		.loc 1 195 24 view .LVU242
 1062 0034 18E0     		b	.L114
 1063              	.LVL113:
 1064              	.L122:
 1065              	.LBB3:
 202:../Core/Src/sdio.c ****             int status = save_operation(operation, data_buffer, &bytes_saved, sd_mounted);
 1066              		.loc 1 202 13 is_stmt 1 view .LVU243
 202:../Core/Src/sdio.c ****             int status = save_operation(operation, data_buffer, &bytes_saved, sd_mounted);
 1067              		.loc 1 202 20 is_stmt 0 view .LVU244
 1068 0036 02AD     		add	r5, sp, #8
 1069 0038 0023     		movs	r3, #0
 1070 003a 2B60     		str	r3, [r5]
 203:../Core/Src/sdio.c ****             sd_save_complete(operation->channel, status, bytes_saved);
 1071              		.loc 1 203 13 is_stmt 1 view .LVU245
 203:../Core/Src/sdio.c ****             sd_save_complete(operation->channel, status, bytes_saved);
 1072              		.loc 1 203 26 is_stmt 0 view .LVU246
 1073 003c 2346     		mov	r3, r4
 1074 003e 2A46     		mov	r2, r5
 1075 0040 07A9     		add	r1, sp, #28
 1076 0042 03A8     		add	r0, sp, #12
 1077              	.LVL114:
 203:../Core/Src/sdio.c ****             sd_save_complete(operation->channel, status, bytes_saved);
 1078              		.loc 1 203 26 view .LVU247
 1079 0044 FFF7FEFF 		bl	save_operation
 1080              	.LVL115:
 203:../Core/Src/sdio.c ****             sd_save_complete(operation->channel, status, bytes_saved);
 1081              		.loc 1 203 26 view .LVU248
 1082 0048 0146     		mov	r1, r0
 1083              	.LVL116:
 204:../Core/Src/sdio.c ****         } else if (operation->type == SD_OPERATION_LOAD) {
 1084              		.loc 1 204 13 is_stmt 1 view .LVU249
 1085 004a 03AB     		add	r3, sp, #12
 1086              	.LVL117:
 204:../Core/Src/sdio.c ****         } else if (operation->type == SD_OPERATION_LOAD) {
 1087              		.loc 1 204 13 is_stmt 0 view .LVU250
 1088 004c 2A68     		ldr	r2, [r5]
 1089 004e 5868     		ldr	r0, [r3, #4]
 1090              	.LVL118:
 204:../Core/Src/sdio.c ****         } else if (operation->type == SD_OPERATION_LOAD) {
 1091              		.loc 1 204 13 view .LVU251
 1092 0050 FFF7FEFF 		bl	sd_save_complete
 1093              	.LVL119:
 1094              	.L113:
 204:../Core/Src/sdio.c ****         } else if (operation->type == SD_OPERATION_LOAD) {
 1095              		.loc 1 204 13 view .LVU252
 1096              	.LBE3:
 1097              	.LBE2:
 189:../Core/Src/sdio.c ****         /* Wait for an operation to be sent to us */
 1098              		.loc 1 189 5 is_stmt 1 view .LVU253
 1099              	.LBB5:
 191:../Core/Src/sdio.c **** 
 1100              		.loc 1 191 9 view .LVU254
 1101 0054 4FF0FF33 		mov	r3, #-1
 1102 0058 1022     		movs	r2, #16
 1103 005a 03A9     		add	r1, sp, #12
 1104 005c 1048     		ldr	r0, .L123+8
 1105 005e 0068     		ldr	r0, [r0]
ARM GAS  /tmp/ccqy7meM.s 			page 28


 1106 0060 FFF7FEFF 		bl	xStreamBufferReceive
 1107              	.LVL120:
 194:../Core/Src/sdio.c ****             sd_mounted = 1;
 1108              		.loc 1 194 9 view .LVU255
 194:../Core/Src/sdio.c ****             sd_mounted = 1;
 1109              		.loc 1 194 12 is_stmt 0 view .LVU256
 1110 0064 002C     		cmp	r4, #0
 1111 0066 DED0     		beq	.L121
 1112              	.LVL121:
 1113              	.L114:
 198:../Core/Src/sdio.c **** 
 1114              		.loc 1 198 9 is_stmt 1 view .LVU257
 201:../Core/Src/sdio.c ****             size_t bytes_saved = 0;
 1115              		.loc 1 201 9 view .LVU258
 201:../Core/Src/sdio.c ****             size_t bytes_saved = 0;
 1116              		.loc 1 201 22 is_stmt 0 view .LVU259
 1117 0068 9DF80C30 		ldrb	r3, [sp, #12]	@ zero_extendqisi2
 201:../Core/Src/sdio.c ****             size_t bytes_saved = 0;
 1118              		.loc 1 201 12 view .LVU260
 1119 006c 012B     		cmp	r3, #1
 1120 006e E2D0     		beq	.L122
 205:../Core/Src/sdio.c ****             size_t bytes_loaded = 0;
 1121              		.loc 1 205 16 is_stmt 1 view .LVU261
 205:../Core/Src/sdio.c ****             size_t bytes_loaded = 0;
 1122              		.loc 1 205 19 is_stmt 0 view .LVU262
 1123 0070 002B     		cmp	r3, #0
 1124 0072 EFD1     		bne	.L113
 1125              	.LBB4:
 206:../Core/Src/sdio.c ****             int status = load_operation(&fs, operation, data_buffer, &bytes_loaded, sd_mounted);
 1126              		.loc 1 206 13 is_stmt 1 discriminator 2 view .LVU263
 206:../Core/Src/sdio.c ****             int status = load_operation(&fs, operation, data_buffer, &bytes_loaded, sd_mounted);
 1127              		.loc 1 206 20 is_stmt 0 discriminator 2 view .LVU264
 1128 0074 02AD     		add	r5, sp, #8
 1129 0076 0023     		movs	r3, #0
 1130 0078 2B60     		str	r3, [r5]
 207:../Core/Src/sdio.c ****             sd_load_complete(operation->channel, status, bytes_loaded);
 1131              		.loc 1 207 13 is_stmt 1 discriminator 2 view .LVU265
 207:../Core/Src/sdio.c ****             sd_load_complete(operation->channel, status, bytes_loaded);
 1132              		.loc 1 207 26 is_stmt 0 discriminator 2 view .LVU266
 1133 007a 0094     		str	r4, [sp]
 1134 007c 2B46     		mov	r3, r5
 1135 007e 07AA     		add	r2, sp, #28
 1136 0080 03A9     		add	r1, sp, #12
 1137              	.LVL122:
 207:../Core/Src/sdio.c ****             sd_load_complete(operation->channel, status, bytes_loaded);
 1138              		.loc 1 207 26 discriminator 2 view .LVU267
 1139 0082 88A8     		add	r0, sp, #544
 1140 0084 FFF7FEFF 		bl	load_operation
 1141              	.LVL123:
 207:../Core/Src/sdio.c ****             sd_load_complete(operation->channel, status, bytes_loaded);
 1142              		.loc 1 207 26 discriminator 2 view .LVU268
 1143 0088 0146     		mov	r1, r0
 1144              	.LVL124:
 208:../Core/Src/sdio.c ****         }
 1145              		.loc 1 208 13 is_stmt 1 discriminator 2 view .LVU269
 1146 008a 03AB     		add	r3, sp, #12
 1147              	.LVL125:
ARM GAS  /tmp/ccqy7meM.s 			page 29


 208:../Core/Src/sdio.c ****         }
 1148              		.loc 1 208 13 is_stmt 0 discriminator 2 view .LVU270
 1149 008c 2A68     		ldr	r2, [r5]
 1150 008e 5868     		ldr	r0, [r3, #4]
 1151              	.LVL126:
 208:../Core/Src/sdio.c ****         }
 1152              		.loc 1 208 13 discriminator 2 view .LVU271
 1153 0090 FFF7FEFF 		bl	sd_load_complete
 1154              	.LVL127:
 208:../Core/Src/sdio.c ****         }
 1155              		.loc 1 208 13 discriminator 2 view .LVU272
 1156 0094 DEE7     		b	.L113
 1157              	.L124:
 1158 0096 00BF     		.align	2
 1159              	.L123:
 1160 0098 00000000 		.word	.LC0
 1161 009c 00040258 		.word	1476527104
 1162 00a0 00000000 		.word	g_sdio_mb_handle
 1163              	.LBE4:
 1164              	.LBE5:
 1165              		.cfi_endproc
 1166              	.LFE155:
 1168              		.text
 1169              	.Letext0:
 1170              		.file 2 "/usr/lib/gcc/arm-none-eabi/10.3.1/include/stdint.h"
 1171              		.file 3 "/usr/lib/gcc/arm-none-eabi/10.3.1/include/stddef.h"
 1172              		.file 4 "Core/Inc/portmacro.h"
 1173              		.file 5 "../Core/FreeRTOS-Kernel/include/FreeRTOS.h"
 1174              		.file 6 "../Core/FreeRTOS-Kernel/include/stream_buffer.h"
 1175              		.file 7 "../Core/Include/sdio.h"
 1176              		.file 8 "../Core/FreeRTOS-Kernel/include/task.h"
 1177              		.file 9 "Drivers/CMSIS/Device/ST/STM32H7xx/Include/stm32h723xx.h"
 1178              		.file 10 "Middlewares/Third_Party/FatFs/src/integer.h"
 1179              		.file 11 "Middlewares/Third_Party/FatFs/src/ff.h"
 1180              		.file 12 "../Core/FreeRTOS-Kernel/include/message_buffer.h"
 1181              		.file 13 "../Core/Include/globals.h"
 1182              		.file 14 "Drivers/STM32H7xx_HAL_Driver/Inc/stm32h7xx_hal_gpio.h"
ARM GAS  /tmp/ccqy7meM.s 			page 30

