ARM GAS  /tmp/ccLBE7zC.s 			page 1


   1              		.cpu cortex-m7
   2              		.eabi_attribute 27, 1
   3              		.eabi_attribute 28, 1
   4              		.eabi_attribute 20, 1
   5              		.eabi_attribute 21, 1
   6              		.eabi_attribute 23, 3
   7              		.eabi_attribute 24, 1
   8              		.eabi_attribute 25, 1
   9              		.eabi_attribute 26, 1
  10              		.eabi_attribute 30, 1
  11              		.eabi_attribute 34, 1
  12              		.eabi_attribute 18, 4
  13              		.file	"ipc.c"
  14              		.text
  15              	.Ltext0:
  16              		.cfi_sections	.debug_frame
  17              		.section	.text.msg_received_isr,"ax",%progbits
  18              		.align	1
  19              		.arch armv7e-m
  20              		.syntax unified
  21              		.thumb
  22              		.thumb_func
  23              		.fpu fpv4-sp-d16
  25              	msg_received_isr:
  26              	.LFB329:
  27              		.file 1 "../../../Core/Src/ipc.c"
   1:../../../Core/Src/ipc.c **** #include "ipc.h"
   2:../../../Core/Src/ipc.c **** 
   3:../../../Core/Src/ipc.c **** static volatile ipc_channel_t channel __attribute__((section(".shared_ram"))); 
   4:../../../Core/Src/ipc.c **** 
   5:../../../Core/Src/ipc.c **** static void generate_remote_interrupt(MessageBufferHandle_t xMessageBuffer, BaseType_t xIsInsideISR
   6:../../../Core/Src/ipc.c **** static void msg_received_isr(void);
   7:../../../Core/Src/ipc.c **** static void msg_sent_isr(void);
   8:../../../Core/Src/ipc.c **** 
   9:../../../Core/Src/ipc.c **** void HAL_HSEM_FreeCallback(uint32_t sem_mask) {
  10:../../../Core/Src/ipc.c ****     if ((sem_mask & __HAL_HSEM_SEMID_TO_MASK(HSEM_RX_ID)) != 0) {
  11:../../../Core/Src/ipc.c ****         //We have received a message
  12:../../../Core/Src/ipc.c ****         HAL_HSEM_ActivateNotification(__HAL_HSEM_SEMID_TO_MASK(HSEM_RX_ID));
  13:../../../Core/Src/ipc.c ****         msg_received_isr();
  14:../../../Core/Src/ipc.c ****     } else if ((sem_mask & __HAL_HSEM_SEMID_TO_MASK(HSEM_TX_WAKEUP_ID)) != 0) {
  15:../../../Core/Src/ipc.c ****         //We have sent a message
  16:../../../Core/Src/ipc.c ****         HAL_HSEM_ActivateNotification(__HAL_HSEM_SEMID_TO_MASK(HSEM_TX_WAKEUP_ID));
  17:../../../Core/Src/ipc.c ****         msg_sent_isr();
  18:../../../Core/Src/ipc.c ****     }
  19:../../../Core/Src/ipc.c **** }
  20:../../../Core/Src/ipc.c **** 
  21:../../../Core/Src/ipc.c **** int ipc_init(void) {
  22:../../../Core/Src/ipc.c ****     __HAL_RCC_HSEM_CLK_ENABLE();
  23:../../../Core/Src/ipc.c **** 
  24:../../../Core/Src/ipc.c **** #ifdef CORE_CM7
  25:../../../Core/Src/ipc.c ****     channel.cm7_to_cm4_handle = xMessageBufferCreateStaticWithCallback(IPC_BUFFER_SIZE, (uint8_t *)
  26:../../../Core/Src/ipc.c ****     channel.cm4_to_cm7_handle = xMessageBufferCreateStaticWithCallback(IPC_BUFFER_SIZE, (uint8_t *)
  27:../../../Core/Src/ipc.c **** #endif
  28:../../../Core/Src/ipc.c **** 
  29:../../../Core/Src/ipc.c ****     HAL_NVIC_SetPriority(HSEM_IRQn, 5, 0);
  30:../../../Core/Src/ipc.c ****     HAL_NVIC_EnableIRQ(HSEM_IRQn);
  31:../../../Core/Src/ipc.c **** 
ARM GAS  /tmp/ccLBE7zC.s 			page 2


  32:../../../Core/Src/ipc.c ****     HAL_HSEM_ActivateNotification(__HAL_HSEM_SEMID_TO_MASK(HSEM_RX_ID));
  33:../../../Core/Src/ipc.c ****     HAL_HSEM_ActivateNotification(__HAL_HSEM_SEMID_TO_MASK(HSEM_TX_WAKEUP_ID));
  34:../../../Core/Src/ipc.c **** 
  35:../../../Core/Src/ipc.c ****     return 0;
  36:../../../Core/Src/ipc.c **** }
  37:../../../Core/Src/ipc.c **** 
  38:../../../Core/Src/ipc.c **** static void msg_received_isr(void) {
  28              		.loc 1 38 36 view -0
  29              		.cfi_startproc
  30              		@ args = 0, pretend = 0, frame = 8
  31              		@ frame_needed = 0, uses_anonymous_args = 0
  32 0000 00B5     		push	{lr}
  33              	.LCFI0:
  34              		.cfi_def_cfa_offset 4
  35              		.cfi_offset 14, -4
  36 0002 83B0     		sub	sp, sp, #12
  37              	.LCFI1:
  38              		.cfi_def_cfa_offset 16
  39:../../../Core/Src/ipc.c ****     BaseType_t xHigherPriorityTaskWoken = pdFALSE;
  39              		.loc 1 39 5 view .LVU1
  40              		.loc 1 39 16 is_stmt 0 view .LVU2
  41 0004 0023     		movs	r3, #0
  42 0006 0193     		str	r3, [sp, #4]
  40:../../../Core/Src/ipc.c **** 
  41:../../../Core/Src/ipc.c ****     if (!RX_HANDLE(channel)) {
  43              		.loc 1 41 5 is_stmt 1 view .LVU3
  44              		.loc 1 41 10 is_stmt 0 view .LVU4
  45 0008 0C4B     		ldr	r3, .L6
  46 000a D3F80032 		ldr	r3, [r3, #512]
  47              		.loc 1 41 8 view .LVU5
  48 000e 8BB1     		cbz	r3, .L1
  42:../../../Core/Src/ipc.c ****         return;
  43:../../../Core/Src/ipc.c ****     }
  44:../../../Core/Src/ipc.c **** 
  45:../../../Core/Src/ipc.c ****     xMessageBufferSendCompletedFromISR(RX_HANDLE(channel), &xHigherPriorityTaskWoken);
  49              		.loc 1 45 5 is_stmt 1 view .LVU6
  50 0010 0A4B     		ldr	r3, .L6
  51 0012 D3F80002 		ldr	r0, [r3, #512]
  52 0016 01A9     		add	r1, sp, #4
  53 0018 FFF7FEFF 		bl	xStreamBufferSendCompletedFromISR
  54              	.LVL0:
  46:../../../Core/Src/ipc.c **** 
  47:../../../Core/Src/ipc.c ****     portYIELD_FROM_ISR(xHigherPriorityTaskWoken);
  55              		.loc 1 47 5 view .LVU7
  56              		.loc 1 47 5 view .LVU8
  57 001c 019B     		ldr	r3, [sp, #4]
  58 001e 4BB1     		cbz	r3, .L1
  59              		.loc 1 47 5 discriminator 1 view .LVU9
  60              		.loc 1 47 5 discriminator 1 view .LVU10
  61 0020 4FF0E023 		mov	r3, #-536813568
  62 0024 4FF08052 		mov	r2, #268435456
  63 0028 C3F8042D 		str	r2, [r3, #3332]
  64              		.loc 1 47 5 discriminator 1 view .LVU11
  65              		.syntax unified
  66              	@ 47 "../../../Core/Src/ipc.c" 1
  67 002c BFF34F8F 		dsb
  68              	@ 0 "" 2
ARM GAS  /tmp/ccLBE7zC.s 			page 3


  69              		.loc 1 47 5 discriminator 1 view .LVU12
  70              	@ 47 "../../../Core/Src/ipc.c" 1
  71 0030 BFF36F8F 		isb
  72              	@ 0 "" 2
  73              		.loc 1 47 5 discriminator 1 view .LVU13
  74              		.loc 1 47 5 discriminator 1 view .LVU14
  75              		.loc 1 47 5 discriminator 1 view .LVU15
  76              		.thumb
  77              		.syntax unified
  78              	.L1:
  48:../../../Core/Src/ipc.c **** }
  79              		.loc 1 48 1 is_stmt 0 view .LVU16
  80 0034 03B0     		add	sp, sp, #12
  81              	.LCFI2:
  82              		.cfi_def_cfa_offset 4
  83              		@ sp needed
  84 0036 5DF804FB 		ldr	pc, [sp], #4
  85              	.L7:
  86 003a 00BF     		.align	2
  87              	.L6:
  88 003c 00000000 		.word	.LANCHOR0
  89              		.cfi_endproc
  90              	.LFE329:
  92              		.section	.text.msg_sent_isr,"ax",%progbits
  93              		.align	1
  94              		.syntax unified
  95              		.thumb
  96              		.thumb_func
  97              		.fpu fpv4-sp-d16
  99              	msg_sent_isr:
 100              	.LFB330:
  49:../../../Core/Src/ipc.c **** 
  50:../../../Core/Src/ipc.c **** static void msg_sent_isr(void) {
 101              		.loc 1 50 32 is_stmt 1 view -0
 102              		.cfi_startproc
 103              		@ args = 0, pretend = 0, frame = 8
 104              		@ frame_needed = 0, uses_anonymous_args = 0
 105 0000 00B5     		push	{lr}
 106              	.LCFI3:
 107              		.cfi_def_cfa_offset 4
 108              		.cfi_offset 14, -4
 109 0002 83B0     		sub	sp, sp, #12
 110              	.LCFI4:
 111              		.cfi_def_cfa_offset 16
  51:../../../Core/Src/ipc.c ****     BaseType_t xHigherPriorityTaskWoken = pdFALSE;
 112              		.loc 1 51 5 view .LVU18
 113              		.loc 1 51 16 is_stmt 0 view .LVU19
 114 0004 0023     		movs	r3, #0
 115 0006 0193     		str	r3, [sp, #4]
  52:../../../Core/Src/ipc.c **** 
  53:../../../Core/Src/ipc.c ****     if (!TX_HANDLE(channel)) {
 116              		.loc 1 53 5 is_stmt 1 view .LVU20
 117              		.loc 1 53 10 is_stmt 0 view .LVU21
 118 0008 0C4B     		ldr	r3, .L13
 119 000a D3F80432 		ldr	r3, [r3, #516]
 120              		.loc 1 53 8 view .LVU22
 121 000e 8BB1     		cbz	r3, .L8
ARM GAS  /tmp/ccLBE7zC.s 			page 4


  54:../../../Core/Src/ipc.c ****         return;
  55:../../../Core/Src/ipc.c ****     }
  56:../../../Core/Src/ipc.c **** 
  57:../../../Core/Src/ipc.c ****     xMessageBufferReceiveCompletedFromISR(TX_HANDLE(channel), &xHigherPriorityTaskWoken);
 122              		.loc 1 57 5 is_stmt 1 view .LVU23
 123 0010 0A4B     		ldr	r3, .L13
 124 0012 D3F80402 		ldr	r0, [r3, #516]
 125 0016 01A9     		add	r1, sp, #4
 126 0018 FFF7FEFF 		bl	xStreamBufferReceiveCompletedFromISR
 127              	.LVL1:
  58:../../../Core/Src/ipc.c **** 
  59:../../../Core/Src/ipc.c ****     portYIELD_FROM_ISR(xHigherPriorityTaskWoken);
 128              		.loc 1 59 5 view .LVU24
 129              		.loc 1 59 5 view .LVU25
 130 001c 019B     		ldr	r3, [sp, #4]
 131 001e 4BB1     		cbz	r3, .L8
 132              		.loc 1 59 5 discriminator 1 view .LVU26
 133              		.loc 1 59 5 discriminator 1 view .LVU27
 134 0020 4FF0E023 		mov	r3, #-536813568
 135 0024 4FF08052 		mov	r2, #268435456
 136 0028 C3F8042D 		str	r2, [r3, #3332]
 137              		.loc 1 59 5 discriminator 1 view .LVU28
 138              		.syntax unified
 139              	@ 59 "../../../Core/Src/ipc.c" 1
 140 002c BFF34F8F 		dsb
 141              	@ 0 "" 2
 142              		.loc 1 59 5 discriminator 1 view .LVU29
 143              	@ 59 "../../../Core/Src/ipc.c" 1
 144 0030 BFF36F8F 		isb
 145              	@ 0 "" 2
 146              		.loc 1 59 5 discriminator 1 view .LVU30
 147              		.loc 1 59 5 discriminator 1 view .LVU31
 148              		.loc 1 59 5 discriminator 1 view .LVU32
 149              		.thumb
 150              		.syntax unified
 151              	.L8:
  60:../../../Core/Src/ipc.c **** }
 152              		.loc 1 60 1 is_stmt 0 view .LVU33
 153 0034 03B0     		add	sp, sp, #12
 154              	.LCFI5:
 155              		.cfi_def_cfa_offset 4
 156              		@ sp needed
 157 0036 5DF804FB 		ldr	pc, [sp], #4
 158              	.L14:
 159 003a 00BF     		.align	2
 160              	.L13:
 161 003c 00000000 		.word	.LANCHOR0
 162              		.cfi_endproc
 163              	.LFE330:
 165              		.section	.text.HAL_HSEM_FreeCallback,"ax",%progbits
 166              		.align	1
 167              		.global	HAL_HSEM_FreeCallback
 168              		.syntax unified
 169              		.thumb
 170              		.thumb_func
 171              		.fpu fpv4-sp-d16
 173              	HAL_HSEM_FreeCallback:
ARM GAS  /tmp/ccLBE7zC.s 			page 5


 174              	.LVL2:
 175              	.LFB327:
   9:../../../Core/Src/ipc.c ****     if ((sem_mask & __HAL_HSEM_SEMID_TO_MASK(HSEM_RX_ID)) != 0) {
 176              		.loc 1 9 47 is_stmt 1 view -0
 177              		.cfi_startproc
 178              		@ args = 0, pretend = 0, frame = 0
 179              		@ frame_needed = 0, uses_anonymous_args = 0
   9:../../../Core/Src/ipc.c ****     if ((sem_mask & __HAL_HSEM_SEMID_TO_MASK(HSEM_RX_ID)) != 0) {
 180              		.loc 1 9 47 is_stmt 0 view .LVU35
 181 0000 08B5     		push	{r3, lr}
 182              	.LCFI6:
 183              		.cfi_def_cfa_offset 8
 184              		.cfi_offset 3, -8
 185              		.cfi_offset 14, -4
  10:../../../Core/Src/ipc.c ****         //We have received a message
 186              		.loc 1 10 5 is_stmt 1 view .LVU36
  10:../../../Core/Src/ipc.c ****         //We have received a message
 187              		.loc 1 10 8 is_stmt 0 view .LVU37
 188 0002 10F4807F 		tst	r0, #256
 189 0006 03D1     		bne	.L19
  14:../../../Core/Src/ipc.c ****         //We have sent a message
 190              		.loc 1 14 12 is_stmt 1 view .LVU38
  14:../../../Core/Src/ipc.c ****         //We have sent a message
 191              		.loc 1 14 15 is_stmt 0 view .LVU39
 192 0008 10F4006F 		tst	r0, #2048
 193 000c 07D1     		bne	.L20
 194              	.LVL3:
 195              	.L15:
  19:../../../Core/Src/ipc.c **** 
 196              		.loc 1 19 1 view .LVU40
 197 000e 08BD     		pop	{r3, pc}
 198              	.LVL4:
 199              	.L19:
  12:../../../Core/Src/ipc.c ****         msg_received_isr();
 200              		.loc 1 12 9 is_stmt 1 view .LVU41
 201 0010 4FF48070 		mov	r0, #256
 202              	.LVL5:
  12:../../../Core/Src/ipc.c ****         msg_received_isr();
 203              		.loc 1 12 9 is_stmt 0 view .LVU42
 204 0014 FFF7FEFF 		bl	HAL_HSEM_ActivateNotification
 205              	.LVL6:
  13:../../../Core/Src/ipc.c ****     } else if ((sem_mask & __HAL_HSEM_SEMID_TO_MASK(HSEM_TX_WAKEUP_ID)) != 0) {
 206              		.loc 1 13 9 is_stmt 1 view .LVU43
 207 0018 FFF7FEFF 		bl	msg_received_isr
 208              	.LVL7:
 209 001c F7E7     		b	.L15
 210              	.LVL8:
 211              	.L20:
  16:../../../Core/Src/ipc.c ****         msg_sent_isr();
 212              		.loc 1 16 9 view .LVU44
 213 001e 4FF40060 		mov	r0, #2048
 214              	.LVL9:
  16:../../../Core/Src/ipc.c ****         msg_sent_isr();
 215              		.loc 1 16 9 is_stmt 0 view .LVU45
 216 0022 FFF7FEFF 		bl	HAL_HSEM_ActivateNotification
 217              	.LVL10:
  17:../../../Core/Src/ipc.c ****     }
ARM GAS  /tmp/ccLBE7zC.s 			page 6


 218              		.loc 1 17 9 is_stmt 1 view .LVU46
 219 0026 FFF7FEFF 		bl	msg_sent_isr
 220              	.LVL11:
  19:../../../Core/Src/ipc.c **** 
 221              		.loc 1 19 1 is_stmt 0 view .LVU47
 222 002a F0E7     		b	.L15
 223              		.cfi_endproc
 224              	.LFE327:
 226              		.section	.text.ipc_init,"ax",%progbits
 227              		.align	1
 228              		.global	ipc_init
 229              		.syntax unified
 230              		.thumb
 231              		.thumb_func
 232              		.fpu fpv4-sp-d16
 234              	ipc_init:
 235              	.LFB328:
  21:../../../Core/Src/ipc.c ****     __HAL_RCC_HSEM_CLK_ENABLE();
 236              		.loc 1 21 20 is_stmt 1 view -0
 237              		.cfi_startproc
 238              		@ args = 0, pretend = 0, frame = 8
 239              		@ frame_needed = 0, uses_anonymous_args = 0
 240 0000 00B5     		push	{lr}
 241              	.LCFI7:
 242              		.cfi_def_cfa_offset 4
 243              		.cfi_offset 14, -4
 244 0002 83B0     		sub	sp, sp, #12
 245              	.LCFI8:
 246              		.cfi_def_cfa_offset 16
  22:../../../Core/Src/ipc.c **** 
 247              		.loc 1 22 5 view .LVU49
 248              	.LBB2:
  22:../../../Core/Src/ipc.c **** 
 249              		.loc 1 22 5 view .LVU50
  22:../../../Core/Src/ipc.c **** 
 250              		.loc 1 22 5 view .LVU51
 251 0004 104B     		ldr	r3, .L23
 252 0006 D3F8E020 		ldr	r2, [r3, #224]
 253 000a 42F00072 		orr	r2, r2, #33554432
 254 000e C3F8E020 		str	r2, [r3, #224]
  22:../../../Core/Src/ipc.c **** 
 255              		.loc 1 22 5 view .LVU52
 256 0012 D3F8E030 		ldr	r3, [r3, #224]
 257 0016 03F00073 		and	r3, r3, #33554432
 258 001a 0193     		str	r3, [sp, #4]
  22:../../../Core/Src/ipc.c **** 
 259              		.loc 1 22 5 view .LVU53
 260 001c 019B     		ldr	r3, [sp, #4]
 261              	.LBE2:
  22:../../../Core/Src/ipc.c **** 
 262              		.loc 1 22 5 view .LVU54
  29:../../../Core/Src/ipc.c ****     HAL_NVIC_EnableIRQ(HSEM_IRQn);
 263              		.loc 1 29 5 view .LVU55
 264 001e 0022     		movs	r2, #0
 265 0020 0521     		movs	r1, #5
 266 0022 7E20     		movs	r0, #126
 267 0024 FFF7FEFF 		bl	HAL_NVIC_SetPriority
ARM GAS  /tmp/ccLBE7zC.s 			page 7


 268              	.LVL12:
  30:../../../Core/Src/ipc.c **** 
 269              		.loc 1 30 5 view .LVU56
 270 0028 7E20     		movs	r0, #126
 271 002a FFF7FEFF 		bl	HAL_NVIC_EnableIRQ
 272              	.LVL13:
  32:../../../Core/Src/ipc.c ****     HAL_HSEM_ActivateNotification(__HAL_HSEM_SEMID_TO_MASK(HSEM_TX_WAKEUP_ID));
 273              		.loc 1 32 5 view .LVU57
 274 002e 4FF48070 		mov	r0, #256
 275 0032 FFF7FEFF 		bl	HAL_HSEM_ActivateNotification
 276              	.LVL14:
  33:../../../Core/Src/ipc.c **** 
 277              		.loc 1 33 5 view .LVU58
 278 0036 4FF40060 		mov	r0, #2048
 279 003a FFF7FEFF 		bl	HAL_HSEM_ActivateNotification
 280              	.LVL15:
  35:../../../Core/Src/ipc.c **** }
 281              		.loc 1 35 5 view .LVU59
  36:../../../Core/Src/ipc.c **** 
 282              		.loc 1 36 1 is_stmt 0 view .LVU60
 283 003e 0020     		movs	r0, #0
 284 0040 03B0     		add	sp, sp, #12
 285              	.LCFI9:
 286              		.cfi_def_cfa_offset 4
 287              		@ sp needed
 288 0042 5DF804FB 		ldr	pc, [sp], #4
 289              	.L24:
 290 0046 00BF     		.align	2
 291              	.L23:
 292 0048 00440258 		.word	1476543488
 293              		.cfi_endproc
 294              	.LFE328:
 296              		.section	.text.ipc_send,"ax",%progbits
 297              		.align	1
 298              		.global	ipc_send
 299              		.syntax unified
 300              		.thumb
 301              		.thumb_func
 302              		.fpu fpv4-sp-d16
 304              	ipc_send:
 305              	.LVL16:
 306              	.LFB332:
  61:../../../Core/Src/ipc.c **** 
  62:../../../Core/Src/ipc.c **** static void generate_remote_interrupt(MessageBufferHandle_t xMessageBuffer, BaseType_t xIsInsideISR
  63:../../../Core/Src/ipc.c ****     __DSB();
  64:../../../Core/Src/ipc.c **** 
  65:../../../Core/Src/ipc.c ****     if (xMessageBuffer == TX_HANDLE(channel)) {
  66:../../../Core/Src/ipc.c ****         // Notify the other core that a message has been sent
  67:../../../Core/Src/ipc.c ****         if (HAL_HSEM_Take(HSEM_TX_ID, HSEM_PROCESS_ID) == HAL_OK) {
  68:../../../Core/Src/ipc.c ****             HAL_HSEM_Release(HSEM_TX_ID, HSEM_PROCESS_ID);
  69:../../../Core/Src/ipc.c ****         }
  70:../../../Core/Src/ipc.c ****     } else if (xMessageBuffer == RX_HANDLE(channel)) {
  71:../../../Core/Src/ipc.c ****         // Notify the other core that its message has been received
  72:../../../Core/Src/ipc.c ****         if (HAL_HSEM_Take(HSEM_RX_WAKEUP_ID, HSEM_PROCESS_ID) == HAL_OK) {
  73:../../../Core/Src/ipc.c ****             HAL_HSEM_Release(HSEM_RX_WAKEUP_ID, HSEM_PROCESS_ID);
  74:../../../Core/Src/ipc.c ****         }
  75:../../../Core/Src/ipc.c ****     }
ARM GAS  /tmp/ccLBE7zC.s 			page 8


  76:../../../Core/Src/ipc.c **** }
  77:../../../Core/Src/ipc.c **** 
  78:../../../Core/Src/ipc.c **** uint32_t ipc_send(uint8_t *data, uint16_t size, TickType_t timeout) {
 307              		.loc 1 78 69 is_stmt 1 view -0
 308              		.cfi_startproc
 309              		@ args = 0, pretend = 0, frame = 0
 310              		@ frame_needed = 0, uses_anonymous_args = 0
 311              		.loc 1 78 69 is_stmt 0 view .LVU62
 312 0000 08B5     		push	{r3, lr}
 313              	.LCFI10:
 314              		.cfi_def_cfa_offset 8
 315              		.cfi_offset 3, -8
 316              		.cfi_offset 14, -4
 317 0002 1346     		mov	r3, r2
  79:../../../Core/Src/ipc.c ****     if (!TX_HANDLE(channel)) {
 318              		.loc 1 79 5 is_stmt 1 view .LVU63
 319              		.loc 1 79 10 is_stmt 0 view .LVU64
 320 0004 074A     		ldr	r2, .L29
 321              	.LVL17:
 322              		.loc 1 79 10 view .LVU65
 323 0006 D2F80422 		ldr	r2, [r2, #516]
 324              		.loc 1 79 8 view .LVU66
 325 000a 42B1     		cbz	r2, .L27
 326 000c 8446     		mov	ip, r0
  80:../../../Core/Src/ipc.c ****         return 0;
  81:../../../Core/Src/ipc.c ****     }
  82:../../../Core/Src/ipc.c **** 
  83:../../../Core/Src/ipc.c ****     return xMessageBufferSend(TX_HANDLE(channel), data, size, timeout);
 327              		.loc 1 83 5 is_stmt 1 view .LVU67
 328              		.loc 1 83 12 is_stmt 0 view .LVU68
 329 000e 054A     		ldr	r2, .L29
 330 0010 D2F80402 		ldr	r0, [r2, #516]
 331              	.LVL18:
 332              		.loc 1 83 12 view .LVU69
 333 0014 0A46     		mov	r2, r1
 334 0016 6146     		mov	r1, ip
 335              	.LVL19:
 336              		.loc 1 83 12 view .LVU70
 337 0018 FFF7FEFF 		bl	xStreamBufferSend
 338              	.LVL20:
 339              	.L25:
  84:../../../Core/Src/ipc.c **** }
 340              		.loc 1 84 1 view .LVU71
 341 001c 08BD     		pop	{r3, pc}
 342              	.LVL21:
 343              	.L27:
  80:../../../Core/Src/ipc.c ****         return 0;
 344              		.loc 1 80 16 view .LVU72
 345 001e 0020     		movs	r0, #0
 346              	.LVL22:
  80:../../../Core/Src/ipc.c ****         return 0;
 347              		.loc 1 80 16 view .LVU73
 348 0020 FCE7     		b	.L25
 349              	.L30:
 350 0022 00BF     		.align	2
 351              	.L29:
 352 0024 00000000 		.word	.LANCHOR0
ARM GAS  /tmp/ccLBE7zC.s 			page 9


 353              		.cfi_endproc
 354              	.LFE332:
 356              		.section	.text.ipc_receive,"ax",%progbits
 357              		.align	1
 358              		.global	ipc_receive
 359              		.syntax unified
 360              		.thumb
 361              		.thumb_func
 362              		.fpu fpv4-sp-d16
 364              	ipc_receive:
 365              	.LVL23:
 366              	.LFB333:
  85:../../../Core/Src/ipc.c **** 
  86:../../../Core/Src/ipc.c **** uint32_t ipc_receive(uint8_t *data, uint16_t size, TickType_t timeout) {
 367              		.loc 1 86 72 is_stmt 1 view -0
 368              		.cfi_startproc
 369              		@ args = 0, pretend = 0, frame = 0
 370              		@ frame_needed = 0, uses_anonymous_args = 0
 371              		.loc 1 86 72 is_stmt 0 view .LVU75
 372 0000 08B5     		push	{r3, lr}
 373              	.LCFI11:
 374              		.cfi_def_cfa_offset 8
 375              		.cfi_offset 3, -8
 376              		.cfi_offset 14, -4
 377 0002 1346     		mov	r3, r2
  87:../../../Core/Src/ipc.c ****     if (!RX_HANDLE(channel)) {
 378              		.loc 1 87 5 is_stmt 1 view .LVU76
 379              		.loc 1 87 10 is_stmt 0 view .LVU77
 380 0004 074A     		ldr	r2, .L35
 381              	.LVL24:
 382              		.loc 1 87 10 view .LVU78
 383 0006 D2F80022 		ldr	r2, [r2, #512]
 384              		.loc 1 87 8 view .LVU79
 385 000a 42B1     		cbz	r2, .L33
 386 000c 8446     		mov	ip, r0
  88:../../../Core/Src/ipc.c ****         return 0;
  89:../../../Core/Src/ipc.c ****     }
  90:../../../Core/Src/ipc.c **** 
  91:../../../Core/Src/ipc.c ****     return xMessageBufferReceive(RX_HANDLE(channel), data, size, timeout);
 387              		.loc 1 91 5 is_stmt 1 view .LVU80
 388              		.loc 1 91 12 is_stmt 0 view .LVU81
 389 000e 054A     		ldr	r2, .L35
 390 0010 D2F80002 		ldr	r0, [r2, #512]
 391              	.LVL25:
 392              		.loc 1 91 12 view .LVU82
 393 0014 0A46     		mov	r2, r1
 394 0016 6146     		mov	r1, ip
 395              	.LVL26:
 396              		.loc 1 91 12 view .LVU83
 397 0018 FFF7FEFF 		bl	xStreamBufferReceive
 398              	.LVL27:
 399              	.L31:
  92:../../../Core/Src/ipc.c **** }...
 400              		.loc 1 92 1 view .LVU84
 401 001c 08BD     		pop	{r3, pc}
 402              	.LVL28:
 403              	.L33:
ARM GAS  /tmp/ccLBE7zC.s 			page 10


  88:../../../Core/Src/ipc.c ****         return 0;
 404              		.loc 1 88 16 view .LVU85
 405 001e 0020     		movs	r0, #0
 406              	.LVL29:
  88:../../../Core/Src/ipc.c ****         return 0;
 407              		.loc 1 88 16 view .LVU86
 408 0020 FCE7     		b	.L31
 409              	.L36:
 410 0022 00BF     		.align	2
 411              	.L35:
 412 0024 00000000 		.word	.LANCHOR0
 413              		.cfi_endproc
 414              	.LFE333:
 416              		.section	.shared_ram,"aw"
 417              		.align	2
 418              		.set	.LANCHOR0,. + 0
 421              	channel:
 422 0000 00000000 		.space	616
 422      00000000 
 422      00000000 
 422      00000000 
 422      00000000 
 423              		.text
 424              	.Letext0:
 425              		.file 2 "/usr/lib/gcc/arm-none-eabi/10.3.1/include/stdint.h"
 426              		.file 3 "../../Drivers/CMSIS/Device/ST/STM32H7xx/Include/stm32h745xx.h"
 427              		.file 4 "/usr/lib/gcc/arm-none-eabi/10.3.1/include/stddef.h"
 428              		.file 5 "../../FreeRTOS-Kernel/portable/GCC/ARM_CM4F/portmacro.h"
 429              		.file 6 "../../FreeRTOS-Kernel/include/FreeRTOS.h"
 430              		.file 7 "../../FreeRTOS-Kernel/include/stream_buffer.h"
 431              		.file 8 "../../FreeRTOS-Kernel/include/message_buffer.h"
 432              		.file 9 "../../../Core/Inc/ipc.h"
 433              		.file 10 "../../Drivers/STM32H7xx_HAL_Driver/Inc/stm32h7xx_hal_cortex.h"
 434              		.file 11 "../../Drivers/STM32H7xx_HAL_Driver/Inc/stm32h7xx_hal_hsem.h"
ARM GAS  /tmp/ccLBE7zC.s 			page 11

