ARM GAS  /tmp/ccTm6Fei.s 			page 1


   1              		.cpu cortex-m7
   2              		.eabi_attribute 27, 1
   3              		.eabi_attribute 28, 1
   4              		.eabi_attribute 20, 1
   5              		.eabi_attribute 21, 1
   6              		.eabi_attribute 23, 3
   7              		.eabi_attribute 24, 1
   8              		.eabi_attribute 25, 1
   9              		.eabi_attribute 26, 1
  10              		.eabi_attribute 30, 1
  11              		.eabi_attribute 34, 1
  12              		.eabi_attribute 18, 4
  13              		.file	"stm32h7xx_hal_msp.c"
  14              		.text
  15              	.Ltext0:
  16              		.cfi_sections	.debug_frame
  17              		.section	.text.HAL_MspInit,"ax",%progbits
  18              		.align	1
  19              		.global	HAL_MspInit
  20              		.arch armv7e-m
  21              		.syntax unified
  22              		.thumb
  23              		.thumb_func
  24              		.fpu fpv4-sp-d16
  26              	HAL_MspInit:
  27              	.LFB323:
  28              		.file 1 "../../CM4/Core/Src/stm32h7xx_hal_msp.c"
   1:../../CM4/Core/Src/stm32h7xx_hal_msp.c **** 
   2:../../CM4/Core/Src/stm32h7xx_hal_msp.c **** /* USER CODE BEGIN Header */
   3:../../CM4/Core/Src/stm32h7xx_hal_msp.c **** /**
   4:../../CM4/Core/Src/stm32h7xx_hal_msp.c ****   ******************************************************************************
   5:../../CM4/Core/Src/stm32h7xx_hal_msp.c ****   * @file         stm32h7xx_hal_msp.c
   6:../../CM4/Core/Src/stm32h7xx_hal_msp.c ****   * @brief        This file provides code for the MSP Initialization
   7:../../CM4/Core/Src/stm32h7xx_hal_msp.c ****   *               and de-Initialization codes.
   8:../../CM4/Core/Src/stm32h7xx_hal_msp.c ****   ******************************************************************************
   9:../../CM4/Core/Src/stm32h7xx_hal_msp.c ****   * @attention
  10:../../CM4/Core/Src/stm32h7xx_hal_msp.c ****   *
  11:../../CM4/Core/Src/stm32h7xx_hal_msp.c ****   * Copyright (c) 2024 STMicroelectronics.
  12:../../CM4/Core/Src/stm32h7xx_hal_msp.c ****   * All rights reserved.
  13:../../CM4/Core/Src/stm32h7xx_hal_msp.c ****   *
  14:../../CM4/Core/Src/stm32h7xx_hal_msp.c ****   * This software is licensed under terms that can be found in the LICENSE file
  15:../../CM4/Core/Src/stm32h7xx_hal_msp.c ****   * in the root directory of this software component.
  16:../../CM4/Core/Src/stm32h7xx_hal_msp.c ****   * If no LICENSE file comes with this software, it is provided AS-IS.
  17:../../CM4/Core/Src/stm32h7xx_hal_msp.c ****   *
  18:../../CM4/Core/Src/stm32h7xx_hal_msp.c ****   ******************************************************************************
  19:../../CM4/Core/Src/stm32h7xx_hal_msp.c ****   */
  20:../../CM4/Core/Src/stm32h7xx_hal_msp.c **** /* USER CODE END Header */
  21:../../CM4/Core/Src/stm32h7xx_hal_msp.c **** 
  22:../../CM4/Core/Src/stm32h7xx_hal_msp.c **** /* Includes ------------------------------------------------------------------*/
  23:../../CM4/Core/Src/stm32h7xx_hal_msp.c **** #include "main.h"
  24:../../CM4/Core/Src/stm32h7xx_hal_msp.c **** /* USER CODE BEGIN Includes */
  25:../../CM4/Core/Src/stm32h7xx_hal_msp.c **** 
  26:../../CM4/Core/Src/stm32h7xx_hal_msp.c **** /* USER CODE END Includes */
  27:../../CM4/Core/Src/stm32h7xx_hal_msp.c **** 
  28:../../CM4/Core/Src/stm32h7xx_hal_msp.c **** /* Private typedef -----------------------------------------------------------*/
  29:../../CM4/Core/Src/stm32h7xx_hal_msp.c **** /* USER CODE BEGIN TD */
  30:../../CM4/Core/Src/stm32h7xx_hal_msp.c **** 
ARM GAS  /tmp/ccTm6Fei.s 			page 2


  31:../../CM4/Core/Src/stm32h7xx_hal_msp.c **** /* USER CODE END TD */
  32:../../CM4/Core/Src/stm32h7xx_hal_msp.c **** 
  33:../../CM4/Core/Src/stm32h7xx_hal_msp.c **** /* Private define ------------------------------------------------------------*/
  34:../../CM4/Core/Src/stm32h7xx_hal_msp.c **** /* USER CODE BEGIN Define */
  35:../../CM4/Core/Src/stm32h7xx_hal_msp.c **** 
  36:../../CM4/Core/Src/stm32h7xx_hal_msp.c **** /* USER CODE END Define */
  37:../../CM4/Core/Src/stm32h7xx_hal_msp.c **** 
  38:../../CM4/Core/Src/stm32h7xx_hal_msp.c **** /* Private macro -------------------------------------------------------------*/
  39:../../CM4/Core/Src/stm32h7xx_hal_msp.c **** /* USER CODE BEGIN Macro */
  40:../../CM4/Core/Src/stm32h7xx_hal_msp.c **** 
  41:../../CM4/Core/Src/stm32h7xx_hal_msp.c **** /* USER CODE END Macro */
  42:../../CM4/Core/Src/stm32h7xx_hal_msp.c **** 
  43:../../CM4/Core/Src/stm32h7xx_hal_msp.c **** /* Private variables ---------------------------------------------------------*/
  44:../../CM4/Core/Src/stm32h7xx_hal_msp.c **** /* USER CODE BEGIN PV */
  45:../../CM4/Core/Src/stm32h7xx_hal_msp.c **** 
  46:../../CM4/Core/Src/stm32h7xx_hal_msp.c **** /* USER CODE END PV */
  47:../../CM4/Core/Src/stm32h7xx_hal_msp.c **** 
  48:../../CM4/Core/Src/stm32h7xx_hal_msp.c **** /* Private function prototypes -----------------------------------------------*/
  49:../../CM4/Core/Src/stm32h7xx_hal_msp.c **** /* USER CODE BEGIN PFP */
  50:../../CM4/Core/Src/stm32h7xx_hal_msp.c **** 
  51:../../CM4/Core/Src/stm32h7xx_hal_msp.c **** /* USER CODE END PFP */
  52:../../CM4/Core/Src/stm32h7xx_hal_msp.c **** 
  53:../../CM4/Core/Src/stm32h7xx_hal_msp.c **** /* External functions --------------------------------------------------------*/
  54:../../CM4/Core/Src/stm32h7xx_hal_msp.c **** /* USER CODE BEGIN ExternalFunctions */
  55:../../CM4/Core/Src/stm32h7xx_hal_msp.c **** 
  56:../../CM4/Core/Src/stm32h7xx_hal_msp.c **** /* USER CODE END ExternalFunctions */
  57:../../CM4/Core/Src/stm32h7xx_hal_msp.c **** 
  58:../../CM4/Core/Src/stm32h7xx_hal_msp.c **** /* USER CODE BEGIN 0 */
  59:../../CM4/Core/Src/stm32h7xx_hal_msp.c **** 
  60:../../CM4/Core/Src/stm32h7xx_hal_msp.c **** /* USER CODE END 0 */
  61:../../CM4/Core/Src/stm32h7xx_hal_msp.c **** /**
  62:../../CM4/Core/Src/stm32h7xx_hal_msp.c ****   * Initializes the Global MSP.
  63:../../CM4/Core/Src/stm32h7xx_hal_msp.c ****   */
  64:../../CM4/Core/Src/stm32h7xx_hal_msp.c **** void HAL_MspInit(void)
  65:../../CM4/Core/Src/stm32h7xx_hal_msp.c **** {
  29              		.loc 1 65 1 view -0
  30              		.cfi_startproc
  31              		@ args = 0, pretend = 0, frame = 8
  32              		@ frame_needed = 0, uses_anonymous_args = 0
  33              		@ link register save eliminated.
  34 0000 82B0     		sub	sp, sp, #8
  35              	.LCFI0:
  36              		.cfi_def_cfa_offset 8
  66:../../CM4/Core/Src/stm32h7xx_hal_msp.c **** 
  67:../../CM4/Core/Src/stm32h7xx_hal_msp.c ****   /* USER CODE BEGIN MspInit 0 */
  68:../../CM4/Core/Src/stm32h7xx_hal_msp.c **** 
  69:../../CM4/Core/Src/stm32h7xx_hal_msp.c ****   /* USER CODE END MspInit 0 */
  70:../../CM4/Core/Src/stm32h7xx_hal_msp.c **** 
  71:../../CM4/Core/Src/stm32h7xx_hal_msp.c ****   __HAL_RCC_SYSCFG_CLK_ENABLE();
  37              		.loc 1 71 3 view .LVU1
  38              	.LBB2:
  39              		.loc 1 71 3 view .LVU2
  40              		.loc 1 71 3 view .LVU3
  41 0002 074B     		ldr	r3, .L3
  42 0004 D3F8F420 		ldr	r2, [r3, #244]
  43 0008 42F00202 		orr	r2, r2, #2
  44 000c C3F8F420 		str	r2, [r3, #244]
ARM GAS  /tmp/ccTm6Fei.s 			page 3


  45              		.loc 1 71 3 view .LVU4
  46 0010 D3F8F430 		ldr	r3, [r3, #244]
  47 0014 03F00203 		and	r3, r3, #2
  48 0018 0193     		str	r3, [sp, #4]
  49              		.loc 1 71 3 view .LVU5
  50 001a 019B     		ldr	r3, [sp, #4]
  51              	.LBE2:
  52              		.loc 1 71 3 view .LVU6
  72:../../CM4/Core/Src/stm32h7xx_hal_msp.c **** 
  73:../../CM4/Core/Src/stm32h7xx_hal_msp.c ****   /* System interrupt init*/
  74:../../CM4/Core/Src/stm32h7xx_hal_msp.c **** 
  75:../../CM4/Core/Src/stm32h7xx_hal_msp.c ****   /* USER CODE BEGIN MspInit 1 */
  76:../../CM4/Core/Src/stm32h7xx_hal_msp.c **** 
  77:../../CM4/Core/Src/stm32h7xx_hal_msp.c ****   /* USER CODE END MspInit 1 */
  78:../../CM4/Core/Src/stm32h7xx_hal_msp.c **** }
  53              		.loc 1 78 1 is_stmt 0 view .LVU7
  54 001c 02B0     		add	sp, sp, #8
  55              	.LCFI1:
  56              		.cfi_def_cfa_offset 0
  57              		@ sp needed
  58 001e 7047     		bx	lr
  59              	.L4:
  60              		.align	2
  61              	.L3:
  62 0020 00440258 		.word	1476543488
  63              		.cfi_endproc
  64              	.LFE323:
  66              		.section	.text.HAL_ADC_MspInit,"ax",%progbits
  67              		.align	1
  68              		.global	HAL_ADC_MspInit
  69              		.syntax unified
  70              		.thumb
  71              		.thumb_func
  72              		.fpu fpv4-sp-d16
  74              	HAL_ADC_MspInit:
  75              	.LVL0:
  76              	.LFB324:
  79:../../CM4/Core/Src/stm32h7xx_hal_msp.c **** 
  80:../../CM4/Core/Src/stm32h7xx_hal_msp.c **** static uint32_t HAL_RCC_ADC12_CLK_ENABLED=0;
  81:../../CM4/Core/Src/stm32h7xx_hal_msp.c **** 
  82:../../CM4/Core/Src/stm32h7xx_hal_msp.c **** /**
  83:../../CM4/Core/Src/stm32h7xx_hal_msp.c **** * @brief ADC MSP Initialization
  84:../../CM4/Core/Src/stm32h7xx_hal_msp.c **** * This function configures the hardware resources used in this example
  85:../../CM4/Core/Src/stm32h7xx_hal_msp.c **** * @param hadc: ADC handle pointer
  86:../../CM4/Core/Src/stm32h7xx_hal_msp.c **** * @retval None
  87:../../CM4/Core/Src/stm32h7xx_hal_msp.c **** */
  88:../../CM4/Core/Src/stm32h7xx_hal_msp.c **** void HAL_ADC_MspInit(ADC_HandleTypeDef* hadc)
  89:../../CM4/Core/Src/stm32h7xx_hal_msp.c **** {
  77              		.loc 1 89 1 is_stmt 1 view -0
  78              		.cfi_startproc
  79              		@ args = 0, pretend = 0, frame = 64
  80              		@ frame_needed = 0, uses_anonymous_args = 0
  81              		.loc 1 89 1 is_stmt 0 view .LVU9
  82 0000 30B5     		push	{r4, r5, lr}
  83              	.LCFI2:
  84              		.cfi_def_cfa_offset 12
  85              		.cfi_offset 4, -12
ARM GAS  /tmp/ccTm6Fei.s 			page 4


  86              		.cfi_offset 5, -8
  87              		.cfi_offset 14, -4
  88 0002 91B0     		sub	sp, sp, #68
  89              	.LCFI3:
  90              		.cfi_def_cfa_offset 80
  90:../../CM4/Core/Src/stm32h7xx_hal_msp.c ****   GPIO_InitTypeDef GPIO_InitStruct = {0};
  91              		.loc 1 90 3 is_stmt 1 view .LVU10
  92              		.loc 1 90 20 is_stmt 0 view .LVU11
  93 0004 0023     		movs	r3, #0
  94 0006 0B93     		str	r3, [sp, #44]
  95 0008 0C93     		str	r3, [sp, #48]
  96 000a 0D93     		str	r3, [sp, #52]
  97 000c 0E93     		str	r3, [sp, #56]
  98 000e 0F93     		str	r3, [sp, #60]
  91:../../CM4/Core/Src/stm32h7xx_hal_msp.c ****   if(hadc->Instance==ADC1)
  99              		.loc 1 91 3 is_stmt 1 view .LVU12
 100              		.loc 1 91 10 is_stmt 0 view .LVU13
 101 0010 0368     		ldr	r3, [r0]
 102              		.loc 1 91 5 view .LVU14
 103 0012 764A     		ldr	r2, .L17
 104 0014 9342     		cmp	r3, r2
 105 0016 08D0     		beq	.L12
  92:../../CM4/Core/Src/stm32h7xx_hal_msp.c ****   {
  93:../../CM4/Core/Src/stm32h7xx_hal_msp.c ****   /* USER CODE BEGIN ADC1_MspInit 0 */
  94:../../CM4/Core/Src/stm32h7xx_hal_msp.c **** 
  95:../../CM4/Core/Src/stm32h7xx_hal_msp.c ****   /* USER CODE END ADC1_MspInit 0 */
  96:../../CM4/Core/Src/stm32h7xx_hal_msp.c ****     /* Peripheral clock enable */
  97:../../CM4/Core/Src/stm32h7xx_hal_msp.c ****     HAL_RCC_ADC12_CLK_ENABLED++;
  98:../../CM4/Core/Src/stm32h7xx_hal_msp.c ****     if(HAL_RCC_ADC12_CLK_ENABLED==1){
  99:../../CM4/Core/Src/stm32h7xx_hal_msp.c ****       __HAL_RCC_ADC12_CLK_ENABLE();
 100:../../CM4/Core/Src/stm32h7xx_hal_msp.c ****     }
 101:../../CM4/Core/Src/stm32h7xx_hal_msp.c **** 
 102:../../CM4/Core/Src/stm32h7xx_hal_msp.c ****     __HAL_RCC_GPIOA_CLK_ENABLE();
 103:../../CM4/Core/Src/stm32h7xx_hal_msp.c ****     __HAL_RCC_GPIOF_CLK_ENABLE();
 104:../../CM4/Core/Src/stm32h7xx_hal_msp.c ****     /**ADC1 GPIO Configuration
 105:../../CM4/Core/Src/stm32h7xx_hal_msp.c ****     PA0     ------> ADC1_INP16
 106:../../CM4/Core/Src/stm32h7xx_hal_msp.c ****     PA5     ------> ADC1_INP19
 107:../../CM4/Core/Src/stm32h7xx_hal_msp.c ****     PF11     ------> ADC1_INP2
 108:../../CM4/Core/Src/stm32h7xx_hal_msp.c ****     */
 109:../../CM4/Core/Src/stm32h7xx_hal_msp.c ****     GPIO_InitStruct.Pin = GPIO_PIN_0|GPIO_PIN_5;
 110:../../CM4/Core/Src/stm32h7xx_hal_msp.c ****     GPIO_InitStruct.Mode = GPIO_MODE_ANALOG;
 111:../../CM4/Core/Src/stm32h7xx_hal_msp.c ****     GPIO_InitStruct.Pull = GPIO_NOPULL;
 112:../../CM4/Core/Src/stm32h7xx_hal_msp.c ****     HAL_GPIO_Init(GPIOA, &GPIO_InitStruct);
 113:../../CM4/Core/Src/stm32h7xx_hal_msp.c **** 
 114:../../CM4/Core/Src/stm32h7xx_hal_msp.c ****     GPIO_InitStruct.Pin = GPIO_PIN_11;
 115:../../CM4/Core/Src/stm32h7xx_hal_msp.c ****     GPIO_InitStruct.Mode = GPIO_MODE_ANALOG;
 116:../../CM4/Core/Src/stm32h7xx_hal_msp.c ****     GPIO_InitStruct.Pull = GPIO_NOPULL;
 117:../../CM4/Core/Src/stm32h7xx_hal_msp.c ****     HAL_GPIO_Init(GPIOF, &GPIO_InitStruct);
 118:../../CM4/Core/Src/stm32h7xx_hal_msp.c **** 
 119:../../CM4/Core/Src/stm32h7xx_hal_msp.c ****   /* USER CODE BEGIN ADC1_MspInit 1 */
 120:../../CM4/Core/Src/stm32h7xx_hal_msp.c **** 
 121:../../CM4/Core/Src/stm32h7xx_hal_msp.c ****   /* USER CODE END ADC1_MspInit 1 */
 122:../../CM4/Core/Src/stm32h7xx_hal_msp.c ****   }
 123:../../CM4/Core/Src/stm32h7xx_hal_msp.c ****   else if(hadc->Instance==ADC2)
 106              		.loc 1 123 8 is_stmt 1 view .LVU15
 107              		.loc 1 123 10 is_stmt 0 view .LVU16
 108 0018 754A     		ldr	r2, .L17+4
ARM GAS  /tmp/ccTm6Fei.s 			page 5


 109 001a 9342     		cmp	r3, r2
 110 001c 45D0     		beq	.L13
 124:../../CM4/Core/Src/stm32h7xx_hal_msp.c ****   {
 125:../../CM4/Core/Src/stm32h7xx_hal_msp.c ****   /* USER CODE BEGIN ADC2_MspInit 0 */
 126:../../CM4/Core/Src/stm32h7xx_hal_msp.c **** 
 127:../../CM4/Core/Src/stm32h7xx_hal_msp.c ****   /* USER CODE END ADC2_MspInit 0 */
 128:../../CM4/Core/Src/stm32h7xx_hal_msp.c ****     /* Peripheral clock enable */
 129:../../CM4/Core/Src/stm32h7xx_hal_msp.c ****     HAL_RCC_ADC12_CLK_ENABLED++;
 130:../../CM4/Core/Src/stm32h7xx_hal_msp.c ****     if(HAL_RCC_ADC12_CLK_ENABLED==1){
 131:../../CM4/Core/Src/stm32h7xx_hal_msp.c ****       __HAL_RCC_ADC12_CLK_ENABLE();
 132:../../CM4/Core/Src/stm32h7xx_hal_msp.c ****     }
 133:../../CM4/Core/Src/stm32h7xx_hal_msp.c **** 
 134:../../CM4/Core/Src/stm32h7xx_hal_msp.c ****     __HAL_RCC_GPIOC_CLK_ENABLE();
 135:../../CM4/Core/Src/stm32h7xx_hal_msp.c ****     __HAL_RCC_GPIOA_CLK_ENABLE();
 136:../../CM4/Core/Src/stm32h7xx_hal_msp.c ****     __HAL_RCC_GPIOB_CLK_ENABLE();
 137:../../CM4/Core/Src/stm32h7xx_hal_msp.c ****     __HAL_RCC_GPIOF_CLK_ENABLE();
 138:../../CM4/Core/Src/stm32h7xx_hal_msp.c ****     /**ADC2 GPIO Configuration
 139:../../CM4/Core/Src/stm32h7xx_hal_msp.c ****     PC0     ------> ADC2_INP10
 140:../../CM4/Core/Src/stm32h7xx_hal_msp.c ****     PA3     ------> ADC2_INP15
 141:../../CM4/Core/Src/stm32h7xx_hal_msp.c ****     PA4     ------> ADC2_INP18
 142:../../CM4/Core/Src/stm32h7xx_hal_msp.c ****     PA6     ------> ADC2_INP3
 143:../../CM4/Core/Src/stm32h7xx_hal_msp.c ****     PB0     ------> ADC2_INP9
 144:../../CM4/Core/Src/stm32h7xx_hal_msp.c ****     PB1     ------> ADC2_INP5
 145:../../CM4/Core/Src/stm32h7xx_hal_msp.c ****     PF14     ------> ADC2_INP6
 146:../../CM4/Core/Src/stm32h7xx_hal_msp.c ****     */
 147:../../CM4/Core/Src/stm32h7xx_hal_msp.c ****     GPIO_InitStruct.Pin = GPIO_PIN_0;
 148:../../CM4/Core/Src/stm32h7xx_hal_msp.c ****     GPIO_InitStruct.Mode = GPIO_MODE_ANALOG;
 149:../../CM4/Core/Src/stm32h7xx_hal_msp.c ****     GPIO_InitStruct.Pull = GPIO_NOPULL;
 150:../../CM4/Core/Src/stm32h7xx_hal_msp.c ****     HAL_GPIO_Init(GPIOC, &GPIO_InitStruct);
 151:../../CM4/Core/Src/stm32h7xx_hal_msp.c **** 
 152:../../CM4/Core/Src/stm32h7xx_hal_msp.c ****     GPIO_InitStruct.Pin = GPIO_PIN_3|GPIO_PIN_4|GPIO_PIN_6;
 153:../../CM4/Core/Src/stm32h7xx_hal_msp.c ****     GPIO_InitStruct.Mode = GPIO_MODE_ANALOG;
 154:../../CM4/Core/Src/stm32h7xx_hal_msp.c ****     GPIO_InitStruct.Pull = GPIO_NOPULL;
 155:../../CM4/Core/Src/stm32h7xx_hal_msp.c ****     HAL_GPIO_Init(GPIOA, &GPIO_InitStruct);
 156:../../CM4/Core/Src/stm32h7xx_hal_msp.c **** 
 157:../../CM4/Core/Src/stm32h7xx_hal_msp.c ****     GPIO_InitStruct.Pin = GPIO_PIN_0|GPIO_PIN_1;
 158:../../CM4/Core/Src/stm32h7xx_hal_msp.c ****     GPIO_InitStruct.Mode = GPIO_MODE_ANALOG;
 159:../../CM4/Core/Src/stm32h7xx_hal_msp.c ****     GPIO_InitStruct.Pull = GPIO_NOPULL;
 160:../../CM4/Core/Src/stm32h7xx_hal_msp.c ****     HAL_GPIO_Init(GPIOB, &GPIO_InitStruct);
 161:../../CM4/Core/Src/stm32h7xx_hal_msp.c **** 
 162:../../CM4/Core/Src/stm32h7xx_hal_msp.c ****     GPIO_InitStruct.Pin = GPIO_PIN_14;
 163:../../CM4/Core/Src/stm32h7xx_hal_msp.c ****     GPIO_InitStruct.Mode = GPIO_MODE_ANALOG;
 164:../../CM4/Core/Src/stm32h7xx_hal_msp.c ****     GPIO_InitStruct.Pull = GPIO_NOPULL;
 165:../../CM4/Core/Src/stm32h7xx_hal_msp.c ****     HAL_GPIO_Init(GPIOF, &GPIO_InitStruct);
 166:../../CM4/Core/Src/stm32h7xx_hal_msp.c **** 
 167:../../CM4/Core/Src/stm32h7xx_hal_msp.c ****   /* USER CODE BEGIN ADC2_MspInit 1 */
 168:../../CM4/Core/Src/stm32h7xx_hal_msp.c **** 
 169:../../CM4/Core/Src/stm32h7xx_hal_msp.c ****   /* USER CODE END ADC2_MspInit 1 */
 170:../../CM4/Core/Src/stm32h7xx_hal_msp.c ****   }
 171:../../CM4/Core/Src/stm32h7xx_hal_msp.c ****   else if(hadc->Instance==ADC3)
 111              		.loc 1 171 8 is_stmt 1 view .LVU17
 112              		.loc 1 171 10 is_stmt 0 view .LVU18
 113 001e 754A     		ldr	r2, .L17+8
 114 0020 9342     		cmp	r3, r2
 115 0022 00F0A980 		beq	.L14
 116              	.LVL1:
 117              	.L5:
ARM GAS  /tmp/ccTm6Fei.s 			page 6


 172:../../CM4/Core/Src/stm32h7xx_hal_msp.c ****   {
 173:../../CM4/Core/Src/stm32h7xx_hal_msp.c ****   /* USER CODE BEGIN ADC3_MspInit 0 */
 174:../../CM4/Core/Src/stm32h7xx_hal_msp.c **** 
 175:../../CM4/Core/Src/stm32h7xx_hal_msp.c ****   /* USER CODE END ADC3_MspInit 0 */
 176:../../CM4/Core/Src/stm32h7xx_hal_msp.c ****     /* Peripheral clock enable */
 177:../../CM4/Core/Src/stm32h7xx_hal_msp.c ****     __HAL_RCC_ADC3_CLK_ENABLE();
 178:../../CM4/Core/Src/stm32h7xx_hal_msp.c **** 
 179:../../CM4/Core/Src/stm32h7xx_hal_msp.c ****     __HAL_RCC_GPIOF_CLK_ENABLE();
 180:../../CM4/Core/Src/stm32h7xx_hal_msp.c ****     __HAL_RCC_GPIOC_CLK_ENABLE();
 181:../../CM4/Core/Src/stm32h7xx_hal_msp.c ****     /**ADC3 GPIO Configuration
 182:../../CM4/Core/Src/stm32h7xx_hal_msp.c ****     PF6     ------> ADC3_INP8
 183:../../CM4/Core/Src/stm32h7xx_hal_msp.c ****     PF7     ------> ADC3_INP3
 184:../../CM4/Core/Src/stm32h7xx_hal_msp.c ****     PF8     ------> ADC3_INP7
 185:../../CM4/Core/Src/stm32h7xx_hal_msp.c ****     PF9     ------> ADC3_INP2
 186:../../CM4/Core/Src/stm32h7xx_hal_msp.c ****     PF10     ------> ADC3_INP6
 187:../../CM4/Core/Src/stm32h7xx_hal_msp.c ****     PC2_C     ------> ADC3_INP0
 188:../../CM4/Core/Src/stm32h7xx_hal_msp.c ****     PC3_C     ------> ADC3_INP1
 189:../../CM4/Core/Src/stm32h7xx_hal_msp.c ****     */
 190:../../CM4/Core/Src/stm32h7xx_hal_msp.c ****     GPIO_InitStruct.Pin = GPIO_PIN_6|GPIO_PIN_7|GPIO_PIN_8|GPIO_PIN_9
 191:../../CM4/Core/Src/stm32h7xx_hal_msp.c ****                           |GPIO_PIN_10;
 192:../../CM4/Core/Src/stm32h7xx_hal_msp.c ****     GPIO_InitStruct.Mode = GPIO_MODE_ANALOG;
 193:../../CM4/Core/Src/stm32h7xx_hal_msp.c ****     GPIO_InitStruct.Pull = GPIO_NOPULL;
 194:../../CM4/Core/Src/stm32h7xx_hal_msp.c ****     HAL_GPIO_Init(GPIOF, &GPIO_InitStruct);
 195:../../CM4/Core/Src/stm32h7xx_hal_msp.c **** 
 196:../../CM4/Core/Src/stm32h7xx_hal_msp.c ****     HAL_SYSCFG_AnalogSwitchConfig(SYSCFG_SWITCH_PC2, SYSCFG_SWITCH_PC2_OPEN);
 197:../../CM4/Core/Src/stm32h7xx_hal_msp.c **** 
 198:../../CM4/Core/Src/stm32h7xx_hal_msp.c ****     HAL_SYSCFG_AnalogSwitchConfig(SYSCFG_SWITCH_PC3, SYSCFG_SWITCH_PC3_OPEN);
 199:../../CM4/Core/Src/stm32h7xx_hal_msp.c **** 
 200:../../CM4/Core/Src/stm32h7xx_hal_msp.c ****   /* USER CODE BEGIN ADC3_MspInit 1 */
 201:../../CM4/Core/Src/stm32h7xx_hal_msp.c **** 
 202:../../CM4/Core/Src/stm32h7xx_hal_msp.c ****   /* USER CODE END ADC3_MspInit 1 */
 203:../../CM4/Core/Src/stm32h7xx_hal_msp.c ****   }
 204:../../CM4/Core/Src/stm32h7xx_hal_msp.c **** 
 205:../../CM4/Core/Src/stm32h7xx_hal_msp.c **** }
 118              		.loc 1 205 1 view .LVU19
 119 0026 11B0     		add	sp, sp, #68
 120              	.LCFI4:
 121              		.cfi_remember_state
 122              		.cfi_def_cfa_offset 12
 123              		@ sp needed
 124 0028 30BD     		pop	{r4, r5, pc}
 125              	.LVL2:
 126              	.L12:
 127              	.LCFI5:
 128              		.cfi_restore_state
  97:../../CM4/Core/Src/stm32h7xx_hal_msp.c ****     if(HAL_RCC_ADC12_CLK_ENABLED==1){
 129              		.loc 1 97 5 is_stmt 1 view .LVU20
  97:../../CM4/Core/Src/stm32h7xx_hal_msp.c ****     if(HAL_RCC_ADC12_CLK_ENABLED==1){
 130              		.loc 1 97 30 is_stmt 0 view .LVU21
 131 002a 734A     		ldr	r2, .L17+12
 132 002c 1368     		ldr	r3, [r2]
 133 002e 0133     		adds	r3, r3, #1
 134 0030 1360     		str	r3, [r2]
  98:../../CM4/Core/Src/stm32h7xx_hal_msp.c ****       __HAL_RCC_ADC12_CLK_ENABLE();
 135              		.loc 1 98 5 is_stmt 1 view .LVU22
  98:../../CM4/Core/Src/stm32h7xx_hal_msp.c ****       __HAL_RCC_ADC12_CLK_ENABLE();
 136              		.loc 1 98 7 is_stmt 0 view .LVU23
ARM GAS  /tmp/ccTm6Fei.s 			page 7


 137 0032 012B     		cmp	r3, #1
 138 0034 2BD0     		beq	.L15
 139              	.L7:
  99:../../CM4/Core/Src/stm32h7xx_hal_msp.c ****     }
 140              		.loc 1 99 7 is_stmt 1 discriminator 1 view .LVU24
 102:../../CM4/Core/Src/stm32h7xx_hal_msp.c ****     __HAL_RCC_GPIOF_CLK_ENABLE();
 141              		.loc 1 102 5 discriminator 1 view .LVU25
 142              	.LBB3:
 102:../../CM4/Core/Src/stm32h7xx_hal_msp.c ****     __HAL_RCC_GPIOF_CLK_ENABLE();
 143              		.loc 1 102 5 discriminator 1 view .LVU26
 102:../../CM4/Core/Src/stm32h7xx_hal_msp.c ****     __HAL_RCC_GPIOF_CLK_ENABLE();
 144              		.loc 1 102 5 discriminator 1 view .LVU27
 145 0036 714B     		ldr	r3, .L17+16
 146 0038 D3F8E020 		ldr	r2, [r3, #224]
 147 003c 42F00102 		orr	r2, r2, #1
 148 0040 C3F8E020 		str	r2, [r3, #224]
 102:../../CM4/Core/Src/stm32h7xx_hal_msp.c ****     __HAL_RCC_GPIOF_CLK_ENABLE();
 149              		.loc 1 102 5 discriminator 1 view .LVU28
 150 0044 D3F8E020 		ldr	r2, [r3, #224]
 151 0048 02F00102 		and	r2, r2, #1
 152 004c 0192     		str	r2, [sp, #4]
 102:../../CM4/Core/Src/stm32h7xx_hal_msp.c ****     __HAL_RCC_GPIOF_CLK_ENABLE();
 153              		.loc 1 102 5 discriminator 1 view .LVU29
 154 004e 019A     		ldr	r2, [sp, #4]
 155              	.LBE3:
 102:../../CM4/Core/Src/stm32h7xx_hal_msp.c ****     __HAL_RCC_GPIOF_CLK_ENABLE();
 156              		.loc 1 102 5 discriminator 1 view .LVU30
 103:../../CM4/Core/Src/stm32h7xx_hal_msp.c ****     /**ADC1 GPIO Configuration
 157              		.loc 1 103 5 discriminator 1 view .LVU31
 158              	.LBB4:
 103:../../CM4/Core/Src/stm32h7xx_hal_msp.c ****     /**ADC1 GPIO Configuration
 159              		.loc 1 103 5 discriminator 1 view .LVU32
 103:../../CM4/Core/Src/stm32h7xx_hal_msp.c ****     /**ADC1 GPIO Configuration
 160              		.loc 1 103 5 discriminator 1 view .LVU33
 161 0050 D3F8E020 		ldr	r2, [r3, #224]
 162 0054 42F02002 		orr	r2, r2, #32
 163 0058 C3F8E020 		str	r2, [r3, #224]
 103:../../CM4/Core/Src/stm32h7xx_hal_msp.c ****     /**ADC1 GPIO Configuration
 164              		.loc 1 103 5 discriminator 1 view .LVU34
 165 005c D3F8E030 		ldr	r3, [r3, #224]
 166 0060 03F02003 		and	r3, r3, #32
 167 0064 0293     		str	r3, [sp, #8]
 103:../../CM4/Core/Src/stm32h7xx_hal_msp.c ****     /**ADC1 GPIO Configuration
 168              		.loc 1 103 5 discriminator 1 view .LVU35
 169 0066 029B     		ldr	r3, [sp, #8]
 170              	.LBE4:
 103:../../CM4/Core/Src/stm32h7xx_hal_msp.c ****     /**ADC1 GPIO Configuration
 171              		.loc 1 103 5 discriminator 1 view .LVU36
 109:../../CM4/Core/Src/stm32h7xx_hal_msp.c ****     GPIO_InitStruct.Mode = GPIO_MODE_ANALOG;
 172              		.loc 1 109 5 discriminator 1 view .LVU37
 109:../../CM4/Core/Src/stm32h7xx_hal_msp.c ****     GPIO_InitStruct.Mode = GPIO_MODE_ANALOG;
 173              		.loc 1 109 25 is_stmt 0 discriminator 1 view .LVU38
 174 0068 2123     		movs	r3, #33
 175 006a 0B93     		str	r3, [sp, #44]
 110:../../CM4/Core/Src/stm32h7xx_hal_msp.c ****     GPIO_InitStruct.Pull = GPIO_NOPULL;
 176              		.loc 1 110 5 is_stmt 1 discriminator 1 view .LVU39
 110:../../CM4/Core/Src/stm32h7xx_hal_msp.c ****     GPIO_InitStruct.Pull = GPIO_NOPULL;
ARM GAS  /tmp/ccTm6Fei.s 			page 8


 177              		.loc 1 110 26 is_stmt 0 discriminator 1 view .LVU40
 178 006c 0324     		movs	r4, #3
 179 006e 0C94     		str	r4, [sp, #48]
 111:../../CM4/Core/Src/stm32h7xx_hal_msp.c ****     HAL_GPIO_Init(GPIOA, &GPIO_InitStruct);
 180              		.loc 1 111 5 is_stmt 1 discriminator 1 view .LVU41
 112:../../CM4/Core/Src/stm32h7xx_hal_msp.c **** 
 181              		.loc 1 112 5 discriminator 1 view .LVU42
 182 0070 0BA9     		add	r1, sp, #44
 183 0072 6348     		ldr	r0, .L17+20
 184              	.LVL3:
 112:../../CM4/Core/Src/stm32h7xx_hal_msp.c **** 
 185              		.loc 1 112 5 is_stmt 0 discriminator 1 view .LVU43
 186 0074 FFF7FEFF 		bl	HAL_GPIO_Init
 187              	.LVL4:
 114:../../CM4/Core/Src/stm32h7xx_hal_msp.c ****     GPIO_InitStruct.Mode = GPIO_MODE_ANALOG;
 188              		.loc 1 114 5 is_stmt 1 discriminator 1 view .LVU44
 114:../../CM4/Core/Src/stm32h7xx_hal_msp.c ****     GPIO_InitStruct.Mode = GPIO_MODE_ANALOG;
 189              		.loc 1 114 25 is_stmt 0 discriminator 1 view .LVU45
 190 0078 4FF40063 		mov	r3, #2048
 191 007c 0B93     		str	r3, [sp, #44]
 115:../../CM4/Core/Src/stm32h7xx_hal_msp.c ****     GPIO_InitStruct.Pull = GPIO_NOPULL;
 192              		.loc 1 115 5 is_stmt 1 discriminator 1 view .LVU46
 115:../../CM4/Core/Src/stm32h7xx_hal_msp.c ****     GPIO_InitStruct.Pull = GPIO_NOPULL;
 193              		.loc 1 115 26 is_stmt 0 discriminator 1 view .LVU47
 194 007e 0C94     		str	r4, [sp, #48]
 116:../../CM4/Core/Src/stm32h7xx_hal_msp.c ****     HAL_GPIO_Init(GPIOF, &GPIO_InitStruct);
 195              		.loc 1 116 5 is_stmt 1 discriminator 1 view .LVU48
 116:../../CM4/Core/Src/stm32h7xx_hal_msp.c ****     HAL_GPIO_Init(GPIOF, &GPIO_InitStruct);
 196              		.loc 1 116 26 is_stmt 0 discriminator 1 view .LVU49
 197 0080 0023     		movs	r3, #0
 198 0082 0D93     		str	r3, [sp, #52]
 117:../../CM4/Core/Src/stm32h7xx_hal_msp.c **** 
 199              		.loc 1 117 5 is_stmt 1 discriminator 1 view .LVU50
 200 0084 0BA9     		add	r1, sp, #44
 201 0086 5F48     		ldr	r0, .L17+24
 202 0088 FFF7FEFF 		bl	HAL_GPIO_Init
 203              	.LVL5:
 204 008c CBE7     		b	.L5
 205              	.LVL6:
 206              	.L15:
  99:../../CM4/Core/Src/stm32h7xx_hal_msp.c ****     }
 207              		.loc 1 99 7 view .LVU51
 208              	.LBB5:
  99:../../CM4/Core/Src/stm32h7xx_hal_msp.c ****     }
 209              		.loc 1 99 7 view .LVU52
  99:../../CM4/Core/Src/stm32h7xx_hal_msp.c ****     }
 210              		.loc 1 99 7 view .LVU53
 211 008e 5B4B     		ldr	r3, .L17+16
 212 0090 D3F8D820 		ldr	r2, [r3, #216]
 213 0094 42F02002 		orr	r2, r2, #32
 214 0098 C3F8D820 		str	r2, [r3, #216]
  99:../../CM4/Core/Src/stm32h7xx_hal_msp.c ****     }
 215              		.loc 1 99 7 view .LVU54
 216 009c D3F8D830 		ldr	r3, [r3, #216]
 217 00a0 03F02003 		and	r3, r3, #32
 218 00a4 0093     		str	r3, [sp]
  99:../../CM4/Core/Src/stm32h7xx_hal_msp.c ****     }
ARM GAS  /tmp/ccTm6Fei.s 			page 9


 219              		.loc 1 99 7 view .LVU55
 220 00a6 009B     		ldr	r3, [sp]
 221 00a8 C5E7     		b	.L7
 222              	.L13:
 223              	.LBE5:
 129:../../CM4/Core/Src/stm32h7xx_hal_msp.c ****     if(HAL_RCC_ADC12_CLK_ENABLED==1){
 224              		.loc 1 129 5 view .LVU56
 129:../../CM4/Core/Src/stm32h7xx_hal_msp.c ****     if(HAL_RCC_ADC12_CLK_ENABLED==1){
 225              		.loc 1 129 30 is_stmt 0 view .LVU57
 226 00aa 534A     		ldr	r2, .L17+12
 227 00ac 1368     		ldr	r3, [r2]
 228 00ae 0133     		adds	r3, r3, #1
 229 00b0 1360     		str	r3, [r2]
 130:../../CM4/Core/Src/stm32h7xx_hal_msp.c ****       __HAL_RCC_ADC12_CLK_ENABLE();
 230              		.loc 1 130 5 is_stmt 1 view .LVU58
 130:../../CM4/Core/Src/stm32h7xx_hal_msp.c ****       __HAL_RCC_ADC12_CLK_ENABLE();
 231              		.loc 1 130 7 is_stmt 0 view .LVU59
 232 00b2 012B     		cmp	r3, #1
 233 00b4 52D0     		beq	.L16
 234              	.L10:
 131:../../CM4/Core/Src/stm32h7xx_hal_msp.c ****     }
 235              		.loc 1 131 7 is_stmt 1 discriminator 1 view .LVU60
 134:../../CM4/Core/Src/stm32h7xx_hal_msp.c ****     __HAL_RCC_GPIOA_CLK_ENABLE();
 236              		.loc 1 134 5 discriminator 1 view .LVU61
 237              	.LBB6:
 134:../../CM4/Core/Src/stm32h7xx_hal_msp.c ****     __HAL_RCC_GPIOA_CLK_ENABLE();
 238              		.loc 1 134 5 discriminator 1 view .LVU62
 134:../../CM4/Core/Src/stm32h7xx_hal_msp.c ****     __HAL_RCC_GPIOA_CLK_ENABLE();
 239              		.loc 1 134 5 discriminator 1 view .LVU63
 240 00b6 514B     		ldr	r3, .L17+16
 241 00b8 D3F8E020 		ldr	r2, [r3, #224]
 242 00bc 42F00402 		orr	r2, r2, #4
 243 00c0 C3F8E020 		str	r2, [r3, #224]
 134:../../CM4/Core/Src/stm32h7xx_hal_msp.c ****     __HAL_RCC_GPIOA_CLK_ENABLE();
 244              		.loc 1 134 5 discriminator 1 view .LVU64
 245 00c4 D3F8E020 		ldr	r2, [r3, #224]
 246 00c8 02F00402 		and	r2, r2, #4
 247 00cc 0492     		str	r2, [sp, #16]
 134:../../CM4/Core/Src/stm32h7xx_hal_msp.c ****     __HAL_RCC_GPIOA_CLK_ENABLE();
 248              		.loc 1 134 5 discriminator 1 view .LVU65
 249 00ce 049A     		ldr	r2, [sp, #16]
 250              	.LBE6:
 134:../../CM4/Core/Src/stm32h7xx_hal_msp.c ****     __HAL_RCC_GPIOA_CLK_ENABLE();
 251              		.loc 1 134 5 discriminator 1 view .LVU66
 135:../../CM4/Core/Src/stm32h7xx_hal_msp.c ****     __HAL_RCC_GPIOB_CLK_ENABLE();
 252              		.loc 1 135 5 discriminator 1 view .LVU67
 253              	.LBB7:
 135:../../CM4/Core/Src/stm32h7xx_hal_msp.c ****     __HAL_RCC_GPIOB_CLK_ENABLE();
 254              		.loc 1 135 5 discriminator 1 view .LVU68
 135:../../CM4/Core/Src/stm32h7xx_hal_msp.c ****     __HAL_RCC_GPIOB_CLK_ENABLE();
 255              		.loc 1 135 5 discriminator 1 view .LVU69
 256 00d0 D3F8E020 		ldr	r2, [r3, #224]
 257 00d4 42F00102 		orr	r2, r2, #1
 258 00d8 C3F8E020 		str	r2, [r3, #224]
 135:../../CM4/Core/Src/stm32h7xx_hal_msp.c ****     __HAL_RCC_GPIOB_CLK_ENABLE();
 259              		.loc 1 135 5 discriminator 1 view .LVU70
 260 00dc D3F8E020 		ldr	r2, [r3, #224]
ARM GAS  /tmp/ccTm6Fei.s 			page 10


 261 00e0 02F00102 		and	r2, r2, #1
 262 00e4 0592     		str	r2, [sp, #20]
 135:../../CM4/Core/Src/stm32h7xx_hal_msp.c ****     __HAL_RCC_GPIOB_CLK_ENABLE();
 263              		.loc 1 135 5 discriminator 1 view .LVU71
 264 00e6 059A     		ldr	r2, [sp, #20]
 265              	.LBE7:
 135:../../CM4/Core/Src/stm32h7xx_hal_msp.c ****     __HAL_RCC_GPIOB_CLK_ENABLE();
 266              		.loc 1 135 5 discriminator 1 view .LVU72
 136:../../CM4/Core/Src/stm32h7xx_hal_msp.c ****     __HAL_RCC_GPIOF_CLK_ENABLE();
 267              		.loc 1 136 5 discriminator 1 view .LVU73
 268              	.LBB8:
 136:../../CM4/Core/Src/stm32h7xx_hal_msp.c ****     __HAL_RCC_GPIOF_CLK_ENABLE();
 269              		.loc 1 136 5 discriminator 1 view .LVU74
 136:../../CM4/Core/Src/stm32h7xx_hal_msp.c ****     __HAL_RCC_GPIOF_CLK_ENABLE();
 270              		.loc 1 136 5 discriminator 1 view .LVU75
 271 00e8 D3F8E020 		ldr	r2, [r3, #224]
 272 00ec 42F00202 		orr	r2, r2, #2
 273 00f0 C3F8E020 		str	r2, [r3, #224]
 136:../../CM4/Core/Src/stm32h7xx_hal_msp.c ****     __HAL_RCC_GPIOF_CLK_ENABLE();
 274              		.loc 1 136 5 discriminator 1 view .LVU76
 275 00f4 D3F8E020 		ldr	r2, [r3, #224]
 276 00f8 02F00202 		and	r2, r2, #2
 277 00fc 0692     		str	r2, [sp, #24]
 136:../../CM4/Core/Src/stm32h7xx_hal_msp.c ****     __HAL_RCC_GPIOF_CLK_ENABLE();
 278              		.loc 1 136 5 discriminator 1 view .LVU77
 279 00fe 069A     		ldr	r2, [sp, #24]
 280              	.LBE8:
 136:../../CM4/Core/Src/stm32h7xx_hal_msp.c ****     __HAL_RCC_GPIOF_CLK_ENABLE();
 281              		.loc 1 136 5 discriminator 1 view .LVU78
 137:../../CM4/Core/Src/stm32h7xx_hal_msp.c ****     /**ADC2 GPIO Configuration
 282              		.loc 1 137 5 discriminator 1 view .LVU79
 283              	.LBB9:
 137:../../CM4/Core/Src/stm32h7xx_hal_msp.c ****     /**ADC2 GPIO Configuration
 284              		.loc 1 137 5 discriminator 1 view .LVU80
 137:../../CM4/Core/Src/stm32h7xx_hal_msp.c ****     /**ADC2 GPIO Configuration
 285              		.loc 1 137 5 discriminator 1 view .LVU81
 286 0100 D3F8E020 		ldr	r2, [r3, #224]
 287 0104 42F02002 		orr	r2, r2, #32
 288 0108 C3F8E020 		str	r2, [r3, #224]
 137:../../CM4/Core/Src/stm32h7xx_hal_msp.c ****     /**ADC2 GPIO Configuration
 289              		.loc 1 137 5 discriminator 1 view .LVU82
 290 010c D3F8E030 		ldr	r3, [r3, #224]
 291 0110 03F02003 		and	r3, r3, #32
 292 0114 0793     		str	r3, [sp, #28]
 137:../../CM4/Core/Src/stm32h7xx_hal_msp.c ****     /**ADC2 GPIO Configuration
 293              		.loc 1 137 5 discriminator 1 view .LVU83
 294 0116 079B     		ldr	r3, [sp, #28]
 295              	.LBE9:
 137:../../CM4/Core/Src/stm32h7xx_hal_msp.c ****     /**ADC2 GPIO Configuration
 296              		.loc 1 137 5 discriminator 1 view .LVU84
 147:../../CM4/Core/Src/stm32h7xx_hal_msp.c ****     GPIO_InitStruct.Mode = GPIO_MODE_ANALOG;
 297              		.loc 1 147 5 discriminator 1 view .LVU85
 147:../../CM4/Core/Src/stm32h7xx_hal_msp.c ****     GPIO_InitStruct.Mode = GPIO_MODE_ANALOG;
 298              		.loc 1 147 25 is_stmt 0 discriminator 1 view .LVU86
 299 0118 0123     		movs	r3, #1
 300 011a 0B93     		str	r3, [sp, #44]
 148:../../CM4/Core/Src/stm32h7xx_hal_msp.c ****     GPIO_InitStruct.Pull = GPIO_NOPULL;
ARM GAS  /tmp/ccTm6Fei.s 			page 11


 301              		.loc 1 148 5 is_stmt 1 discriminator 1 view .LVU87
 148:../../CM4/Core/Src/stm32h7xx_hal_msp.c ****     GPIO_InitStruct.Pull = GPIO_NOPULL;
 302              		.loc 1 148 26 is_stmt 0 discriminator 1 view .LVU88
 303 011c 0324     		movs	r4, #3
 304 011e 0C94     		str	r4, [sp, #48]
 149:../../CM4/Core/Src/stm32h7xx_hal_msp.c ****     HAL_GPIO_Init(GPIOC, &GPIO_InitStruct);
 305              		.loc 1 149 5 is_stmt 1 discriminator 1 view .LVU89
 150:../../CM4/Core/Src/stm32h7xx_hal_msp.c **** 
 306              		.loc 1 150 5 discriminator 1 view .LVU90
 307 0120 0BA9     		add	r1, sp, #44
 308 0122 3948     		ldr	r0, .L17+28
 309              	.LVL7:
 150:../../CM4/Core/Src/stm32h7xx_hal_msp.c **** 
 310              		.loc 1 150 5 is_stmt 0 discriminator 1 view .LVU91
 311 0124 FFF7FEFF 		bl	HAL_GPIO_Init
 312              	.LVL8:
 152:../../CM4/Core/Src/stm32h7xx_hal_msp.c ****     GPIO_InitStruct.Mode = GPIO_MODE_ANALOG;
 313              		.loc 1 152 5 is_stmt 1 discriminator 1 view .LVU92
 152:../../CM4/Core/Src/stm32h7xx_hal_msp.c ****     GPIO_InitStruct.Mode = GPIO_MODE_ANALOG;
 314              		.loc 1 152 25 is_stmt 0 discriminator 1 view .LVU93
 315 0128 5823     		movs	r3, #88
 316 012a 0B93     		str	r3, [sp, #44]
 153:../../CM4/Core/Src/stm32h7xx_hal_msp.c ****     GPIO_InitStruct.Pull = GPIO_NOPULL;
 317              		.loc 1 153 5 is_stmt 1 discriminator 1 view .LVU94
 153:../../CM4/Core/Src/stm32h7xx_hal_msp.c ****     GPIO_InitStruct.Pull = GPIO_NOPULL;
 318              		.loc 1 153 26 is_stmt 0 discriminator 1 view .LVU95
 319 012c 0C94     		str	r4, [sp, #48]
 154:../../CM4/Core/Src/stm32h7xx_hal_msp.c ****     HAL_GPIO_Init(GPIOA, &GPIO_InitStruct);
 320              		.loc 1 154 5 is_stmt 1 discriminator 1 view .LVU96
 154:../../CM4/Core/Src/stm32h7xx_hal_msp.c ****     HAL_GPIO_Init(GPIOA, &GPIO_InitStruct);
 321              		.loc 1 154 26 is_stmt 0 discriminator 1 view .LVU97
 322 012e 0025     		movs	r5, #0
 323 0130 0D95     		str	r5, [sp, #52]
 155:../../CM4/Core/Src/stm32h7xx_hal_msp.c **** 
 324              		.loc 1 155 5 is_stmt 1 discriminator 1 view .LVU98
 325 0132 0BA9     		add	r1, sp, #44
 326 0134 3248     		ldr	r0, .L17+20
 327 0136 FFF7FEFF 		bl	HAL_GPIO_Init
 328              	.LVL9:
 157:../../CM4/Core/Src/stm32h7xx_hal_msp.c ****     GPIO_InitStruct.Mode = GPIO_MODE_ANALOG;
 329              		.loc 1 157 5 discriminator 1 view .LVU99
 157:../../CM4/Core/Src/stm32h7xx_hal_msp.c ****     GPIO_InitStruct.Mode = GPIO_MODE_ANALOG;
 330              		.loc 1 157 25 is_stmt 0 discriminator 1 view .LVU100
 331 013a 0B94     		str	r4, [sp, #44]
 158:../../CM4/Core/Src/stm32h7xx_hal_msp.c ****     GPIO_InitStruct.Pull = GPIO_NOPULL;
 332              		.loc 1 158 5 is_stmt 1 discriminator 1 view .LVU101
 158:../../CM4/Core/Src/stm32h7xx_hal_msp.c ****     GPIO_InitStruct.Pull = GPIO_NOPULL;
 333              		.loc 1 158 26 is_stmt 0 discriminator 1 view .LVU102
 334 013c 0C94     		str	r4, [sp, #48]
 159:../../CM4/Core/Src/stm32h7xx_hal_msp.c ****     HAL_GPIO_Init(GPIOB, &GPIO_InitStruct);
 335              		.loc 1 159 5 is_stmt 1 discriminator 1 view .LVU103
 159:../../CM4/Core/Src/stm32h7xx_hal_msp.c ****     HAL_GPIO_Init(GPIOB, &GPIO_InitStruct);
 336              		.loc 1 159 26 is_stmt 0 discriminator 1 view .LVU104
 337 013e 0D95     		str	r5, [sp, #52]
 160:../../CM4/Core/Src/stm32h7xx_hal_msp.c **** 
 338              		.loc 1 160 5 is_stmt 1 discriminator 1 view .LVU105
 339 0140 0BA9     		add	r1, sp, #44
ARM GAS  /tmp/ccTm6Fei.s 			page 12


 340 0142 3248     		ldr	r0, .L17+32
 341 0144 FFF7FEFF 		bl	HAL_GPIO_Init
 342              	.LVL10:
 162:../../CM4/Core/Src/stm32h7xx_hal_msp.c ****     GPIO_InitStruct.Mode = GPIO_MODE_ANALOG;
 343              		.loc 1 162 5 discriminator 1 view .LVU106
 162:../../CM4/Core/Src/stm32h7xx_hal_msp.c ****     GPIO_InitStruct.Mode = GPIO_MODE_ANALOG;
 344              		.loc 1 162 25 is_stmt 0 discriminator 1 view .LVU107
 345 0148 4FF48043 		mov	r3, #16384
 346 014c 0B93     		str	r3, [sp, #44]
 163:../../CM4/Core/Src/stm32h7xx_hal_msp.c ****     GPIO_InitStruct.Pull = GPIO_NOPULL;
 347              		.loc 1 163 5 is_stmt 1 discriminator 1 view .LVU108
 163:../../CM4/Core/Src/stm32h7xx_hal_msp.c ****     GPIO_InitStruct.Pull = GPIO_NOPULL;
 348              		.loc 1 163 26 is_stmt 0 discriminator 1 view .LVU109
 349 014e 0C94     		str	r4, [sp, #48]
 164:../../CM4/Core/Src/stm32h7xx_hal_msp.c ****     HAL_GPIO_Init(GPIOF, &GPIO_InitStruct);
 350              		.loc 1 164 5 is_stmt 1 discriminator 1 view .LVU110
 164:../../CM4/Core/Src/stm32h7xx_hal_msp.c ****     HAL_GPIO_Init(GPIOF, &GPIO_InitStruct);
 351              		.loc 1 164 26 is_stmt 0 discriminator 1 view .LVU111
 352 0150 0D95     		str	r5, [sp, #52]
 165:../../CM4/Core/Src/stm32h7xx_hal_msp.c **** 
 353              		.loc 1 165 5 is_stmt 1 discriminator 1 view .LVU112
 354 0152 0BA9     		add	r1, sp, #44
 355 0154 2B48     		ldr	r0, .L17+24
 356 0156 FFF7FEFF 		bl	HAL_GPIO_Init
 357              	.LVL11:
 358 015a 64E7     		b	.L5
 359              	.LVL12:
 360              	.L16:
 131:../../CM4/Core/Src/stm32h7xx_hal_msp.c ****     }
 361              		.loc 1 131 7 view .LVU113
 362              	.LBB10:
 131:../../CM4/Core/Src/stm32h7xx_hal_msp.c ****     }
 363              		.loc 1 131 7 view .LVU114
 131:../../CM4/Core/Src/stm32h7xx_hal_msp.c ****     }
 364              		.loc 1 131 7 view .LVU115
 365 015c 274B     		ldr	r3, .L17+16
 366 015e D3F8D820 		ldr	r2, [r3, #216]
 367 0162 42F02002 		orr	r2, r2, #32
 368 0166 C3F8D820 		str	r2, [r3, #216]
 131:../../CM4/Core/Src/stm32h7xx_hal_msp.c ****     }
 369              		.loc 1 131 7 view .LVU116
 370 016a D3F8D830 		ldr	r3, [r3, #216]
 371 016e 03F02003 		and	r3, r3, #32
 372 0172 0393     		str	r3, [sp, #12]
 131:../../CM4/Core/Src/stm32h7xx_hal_msp.c ****     }
 373              		.loc 1 131 7 view .LVU117
 374 0174 039B     		ldr	r3, [sp, #12]
 375 0176 9EE7     		b	.L10
 376              	.L14:
 377              	.LBE10:
 177:../../CM4/Core/Src/stm32h7xx_hal_msp.c **** 
 378              		.loc 1 177 5 view .LVU118
 379              	.LBB11:
 177:../../CM4/Core/Src/stm32h7xx_hal_msp.c **** 
 380              		.loc 1 177 5 view .LVU119
 177:../../CM4/Core/Src/stm32h7xx_hal_msp.c **** 
 381              		.loc 1 177 5 view .LVU120
ARM GAS  /tmp/ccTm6Fei.s 			page 13


 382 0178 204B     		ldr	r3, .L17+16
 383 017a D3F8E020 		ldr	r2, [r3, #224]
 384 017e 42F08072 		orr	r2, r2, #16777216
 385 0182 C3F8E020 		str	r2, [r3, #224]
 177:../../CM4/Core/Src/stm32h7xx_hal_msp.c **** 
 386              		.loc 1 177 5 view .LVU121
 387 0186 D3F8E020 		ldr	r2, [r3, #224]
 388 018a 02F08072 		and	r2, r2, #16777216
 389 018e 0892     		str	r2, [sp, #32]
 177:../../CM4/Core/Src/stm32h7xx_hal_msp.c **** 
 390              		.loc 1 177 5 view .LVU122
 391 0190 089A     		ldr	r2, [sp, #32]
 392              	.LBE11:
 177:../../CM4/Core/Src/stm32h7xx_hal_msp.c **** 
 393              		.loc 1 177 5 view .LVU123
 179:../../CM4/Core/Src/stm32h7xx_hal_msp.c ****     __HAL_RCC_GPIOC_CLK_ENABLE();
 394              		.loc 1 179 5 view .LVU124
 395              	.LBB12:
 179:../../CM4/Core/Src/stm32h7xx_hal_msp.c ****     __HAL_RCC_GPIOC_CLK_ENABLE();
 396              		.loc 1 179 5 view .LVU125
 179:../../CM4/Core/Src/stm32h7xx_hal_msp.c ****     __HAL_RCC_GPIOC_CLK_ENABLE();
 397              		.loc 1 179 5 view .LVU126
 398 0192 D3F8E020 		ldr	r2, [r3, #224]
 399 0196 42F02002 		orr	r2, r2, #32
 400 019a C3F8E020 		str	r2, [r3, #224]
 179:../../CM4/Core/Src/stm32h7xx_hal_msp.c ****     __HAL_RCC_GPIOC_CLK_ENABLE();
 401              		.loc 1 179 5 view .LVU127
 402 019e D3F8E020 		ldr	r2, [r3, #224]
 403 01a2 02F02002 		and	r2, r2, #32
 404 01a6 0992     		str	r2, [sp, #36]
 179:../../CM4/Core/Src/stm32h7xx_hal_msp.c ****     __HAL_RCC_GPIOC_CLK_ENABLE();
 405              		.loc 1 179 5 view .LVU128
 406 01a8 099A     		ldr	r2, [sp, #36]
 407              	.LBE12:
 179:../../CM4/Core/Src/stm32h7xx_hal_msp.c ****     __HAL_RCC_GPIOC_CLK_ENABLE();
 408              		.loc 1 179 5 view .LVU129
 180:../../CM4/Core/Src/stm32h7xx_hal_msp.c ****     /**ADC3 GPIO Configuration
 409              		.loc 1 180 5 view .LVU130
 410              	.LBB13:
 180:../../CM4/Core/Src/stm32h7xx_hal_msp.c ****     /**ADC3 GPIO Configuration
 411              		.loc 1 180 5 view .LVU131
 180:../../CM4/Core/Src/stm32h7xx_hal_msp.c ****     /**ADC3 GPIO Configuration
 412              		.loc 1 180 5 view .LVU132
 413 01aa D3F8E020 		ldr	r2, [r3, #224]
 414 01ae 42F00402 		orr	r2, r2, #4
 415 01b2 C3F8E020 		str	r2, [r3, #224]
 180:../../CM4/Core/Src/stm32h7xx_hal_msp.c ****     /**ADC3 GPIO Configuration
 416              		.loc 1 180 5 view .LVU133
 417 01b6 D3F8E030 		ldr	r3, [r3, #224]
 418 01ba 03F00403 		and	r3, r3, #4
 419 01be 0A93     		str	r3, [sp, #40]
 180:../../CM4/Core/Src/stm32h7xx_hal_msp.c ****     /**ADC3 GPIO Configuration
 420              		.loc 1 180 5 view .LVU134
 421 01c0 0A9B     		ldr	r3, [sp, #40]
 422              	.LBE13:
 180:../../CM4/Core/Src/stm32h7xx_hal_msp.c ****     /**ADC3 GPIO Configuration
 423              		.loc 1 180 5 view .LVU135
ARM GAS  /tmp/ccTm6Fei.s 			page 14


 190:../../CM4/Core/Src/stm32h7xx_hal_msp.c ****                           |GPIO_PIN_10;
 424              		.loc 1 190 5 view .LVU136
 190:../../CM4/Core/Src/stm32h7xx_hal_msp.c ****                           |GPIO_PIN_10;
 425              		.loc 1 190 25 is_stmt 0 view .LVU137
 426 01c2 4FF4F863 		mov	r3, #1984
 427 01c6 0B93     		str	r3, [sp, #44]
 192:../../CM4/Core/Src/stm32h7xx_hal_msp.c ****     GPIO_InitStruct.Pull = GPIO_NOPULL;
 428              		.loc 1 192 5 is_stmt 1 view .LVU138
 192:../../CM4/Core/Src/stm32h7xx_hal_msp.c ****     GPIO_InitStruct.Pull = GPIO_NOPULL;
 429              		.loc 1 192 26 is_stmt 0 view .LVU139
 430 01c8 0323     		movs	r3, #3
 431 01ca 0C93     		str	r3, [sp, #48]
 193:../../CM4/Core/Src/stm32h7xx_hal_msp.c ****     HAL_GPIO_Init(GPIOF, &GPIO_InitStruct);
 432              		.loc 1 193 5 is_stmt 1 view .LVU140
 194:../../CM4/Core/Src/stm32h7xx_hal_msp.c **** 
 433              		.loc 1 194 5 view .LVU141
 434 01cc 0BA9     		add	r1, sp, #44
 435 01ce 0D48     		ldr	r0, .L17+24
 436              	.LVL13:
 194:../../CM4/Core/Src/stm32h7xx_hal_msp.c **** 
 437              		.loc 1 194 5 is_stmt 0 view .LVU142
 438 01d0 FFF7FEFF 		bl	HAL_GPIO_Init
 439              	.LVL14:
 196:../../CM4/Core/Src/stm32h7xx_hal_msp.c **** 
 440              		.loc 1 196 5 is_stmt 1 view .LVU143
 441 01d4 4FF08061 		mov	r1, #67108864
 442 01d8 0846     		mov	r0, r1
 443 01da FFF7FEFF 		bl	HAL_SYSCFG_AnalogSwitchConfig
 444              	.LVL15:
 198:../../CM4/Core/Src/stm32h7xx_hal_msp.c **** 
 445              		.loc 1 198 5 view .LVU144
 446 01de 4FF00061 		mov	r1, #134217728
 447 01e2 0846     		mov	r0, r1
 448 01e4 FFF7FEFF 		bl	HAL_SYSCFG_AnalogSwitchConfig
 449              	.LVL16:
 450              		.loc 1 205 1 is_stmt 0 view .LVU145
 451 01e8 1DE7     		b	.L5
 452              	.L18:
 453 01ea 00BF     		.align	2
 454              	.L17:
 455 01ec 00200240 		.word	1073881088
 456 01f0 00210240 		.word	1073881344
 457 01f4 00600258 		.word	1476550656
 458 01f8 00000000 		.word	.LANCHOR0
 459 01fc 00440258 		.word	1476543488
 460 0200 00000258 		.word	1476526080
 461 0204 00140258 		.word	1476531200
 462 0208 00080258 		.word	1476528128
 463 020c 00040258 		.word	1476527104
 464              		.cfi_endproc
 465              	.LFE324:
 467              		.section	.text.HAL_ADC_MspDeInit,"ax",%progbits
 468              		.align	1
 469              		.global	HAL_ADC_MspDeInit
 470              		.syntax unified
 471              		.thumb
 472              		.thumb_func
ARM GAS  /tmp/ccTm6Fei.s 			page 15


 473              		.fpu fpv4-sp-d16
 475              	HAL_ADC_MspDeInit:
 476              	.LVL17:
 477              	.LFB325:
 206:../../CM4/Core/Src/stm32h7xx_hal_msp.c **** 
 207:../../CM4/Core/Src/stm32h7xx_hal_msp.c **** /**
 208:../../CM4/Core/Src/stm32h7xx_hal_msp.c **** * @brief ADC MSP De-Initialization
 209:../../CM4/Core/Src/stm32h7xx_hal_msp.c **** * This function freeze the hardware resources used in this example
 210:../../CM4/Core/Src/stm32h7xx_hal_msp.c **** * @param hadc: ADC handle pointer
 211:../../CM4/Core/Src/stm32h7xx_hal_msp.c **** * @retval None
 212:../../CM4/Core/Src/stm32h7xx_hal_msp.c **** */
 213:../../CM4/Core/Src/stm32h7xx_hal_msp.c **** void HAL_ADC_MspDeInit(ADC_HandleTypeDef* hadc)
 214:../../CM4/Core/Src/stm32h7xx_hal_msp.c **** {
 478              		.loc 1 214 1 is_stmt 1 view -0
 479              		.cfi_startproc
 480              		@ args = 0, pretend = 0, frame = 0
 481              		@ frame_needed = 0, uses_anonymous_args = 0
 482              		.loc 1 214 1 is_stmt 0 view .LVU147
 483 0000 08B5     		push	{r3, lr}
 484              	.LCFI6:
 485              		.cfi_def_cfa_offset 8
 486              		.cfi_offset 3, -8
 487              		.cfi_offset 14, -4
 215:../../CM4/Core/Src/stm32h7xx_hal_msp.c ****   if(hadc->Instance==ADC1)
 488              		.loc 1 215 3 is_stmt 1 view .LVU148
 489              		.loc 1 215 10 is_stmt 0 view .LVU149
 490 0002 0368     		ldr	r3, [r0]
 491              		.loc 1 215 5 view .LVU150
 492 0004 254A     		ldr	r2, .L29
 493 0006 9342     		cmp	r3, r2
 494 0008 06D0     		beq	.L26
 216:../../CM4/Core/Src/stm32h7xx_hal_msp.c ****   {
 217:../../CM4/Core/Src/stm32h7xx_hal_msp.c ****   /* USER CODE BEGIN ADC1_MspDeInit 0 */
 218:../../CM4/Core/Src/stm32h7xx_hal_msp.c **** 
 219:../../CM4/Core/Src/stm32h7xx_hal_msp.c ****   /* USER CODE END ADC1_MspDeInit 0 */
 220:../../CM4/Core/Src/stm32h7xx_hal_msp.c ****     /* Peripheral clock disable */
 221:../../CM4/Core/Src/stm32h7xx_hal_msp.c ****     HAL_RCC_ADC12_CLK_ENABLED--;
 222:../../CM4/Core/Src/stm32h7xx_hal_msp.c ****     if(HAL_RCC_ADC12_CLK_ENABLED==0){
 223:../../CM4/Core/Src/stm32h7xx_hal_msp.c ****       __HAL_RCC_ADC12_CLK_DISABLE();
 224:../../CM4/Core/Src/stm32h7xx_hal_msp.c ****     }
 225:../../CM4/Core/Src/stm32h7xx_hal_msp.c **** 
 226:../../CM4/Core/Src/stm32h7xx_hal_msp.c ****     /**ADC1 GPIO Configuration
 227:../../CM4/Core/Src/stm32h7xx_hal_msp.c ****     PA0     ------> ADC1_INP16
 228:../../CM4/Core/Src/stm32h7xx_hal_msp.c ****     PA5     ------> ADC1_INP19
 229:../../CM4/Core/Src/stm32h7xx_hal_msp.c ****     PF11     ------> ADC1_INP2
 230:../../CM4/Core/Src/stm32h7xx_hal_msp.c ****     */
 231:../../CM4/Core/Src/stm32h7xx_hal_msp.c ****     HAL_GPIO_DeInit(GPIOA, GPIO_PIN_0|GPIO_PIN_5);
 232:../../CM4/Core/Src/stm32h7xx_hal_msp.c **** 
 233:../../CM4/Core/Src/stm32h7xx_hal_msp.c ****     HAL_GPIO_DeInit(GPIOF, GPIO_PIN_11);
 234:../../CM4/Core/Src/stm32h7xx_hal_msp.c **** 
 235:../../CM4/Core/Src/stm32h7xx_hal_msp.c ****   /* USER CODE BEGIN ADC1_MspDeInit 1 */
 236:../../CM4/Core/Src/stm32h7xx_hal_msp.c **** 
 237:../../CM4/Core/Src/stm32h7xx_hal_msp.c ****   /* USER CODE END ADC1_MspDeInit 1 */
 238:../../CM4/Core/Src/stm32h7xx_hal_msp.c ****   }
 239:../../CM4/Core/Src/stm32h7xx_hal_msp.c ****   else if(hadc->Instance==ADC2)
 495              		.loc 1 239 8 is_stmt 1 view .LVU151
 496              		.loc 1 239 10 is_stmt 0 view .LVU152
ARM GAS  /tmp/ccTm6Fei.s 			page 16


 497 000a 254A     		ldr	r2, .L29+4
 498 000c 9342     		cmp	r3, r2
 499 000e 19D0     		beq	.L27
 240:../../CM4/Core/Src/stm32h7xx_hal_msp.c ****   {
 241:../../CM4/Core/Src/stm32h7xx_hal_msp.c ****   /* USER CODE BEGIN ADC2_MspDeInit 0 */
 242:../../CM4/Core/Src/stm32h7xx_hal_msp.c **** 
 243:../../CM4/Core/Src/stm32h7xx_hal_msp.c ****   /* USER CODE END ADC2_MspDeInit 0 */
 244:../../CM4/Core/Src/stm32h7xx_hal_msp.c ****     /* Peripheral clock disable */
 245:../../CM4/Core/Src/stm32h7xx_hal_msp.c ****     HAL_RCC_ADC12_CLK_ENABLED--;
 246:../../CM4/Core/Src/stm32h7xx_hal_msp.c ****     if(HAL_RCC_ADC12_CLK_ENABLED==0){
 247:../../CM4/Core/Src/stm32h7xx_hal_msp.c ****       __HAL_RCC_ADC12_CLK_DISABLE();
 248:../../CM4/Core/Src/stm32h7xx_hal_msp.c ****     }
 249:../../CM4/Core/Src/stm32h7xx_hal_msp.c **** 
 250:../../CM4/Core/Src/stm32h7xx_hal_msp.c ****     /**ADC2 GPIO Configuration
 251:../../CM4/Core/Src/stm32h7xx_hal_msp.c ****     PC0     ------> ADC2_INP10
 252:../../CM4/Core/Src/stm32h7xx_hal_msp.c ****     PA3     ------> ADC2_INP15
 253:../../CM4/Core/Src/stm32h7xx_hal_msp.c ****     PA4     ------> ADC2_INP18
 254:../../CM4/Core/Src/stm32h7xx_hal_msp.c ****     PA6     ------> ADC2_INP3
 255:../../CM4/Core/Src/stm32h7xx_hal_msp.c ****     PB0     ------> ADC2_INP9
 256:../../CM4/Core/Src/stm32h7xx_hal_msp.c ****     PB1     ------> ADC2_INP5
 257:../../CM4/Core/Src/stm32h7xx_hal_msp.c ****     PF14     ------> ADC2_INP6
 258:../../CM4/Core/Src/stm32h7xx_hal_msp.c ****     */
 259:../../CM4/Core/Src/stm32h7xx_hal_msp.c ****     HAL_GPIO_DeInit(GPIOC, GPIO_PIN_0);
 260:../../CM4/Core/Src/stm32h7xx_hal_msp.c **** 
 261:../../CM4/Core/Src/stm32h7xx_hal_msp.c ****     HAL_GPIO_DeInit(GPIOA, GPIO_PIN_3|GPIO_PIN_4|GPIO_PIN_6);
 262:../../CM4/Core/Src/stm32h7xx_hal_msp.c **** 
 263:../../CM4/Core/Src/stm32h7xx_hal_msp.c ****     HAL_GPIO_DeInit(GPIOB, GPIO_PIN_0|GPIO_PIN_1);
 264:../../CM4/Core/Src/stm32h7xx_hal_msp.c **** 
 265:../../CM4/Core/Src/stm32h7xx_hal_msp.c ****     HAL_GPIO_DeInit(GPIOF, GPIO_PIN_14);
 266:../../CM4/Core/Src/stm32h7xx_hal_msp.c **** 
 267:../../CM4/Core/Src/stm32h7xx_hal_msp.c ****   /* USER CODE BEGIN ADC2_MspDeInit 1 */
 268:../../CM4/Core/Src/stm32h7xx_hal_msp.c **** 
 269:../../CM4/Core/Src/stm32h7xx_hal_msp.c ****   /* USER CODE END ADC2_MspDeInit 1 */
 270:../../CM4/Core/Src/stm32h7xx_hal_msp.c ****   }
 271:../../CM4/Core/Src/stm32h7xx_hal_msp.c ****   else if(hadc->Instance==ADC3)
 500              		.loc 1 271 8 is_stmt 1 view .LVU153
 501              		.loc 1 271 10 is_stmt 0 view .LVU154
 502 0010 244A     		ldr	r2, .L29+8
 503 0012 9342     		cmp	r3, r2
 504 0014 34D0     		beq	.L28
 505              	.LVL18:
 506              	.L19:
 272:../../CM4/Core/Src/stm32h7xx_hal_msp.c ****   {
 273:../../CM4/Core/Src/stm32h7xx_hal_msp.c ****   /* USER CODE BEGIN ADC3_MspDeInit 0 */
 274:../../CM4/Core/Src/stm32h7xx_hal_msp.c **** 
 275:../../CM4/Core/Src/stm32h7xx_hal_msp.c ****   /* USER CODE END ADC3_MspDeInit 0 */
 276:../../CM4/Core/Src/stm32h7xx_hal_msp.c ****     /* Peripheral clock disable */
 277:../../CM4/Core/Src/stm32h7xx_hal_msp.c ****     __HAL_RCC_ADC3_CLK_DISABLE();
 278:../../CM4/Core/Src/stm32h7xx_hal_msp.c **** 
 279:../../CM4/Core/Src/stm32h7xx_hal_msp.c ****     /**ADC3 GPIO Configuration
 280:../../CM4/Core/Src/stm32h7xx_hal_msp.c ****     PF6     ------> ADC3_INP8
 281:../../CM4/Core/Src/stm32h7xx_hal_msp.c ****     PF7     ------> ADC3_INP3
 282:../../CM4/Core/Src/stm32h7xx_hal_msp.c ****     PF8     ------> ADC3_INP7
 283:../../CM4/Core/Src/stm32h7xx_hal_msp.c ****     PF9     ------> ADC3_INP2
 284:../../CM4/Core/Src/stm32h7xx_hal_msp.c ****     PF10     ------> ADC3_INP6
 285:../../CM4/Core/Src/stm32h7xx_hal_msp.c ****     PC2_C     ------> ADC3_INP0
 286:../../CM4/Core/Src/stm32h7xx_hal_msp.c ****     PC3_C     ------> ADC3_INP1
ARM GAS  /tmp/ccTm6Fei.s 			page 17


 287:../../CM4/Core/Src/stm32h7xx_hal_msp.c ****     */
 288:../../CM4/Core/Src/stm32h7xx_hal_msp.c ****     HAL_GPIO_DeInit(GPIOF, GPIO_PIN_6|GPIO_PIN_7|GPIO_PIN_8|GPIO_PIN_9
 289:../../CM4/Core/Src/stm32h7xx_hal_msp.c ****                           |GPIO_PIN_10);
 290:../../CM4/Core/Src/stm32h7xx_hal_msp.c **** 
 291:../../CM4/Core/Src/stm32h7xx_hal_msp.c ****   /* USER CODE BEGIN ADC3_MspDeInit 1 */
 292:../../CM4/Core/Src/stm32h7xx_hal_msp.c **** 
 293:../../CM4/Core/Src/stm32h7xx_hal_msp.c ****   /* USER CODE END ADC3_MspDeInit 1 */
 294:../../CM4/Core/Src/stm32h7xx_hal_msp.c ****   }
 295:../../CM4/Core/Src/stm32h7xx_hal_msp.c **** 
 296:../../CM4/Core/Src/stm32h7xx_hal_msp.c **** }
 507              		.loc 1 296 1 view .LVU155
 508 0016 08BD     		pop	{r3, pc}
 509              	.LVL19:
 510              	.L26:
 221:../../CM4/Core/Src/stm32h7xx_hal_msp.c ****     if(HAL_RCC_ADC12_CLK_ENABLED==0){
 511              		.loc 1 221 5 is_stmt 1 view .LVU156
 221:../../CM4/Core/Src/stm32h7xx_hal_msp.c ****     if(HAL_RCC_ADC12_CLK_ENABLED==0){
 512              		.loc 1 221 30 is_stmt 0 view .LVU157
 513 0018 234A     		ldr	r2, .L29+12
 514 001a 1368     		ldr	r3, [r2]
 515 001c 013B     		subs	r3, r3, #1
 516 001e 1360     		str	r3, [r2]
 222:../../CM4/Core/Src/stm32h7xx_hal_msp.c ****       __HAL_RCC_ADC12_CLK_DISABLE();
 517              		.loc 1 222 5 is_stmt 1 view .LVU158
 222:../../CM4/Core/Src/stm32h7xx_hal_msp.c ****       __HAL_RCC_ADC12_CLK_DISABLE();
 518              		.loc 1 222 7 is_stmt 0 view .LVU159
 519 0020 33B9     		cbnz	r3, .L21
 223:../../CM4/Core/Src/stm32h7xx_hal_msp.c ****     }
 520              		.loc 1 223 7 is_stmt 1 view .LVU160
 521 0022 224A     		ldr	r2, .L29+16
 522 0024 D2F8D830 		ldr	r3, [r2, #216]
 523 0028 23F02003 		bic	r3, r3, #32
 524 002c C2F8D830 		str	r3, [r2, #216]
 525              	.L21:
 231:../../CM4/Core/Src/stm32h7xx_hal_msp.c **** 
 526              		.loc 1 231 5 view .LVU161
 527 0030 2121     		movs	r1, #33
 528 0032 1F48     		ldr	r0, .L29+20
 529              	.LVL20:
 231:../../CM4/Core/Src/stm32h7xx_hal_msp.c **** 
 530              		.loc 1 231 5 is_stmt 0 view .LVU162
 531 0034 FFF7FEFF 		bl	HAL_GPIO_DeInit
 532              	.LVL21:
 233:../../CM4/Core/Src/stm32h7xx_hal_msp.c **** 
 533              		.loc 1 233 5 is_stmt 1 view .LVU163
 534 0038 4FF40061 		mov	r1, #2048
 535 003c 1D48     		ldr	r0, .L29+24
 536 003e FFF7FEFF 		bl	HAL_GPIO_DeInit
 537              	.LVL22:
 538 0042 E8E7     		b	.L19
 539              	.LVL23:
 540              	.L27:
 245:../../CM4/Core/Src/stm32h7xx_hal_msp.c ****     if(HAL_RCC_ADC12_CLK_ENABLED==0){
 541              		.loc 1 245 5 view .LVU164
 245:../../CM4/Core/Src/stm32h7xx_hal_msp.c ****     if(HAL_RCC_ADC12_CLK_ENABLED==0){
 542              		.loc 1 245 30 is_stmt 0 view .LVU165
 543 0044 184A     		ldr	r2, .L29+12
ARM GAS  /tmp/ccTm6Fei.s 			page 18


 544 0046 1368     		ldr	r3, [r2]
 545 0048 013B     		subs	r3, r3, #1
 546 004a 1360     		str	r3, [r2]
 246:../../CM4/Core/Src/stm32h7xx_hal_msp.c ****       __HAL_RCC_ADC12_CLK_DISABLE();
 547              		.loc 1 246 5 is_stmt 1 view .LVU166
 246:../../CM4/Core/Src/stm32h7xx_hal_msp.c ****       __HAL_RCC_ADC12_CLK_DISABLE();
 548              		.loc 1 246 7 is_stmt 0 view .LVU167
 549 004c 33B9     		cbnz	r3, .L24
 247:../../CM4/Core/Src/stm32h7xx_hal_msp.c ****     }
 550              		.loc 1 247 7 is_stmt 1 view .LVU168
 551 004e 174A     		ldr	r2, .L29+16
 552 0050 D2F8D830 		ldr	r3, [r2, #216]
 553 0054 23F02003 		bic	r3, r3, #32
 554 0058 C2F8D830 		str	r3, [r2, #216]
 555              	.L24:
 259:../../CM4/Core/Src/stm32h7xx_hal_msp.c **** 
 556              		.loc 1 259 5 view .LVU169
 557 005c 0121     		movs	r1, #1
 558 005e 1648     		ldr	r0, .L29+28
 559              	.LVL24:
 259:../../CM4/Core/Src/stm32h7xx_hal_msp.c **** 
 560              		.loc 1 259 5 is_stmt 0 view .LVU170
 561 0060 FFF7FEFF 		bl	HAL_GPIO_DeInit
 562              	.LVL25:
 261:../../CM4/Core/Src/stm32h7xx_hal_msp.c **** 
 563              		.loc 1 261 5 is_stmt 1 view .LVU171
 564 0064 5821     		movs	r1, #88
 565 0066 1248     		ldr	r0, .L29+20
 566 0068 FFF7FEFF 		bl	HAL_GPIO_DeInit
 567              	.LVL26:
 263:../../CM4/Core/Src/stm32h7xx_hal_msp.c **** 
 568              		.loc 1 263 5 view .LVU172
 569 006c 0321     		movs	r1, #3
 570 006e 1348     		ldr	r0, .L29+32
 571 0070 FFF7FEFF 		bl	HAL_GPIO_DeInit
 572              	.LVL27:
 265:../../CM4/Core/Src/stm32h7xx_hal_msp.c **** 
 573              		.loc 1 265 5 view .LVU173
 574 0074 4FF48041 		mov	r1, #16384
 575 0078 0E48     		ldr	r0, .L29+24
 576 007a FFF7FEFF 		bl	HAL_GPIO_DeInit
 577              	.LVL28:
 578 007e CAE7     		b	.L19
 579              	.LVL29:
 580              	.L28:
 277:../../CM4/Core/Src/stm32h7xx_hal_msp.c **** 
 581              		.loc 1 277 5 view .LVU174
 582 0080 A2F5E052 		sub	r2, r2, #7168
 583 0084 D2F8E030 		ldr	r3, [r2, #224]
 584 0088 23F08073 		bic	r3, r3, #16777216
 585 008c C2F8E030 		str	r3, [r2, #224]
 288:../../CM4/Core/Src/stm32h7xx_hal_msp.c ****                           |GPIO_PIN_10);
 586              		.loc 1 288 5 view .LVU175
 587 0090 4FF4F861 		mov	r1, #1984
 588 0094 0748     		ldr	r0, .L29+24
 589              	.LVL30:
 288:../../CM4/Core/Src/stm32h7xx_hal_msp.c ****                           |GPIO_PIN_10);
ARM GAS  /tmp/ccTm6Fei.s 			page 19


 590              		.loc 1 288 5 is_stmt 0 view .LVU176
 591 0096 FFF7FEFF 		bl	HAL_GPIO_DeInit
 592              	.LVL31:
 593              		.loc 1 296 1 view .LVU177
 594 009a BCE7     		b	.L19
 595              	.L30:
 596              		.align	2
 597              	.L29:
 598 009c 00200240 		.word	1073881088
 599 00a0 00210240 		.word	1073881344
 600 00a4 00600258 		.word	1476550656
 601 00a8 00000000 		.word	.LANCHOR0
 602 00ac 00440258 		.word	1476543488
 603 00b0 00000258 		.word	1476526080
 604 00b4 00140258 		.word	1476531200
 605 00b8 00080258 		.word	1476528128
 606 00bc 00040258 		.word	1476527104
 607              		.cfi_endproc
 608              	.LFE325:
 610              		.section	.text.HAL_ETH_MspInit,"ax",%progbits
 611              		.align	1
 612              		.global	HAL_ETH_MspInit
 613              		.syntax unified
 614              		.thumb
 615              		.thumb_func
 616              		.fpu fpv4-sp-d16
 618              	HAL_ETH_MspInit:
 619              	.LVL32:
 620              	.LFB326:
 297:../../CM4/Core/Src/stm32h7xx_hal_msp.c **** 
 298:../../CM4/Core/Src/stm32h7xx_hal_msp.c **** /**
 299:../../CM4/Core/Src/stm32h7xx_hal_msp.c **** * @brief ETH MSP Initialization
 300:../../CM4/Core/Src/stm32h7xx_hal_msp.c **** * This function configures the hardware resources used in this example
 301:../../CM4/Core/Src/stm32h7xx_hal_msp.c **** * @param heth: ETH handle pointer
 302:../../CM4/Core/Src/stm32h7xx_hal_msp.c **** * @retval None
 303:../../CM4/Core/Src/stm32h7xx_hal_msp.c **** */
 304:../../CM4/Core/Src/stm32h7xx_hal_msp.c **** void HAL_ETH_MspInit(ETH_HandleTypeDef* heth)
 305:../../CM4/Core/Src/stm32h7xx_hal_msp.c **** {
 621              		.loc 1 305 1 is_stmt 1 view -0
 622              		.cfi_startproc
 623              		@ args = 0, pretend = 0, frame = 16
 624              		@ frame_needed = 0, uses_anonymous_args = 0
 625              		@ link register save eliminated.
 306:../../CM4/Core/Src/stm32h7xx_hal_msp.c ****   if(heth->Instance==ETH)
 626              		.loc 1 306 3 view .LVU179
 627              		.loc 1 306 10 is_stmt 0 view .LVU180
 628 0000 0268     		ldr	r2, [r0]
 629              		.loc 1 306 5 view .LVU181
 630 0002 164B     		ldr	r3, .L38
 631 0004 9A42     		cmp	r2, r3
 632 0006 00D0     		beq	.L37
 633 0008 7047     		bx	lr
 634              	.L37:
 305:../../CM4/Core/Src/stm32h7xx_hal_msp.c ****   if(heth->Instance==ETH)
 635              		.loc 1 305 1 view .LVU182
 636 000a 84B0     		sub	sp, sp, #16
 637              	.LCFI7:
ARM GAS  /tmp/ccTm6Fei.s 			page 20


 638              		.cfi_def_cfa_offset 16
 307:../../CM4/Core/Src/stm32h7xx_hal_msp.c ****   {
 308:../../CM4/Core/Src/stm32h7xx_hal_msp.c ****   /* USER CODE BEGIN ETH_MspInit 0 */
 309:../../CM4/Core/Src/stm32h7xx_hal_msp.c **** 
 310:../../CM4/Core/Src/stm32h7xx_hal_msp.c ****   /* USER CODE END ETH_MspInit 0 */
 311:../../CM4/Core/Src/stm32h7xx_hal_msp.c ****     /* Peripheral clock enable */
 312:../../CM4/Core/Src/stm32h7xx_hal_msp.c ****     __HAL_RCC_ETH1MAC_CLK_ENABLE();
 639              		.loc 1 312 5 is_stmt 1 view .LVU183
 640              	.LBB14:
 641              		.loc 1 312 5 view .LVU184
 642              		.loc 1 312 5 view .LVU185
 643 000c 144B     		ldr	r3, .L38+4
 644 000e D3F8D820 		ldr	r2, [r3, #216]
 645 0012 42F40042 		orr	r2, r2, #32768
 646 0016 C3F8D820 		str	r2, [r3, #216]
 647              		.loc 1 312 5 view .LVU186
 648 001a D3F8D820 		ldr	r2, [r3, #216]
 649 001e 02F40042 		and	r2, r2, #32768
 650 0022 0192     		str	r2, [sp, #4]
 651              		.loc 1 312 5 view .LVU187
 652 0024 019A     		ldr	r2, [sp, #4]
 653              	.LBE14:
 654              		.loc 1 312 5 view .LVU188
 313:../../CM4/Core/Src/stm32h7xx_hal_msp.c ****     __HAL_RCC_ETH1TX_CLK_ENABLE();
 655              		.loc 1 313 5 view .LVU189
 656              	.LBB15:
 657              		.loc 1 313 5 view .LVU190
 658              		.loc 1 313 5 view .LVU191
 659 0026 D3F8D820 		ldr	r2, [r3, #216]
 660 002a 42F48032 		orr	r2, r2, #65536
 661 002e C3F8D820 		str	r2, [r3, #216]
 662              		.loc 1 313 5 view .LVU192
 663 0032 D3F8D820 		ldr	r2, [r3, #216]
 664 0036 02F48032 		and	r2, r2, #65536
 665 003a 0292     		str	r2, [sp, #8]
 666              		.loc 1 313 5 view .LVU193
 667 003c 029A     		ldr	r2, [sp, #8]
 668              	.LBE15:
 669              		.loc 1 313 5 view .LVU194
 314:../../CM4/Core/Src/stm32h7xx_hal_msp.c ****     __HAL_RCC_ETH1RX_CLK_ENABLE();
 670              		.loc 1 314 5 view .LVU195
 671              	.LBB16:
 672              		.loc 1 314 5 view .LVU196
 673              		.loc 1 314 5 view .LVU197
 674 003e D3F8D820 		ldr	r2, [r3, #216]
 675 0042 42F40032 		orr	r2, r2, #131072
 676 0046 C3F8D820 		str	r2, [r3, #216]
 677              		.loc 1 314 5 view .LVU198
 678 004a D3F8D830 		ldr	r3, [r3, #216]
 679 004e 03F40033 		and	r3, r3, #131072
 680 0052 0393     		str	r3, [sp, #12]
 681              		.loc 1 314 5 view .LVU199
 682 0054 039B     		ldr	r3, [sp, #12]
 683              	.LBE16:
 684              		.loc 1 314 5 view .LVU200
 315:../../CM4/Core/Src/stm32h7xx_hal_msp.c ****   /* USER CODE BEGIN ETH_MspInit 1 */
 316:../../CM4/Core/Src/stm32h7xx_hal_msp.c **** 
ARM GAS  /tmp/ccTm6Fei.s 			page 21


 317:../../CM4/Core/Src/stm32h7xx_hal_msp.c ****   /* USER CODE END ETH_MspInit 1 */
 318:../../CM4/Core/Src/stm32h7xx_hal_msp.c **** 
 319:../../CM4/Core/Src/stm32h7xx_hal_msp.c ****   }
 320:../../CM4/Core/Src/stm32h7xx_hal_msp.c **** 
 321:../../CM4/Core/Src/stm32h7xx_hal_msp.c **** }
 685              		.loc 1 321 1 is_stmt 0 view .LVU201
 686 0056 04B0     		add	sp, sp, #16
 687              	.LCFI8:
 688              		.cfi_def_cfa_offset 0
 689              		@ sp needed
 690 0058 7047     		bx	lr
 691              	.L39:
 692 005a 00BF     		.align	2
 693              	.L38:
 694 005c 00800240 		.word	1073905664
 695 0060 00440258 		.word	1476543488
 696              		.cfi_endproc
 697              	.LFE326:
 699              		.section	.text.HAL_ETH_MspDeInit,"ax",%progbits
 700              		.align	1
 701              		.global	HAL_ETH_MspDeInit
 702              		.syntax unified
 703              		.thumb
 704              		.thumb_func
 705              		.fpu fpv4-sp-d16
 707              	HAL_ETH_MspDeInit:
 708              	.LVL33:
 709              	.LFB327:
 322:../../CM4/Core/Src/stm32h7xx_hal_msp.c **** 
 323:../../CM4/Core/Src/stm32h7xx_hal_msp.c **** /**
 324:../../CM4/Core/Src/stm32h7xx_hal_msp.c **** * @brief ETH MSP De-Initialization
 325:../../CM4/Core/Src/stm32h7xx_hal_msp.c **** * This function freeze the hardware resources used in this example
 326:../../CM4/Core/Src/stm32h7xx_hal_msp.c **** * @param heth: ETH handle pointer
 327:../../CM4/Core/Src/stm32h7xx_hal_msp.c **** * @retval None
 328:../../CM4/Core/Src/stm32h7xx_hal_msp.c **** */
 329:../../CM4/Core/Src/stm32h7xx_hal_msp.c **** void HAL_ETH_MspDeInit(ETH_HandleTypeDef* heth)
 330:../../CM4/Core/Src/stm32h7xx_hal_msp.c **** {
 710              		.loc 1 330 1 is_stmt 1 view -0
 711              		.cfi_startproc
 712              		@ args = 0, pretend = 0, frame = 0
 713              		@ frame_needed = 0, uses_anonymous_args = 0
 714              		@ link register save eliminated.
 331:../../CM4/Core/Src/stm32h7xx_hal_msp.c ****   if(heth->Instance==ETH)
 715              		.loc 1 331 3 view .LVU203
 716              		.loc 1 331 10 is_stmt 0 view .LVU204
 717 0000 0268     		ldr	r2, [r0]
 718              		.loc 1 331 5 view .LVU205
 719 0002 0C4B     		ldr	r3, .L43
 720 0004 9A42     		cmp	r2, r3
 721 0006 00D0     		beq	.L42
 722              	.L40:
 332:../../CM4/Core/Src/stm32h7xx_hal_msp.c ****   {
 333:../../CM4/Core/Src/stm32h7xx_hal_msp.c ****   /* USER CODE BEGIN ETH_MspDeInit 0 */
 334:../../CM4/Core/Src/stm32h7xx_hal_msp.c **** 
 335:../../CM4/Core/Src/stm32h7xx_hal_msp.c ****   /* USER CODE END ETH_MspDeInit 0 */
 336:../../CM4/Core/Src/stm32h7xx_hal_msp.c ****     /* Peripheral clock disable */
 337:../../CM4/Core/Src/stm32h7xx_hal_msp.c ****     __HAL_RCC_ETH1MAC_CLK_DISABLE();
ARM GAS  /tmp/ccTm6Fei.s 			page 22


 338:../../CM4/Core/Src/stm32h7xx_hal_msp.c ****     __HAL_RCC_ETH1TX_CLK_DISABLE();
 339:../../CM4/Core/Src/stm32h7xx_hal_msp.c ****     __HAL_RCC_ETH1RX_CLK_DISABLE();
 340:../../CM4/Core/Src/stm32h7xx_hal_msp.c ****   /* USER CODE BEGIN ETH_MspDeInit 1 */
 341:../../CM4/Core/Src/stm32h7xx_hal_msp.c **** 
 342:../../CM4/Core/Src/stm32h7xx_hal_msp.c ****   /* USER CODE END ETH_MspDeInit 1 */
 343:../../CM4/Core/Src/stm32h7xx_hal_msp.c ****   }
 344:../../CM4/Core/Src/stm32h7xx_hal_msp.c **** 
 345:../../CM4/Core/Src/stm32h7xx_hal_msp.c **** }
 723              		.loc 1 345 1 view .LVU206
 724 0008 7047     		bx	lr
 725              	.L42:
 337:../../CM4/Core/Src/stm32h7xx_hal_msp.c ****     __HAL_RCC_ETH1TX_CLK_DISABLE();
 726              		.loc 1 337 5 is_stmt 1 view .LVU207
 727 000a 0B4B     		ldr	r3, .L43+4
 728 000c D3F8D820 		ldr	r2, [r3, #216]
 729 0010 22F40042 		bic	r2, r2, #32768
 730 0014 C3F8D820 		str	r2, [r3, #216]
 338:../../CM4/Core/Src/stm32h7xx_hal_msp.c ****     __HAL_RCC_ETH1RX_CLK_DISABLE();
 731              		.loc 1 338 5 view .LVU208
 732 0018 D3F8D820 		ldr	r2, [r3, #216]
 733 001c 22F48032 		bic	r2, r2, #65536
 734 0020 C3F8D820 		str	r2, [r3, #216]
 339:../../CM4/Core/Src/stm32h7xx_hal_msp.c ****   /* USER CODE BEGIN ETH_MspDeInit 1 */
 735              		.loc 1 339 5 view .LVU209
 736 0024 D3F8D820 		ldr	r2, [r3, #216]
 737 0028 22F40032 		bic	r2, r2, #131072
 738 002c C3F8D820 		str	r2, [r3, #216]
 739              		.loc 1 345 1 is_stmt 0 view .LVU210
 740 0030 EAE7     		b	.L40
 741              	.L44:
 742 0032 00BF     		.align	2
 743              	.L43:
 744 0034 00800240 		.word	1073905664
 745 0038 00440258 		.word	1476543488
 746              		.cfi_endproc
 747              	.LFE327:
 749              		.section	.text.HAL_UART_MspInit,"ax",%progbits
 750              		.align	1
 751              		.global	HAL_UART_MspInit
 752              		.syntax unified
 753              		.thumb
 754              		.thumb_func
 755              		.fpu fpv4-sp-d16
 757              	HAL_UART_MspInit:
 758              	.LVL34:
 759              	.LFB328:
 346:../../CM4/Core/Src/stm32h7xx_hal_msp.c **** 
 347:../../CM4/Core/Src/stm32h7xx_hal_msp.c **** /**
 348:../../CM4/Core/Src/stm32h7xx_hal_msp.c **** * @brief UART MSP Initialization
 349:../../CM4/Core/Src/stm32h7xx_hal_msp.c **** * This function configures the hardware resources used in this example
 350:../../CM4/Core/Src/stm32h7xx_hal_msp.c **** * @param huart: UART handle pointer
 351:../../CM4/Core/Src/stm32h7xx_hal_msp.c **** * @retval None
 352:../../CM4/Core/Src/stm32h7xx_hal_msp.c **** */
 353:../../CM4/Core/Src/stm32h7xx_hal_msp.c **** void HAL_UART_MspInit(UART_HandleTypeDef* huart)
 354:../../CM4/Core/Src/stm32h7xx_hal_msp.c **** {
 760              		.loc 1 354 1 is_stmt 1 view -0
 761              		.cfi_startproc
ARM GAS  /tmp/ccTm6Fei.s 			page 23


 762              		@ args = 0, pretend = 0, frame = 248
 763              		@ frame_needed = 0, uses_anonymous_args = 0
 764              		.loc 1 354 1 is_stmt 0 view .LVU212
 765 0000 70B5     		push	{r4, r5, r6, lr}
 766              	.LCFI9:
 767              		.cfi_def_cfa_offset 16
 768              		.cfi_offset 4, -16
 769              		.cfi_offset 5, -12
 770              		.cfi_offset 6, -8
 771              		.cfi_offset 14, -4
 772 0002 BEB0     		sub	sp, sp, #248
 773              	.LCFI10:
 774              		.cfi_def_cfa_offset 264
 775 0004 0446     		mov	r4, r0
 355:../../CM4/Core/Src/stm32h7xx_hal_msp.c ****   GPIO_InitTypeDef GPIO_InitStruct = {0};
 776              		.loc 1 355 3 is_stmt 1 view .LVU213
 777              		.loc 1 355 20 is_stmt 0 view .LVU214
 778 0006 0021     		movs	r1, #0
 779 0008 3991     		str	r1, [sp, #228]
 780 000a 3A91     		str	r1, [sp, #232]
 781 000c 3B91     		str	r1, [sp, #236]
 782 000e 3C91     		str	r1, [sp, #240]
 783 0010 3D91     		str	r1, [sp, #244]
 356:../../CM4/Core/Src/stm32h7xx_hal_msp.c ****   RCC_PeriphCLKInitTypeDef PeriphClkInitStruct = {0};
 784              		.loc 1 356 3 is_stmt 1 view .LVU215
 785              		.loc 1 356 28 is_stmt 0 view .LVU216
 786 0012 C022     		movs	r2, #192
 787 0014 08A8     		add	r0, sp, #32
 788              	.LVL35:
 789              		.loc 1 356 28 view .LVU217
 790 0016 FFF7FEFF 		bl	memset
 791              	.LVL36:
 357:../../CM4/Core/Src/stm32h7xx_hal_msp.c ****   if(huart->Instance==UART4)
 792              		.loc 1 357 3 is_stmt 1 view .LVU218
 793              		.loc 1 357 11 is_stmt 0 view .LVU219
 794 001a 2368     		ldr	r3, [r4]
 795              		.loc 1 357 5 view .LVU220
 796 001c 684A     		ldr	r2, .L59
 797 001e 9342     		cmp	r3, r2
 798 0020 08D0     		beq	.L53
 358:../../CM4/Core/Src/stm32h7xx_hal_msp.c ****   {
 359:../../CM4/Core/Src/stm32h7xx_hal_msp.c ****   /* USER CODE BEGIN UART4_MspInit 0 */
 360:../../CM4/Core/Src/stm32h7xx_hal_msp.c **** 
 361:../../CM4/Core/Src/stm32h7xx_hal_msp.c ****   /* USER CODE END UART4_MspInit 0 */
 362:../../CM4/Core/Src/stm32h7xx_hal_msp.c **** 
 363:../../CM4/Core/Src/stm32h7xx_hal_msp.c ****   /** Initializes the peripherals clock
 364:../../CM4/Core/Src/stm32h7xx_hal_msp.c ****   */
 365:../../CM4/Core/Src/stm32h7xx_hal_msp.c ****     PeriphClkInitStruct.PeriphClockSelection = RCC_PERIPHCLK_UART4;
 366:../../CM4/Core/Src/stm32h7xx_hal_msp.c ****     PeriphClkInitStruct.Usart234578ClockSelection = RCC_USART234578CLKSOURCE_D2PCLK1;
 367:../../CM4/Core/Src/stm32h7xx_hal_msp.c ****     if (HAL_RCCEx_PeriphCLKConfig(&PeriphClkInitStruct) != HAL_OK)
 368:../../CM4/Core/Src/stm32h7xx_hal_msp.c ****     {
 369:../../CM4/Core/Src/stm32h7xx_hal_msp.c ****       Error_Handler();
 370:../../CM4/Core/Src/stm32h7xx_hal_msp.c ****     }
 371:../../CM4/Core/Src/stm32h7xx_hal_msp.c **** 
 372:../../CM4/Core/Src/stm32h7xx_hal_msp.c ****     /* Peripheral clock enable */
 373:../../CM4/Core/Src/stm32h7xx_hal_msp.c ****     __HAL_RCC_UART4_CLK_ENABLE();
 374:../../CM4/Core/Src/stm32h7xx_hal_msp.c **** 
ARM GAS  /tmp/ccTm6Fei.s 			page 24


 375:../../CM4/Core/Src/stm32h7xx_hal_msp.c ****     __HAL_RCC_GPIOC_CLK_ENABLE();
 376:../../CM4/Core/Src/stm32h7xx_hal_msp.c ****     __HAL_RCC_GPIOD_CLK_ENABLE();
 377:../../CM4/Core/Src/stm32h7xx_hal_msp.c ****     /**UART4 GPIO Configuration
 378:../../CM4/Core/Src/stm32h7xx_hal_msp.c ****     PC11     ------> UART4_RX
 379:../../CM4/Core/Src/stm32h7xx_hal_msp.c ****     PD1     ------> UART4_TX
 380:../../CM4/Core/Src/stm32h7xx_hal_msp.c ****     */
 381:../../CM4/Core/Src/stm32h7xx_hal_msp.c ****     GPIO_InitStruct.Pin = GPIO_PIN_11;
 382:../../CM4/Core/Src/stm32h7xx_hal_msp.c ****     GPIO_InitStruct.Mode = GPIO_MODE_AF_PP;
 383:../../CM4/Core/Src/stm32h7xx_hal_msp.c ****     GPIO_InitStruct.Pull = GPIO_NOPULL;
 384:../../CM4/Core/Src/stm32h7xx_hal_msp.c ****     GPIO_InitStruct.Speed = GPIO_SPEED_FREQ_LOW;
 385:../../CM4/Core/Src/stm32h7xx_hal_msp.c ****     GPIO_InitStruct.Alternate = GPIO_AF8_UART4;
 386:../../CM4/Core/Src/stm32h7xx_hal_msp.c ****     HAL_GPIO_Init(GPIOC, &GPIO_InitStruct);
 387:../../CM4/Core/Src/stm32h7xx_hal_msp.c **** 
 388:../../CM4/Core/Src/stm32h7xx_hal_msp.c ****     GPIO_InitStruct.Pin = GPIO_PIN_1;
 389:../../CM4/Core/Src/stm32h7xx_hal_msp.c ****     GPIO_InitStruct.Mode = GPIO_MODE_AF_PP;
 390:../../CM4/Core/Src/stm32h7xx_hal_msp.c ****     GPIO_InitStruct.Pull = GPIO_NOPULL;
 391:../../CM4/Core/Src/stm32h7xx_hal_msp.c ****     GPIO_InitStruct.Speed = GPIO_SPEED_FREQ_LOW;
 392:../../CM4/Core/Src/stm32h7xx_hal_msp.c ****     GPIO_InitStruct.Alternate = GPIO_AF8_UART4;
 393:../../CM4/Core/Src/stm32h7xx_hal_msp.c ****     HAL_GPIO_Init(GPIOD, &GPIO_InitStruct);
 394:../../CM4/Core/Src/stm32h7xx_hal_msp.c **** 
 395:../../CM4/Core/Src/stm32h7xx_hal_msp.c ****   /* USER CODE BEGIN UART4_MspInit 1 */
 396:../../CM4/Core/Src/stm32h7xx_hal_msp.c **** 
 397:../../CM4/Core/Src/stm32h7xx_hal_msp.c ****   /* USER CODE END UART4_MspInit 1 */
 398:../../CM4/Core/Src/stm32h7xx_hal_msp.c ****   }
 399:../../CM4/Core/Src/stm32h7xx_hal_msp.c ****   else if(huart->Instance==UART5)
 799              		.loc 1 399 8 is_stmt 1 view .LVU221
 800              		.loc 1 399 10 is_stmt 0 view .LVU222
 801 0022 684A     		ldr	r2, .L59+4
 802 0024 9342     		cmp	r3, r2
 803 0026 4ED0     		beq	.L54
 400:../../CM4/Core/Src/stm32h7xx_hal_msp.c ****   {
 401:../../CM4/Core/Src/stm32h7xx_hal_msp.c ****   /* USER CODE BEGIN UART5_MspInit 0 */
 402:../../CM4/Core/Src/stm32h7xx_hal_msp.c **** 
 403:../../CM4/Core/Src/stm32h7xx_hal_msp.c ****   /* USER CODE END UART5_MspInit 0 */
 404:../../CM4/Core/Src/stm32h7xx_hal_msp.c **** 
 405:../../CM4/Core/Src/stm32h7xx_hal_msp.c ****   /** Initializes the peripherals clock
 406:../../CM4/Core/Src/stm32h7xx_hal_msp.c ****   */
 407:../../CM4/Core/Src/stm32h7xx_hal_msp.c ****     PeriphClkInitStruct.PeriphClockSelection = RCC_PERIPHCLK_UART5;
 408:../../CM4/Core/Src/stm32h7xx_hal_msp.c ****     PeriphClkInitStruct.Usart234578ClockSelection = RCC_USART234578CLKSOURCE_D2PCLK1;
 409:../../CM4/Core/Src/stm32h7xx_hal_msp.c ****     if (HAL_RCCEx_PeriphCLKConfig(&PeriphClkInitStruct) != HAL_OK)
 410:../../CM4/Core/Src/stm32h7xx_hal_msp.c ****     {
 411:../../CM4/Core/Src/stm32h7xx_hal_msp.c ****       Error_Handler();
 412:../../CM4/Core/Src/stm32h7xx_hal_msp.c ****     }
 413:../../CM4/Core/Src/stm32h7xx_hal_msp.c **** 
 414:../../CM4/Core/Src/stm32h7xx_hal_msp.c ****     /* Peripheral clock enable */
 415:../../CM4/Core/Src/stm32h7xx_hal_msp.c ****     __HAL_RCC_UART5_CLK_ENABLE();
 416:../../CM4/Core/Src/stm32h7xx_hal_msp.c **** 
 417:../../CM4/Core/Src/stm32h7xx_hal_msp.c ****     __HAL_RCC_GPIOC_CLK_ENABLE();
 418:../../CM4/Core/Src/stm32h7xx_hal_msp.c ****     __HAL_RCC_GPIOD_CLK_ENABLE();
 419:../../CM4/Core/Src/stm32h7xx_hal_msp.c ****     /**UART5 GPIO Configuration
 420:../../CM4/Core/Src/stm32h7xx_hal_msp.c ****     PC12     ------> UART5_TX
 421:../../CM4/Core/Src/stm32h7xx_hal_msp.c ****     PD2     ------> UART5_RX
 422:../../CM4/Core/Src/stm32h7xx_hal_msp.c ****     */
 423:../../CM4/Core/Src/stm32h7xx_hal_msp.c ****     GPIO_InitStruct.Pin = GPIO_PIN_12;
 424:../../CM4/Core/Src/stm32h7xx_hal_msp.c ****     GPIO_InitStruct.Mode = GPIO_MODE_AF_PP;
 425:../../CM4/Core/Src/stm32h7xx_hal_msp.c ****     GPIO_InitStruct.Pull = GPIO_NOPULL;
 426:../../CM4/Core/Src/stm32h7xx_hal_msp.c ****     GPIO_InitStruct.Speed = GPIO_SPEED_FREQ_LOW;
ARM GAS  /tmp/ccTm6Fei.s 			page 25


 427:../../CM4/Core/Src/stm32h7xx_hal_msp.c ****     GPIO_InitStruct.Alternate = GPIO_AF8_UART5;
 428:../../CM4/Core/Src/stm32h7xx_hal_msp.c ****     HAL_GPIO_Init(GPIOC, &GPIO_InitStruct);
 429:../../CM4/Core/Src/stm32h7xx_hal_msp.c **** 
 430:../../CM4/Core/Src/stm32h7xx_hal_msp.c ****     GPIO_InitStruct.Pin = GPIO_PIN_2;
 431:../../CM4/Core/Src/stm32h7xx_hal_msp.c ****     GPIO_InitStruct.Mode = GPIO_MODE_AF_PP;
 432:../../CM4/Core/Src/stm32h7xx_hal_msp.c ****     GPIO_InitStruct.Pull = GPIO_NOPULL;
 433:../../CM4/Core/Src/stm32h7xx_hal_msp.c ****     GPIO_InitStruct.Speed = GPIO_SPEED_FREQ_LOW;
 434:../../CM4/Core/Src/stm32h7xx_hal_msp.c ****     GPIO_InitStruct.Alternate = GPIO_AF8_UART5;
 435:../../CM4/Core/Src/stm32h7xx_hal_msp.c ****     HAL_GPIO_Init(GPIOD, &GPIO_InitStruct);
 436:../../CM4/Core/Src/stm32h7xx_hal_msp.c **** 
 437:../../CM4/Core/Src/stm32h7xx_hal_msp.c ****   /* USER CODE BEGIN UART5_MspInit 1 */
 438:../../CM4/Core/Src/stm32h7xx_hal_msp.c **** 
 439:../../CM4/Core/Src/stm32h7xx_hal_msp.c ****   /* USER CODE END UART5_MspInit 1 */
 440:../../CM4/Core/Src/stm32h7xx_hal_msp.c ****   }
 441:../../CM4/Core/Src/stm32h7xx_hal_msp.c ****   else if(huart->Instance==USART2)
 804              		.loc 1 441 8 is_stmt 1 view .LVU223
 805              		.loc 1 441 10 is_stmt 0 view .LVU224
 806 0028 674A     		ldr	r2, .L59+8
 807 002a 9342     		cmp	r3, r2
 808 002c 00F09580 		beq	.L55
 809              	.LVL37:
 810              	.L45:
 442:../../CM4/Core/Src/stm32h7xx_hal_msp.c ****   {
 443:../../CM4/Core/Src/stm32h7xx_hal_msp.c ****   /* USER CODE BEGIN USART2_MspInit 0 */
 444:../../CM4/Core/Src/stm32h7xx_hal_msp.c **** 
 445:../../CM4/Core/Src/stm32h7xx_hal_msp.c ****   /* USER CODE END USART2_MspInit 0 */
 446:../../CM4/Core/Src/stm32h7xx_hal_msp.c **** 
 447:../../CM4/Core/Src/stm32h7xx_hal_msp.c ****   /** Initializes the peripherals clock
 448:../../CM4/Core/Src/stm32h7xx_hal_msp.c ****   */
 449:../../CM4/Core/Src/stm32h7xx_hal_msp.c ****     PeriphClkInitStruct.PeriphClockSelection = RCC_PERIPHCLK_USART2;
 450:../../CM4/Core/Src/stm32h7xx_hal_msp.c ****     PeriphClkInitStruct.Usart234578ClockSelection = RCC_USART234578CLKSOURCE_D2PCLK1;
 451:../../CM4/Core/Src/stm32h7xx_hal_msp.c ****     if (HAL_RCCEx_PeriphCLKConfig(&PeriphClkInitStruct) != HAL_OK)
 452:../../CM4/Core/Src/stm32h7xx_hal_msp.c ****     {
 453:../../CM4/Core/Src/stm32h7xx_hal_msp.c ****       Error_Handler();
 454:../../CM4/Core/Src/stm32h7xx_hal_msp.c ****     }
 455:../../CM4/Core/Src/stm32h7xx_hal_msp.c **** 
 456:../../CM4/Core/Src/stm32h7xx_hal_msp.c ****     /* Peripheral clock enable */
 457:../../CM4/Core/Src/stm32h7xx_hal_msp.c ****     __HAL_RCC_USART2_CLK_ENABLE();
 458:../../CM4/Core/Src/stm32h7xx_hal_msp.c **** 
 459:../../CM4/Core/Src/stm32h7xx_hal_msp.c ****     __HAL_RCC_GPIOD_CLK_ENABLE();
 460:../../CM4/Core/Src/stm32h7xx_hal_msp.c ****     /**USART2 GPIO Configuration
 461:../../CM4/Core/Src/stm32h7xx_hal_msp.c ****     PD5     ------> USART2_TX
 462:../../CM4/Core/Src/stm32h7xx_hal_msp.c ****     PD6     ------> USART2_RX
 463:../../CM4/Core/Src/stm32h7xx_hal_msp.c ****     */
 464:../../CM4/Core/Src/stm32h7xx_hal_msp.c ****     GPIO_InitStruct.Pin = GPIO_PIN_5|GPIO_PIN_6;
 465:../../CM4/Core/Src/stm32h7xx_hal_msp.c ****     GPIO_InitStruct.Mode = GPIO_MODE_AF_PP;
 466:../../CM4/Core/Src/stm32h7xx_hal_msp.c ****     GPIO_InitStruct.Pull = GPIO_NOPULL;
 467:../../CM4/Core/Src/stm32h7xx_hal_msp.c ****     GPIO_InitStruct.Speed = GPIO_SPEED_FREQ_LOW;
 468:../../CM4/Core/Src/stm32h7xx_hal_msp.c ****     GPIO_InitStruct.Alternate = GPIO_AF7_USART2;
 469:../../CM4/Core/Src/stm32h7xx_hal_msp.c ****     HAL_GPIO_Init(GPIOD, &GPIO_InitStruct);
 470:../../CM4/Core/Src/stm32h7xx_hal_msp.c **** 
 471:../../CM4/Core/Src/stm32h7xx_hal_msp.c ****   /* USER CODE BEGIN USART2_MspInit 1 */
 472:../../CM4/Core/Src/stm32h7xx_hal_msp.c **** 
 473:../../CM4/Core/Src/stm32h7xx_hal_msp.c ****   /* USER CODE END USART2_MspInit 1 */
 474:../../CM4/Core/Src/stm32h7xx_hal_msp.c ****   }
 475:../../CM4/Core/Src/stm32h7xx_hal_msp.c **** 
 476:../../CM4/Core/Src/stm32h7xx_hal_msp.c **** }
ARM GAS  /tmp/ccTm6Fei.s 			page 26


 811              		.loc 1 476 1 view .LVU225
 812 0030 3EB0     		add	sp, sp, #248
 813              	.LCFI11:
 814              		.cfi_remember_state
 815              		.cfi_def_cfa_offset 16
 816              		@ sp needed
 817 0032 70BD     		pop	{r4, r5, r6, pc}
 818              	.LVL38:
 819              	.L53:
 820              	.LCFI12:
 821              		.cfi_restore_state
 365:../../CM4/Core/Src/stm32h7xx_hal_msp.c ****     PeriphClkInitStruct.Usart234578ClockSelection = RCC_USART234578CLKSOURCE_D2PCLK1;
 822              		.loc 1 365 5 is_stmt 1 view .LVU226
 365:../../CM4/Core/Src/stm32h7xx_hal_msp.c ****     PeriphClkInitStruct.Usart234578ClockSelection = RCC_USART234578CLKSOURCE_D2PCLK1;
 823              		.loc 1 365 46 is_stmt 0 view .LVU227
 824 0034 0222     		movs	r2, #2
 825 0036 0023     		movs	r3, #0
 826 0038 CDE90823 		strd	r2, [sp, #32]
 366:../../CM4/Core/Src/stm32h7xx_hal_msp.c ****     if (HAL_RCCEx_PeriphCLKConfig(&PeriphClkInitStruct) != HAL_OK)
 827              		.loc 1 366 5 is_stmt 1 view .LVU228
 367:../../CM4/Core/Src/stm32h7xx_hal_msp.c ****     {
 828              		.loc 1 367 5 view .LVU229
 367:../../CM4/Core/Src/stm32h7xx_hal_msp.c ****     {
 829              		.loc 1 367 9 is_stmt 0 view .LVU230
 830 003c 08A8     		add	r0, sp, #32
 831 003e FFF7FEFF 		bl	HAL_RCCEx_PeriphCLKConfig
 832              	.LVL39:
 367:../../CM4/Core/Src/stm32h7xx_hal_msp.c ****     {
 833              		.loc 1 367 8 view .LVU231
 834 0042 0028     		cmp	r0, #0
 835 0044 3CD1     		bne	.L56
 836              	.L47:
 373:../../CM4/Core/Src/stm32h7xx_hal_msp.c **** 
 837              		.loc 1 373 5 is_stmt 1 view .LVU232
 838              	.LBB17:
 373:../../CM4/Core/Src/stm32h7xx_hal_msp.c **** 
 839              		.loc 1 373 5 view .LVU233
 373:../../CM4/Core/Src/stm32h7xx_hal_msp.c **** 
 840              		.loc 1 373 5 view .LVU234
 841 0046 614B     		ldr	r3, .L59+12
 842 0048 D3F8E820 		ldr	r2, [r3, #232]
 843 004c 42F40022 		orr	r2, r2, #524288
 844 0050 C3F8E820 		str	r2, [r3, #232]
 373:../../CM4/Core/Src/stm32h7xx_hal_msp.c **** 
 845              		.loc 1 373 5 view .LVU235
 846 0054 D3F8E820 		ldr	r2, [r3, #232]
 847 0058 02F40022 		and	r2, r2, #524288
 848 005c 0092     		str	r2, [sp]
 373:../../CM4/Core/Src/stm32h7xx_hal_msp.c **** 
 849              		.loc 1 373 5 view .LVU236
 850 005e 009A     		ldr	r2, [sp]
 851              	.LBE17:
 373:../../CM4/Core/Src/stm32h7xx_hal_msp.c **** 
 852              		.loc 1 373 5 view .LVU237
 375:../../CM4/Core/Src/stm32h7xx_hal_msp.c ****     __HAL_RCC_GPIOD_CLK_ENABLE();
 853              		.loc 1 375 5 view .LVU238
 854              	.LBB18:
ARM GAS  /tmp/ccTm6Fei.s 			page 27


 375:../../CM4/Core/Src/stm32h7xx_hal_msp.c ****     __HAL_RCC_GPIOD_CLK_ENABLE();
 855              		.loc 1 375 5 view .LVU239
 375:../../CM4/Core/Src/stm32h7xx_hal_msp.c ****     __HAL_RCC_GPIOD_CLK_ENABLE();
 856              		.loc 1 375 5 view .LVU240
 857 0060 D3F8E020 		ldr	r2, [r3, #224]
 858 0064 42F00402 		orr	r2, r2, #4
 859 0068 C3F8E020 		str	r2, [r3, #224]
 375:../../CM4/Core/Src/stm32h7xx_hal_msp.c ****     __HAL_RCC_GPIOD_CLK_ENABLE();
 860              		.loc 1 375 5 view .LVU241
 861 006c D3F8E020 		ldr	r2, [r3, #224]
 862 0070 02F00402 		and	r2, r2, #4
 863 0074 0192     		str	r2, [sp, #4]
 375:../../CM4/Core/Src/stm32h7xx_hal_msp.c ****     __HAL_RCC_GPIOD_CLK_ENABLE();
 864              		.loc 1 375 5 view .LVU242
 865 0076 019A     		ldr	r2, [sp, #4]
 866              	.LBE18:
 375:../../CM4/Core/Src/stm32h7xx_hal_msp.c ****     __HAL_RCC_GPIOD_CLK_ENABLE();
 867              		.loc 1 375 5 view .LVU243
 376:../../CM4/Core/Src/stm32h7xx_hal_msp.c ****     /**UART4 GPIO Configuration
 868              		.loc 1 376 5 view .LVU244
 869              	.LBB19:
 376:../../CM4/Core/Src/stm32h7xx_hal_msp.c ****     /**UART4 GPIO Configuration
 870              		.loc 1 376 5 view .LVU245
 376:../../CM4/Core/Src/stm32h7xx_hal_msp.c ****     /**UART4 GPIO Configuration
 871              		.loc 1 376 5 view .LVU246
 872 0078 D3F8E020 		ldr	r2, [r3, #224]
 873 007c 42F00802 		orr	r2, r2, #8
 874 0080 C3F8E020 		str	r2, [r3, #224]
 376:../../CM4/Core/Src/stm32h7xx_hal_msp.c ****     /**UART4 GPIO Configuration
 875              		.loc 1 376 5 view .LVU247
 876 0084 D3F8E030 		ldr	r3, [r3, #224]
 877 0088 03F00803 		and	r3, r3, #8
 878 008c 0293     		str	r3, [sp, #8]
 376:../../CM4/Core/Src/stm32h7xx_hal_msp.c ****     /**UART4 GPIO Configuration
 879              		.loc 1 376 5 view .LVU248
 880 008e 029B     		ldr	r3, [sp, #8]
 881              	.LBE19:
 376:../../CM4/Core/Src/stm32h7xx_hal_msp.c ****     /**UART4 GPIO Configuration
 882              		.loc 1 376 5 view .LVU249
 381:../../CM4/Core/Src/stm32h7xx_hal_msp.c ****     GPIO_InitStruct.Mode = GPIO_MODE_AF_PP;
 883              		.loc 1 381 5 view .LVU250
 381:../../CM4/Core/Src/stm32h7xx_hal_msp.c ****     GPIO_InitStruct.Mode = GPIO_MODE_AF_PP;
 884              		.loc 1 381 25 is_stmt 0 view .LVU251
 885 0090 4FF40063 		mov	r3, #2048
 886 0094 3993     		str	r3, [sp, #228]
 382:../../CM4/Core/Src/stm32h7xx_hal_msp.c ****     GPIO_InitStruct.Pull = GPIO_NOPULL;
 887              		.loc 1 382 5 is_stmt 1 view .LVU252
 382:../../CM4/Core/Src/stm32h7xx_hal_msp.c ****     GPIO_InitStruct.Pull = GPIO_NOPULL;
 888              		.loc 1 382 26 is_stmt 0 view .LVU253
 889 0096 0225     		movs	r5, #2
 890 0098 3A95     		str	r5, [sp, #232]
 383:../../CM4/Core/Src/stm32h7xx_hal_msp.c ****     GPIO_InitStruct.Speed = GPIO_SPEED_FREQ_LOW;
 891              		.loc 1 383 5 is_stmt 1 view .LVU254
 383:../../CM4/Core/Src/stm32h7xx_hal_msp.c ****     GPIO_InitStruct.Speed = GPIO_SPEED_FREQ_LOW;
 892              		.loc 1 383 26 is_stmt 0 view .LVU255
 893 009a 0024     		movs	r4, #0
 894              	.LVL40:
ARM GAS  /tmp/ccTm6Fei.s 			page 28


 383:../../CM4/Core/Src/stm32h7xx_hal_msp.c ****     GPIO_InitStruct.Speed = GPIO_SPEED_FREQ_LOW;
 895              		.loc 1 383 26 view .LVU256
 896 009c 3B94     		str	r4, [sp, #236]
 384:../../CM4/Core/Src/stm32h7xx_hal_msp.c ****     GPIO_InitStruct.Alternate = GPIO_AF8_UART4;
 897              		.loc 1 384 5 is_stmt 1 view .LVU257
 384:../../CM4/Core/Src/stm32h7xx_hal_msp.c ****     GPIO_InitStruct.Alternate = GPIO_AF8_UART4;
 898              		.loc 1 384 27 is_stmt 0 view .LVU258
 899 009e 3C94     		str	r4, [sp, #240]
 385:../../CM4/Core/Src/stm32h7xx_hal_msp.c ****     HAL_GPIO_Init(GPIOC, &GPIO_InitStruct);
 900              		.loc 1 385 5 is_stmt 1 view .LVU259
 385:../../CM4/Core/Src/stm32h7xx_hal_msp.c ****     HAL_GPIO_Init(GPIOC, &GPIO_InitStruct);
 901              		.loc 1 385 31 is_stmt 0 view .LVU260
 902 00a0 0826     		movs	r6, #8
 903 00a2 3D96     		str	r6, [sp, #244]
 386:../../CM4/Core/Src/stm32h7xx_hal_msp.c **** 
 904              		.loc 1 386 5 is_stmt 1 view .LVU261
 905 00a4 39A9     		add	r1, sp, #228
 906 00a6 4A48     		ldr	r0, .L59+16
 907 00a8 FFF7FEFF 		bl	HAL_GPIO_Init
 908              	.LVL41:
 388:../../CM4/Core/Src/stm32h7xx_hal_msp.c ****     GPIO_InitStruct.Mode = GPIO_MODE_AF_PP;
 909              		.loc 1 388 5 view .LVU262
 388:../../CM4/Core/Src/stm32h7xx_hal_msp.c ****     GPIO_InitStruct.Mode = GPIO_MODE_AF_PP;
 910              		.loc 1 388 25 is_stmt 0 view .LVU263
 911 00ac 3995     		str	r5, [sp, #228]
 389:../../CM4/Core/Src/stm32h7xx_hal_msp.c ****     GPIO_InitStruct.Pull = GPIO_NOPULL;
 912              		.loc 1 389 5 is_stmt 1 view .LVU264
 389:../../CM4/Core/Src/stm32h7xx_hal_msp.c ****     GPIO_InitStruct.Pull = GPIO_NOPULL;
 913              		.loc 1 389 26 is_stmt 0 view .LVU265
 914 00ae 3A95     		str	r5, [sp, #232]
 390:../../CM4/Core/Src/stm32h7xx_hal_msp.c ****     GPIO_InitStruct.Speed = GPIO_SPEED_FREQ_LOW;
 915              		.loc 1 390 5 is_stmt 1 view .LVU266
 390:../../CM4/Core/Src/stm32h7xx_hal_msp.c ****     GPIO_InitStruct.Speed = GPIO_SPEED_FREQ_LOW;
 916              		.loc 1 390 26 is_stmt 0 view .LVU267
 917 00b0 3B94     		str	r4, [sp, #236]
 391:../../CM4/Core/Src/stm32h7xx_hal_msp.c ****     GPIO_InitStruct.Alternate = GPIO_AF8_UART4;
 918              		.loc 1 391 5 is_stmt 1 view .LVU268
 391:../../CM4/Core/Src/stm32h7xx_hal_msp.c ****     GPIO_InitStruct.Alternate = GPIO_AF8_UART4;
 919              		.loc 1 391 27 is_stmt 0 view .LVU269
 920 00b2 3C94     		str	r4, [sp, #240]
 392:../../CM4/Core/Src/stm32h7xx_hal_msp.c ****     HAL_GPIO_Init(GPIOD, &GPIO_InitStruct);
 921              		.loc 1 392 5 is_stmt 1 view .LVU270
 392:../../CM4/Core/Src/stm32h7xx_hal_msp.c ****     HAL_GPIO_Init(GPIOD, &GPIO_InitStruct);
 922              		.loc 1 392 31 is_stmt 0 view .LVU271
 923 00b4 3D96     		str	r6, [sp, #244]
 393:../../CM4/Core/Src/stm32h7xx_hal_msp.c **** 
 924              		.loc 1 393 5 is_stmt 1 view .LVU272
 925 00b6 39A9     		add	r1, sp, #228
 926 00b8 4648     		ldr	r0, .L59+20
 927 00ba FFF7FEFF 		bl	HAL_GPIO_Init
 928              	.LVL42:
 929 00be B7E7     		b	.L45
 930              	.LVL43:
 931              	.L56:
 369:../../CM4/Core/Src/stm32h7xx_hal_msp.c ****     }
 932              		.loc 1 369 7 view .LVU273
 933 00c0 FFF7FEFF 		bl	Error_Handler
ARM GAS  /tmp/ccTm6Fei.s 			page 29


 934              	.LVL44:
 935 00c4 BFE7     		b	.L47
 936              	.L54:
 407:../../CM4/Core/Src/stm32h7xx_hal_msp.c ****     PeriphClkInitStruct.Usart234578ClockSelection = RCC_USART234578CLKSOURCE_D2PCLK1;
 937              		.loc 1 407 5 view .LVU274
 407:../../CM4/Core/Src/stm32h7xx_hal_msp.c ****     PeriphClkInitStruct.Usart234578ClockSelection = RCC_USART234578CLKSOURCE_D2PCLK1;
 938              		.loc 1 407 46 is_stmt 0 view .LVU275
 939 00c6 0222     		movs	r2, #2
 940 00c8 0023     		movs	r3, #0
 941 00ca CDE90823 		strd	r2, [sp, #32]
 408:../../CM4/Core/Src/stm32h7xx_hal_msp.c ****     if (HAL_RCCEx_PeriphCLKConfig(&PeriphClkInitStruct) != HAL_OK)
 942              		.loc 1 408 5 is_stmt 1 view .LVU276
 409:../../CM4/Core/Src/stm32h7xx_hal_msp.c ****     {
 943              		.loc 1 409 5 view .LVU277
 409:../../CM4/Core/Src/stm32h7xx_hal_msp.c ****     {
 944              		.loc 1 409 9 is_stmt 0 view .LVU278
 945 00ce 08A8     		add	r0, sp, #32
 946 00d0 FFF7FEFF 		bl	HAL_RCCEx_PeriphCLKConfig
 947              	.LVL45:
 409:../../CM4/Core/Src/stm32h7xx_hal_msp.c ****     {
 948              		.loc 1 409 8 view .LVU279
 949 00d4 0028     		cmp	r0, #0
 950 00d6 3DD1     		bne	.L57
 951              	.L50:
 415:../../CM4/Core/Src/stm32h7xx_hal_msp.c **** 
 952              		.loc 1 415 5 is_stmt 1 view .LVU280
 953              	.LBB20:
 415:../../CM4/Core/Src/stm32h7xx_hal_msp.c **** 
 954              		.loc 1 415 5 view .LVU281
 415:../../CM4/Core/Src/stm32h7xx_hal_msp.c **** 
 955              		.loc 1 415 5 view .LVU282
 956 00d8 3C4B     		ldr	r3, .L59+12
 957 00da D3F8E820 		ldr	r2, [r3, #232]
 958 00de 42F48012 		orr	r2, r2, #1048576
 959 00e2 C3F8E820 		str	r2, [r3, #232]
 415:../../CM4/Core/Src/stm32h7xx_hal_msp.c **** 
 960              		.loc 1 415 5 view .LVU283
 961 00e6 D3F8E820 		ldr	r2, [r3, #232]
 962 00ea 02F48012 		and	r2, r2, #1048576
 963 00ee 0392     		str	r2, [sp, #12]
 415:../../CM4/Core/Src/stm32h7xx_hal_msp.c **** 
 964              		.loc 1 415 5 view .LVU284
 965 00f0 039A     		ldr	r2, [sp, #12]
 966              	.LBE20:
 415:../../CM4/Core/Src/stm32h7xx_hal_msp.c **** 
 967              		.loc 1 415 5 view .LVU285
 417:../../CM4/Core/Src/stm32h7xx_hal_msp.c ****     __HAL_RCC_GPIOD_CLK_ENABLE();
 968              		.loc 1 417 5 view .LVU286
 969              	.LBB21:
 417:../../CM4/Core/Src/stm32h7xx_hal_msp.c ****     __HAL_RCC_GPIOD_CLK_ENABLE();
 970              		.loc 1 417 5 view .LVU287
 417:../../CM4/Core/Src/stm32h7xx_hal_msp.c ****     __HAL_RCC_GPIOD_CLK_ENABLE();
 971              		.loc 1 417 5 view .LVU288
 972 00f2 D3F8E020 		ldr	r2, [r3, #224]
 973 00f6 42F00402 		orr	r2, r2, #4
 974 00fa C3F8E020 		str	r2, [r3, #224]
 417:../../CM4/Core/Src/stm32h7xx_hal_msp.c ****     __HAL_RCC_GPIOD_CLK_ENABLE();
ARM GAS  /tmp/ccTm6Fei.s 			page 30


 975              		.loc 1 417 5 view .LVU289
 976 00fe D3F8E020 		ldr	r2, [r3, #224]
 977 0102 02F00402 		and	r2, r2, #4
 978 0106 0492     		str	r2, [sp, #16]
 417:../../CM4/Core/Src/stm32h7xx_hal_msp.c ****     __HAL_RCC_GPIOD_CLK_ENABLE();
 979              		.loc 1 417 5 view .LVU290
 980 0108 049A     		ldr	r2, [sp, #16]
 981              	.LBE21:
 417:../../CM4/Core/Src/stm32h7xx_hal_msp.c ****     __HAL_RCC_GPIOD_CLK_ENABLE();
 982              		.loc 1 417 5 view .LVU291
 418:../../CM4/Core/Src/stm32h7xx_hal_msp.c ****     /**UART5 GPIO Configuration
 983              		.loc 1 418 5 view .LVU292
 984              	.LBB22:
 418:../../CM4/Core/Src/stm32h7xx_hal_msp.c ****     /**UART5 GPIO Configuration
 985              		.loc 1 418 5 view .LVU293
 418:../../CM4/Core/Src/stm32h7xx_hal_msp.c ****     /**UART5 GPIO Configuration
 986              		.loc 1 418 5 view .LVU294
 987 010a D3F8E020 		ldr	r2, [r3, #224]
 988 010e 42F00802 		orr	r2, r2, #8
 989 0112 C3F8E020 		str	r2, [r3, #224]
 418:../../CM4/Core/Src/stm32h7xx_hal_msp.c ****     /**UART5 GPIO Configuration
 990              		.loc 1 418 5 view .LVU295
 991 0116 D3F8E030 		ldr	r3, [r3, #224]
 992 011a 03F00803 		and	r3, r3, #8
 993 011e 0593     		str	r3, [sp, #20]
 418:../../CM4/Core/Src/stm32h7xx_hal_msp.c ****     /**UART5 GPIO Configuration
 994              		.loc 1 418 5 view .LVU296
 995 0120 059B     		ldr	r3, [sp, #20]
 996              	.LBE22:
 418:../../CM4/Core/Src/stm32h7xx_hal_msp.c ****     /**UART5 GPIO Configuration
 997              		.loc 1 418 5 view .LVU297
 423:../../CM4/Core/Src/stm32h7xx_hal_msp.c ****     GPIO_InitStruct.Mode = GPIO_MODE_AF_PP;
 998              		.loc 1 423 5 view .LVU298
 423:../../CM4/Core/Src/stm32h7xx_hal_msp.c ****     GPIO_InitStruct.Mode = GPIO_MODE_AF_PP;
 999              		.loc 1 423 25 is_stmt 0 view .LVU299
 1000 0122 4FF48053 		mov	r3, #4096
 1001 0126 3993     		str	r3, [sp, #228]
 424:../../CM4/Core/Src/stm32h7xx_hal_msp.c ****     GPIO_InitStruct.Pull = GPIO_NOPULL;
 1002              		.loc 1 424 5 is_stmt 1 view .LVU300
 424:../../CM4/Core/Src/stm32h7xx_hal_msp.c ****     GPIO_InitStruct.Pull = GPIO_NOPULL;
 1003              		.loc 1 424 26 is_stmt 0 view .LVU301
 1004 0128 0226     		movs	r6, #2
 1005 012a 3A96     		str	r6, [sp, #232]
 425:../../CM4/Core/Src/stm32h7xx_hal_msp.c ****     GPIO_InitStruct.Speed = GPIO_SPEED_FREQ_LOW;
 1006              		.loc 1 425 5 is_stmt 1 view .LVU302
 425:../../CM4/Core/Src/stm32h7xx_hal_msp.c ****     GPIO_InitStruct.Speed = GPIO_SPEED_FREQ_LOW;
 1007              		.loc 1 425 26 is_stmt 0 view .LVU303
 1008 012c 0024     		movs	r4, #0
 1009              	.LVL46:
 425:../../CM4/Core/Src/stm32h7xx_hal_msp.c ****     GPIO_InitStruct.Speed = GPIO_SPEED_FREQ_LOW;
 1010              		.loc 1 425 26 view .LVU304
 1011 012e 3B94     		str	r4, [sp, #236]
 426:../../CM4/Core/Src/stm32h7xx_hal_msp.c ****     GPIO_InitStruct.Alternate = GPIO_AF8_UART5;
 1012              		.loc 1 426 5 is_stmt 1 view .LVU305
 426:../../CM4/Core/Src/stm32h7xx_hal_msp.c ****     GPIO_InitStruct.Alternate = GPIO_AF8_UART5;
 1013              		.loc 1 426 27 is_stmt 0 view .LVU306
 1014 0130 3C94     		str	r4, [sp, #240]
ARM GAS  /tmp/ccTm6Fei.s 			page 31


 427:../../CM4/Core/Src/stm32h7xx_hal_msp.c ****     HAL_GPIO_Init(GPIOC, &GPIO_InitStruct);
 1015              		.loc 1 427 5 is_stmt 1 view .LVU307
 427:../../CM4/Core/Src/stm32h7xx_hal_msp.c ****     HAL_GPIO_Init(GPIOC, &GPIO_InitStruct);
 1016              		.loc 1 427 31 is_stmt 0 view .LVU308
 1017 0132 0825     		movs	r5, #8
 1018 0134 3D95     		str	r5, [sp, #244]
 428:../../CM4/Core/Src/stm32h7xx_hal_msp.c **** 
 1019              		.loc 1 428 5 is_stmt 1 view .LVU309
 1020 0136 39A9     		add	r1, sp, #228
 1021 0138 2548     		ldr	r0, .L59+16
 1022 013a FFF7FEFF 		bl	HAL_GPIO_Init
 1023              	.LVL47:
 430:../../CM4/Core/Src/stm32h7xx_hal_msp.c ****     GPIO_InitStruct.Mode = GPIO_MODE_AF_PP;
 1024              		.loc 1 430 5 view .LVU310
 430:../../CM4/Core/Src/stm32h7xx_hal_msp.c ****     GPIO_InitStruct.Mode = GPIO_MODE_AF_PP;
 1025              		.loc 1 430 25 is_stmt 0 view .LVU311
 1026 013e 0423     		movs	r3, #4
 1027 0140 3993     		str	r3, [sp, #228]
 431:../../CM4/Core/Src/stm32h7xx_hal_msp.c ****     GPIO_InitStruct.Pull = GPIO_NOPULL;
 1028              		.loc 1 431 5 is_stmt 1 view .LVU312
 431:../../CM4/Core/Src/stm32h7xx_hal_msp.c ****     GPIO_InitStruct.Pull = GPIO_NOPULL;
 1029              		.loc 1 431 26 is_stmt 0 view .LVU313
 1030 0142 3A96     		str	r6, [sp, #232]
 432:../../CM4/Core/Src/stm32h7xx_hal_msp.c ****     GPIO_InitStruct.Speed = GPIO_SPEED_FREQ_LOW;
 1031              		.loc 1 432 5 is_stmt 1 view .LVU314
 432:../../CM4/Core/Src/stm32h7xx_hal_msp.c ****     GPIO_InitStruct.Speed = GPIO_SPEED_FREQ_LOW;
 1032              		.loc 1 432 26 is_stmt 0 view .LVU315
 1033 0144 3B94     		str	r4, [sp, #236]
 433:../../CM4/Core/Src/stm32h7xx_hal_msp.c ****     GPIO_InitStruct.Alternate = GPIO_AF8_UART5;
 1034              		.loc 1 433 5 is_stmt 1 view .LVU316
 433:../../CM4/Core/Src/stm32h7xx_hal_msp.c ****     GPIO_InitStruct.Alternate = GPIO_AF8_UART5;
 1035              		.loc 1 433 27 is_stmt 0 view .LVU317
 1036 0146 3C94     		str	r4, [sp, #240]
 434:../../CM4/Core/Src/stm32h7xx_hal_msp.c ****     HAL_GPIO_Init(GPIOD, &GPIO_InitStruct);
 1037              		.loc 1 434 5 is_stmt 1 view .LVU318
 434:../../CM4/Core/Src/stm32h7xx_hal_msp.c ****     HAL_GPIO_Init(GPIOD, &GPIO_InitStruct);
 1038              		.loc 1 434 31 is_stmt 0 view .LVU319
 1039 0148 3D95     		str	r5, [sp, #244]
 435:../../CM4/Core/Src/stm32h7xx_hal_msp.c **** 
 1040              		.loc 1 435 5 is_stmt 1 view .LVU320
 1041 014a 39A9     		add	r1, sp, #228
 1042 014c 2148     		ldr	r0, .L59+20
 1043 014e FFF7FEFF 		bl	HAL_GPIO_Init
 1044              	.LVL48:
 1045 0152 6DE7     		b	.L45
 1046              	.LVL49:
 1047              	.L57:
 411:../../CM4/Core/Src/stm32h7xx_hal_msp.c ****     }
 1048              		.loc 1 411 7 view .LVU321
 1049 0154 FFF7FEFF 		bl	Error_Handler
 1050              	.LVL50:
 1051 0158 BEE7     		b	.L50
 1052              	.L55:
 449:../../CM4/Core/Src/stm32h7xx_hal_msp.c ****     PeriphClkInitStruct.Usart234578ClockSelection = RCC_USART234578CLKSOURCE_D2PCLK1;
 1053              		.loc 1 449 5 view .LVU322
 449:../../CM4/Core/Src/stm32h7xx_hal_msp.c ****     PeriphClkInitStruct.Usart234578ClockSelection = RCC_USART234578CLKSOURCE_D2PCLK1;
 1054              		.loc 1 449 46 is_stmt 0 view .LVU323
ARM GAS  /tmp/ccTm6Fei.s 			page 32


 1055 015a 0222     		movs	r2, #2
 1056 015c 0023     		movs	r3, #0
 1057 015e CDE90823 		strd	r2, [sp, #32]
 450:../../CM4/Core/Src/stm32h7xx_hal_msp.c ****     if (HAL_RCCEx_PeriphCLKConfig(&PeriphClkInitStruct) != HAL_OK)
 1058              		.loc 1 450 5 is_stmt 1 view .LVU324
 451:../../CM4/Core/Src/stm32h7xx_hal_msp.c ****     {
 1059              		.loc 1 451 5 view .LVU325
 451:../../CM4/Core/Src/stm32h7xx_hal_msp.c ****     {
 1060              		.loc 1 451 9 is_stmt 0 view .LVU326
 1061 0162 08A8     		add	r0, sp, #32
 1062 0164 FFF7FEFF 		bl	HAL_RCCEx_PeriphCLKConfig
 1063              	.LVL51:
 451:../../CM4/Core/Src/stm32h7xx_hal_msp.c ****     {
 1064              		.loc 1 451 8 view .LVU327
 1065 0168 30BB     		cbnz	r0, .L58
 1066              	.L51:
 457:../../CM4/Core/Src/stm32h7xx_hal_msp.c **** 
 1067              		.loc 1 457 5 is_stmt 1 view .LVU328
 1068              	.LBB23:
 457:../../CM4/Core/Src/stm32h7xx_hal_msp.c **** 
 1069              		.loc 1 457 5 view .LVU329
 457:../../CM4/Core/Src/stm32h7xx_hal_msp.c **** 
 1070              		.loc 1 457 5 view .LVU330
 1071 016a 184B     		ldr	r3, .L59+12
 1072 016c D3F8E820 		ldr	r2, [r3, #232]
 1073 0170 42F40032 		orr	r2, r2, #131072
 1074 0174 C3F8E820 		str	r2, [r3, #232]
 457:../../CM4/Core/Src/stm32h7xx_hal_msp.c **** 
 1075              		.loc 1 457 5 view .LVU331
 1076 0178 D3F8E820 		ldr	r2, [r3, #232]
 1077 017c 02F40032 		and	r2, r2, #131072
 1078 0180 0692     		str	r2, [sp, #24]
 457:../../CM4/Core/Src/stm32h7xx_hal_msp.c **** 
 1079              		.loc 1 457 5 view .LVU332
 1080 0182 069A     		ldr	r2, [sp, #24]
 1081              	.LBE23:
 457:../../CM4/Core/Src/stm32h7xx_hal_msp.c **** 
 1082              		.loc 1 457 5 view .LVU333
 459:../../CM4/Core/Src/stm32h7xx_hal_msp.c ****     /**USART2 GPIO Configuration
 1083              		.loc 1 459 5 view .LVU334
 1084              	.LBB24:
 459:../../CM4/Core/Src/stm32h7xx_hal_msp.c ****     /**USART2 GPIO Configuration
 1085              		.loc 1 459 5 view .LVU335
 459:../../CM4/Core/Src/stm32h7xx_hal_msp.c ****     /**USART2 GPIO Configuration
 1086              		.loc 1 459 5 view .LVU336
 1087 0184 D3F8E020 		ldr	r2, [r3, #224]
 1088 0188 42F00802 		orr	r2, r2, #8
 1089 018c C3F8E020 		str	r2, [r3, #224]
 459:../../CM4/Core/Src/stm32h7xx_hal_msp.c ****     /**USART2 GPIO Configuration
 1090              		.loc 1 459 5 view .LVU337
 1091 0190 D3F8E030 		ldr	r3, [r3, #224]
 1092 0194 03F00803 		and	r3, r3, #8
 1093 0198 0793     		str	r3, [sp, #28]
 459:../../CM4/Core/Src/stm32h7xx_hal_msp.c ****     /**USART2 GPIO Configuration
 1094              		.loc 1 459 5 view .LVU338
 1095 019a 079B     		ldr	r3, [sp, #28]
 1096              	.LBE24:
ARM GAS  /tmp/ccTm6Fei.s 			page 33


 459:../../CM4/Core/Src/stm32h7xx_hal_msp.c ****     /**USART2 GPIO Configuration
 1097              		.loc 1 459 5 view .LVU339
 464:../../CM4/Core/Src/stm32h7xx_hal_msp.c ****     GPIO_InitStruct.Mode = GPIO_MODE_AF_PP;
 1098              		.loc 1 464 5 view .LVU340
 464:../../CM4/Core/Src/stm32h7xx_hal_msp.c ****     GPIO_InitStruct.Mode = GPIO_MODE_AF_PP;
 1099              		.loc 1 464 25 is_stmt 0 view .LVU341
 1100 019c 6023     		movs	r3, #96
 1101 019e 3993     		str	r3, [sp, #228]
 465:../../CM4/Core/Src/stm32h7xx_hal_msp.c ****     GPIO_InitStruct.Pull = GPIO_NOPULL;
 1102              		.loc 1 465 5 is_stmt 1 view .LVU342
 465:../../CM4/Core/Src/stm32h7xx_hal_msp.c ****     GPIO_InitStruct.Pull = GPIO_NOPULL;
 1103              		.loc 1 465 26 is_stmt 0 view .LVU343
 1104 01a0 0223     		movs	r3, #2
 1105 01a2 3A93     		str	r3, [sp, #232]
 466:../../CM4/Core/Src/stm32h7xx_hal_msp.c ****     GPIO_InitStruct.Speed = GPIO_SPEED_FREQ_LOW;
 1106              		.loc 1 466 5 is_stmt 1 view .LVU344
 466:../../CM4/Core/Src/stm32h7xx_hal_msp.c ****     GPIO_InitStruct.Speed = GPIO_SPEED_FREQ_LOW;
 1107              		.loc 1 466 26 is_stmt 0 view .LVU345
 1108 01a4 0023     		movs	r3, #0
 1109 01a6 3B93     		str	r3, [sp, #236]
 467:../../CM4/Core/Src/stm32h7xx_hal_msp.c ****     GPIO_InitStruct.Alternate = GPIO_AF7_USART2;
 1110              		.loc 1 467 5 is_stmt 1 view .LVU346
 467:../../CM4/Core/Src/stm32h7xx_hal_msp.c ****     GPIO_InitStruct.Alternate = GPIO_AF7_USART2;
 1111              		.loc 1 467 27 is_stmt 0 view .LVU347
 1112 01a8 3C93     		str	r3, [sp, #240]
 468:../../CM4/Core/Src/stm32h7xx_hal_msp.c ****     HAL_GPIO_Init(GPIOD, &GPIO_InitStruct);
 1113              		.loc 1 468 5 is_stmt 1 view .LVU348
 468:../../CM4/Core/Src/stm32h7xx_hal_msp.c ****     HAL_GPIO_Init(GPIOD, &GPIO_InitStruct);
 1114              		.loc 1 468 31 is_stmt 0 view .LVU349
 1115 01aa 0723     		movs	r3, #7
 1116 01ac 3D93     		str	r3, [sp, #244]
 469:../../CM4/Core/Src/stm32h7xx_hal_msp.c **** 
 1117              		.loc 1 469 5 is_stmt 1 view .LVU350
 1118 01ae 39A9     		add	r1, sp, #228
 1119 01b0 0848     		ldr	r0, .L59+20
 1120 01b2 FFF7FEFF 		bl	HAL_GPIO_Init
 1121              	.LVL52:
 1122              		.loc 1 476 1 is_stmt 0 view .LVU351
 1123 01b6 3BE7     		b	.L45
 1124              	.L58:
 453:../../CM4/Core/Src/stm32h7xx_hal_msp.c ****     }
 1125              		.loc 1 453 7 is_stmt 1 view .LVU352
 1126 01b8 FFF7FEFF 		bl	Error_Handler
 1127              	.LVL53:
 1128 01bc D5E7     		b	.L51
 1129              	.L60:
 1130 01be 00BF     		.align	2
 1131              	.L59:
 1132 01c0 004C0040 		.word	1073761280
 1133 01c4 00500040 		.word	1073762304
 1134 01c8 00440040 		.word	1073759232
 1135 01cc 00440258 		.word	1476543488
 1136 01d0 00080258 		.word	1476528128
 1137 01d4 000C0258 		.word	1476529152
 1138              		.cfi_endproc
 1139              	.LFE328:
 1141              		.section	.text.HAL_UART_MspDeInit,"ax",%progbits
ARM GAS  /tmp/ccTm6Fei.s 			page 34


 1142              		.align	1
 1143              		.global	HAL_UART_MspDeInit
 1144              		.syntax unified
 1145              		.thumb
 1146              		.thumb_func
 1147              		.fpu fpv4-sp-d16
 1149              	HAL_UART_MspDeInit:
 1150              	.LVL54:
 1151              	.LFB329:
 477:../../CM4/Core/Src/stm32h7xx_hal_msp.c **** 
 478:../../CM4/Core/Src/stm32h7xx_hal_msp.c **** /**
 479:../../CM4/Core/Src/stm32h7xx_hal_msp.c **** * @brief UART MSP De-Initialization
 480:../../CM4/Core/Src/stm32h7xx_hal_msp.c **** * This function freeze the hardware resources used in this example
 481:../../CM4/Core/Src/stm32h7xx_hal_msp.c **** * @param huart: UART handle pointer
 482:../../CM4/Core/Src/stm32h7xx_hal_msp.c **** * @retval None
 483:../../CM4/Core/Src/stm32h7xx_hal_msp.c **** */
 484:../../CM4/Core/Src/stm32h7xx_hal_msp.c **** void HAL_UART_MspDeInit(UART_HandleTypeDef* huart)
 485:../../CM4/Core/Src/stm32h7xx_hal_msp.c **** {
 1152              		.loc 1 485 1 view -0
 1153              		.cfi_startproc
 1154              		@ args = 0, pretend = 0, frame = 0
 1155              		@ frame_needed = 0, uses_anonymous_args = 0
 1156              		.loc 1 485 1 is_stmt 0 view .LVU354
 1157 0000 08B5     		push	{r3, lr}
 1158              	.LCFI13:
 1159              		.cfi_def_cfa_offset 8
 1160              		.cfi_offset 3, -8
 1161              		.cfi_offset 14, -4
 486:../../CM4/Core/Src/stm32h7xx_hal_msp.c ****   if(huart->Instance==UART4)
 1162              		.loc 1 486 3 is_stmt 1 view .LVU355
 1163              		.loc 1 486 11 is_stmt 0 view .LVU356
 1164 0002 0368     		ldr	r3, [r0]
 1165              		.loc 1 486 5 view .LVU357
 1166 0004 1B4A     		ldr	r2, .L69
 1167 0006 9342     		cmp	r3, r2
 1168 0008 06D0     		beq	.L66
 487:../../CM4/Core/Src/stm32h7xx_hal_msp.c ****   {
 488:../../CM4/Core/Src/stm32h7xx_hal_msp.c ****   /* USER CODE BEGIN UART4_MspDeInit 0 */
 489:../../CM4/Core/Src/stm32h7xx_hal_msp.c **** 
 490:../../CM4/Core/Src/stm32h7xx_hal_msp.c ****   /* USER CODE END UART4_MspDeInit 0 */
 491:../../CM4/Core/Src/stm32h7xx_hal_msp.c ****     /* Peripheral clock disable */
 492:../../CM4/Core/Src/stm32h7xx_hal_msp.c ****     __HAL_RCC_UART4_CLK_DISABLE();
 493:../../CM4/Core/Src/stm32h7xx_hal_msp.c **** 
 494:../../CM4/Core/Src/stm32h7xx_hal_msp.c ****     /**UART4 GPIO Configuration
 495:../../CM4/Core/Src/stm32h7xx_hal_msp.c ****     PC11     ------> UART4_RX
 496:../../CM4/Core/Src/stm32h7xx_hal_msp.c ****     PD1     ------> UART4_TX
 497:../../CM4/Core/Src/stm32h7xx_hal_msp.c ****     */
 498:../../CM4/Core/Src/stm32h7xx_hal_msp.c ****     HAL_GPIO_DeInit(GPIOC, GPIO_PIN_11);
 499:../../CM4/Core/Src/stm32h7xx_hal_msp.c **** 
 500:../../CM4/Core/Src/stm32h7xx_hal_msp.c ****     HAL_GPIO_DeInit(GPIOD, GPIO_PIN_1);
 501:../../CM4/Core/Src/stm32h7xx_hal_msp.c **** 
 502:../../CM4/Core/Src/stm32h7xx_hal_msp.c ****   /* USER CODE BEGIN UART4_MspDeInit 1 */
 503:../../CM4/Core/Src/stm32h7xx_hal_msp.c **** 
 504:../../CM4/Core/Src/stm32h7xx_hal_msp.c ****   /* USER CODE END UART4_MspDeInit 1 */
 505:../../CM4/Core/Src/stm32h7xx_hal_msp.c ****   }
 506:../../CM4/Core/Src/stm32h7xx_hal_msp.c ****   else if(huart->Instance==UART5)
 1169              		.loc 1 506 8 is_stmt 1 view .LVU358
ARM GAS  /tmp/ccTm6Fei.s 			page 35


 1170              		.loc 1 506 10 is_stmt 0 view .LVU359
 1171 000a 1B4A     		ldr	r2, .L69+4
 1172 000c 9342     		cmp	r3, r2
 1173 000e 14D0     		beq	.L67
 507:../../CM4/Core/Src/stm32h7xx_hal_msp.c ****   {
 508:../../CM4/Core/Src/stm32h7xx_hal_msp.c ****   /* USER CODE BEGIN UART5_MspDeInit 0 */
 509:../../CM4/Core/Src/stm32h7xx_hal_msp.c **** 
 510:../../CM4/Core/Src/stm32h7xx_hal_msp.c ****   /* USER CODE END UART5_MspDeInit 0 */
 511:../../CM4/Core/Src/stm32h7xx_hal_msp.c ****     /* Peripheral clock disable */
 512:../../CM4/Core/Src/stm32h7xx_hal_msp.c ****     __HAL_RCC_UART5_CLK_DISABLE();
 513:../../CM4/Core/Src/stm32h7xx_hal_msp.c **** 
 514:../../CM4/Core/Src/stm32h7xx_hal_msp.c ****     /**UART5 GPIO Configuration
 515:../../CM4/Core/Src/stm32h7xx_hal_msp.c ****     PC12     ------> UART5_TX
 516:../../CM4/Core/Src/stm32h7xx_hal_msp.c ****     PD2     ------> UART5_RX
 517:../../CM4/Core/Src/stm32h7xx_hal_msp.c ****     */
 518:../../CM4/Core/Src/stm32h7xx_hal_msp.c ****     HAL_GPIO_DeInit(GPIOC, GPIO_PIN_12);
 519:../../CM4/Core/Src/stm32h7xx_hal_msp.c **** 
 520:../../CM4/Core/Src/stm32h7xx_hal_msp.c ****     HAL_GPIO_DeInit(GPIOD, GPIO_PIN_2);
 521:../../CM4/Core/Src/stm32h7xx_hal_msp.c **** 
 522:../../CM4/Core/Src/stm32h7xx_hal_msp.c ****   /* USER CODE BEGIN UART5_MspDeInit 1 */
 523:../../CM4/Core/Src/stm32h7xx_hal_msp.c **** 
 524:../../CM4/Core/Src/stm32h7xx_hal_msp.c ****   /* USER CODE END UART5_MspDeInit 1 */
 525:../../CM4/Core/Src/stm32h7xx_hal_msp.c ****   }
 526:../../CM4/Core/Src/stm32h7xx_hal_msp.c ****   else if(huart->Instance==USART2)
 1174              		.loc 1 526 8 is_stmt 1 view .LVU360
 1175              		.loc 1 526 10 is_stmt 0 view .LVU361
 1176 0010 1A4A     		ldr	r2, .L69+8
 1177 0012 9342     		cmp	r3, r2
 1178 0014 22D0     		beq	.L68
 1179              	.LVL55:
 1180              	.L61:
 527:../../CM4/Core/Src/stm32h7xx_hal_msp.c ****   {
 528:../../CM4/Core/Src/stm32h7xx_hal_msp.c ****   /* USER CODE BEGIN USART2_MspDeInit 0 */
 529:../../CM4/Core/Src/stm32h7xx_hal_msp.c **** 
 530:../../CM4/Core/Src/stm32h7xx_hal_msp.c ****   /* USER CODE END USART2_MspDeInit 0 */
 531:../../CM4/Core/Src/stm32h7xx_hal_msp.c ****     /* Peripheral clock disable */
 532:../../CM4/Core/Src/stm32h7xx_hal_msp.c ****     __HAL_RCC_USART2_CLK_DISABLE();
 533:../../CM4/Core/Src/stm32h7xx_hal_msp.c **** 
 534:../../CM4/Core/Src/stm32h7xx_hal_msp.c ****     /**USART2 GPIO Configuration
 535:../../CM4/Core/Src/stm32h7xx_hal_msp.c ****     PD5     ------> USART2_TX
 536:../../CM4/Core/Src/stm32h7xx_hal_msp.c ****     PD6     ------> USART2_RX
 537:../../CM4/Core/Src/stm32h7xx_hal_msp.c ****     */
 538:../../CM4/Core/Src/stm32h7xx_hal_msp.c ****     HAL_GPIO_DeInit(GPIOD, GPIO_PIN_5|GPIO_PIN_6);
 539:../../CM4/Core/Src/stm32h7xx_hal_msp.c **** 
 540:../../CM4/Core/Src/stm32h7xx_hal_msp.c ****   /* USER CODE BEGIN USART2_MspDeInit 1 */
 541:../../CM4/Core/Src/stm32h7xx_hal_msp.c **** 
 542:../../CM4/Core/Src/stm32h7xx_hal_msp.c ****   /* USER CODE END USART2_MspDeInit 1 */
 543:../../CM4/Core/Src/stm32h7xx_hal_msp.c ****   }
 544:../../CM4/Core/Src/stm32h7xx_hal_msp.c **** 
 545:../../CM4/Core/Src/stm32h7xx_hal_msp.c **** }
 1181              		.loc 1 545 1 view .LVU362
 1182 0016 08BD     		pop	{r3, pc}
 1183              	.LVL56:
 1184              	.L66:
 492:../../CM4/Core/Src/stm32h7xx_hal_msp.c **** 
 1185              		.loc 1 492 5 is_stmt 1 view .LVU363
 1186 0018 194A     		ldr	r2, .L69+12
ARM GAS  /tmp/ccTm6Fei.s 			page 36


 1187 001a D2F8E830 		ldr	r3, [r2, #232]
 1188 001e 23F40023 		bic	r3, r3, #524288
 1189 0022 C2F8E830 		str	r3, [r2, #232]
 498:../../CM4/Core/Src/stm32h7xx_hal_msp.c **** 
 1190              		.loc 1 498 5 view .LVU364
 1191 0026 4FF40061 		mov	r1, #2048
 1192 002a 1648     		ldr	r0, .L69+16
 1193              	.LVL57:
 498:../../CM4/Core/Src/stm32h7xx_hal_msp.c **** 
 1194              		.loc 1 498 5 is_stmt 0 view .LVU365
 1195 002c FFF7FEFF 		bl	HAL_GPIO_DeInit
 1196              	.LVL58:
 500:../../CM4/Core/Src/stm32h7xx_hal_msp.c **** 
 1197              		.loc 1 500 5 is_stmt 1 view .LVU366
 1198 0030 0221     		movs	r1, #2
 1199 0032 1548     		ldr	r0, .L69+20
 1200 0034 FFF7FEFF 		bl	HAL_GPIO_DeInit
 1201              	.LVL59:
 1202 0038 EDE7     		b	.L61
 1203              	.LVL60:
 1204              	.L67:
 512:../../CM4/Core/Src/stm32h7xx_hal_msp.c **** 
 1205              		.loc 1 512 5 view .LVU367
 1206 003a 114A     		ldr	r2, .L69+12
 1207 003c D2F8E830 		ldr	r3, [r2, #232]
 1208 0040 23F48013 		bic	r3, r3, #1048576
 1209 0044 C2F8E830 		str	r3, [r2, #232]
 518:../../CM4/Core/Src/stm32h7xx_hal_msp.c **** 
 1210              		.loc 1 518 5 view .LVU368
 1211 0048 4FF48051 		mov	r1, #4096
 1212 004c 0D48     		ldr	r0, .L69+16
 1213              	.LVL61:
 518:../../CM4/Core/Src/stm32h7xx_hal_msp.c **** 
 1214              		.loc 1 518 5 is_stmt 0 view .LVU369
 1215 004e FFF7FEFF 		bl	HAL_GPIO_DeInit
 1216              	.LVL62:
 520:../../CM4/Core/Src/stm32h7xx_hal_msp.c **** 
 1217              		.loc 1 520 5 is_stmt 1 view .LVU370
 1218 0052 0421     		movs	r1, #4
 1219 0054 0C48     		ldr	r0, .L69+20
 1220 0056 FFF7FEFF 		bl	HAL_GPIO_DeInit
 1221              	.LVL63:
 1222 005a DCE7     		b	.L61
 1223              	.LVL64:
 1224              	.L68:
 532:../../CM4/Core/Src/stm32h7xx_hal_msp.c **** 
 1225              		.loc 1 532 5 view .LVU371
 1226 005c 084A     		ldr	r2, .L69+12
 1227 005e D2F8E830 		ldr	r3, [r2, #232]
 1228 0062 23F40033 		bic	r3, r3, #131072
 1229 0066 C2F8E830 		str	r3, [r2, #232]
 538:../../CM4/Core/Src/stm32h7xx_hal_msp.c **** 
 1230              		.loc 1 538 5 view .LVU372
 1231 006a 6021     		movs	r1, #96
 1232 006c 0648     		ldr	r0, .L69+20
 1233              	.LVL65:
 538:../../CM4/Core/Src/stm32h7xx_hal_msp.c **** 
ARM GAS  /tmp/ccTm6Fei.s 			page 37


 1234              		.loc 1 538 5 is_stmt 0 view .LVU373
 1235 006e FFF7FEFF 		bl	HAL_GPIO_DeInit
 1236              	.LVL66:
 1237              		.loc 1 545 1 view .LVU374
 1238 0072 D0E7     		b	.L61
 1239              	.L70:
 1240              		.align	2
 1241              	.L69:
 1242 0074 004C0040 		.word	1073761280
 1243 0078 00500040 		.word	1073762304
 1244 007c 00440040 		.word	1073759232
 1245 0080 00440258 		.word	1476543488
 1246 0084 00080258 		.word	1476528128
 1247 0088 000C0258 		.word	1476529152
 1248              		.cfi_endproc
 1249              	.LFE329:
 1251              		.section	.text.HAL_PCD_MspInit,"ax",%progbits
 1252              		.align	1
 1253              		.global	HAL_PCD_MspInit
 1254              		.syntax unified
 1255              		.thumb
 1256              		.thumb_func
 1257              		.fpu fpv4-sp-d16
 1259              	HAL_PCD_MspInit:
 1260              	.LVL67:
 1261              	.LFB330:
 546:../../CM4/Core/Src/stm32h7xx_hal_msp.c **** 
 547:../../CM4/Core/Src/stm32h7xx_hal_msp.c **** /**
 548:../../CM4/Core/Src/stm32h7xx_hal_msp.c **** * @brief PCD MSP Initialization
 549:../../CM4/Core/Src/stm32h7xx_hal_msp.c **** * This function configures the hardware resources used in this example
 550:../../CM4/Core/Src/stm32h7xx_hal_msp.c **** * @param hpcd: PCD handle pointer
 551:../../CM4/Core/Src/stm32h7xx_hal_msp.c **** * @retval None
 552:../../CM4/Core/Src/stm32h7xx_hal_msp.c **** */
 553:../../CM4/Core/Src/stm32h7xx_hal_msp.c **** void HAL_PCD_MspInit(PCD_HandleTypeDef* hpcd)
 554:../../CM4/Core/Src/stm32h7xx_hal_msp.c **** {
 1262              		.loc 1 554 1 is_stmt 1 view -0
 1263              		.cfi_startproc
 1264              		@ args = 0, pretend = 0, frame = 224
 1265              		@ frame_needed = 0, uses_anonymous_args = 0
 1266              		.loc 1 554 1 is_stmt 0 view .LVU376
 1267 0000 70B5     		push	{r4, r5, r6, lr}
 1268              	.LCFI14:
 1269              		.cfi_def_cfa_offset 16
 1270              		.cfi_offset 4, -16
 1271              		.cfi_offset 5, -12
 1272              		.cfi_offset 6, -8
 1273              		.cfi_offset 14, -4
 1274 0002 B8B0     		sub	sp, sp, #224
 1275              	.LCFI15:
 1276              		.cfi_def_cfa_offset 240
 1277 0004 0446     		mov	r4, r0
 555:../../CM4/Core/Src/stm32h7xx_hal_msp.c ****   GPIO_InitTypeDef GPIO_InitStruct = {0};
 1278              		.loc 1 555 3 is_stmt 1 view .LVU377
 1279              		.loc 1 555 20 is_stmt 0 view .LVU378
 1280 0006 0021     		movs	r1, #0
 1281 0008 3391     		str	r1, [sp, #204]
 1282 000a 3491     		str	r1, [sp, #208]
ARM GAS  /tmp/ccTm6Fei.s 			page 38


 1283 000c 3591     		str	r1, [sp, #212]
 1284 000e 3691     		str	r1, [sp, #216]
 1285 0010 3791     		str	r1, [sp, #220]
 556:../../CM4/Core/Src/stm32h7xx_hal_msp.c ****   RCC_PeriphCLKInitTypeDef PeriphClkInitStruct = {0};
 1286              		.loc 1 556 3 is_stmt 1 view .LVU379
 1287              		.loc 1 556 28 is_stmt 0 view .LVU380
 1288 0012 C022     		movs	r2, #192
 1289 0014 02A8     		add	r0, sp, #8
 1290              	.LVL68:
 1291              		.loc 1 556 28 view .LVU381
 1292 0016 FFF7FEFF 		bl	memset
 1293              	.LVL69:
 557:../../CM4/Core/Src/stm32h7xx_hal_msp.c ****   if(hpcd->Instance==USB_OTG_FS)
 1294              		.loc 1 557 3 is_stmt 1 view .LVU382
 1295              		.loc 1 557 10 is_stmt 0 view .LVU383
 1296 001a 2268     		ldr	r2, [r4]
 1297              		.loc 1 557 5 view .LVU384
 1298 001c 244B     		ldr	r3, .L77
 1299 001e 9A42     		cmp	r2, r3
 1300 0020 01D0     		beq	.L75
 1301              	.LVL70:
 1302              	.L71:
 558:../../CM4/Core/Src/stm32h7xx_hal_msp.c ****   {
 559:../../CM4/Core/Src/stm32h7xx_hal_msp.c ****   /* USER CODE BEGIN USB_OTG_FS_MspInit 0 */
 560:../../CM4/Core/Src/stm32h7xx_hal_msp.c **** 
 561:../../CM4/Core/Src/stm32h7xx_hal_msp.c ****   /* USER CODE END USB_OTG_FS_MspInit 0 */
 562:../../CM4/Core/Src/stm32h7xx_hal_msp.c **** 
 563:../../CM4/Core/Src/stm32h7xx_hal_msp.c ****   /** Initializes the peripherals clock
 564:../../CM4/Core/Src/stm32h7xx_hal_msp.c ****   */
 565:../../CM4/Core/Src/stm32h7xx_hal_msp.c ****     PeriphClkInitStruct.PeriphClockSelection = RCC_PERIPHCLK_USB;
 566:../../CM4/Core/Src/stm32h7xx_hal_msp.c ****     PeriphClkInitStruct.UsbClockSelection = RCC_USBCLKSOURCE_PLL;
 567:../../CM4/Core/Src/stm32h7xx_hal_msp.c ****     if (HAL_RCCEx_PeriphCLKConfig(&PeriphClkInitStruct) != HAL_OK)
 568:../../CM4/Core/Src/stm32h7xx_hal_msp.c ****     {
 569:../../CM4/Core/Src/stm32h7xx_hal_msp.c ****       Error_Handler();
 570:../../CM4/Core/Src/stm32h7xx_hal_msp.c ****     }
 571:../../CM4/Core/Src/stm32h7xx_hal_msp.c **** 
 572:../../CM4/Core/Src/stm32h7xx_hal_msp.c ****   /** Enable USB Voltage detector
 573:../../CM4/Core/Src/stm32h7xx_hal_msp.c ****   */
 574:../../CM4/Core/Src/stm32h7xx_hal_msp.c ****     HAL_PWREx_EnableUSBVoltageDetector();
 575:../../CM4/Core/Src/stm32h7xx_hal_msp.c **** 
 576:../../CM4/Core/Src/stm32h7xx_hal_msp.c ****     __HAL_RCC_GPIOA_CLK_ENABLE();
 577:../../CM4/Core/Src/stm32h7xx_hal_msp.c ****     /**USB_OTG_FS GPIO Configuration
 578:../../CM4/Core/Src/stm32h7xx_hal_msp.c ****     PA8     ------> USB_OTG_FS_SOF
 579:../../CM4/Core/Src/stm32h7xx_hal_msp.c ****     PA9     ------> USB_OTG_FS_VBUS
 580:../../CM4/Core/Src/stm32h7xx_hal_msp.c ****     PA11     ------> USB_OTG_FS_DM
 581:../../CM4/Core/Src/stm32h7xx_hal_msp.c ****     PA12     ------> USB_OTG_FS_DP
 582:../../CM4/Core/Src/stm32h7xx_hal_msp.c ****     */
 583:../../CM4/Core/Src/stm32h7xx_hal_msp.c ****     GPIO_InitStruct.Pin = GPIO_PIN_8|GPIO_PIN_11|GPIO_PIN_12;
 584:../../CM4/Core/Src/stm32h7xx_hal_msp.c ****     GPIO_InitStruct.Mode = GPIO_MODE_AF_PP;
 585:../../CM4/Core/Src/stm32h7xx_hal_msp.c ****     GPIO_InitStruct.Pull = GPIO_NOPULL;
 586:../../CM4/Core/Src/stm32h7xx_hal_msp.c ****     GPIO_InitStruct.Speed = GPIO_SPEED_FREQ_LOW;
 587:../../CM4/Core/Src/stm32h7xx_hal_msp.c ****     GPIO_InitStruct.Alternate = GPIO_AF10_OTG1_FS;
 588:../../CM4/Core/Src/stm32h7xx_hal_msp.c ****     HAL_GPIO_Init(GPIOA, &GPIO_InitStruct);
 589:../../CM4/Core/Src/stm32h7xx_hal_msp.c **** 
 590:../../CM4/Core/Src/stm32h7xx_hal_msp.c ****     GPIO_InitStruct.Pin = GPIO_PIN_9;
 591:../../CM4/Core/Src/stm32h7xx_hal_msp.c ****     GPIO_InitStruct.Mode = GPIO_MODE_INPUT;
 592:../../CM4/Core/Src/stm32h7xx_hal_msp.c ****     GPIO_InitStruct.Pull = GPIO_NOPULL;
ARM GAS  /tmp/ccTm6Fei.s 			page 39


 593:../../CM4/Core/Src/stm32h7xx_hal_msp.c ****     HAL_GPIO_Init(GPIOA, &GPIO_InitStruct);
 594:../../CM4/Core/Src/stm32h7xx_hal_msp.c **** 
 595:../../CM4/Core/Src/stm32h7xx_hal_msp.c ****     /* Peripheral clock enable */
 596:../../CM4/Core/Src/stm32h7xx_hal_msp.c ****     __HAL_RCC_USB_OTG_FS_CLK_ENABLE();
 597:../../CM4/Core/Src/stm32h7xx_hal_msp.c ****   /* USER CODE BEGIN USB_OTG_FS_MspInit 1 */
 598:../../CM4/Core/Src/stm32h7xx_hal_msp.c **** 
 599:../../CM4/Core/Src/stm32h7xx_hal_msp.c ****   /* USER CODE END USB_OTG_FS_MspInit 1 */
 600:../../CM4/Core/Src/stm32h7xx_hal_msp.c **** 
 601:../../CM4/Core/Src/stm32h7xx_hal_msp.c ****   }
 602:../../CM4/Core/Src/stm32h7xx_hal_msp.c **** 
 603:../../CM4/Core/Src/stm32h7xx_hal_msp.c **** }
 1303              		.loc 1 603 1 view .LVU385
 1304 0022 38B0     		add	sp, sp, #224
 1305              	.LCFI16:
 1306              		.cfi_remember_state
 1307              		.cfi_def_cfa_offset 16
 1308              		@ sp needed
 1309 0024 70BD     		pop	{r4, r5, r6, pc}
 1310              	.LVL71:
 1311              	.L75:
 1312              	.LCFI17:
 1313              		.cfi_restore_state
 565:../../CM4/Core/Src/stm32h7xx_hal_msp.c ****     PeriphClkInitStruct.UsbClockSelection = RCC_USBCLKSOURCE_PLL;
 1314              		.loc 1 565 5 is_stmt 1 view .LVU386
 565:../../CM4/Core/Src/stm32h7xx_hal_msp.c ****     PeriphClkInitStruct.UsbClockSelection = RCC_USBCLKSOURCE_PLL;
 1315              		.loc 1 565 46 is_stmt 0 view .LVU387
 1316 0026 4FF48022 		mov	r2, #262144
 1317 002a 0023     		movs	r3, #0
 1318 002c CDE90223 		strd	r2, [sp, #8]
 566:../../CM4/Core/Src/stm32h7xx_hal_msp.c ****     if (HAL_RCCEx_PeriphCLKConfig(&PeriphClkInitStruct) != HAL_OK)
 1319              		.loc 1 566 5 is_stmt 1 view .LVU388
 566:../../CM4/Core/Src/stm32h7xx_hal_msp.c ****     if (HAL_RCCEx_PeriphCLKConfig(&PeriphClkInitStruct) != HAL_OK)
 1320              		.loc 1 566 43 is_stmt 0 view .LVU389
 1321 0030 4FF48013 		mov	r3, #1048576
 1322 0034 2493     		str	r3, [sp, #144]
 567:../../CM4/Core/Src/stm32h7xx_hal_msp.c ****     {
 1323              		.loc 1 567 5 is_stmt 1 view .LVU390
 567:../../CM4/Core/Src/stm32h7xx_hal_msp.c ****     {
 1324              		.loc 1 567 9 is_stmt 0 view .LVU391
 1325 0036 02A8     		add	r0, sp, #8
 1326 0038 FFF7FEFF 		bl	HAL_RCCEx_PeriphCLKConfig
 1327              	.LVL72:
 567:../../CM4/Core/Src/stm32h7xx_hal_msp.c ****     {
 1328              		.loc 1 567 8 view .LVU392
 1329 003c 0028     		cmp	r0, #0
 1330 003e 33D1     		bne	.L76
 1331              	.L73:
 574:../../CM4/Core/Src/stm32h7xx_hal_msp.c **** 
 1332              		.loc 1 574 5 is_stmt 1 view .LVU393
 1333 0040 FFF7FEFF 		bl	HAL_PWREx_EnableUSBVoltageDetector
 1334              	.LVL73:
 576:../../CM4/Core/Src/stm32h7xx_hal_msp.c ****     /**USB_OTG_FS GPIO Configuration
 1335              		.loc 1 576 5 view .LVU394
 1336              	.LBB25:
 576:../../CM4/Core/Src/stm32h7xx_hal_msp.c ****     /**USB_OTG_FS GPIO Configuration
 1337              		.loc 1 576 5 view .LVU395
 576:../../CM4/Core/Src/stm32h7xx_hal_msp.c ****     /**USB_OTG_FS GPIO Configuration
ARM GAS  /tmp/ccTm6Fei.s 			page 40


 1338              		.loc 1 576 5 view .LVU396
 1339 0044 1B4C     		ldr	r4, .L77+4
 1340              	.LVL74:
 576:../../CM4/Core/Src/stm32h7xx_hal_msp.c ****     /**USB_OTG_FS GPIO Configuration
 1341              		.loc 1 576 5 is_stmt 0 view .LVU397
 1342 0046 D4F8E030 		ldr	r3, [r4, #224]
 1343 004a 43F00103 		orr	r3, r3, #1
 1344 004e C4F8E030 		str	r3, [r4, #224]
 576:../../CM4/Core/Src/stm32h7xx_hal_msp.c ****     /**USB_OTG_FS GPIO Configuration
 1345              		.loc 1 576 5 is_stmt 1 view .LVU398
 1346 0052 D4F8E030 		ldr	r3, [r4, #224]
 1347 0056 03F00103 		and	r3, r3, #1
 1348 005a 0093     		str	r3, [sp]
 576:../../CM4/Core/Src/stm32h7xx_hal_msp.c ****     /**USB_OTG_FS GPIO Configuration
 1349              		.loc 1 576 5 view .LVU399
 1350 005c 009B     		ldr	r3, [sp]
 1351              	.LBE25:
 576:../../CM4/Core/Src/stm32h7xx_hal_msp.c ****     /**USB_OTG_FS GPIO Configuration
 1352              		.loc 1 576 5 view .LVU400
 583:../../CM4/Core/Src/stm32h7xx_hal_msp.c ****     GPIO_InitStruct.Mode = GPIO_MODE_AF_PP;
 1353              		.loc 1 583 5 view .LVU401
 583:../../CM4/Core/Src/stm32h7xx_hal_msp.c ****     GPIO_InitStruct.Mode = GPIO_MODE_AF_PP;
 1354              		.loc 1 583 25 is_stmt 0 view .LVU402
 1355 005e 4FF4C853 		mov	r3, #6400
 1356 0062 3393     		str	r3, [sp, #204]
 584:../../CM4/Core/Src/stm32h7xx_hal_msp.c ****     GPIO_InitStruct.Pull = GPIO_NOPULL;
 1357              		.loc 1 584 5 is_stmt 1 view .LVU403
 584:../../CM4/Core/Src/stm32h7xx_hal_msp.c ****     GPIO_InitStruct.Pull = GPIO_NOPULL;
 1358              		.loc 1 584 26 is_stmt 0 view .LVU404
 1359 0064 0223     		movs	r3, #2
 1360 0066 3493     		str	r3, [sp, #208]
 585:../../CM4/Core/Src/stm32h7xx_hal_msp.c ****     GPIO_InitStruct.Speed = GPIO_SPEED_FREQ_LOW;
 1361              		.loc 1 585 5 is_stmt 1 view .LVU405
 585:../../CM4/Core/Src/stm32h7xx_hal_msp.c ****     GPIO_InitStruct.Speed = GPIO_SPEED_FREQ_LOW;
 1362              		.loc 1 585 26 is_stmt 0 view .LVU406
 1363 0068 0025     		movs	r5, #0
 1364 006a 3595     		str	r5, [sp, #212]
 586:../../CM4/Core/Src/stm32h7xx_hal_msp.c ****     GPIO_InitStruct.Alternate = GPIO_AF10_OTG1_FS;
 1365              		.loc 1 586 5 is_stmt 1 view .LVU407
 586:../../CM4/Core/Src/stm32h7xx_hal_msp.c ****     GPIO_InitStruct.Alternate = GPIO_AF10_OTG1_FS;
 1366              		.loc 1 586 27 is_stmt 0 view .LVU408
 1367 006c 3695     		str	r5, [sp, #216]
 587:../../CM4/Core/Src/stm32h7xx_hal_msp.c ****     HAL_GPIO_Init(GPIOA, &GPIO_InitStruct);
 1368              		.loc 1 587 5 is_stmt 1 view .LVU409
 587:../../CM4/Core/Src/stm32h7xx_hal_msp.c ****     HAL_GPIO_Init(GPIOA, &GPIO_InitStruct);
 1369              		.loc 1 587 31 is_stmt 0 view .LVU410
 1370 006e 0A23     		movs	r3, #10
 1371 0070 3793     		str	r3, [sp, #220]
 588:../../CM4/Core/Src/stm32h7xx_hal_msp.c **** 
 1372              		.loc 1 588 5 is_stmt 1 view .LVU411
 1373 0072 114E     		ldr	r6, .L77+8
 1374 0074 33A9     		add	r1, sp, #204
 1375 0076 3046     		mov	r0, r6
 1376 0078 FFF7FEFF 		bl	HAL_GPIO_Init
 1377              	.LVL75:
 590:../../CM4/Core/Src/stm32h7xx_hal_msp.c ****     GPIO_InitStruct.Mode = GPIO_MODE_INPUT;
 1378              		.loc 1 590 5 view .LVU412
ARM GAS  /tmp/ccTm6Fei.s 			page 41


 590:../../CM4/Core/Src/stm32h7xx_hal_msp.c ****     GPIO_InitStruct.Mode = GPIO_MODE_INPUT;
 1379              		.loc 1 590 25 is_stmt 0 view .LVU413
 1380 007c 4FF40073 		mov	r3, #512
 1381 0080 3393     		str	r3, [sp, #204]
 591:../../CM4/Core/Src/stm32h7xx_hal_msp.c ****     GPIO_InitStruct.Pull = GPIO_NOPULL;
 1382              		.loc 1 591 5 is_stmt 1 view .LVU414
 591:../../CM4/Core/Src/stm32h7xx_hal_msp.c ****     GPIO_InitStruct.Pull = GPIO_NOPULL;
 1383              		.loc 1 591 26 is_stmt 0 view .LVU415
 1384 0082 3495     		str	r5, [sp, #208]
 592:../../CM4/Core/Src/stm32h7xx_hal_msp.c ****     HAL_GPIO_Init(GPIOA, &GPIO_InitStruct);
 1385              		.loc 1 592 5 is_stmt 1 view .LVU416
 592:../../CM4/Core/Src/stm32h7xx_hal_msp.c ****     HAL_GPIO_Init(GPIOA, &GPIO_InitStruct);
 1386              		.loc 1 592 26 is_stmt 0 view .LVU417
 1387 0084 3595     		str	r5, [sp, #212]
 593:../../CM4/Core/Src/stm32h7xx_hal_msp.c **** 
 1388              		.loc 1 593 5 is_stmt 1 view .LVU418
 1389 0086 33A9     		add	r1, sp, #204
 1390 0088 3046     		mov	r0, r6
 1391 008a FFF7FEFF 		bl	HAL_GPIO_Init
 1392              	.LVL76:
 596:../../CM4/Core/Src/stm32h7xx_hal_msp.c ****   /* USER CODE BEGIN USB_OTG_FS_MspInit 1 */
 1393              		.loc 1 596 5 view .LVU419
 1394              	.LBB26:
 596:../../CM4/Core/Src/stm32h7xx_hal_msp.c ****   /* USER CODE BEGIN USB_OTG_FS_MspInit 1 */
 1395              		.loc 1 596 5 view .LVU420
 596:../../CM4/Core/Src/stm32h7xx_hal_msp.c ****   /* USER CODE BEGIN USB_OTG_FS_MspInit 1 */
 1396              		.loc 1 596 5 view .LVU421
 1397 008e D4F8D830 		ldr	r3, [r4, #216]
 1398 0092 43F00063 		orr	r3, r3, #134217728
 1399 0096 C4F8D830 		str	r3, [r4, #216]
 596:../../CM4/Core/Src/stm32h7xx_hal_msp.c ****   /* USER CODE BEGIN USB_OTG_FS_MspInit 1 */
 1400              		.loc 1 596 5 view .LVU422
 1401 009a D4F8D830 		ldr	r3, [r4, #216]
 1402 009e 03F00063 		and	r3, r3, #134217728
 1403 00a2 0193     		str	r3, [sp, #4]
 596:../../CM4/Core/Src/stm32h7xx_hal_msp.c ****   /* USER CODE BEGIN USB_OTG_FS_MspInit 1 */
 1404              		.loc 1 596 5 view .LVU423
 1405 00a4 019B     		ldr	r3, [sp, #4]
 1406              	.LBE26:
 596:../../CM4/Core/Src/stm32h7xx_hal_msp.c ****   /* USER CODE BEGIN USB_OTG_FS_MspInit 1 */
 1407              		.loc 1 596 5 view .LVU424
 1408              		.loc 1 603 1 is_stmt 0 view .LVU425
 1409 00a6 BCE7     		b	.L71
 1410              	.LVL77:
 1411              	.L76:
 569:../../CM4/Core/Src/stm32h7xx_hal_msp.c ****     }
 1412              		.loc 1 569 7 is_stmt 1 view .LVU426
 1413 00a8 FFF7FEFF 		bl	Error_Handler
 1414              	.LVL78:
 1415 00ac C8E7     		b	.L73
 1416              	.L78:
 1417 00ae 00BF     		.align	2
 1418              	.L77:
 1419 00b0 00000840 		.word	1074266112
 1420 00b4 00440258 		.word	1476543488
 1421 00b8 00000258 		.word	1476526080
 1422              		.cfi_endproc
ARM GAS  /tmp/ccTm6Fei.s 			page 42


 1423              	.LFE330:
 1425              		.section	.text.HAL_PCD_MspDeInit,"ax",%progbits
 1426              		.align	1
 1427              		.global	HAL_PCD_MspDeInit
 1428              		.syntax unified
 1429              		.thumb
 1430              		.thumb_func
 1431              		.fpu fpv4-sp-d16
 1433              	HAL_PCD_MspDeInit:
 1434              	.LVL79:
 1435              	.LFB331:
 604:../../CM4/Core/Src/stm32h7xx_hal_msp.c **** 
 605:../../CM4/Core/Src/stm32h7xx_hal_msp.c **** /**
 606:../../CM4/Core/Src/stm32h7xx_hal_msp.c **** * @brief PCD MSP De-Initialization
 607:../../CM4/Core/Src/stm32h7xx_hal_msp.c **** * This function freeze the hardware resources used in this example
 608:../../CM4/Core/Src/stm32h7xx_hal_msp.c **** * @param hpcd: PCD handle pointer
 609:../../CM4/Core/Src/stm32h7xx_hal_msp.c **** * @retval None
 610:../../CM4/Core/Src/stm32h7xx_hal_msp.c **** */
 611:../../CM4/Core/Src/stm32h7xx_hal_msp.c **** void HAL_PCD_MspDeInit(PCD_HandleTypeDef* hpcd)
 612:../../CM4/Core/Src/stm32h7xx_hal_msp.c **** {
 1436              		.loc 1 612 1 view -0
 1437              		.cfi_startproc
 1438              		@ args = 0, pretend = 0, frame = 0
 1439              		@ frame_needed = 0, uses_anonymous_args = 0
 1440              		.loc 1 612 1 is_stmt 0 view .LVU428
 1441 0000 08B5     		push	{r3, lr}
 1442              	.LCFI18:
 1443              		.cfi_def_cfa_offset 8
 1444              		.cfi_offset 3, -8
 1445              		.cfi_offset 14, -4
 613:../../CM4/Core/Src/stm32h7xx_hal_msp.c ****   if(hpcd->Instance==USB_OTG_FS)
 1446              		.loc 1 613 3 is_stmt 1 view .LVU429
 1447              		.loc 1 613 10 is_stmt 0 view .LVU430
 1448 0002 0268     		ldr	r2, [r0]
 1449              		.loc 1 613 5 view .LVU431
 1450 0004 084B     		ldr	r3, .L83
 1451 0006 9A42     		cmp	r2, r3
 1452 0008 00D0     		beq	.L82
 1453              	.LVL80:
 1454              	.L79:
 614:../../CM4/Core/Src/stm32h7xx_hal_msp.c ****   {
 615:../../CM4/Core/Src/stm32h7xx_hal_msp.c ****   /* USER CODE BEGIN USB_OTG_FS_MspDeInit 0 */
 616:../../CM4/Core/Src/stm32h7xx_hal_msp.c **** 
 617:../../CM4/Core/Src/stm32h7xx_hal_msp.c ****   /* USER CODE END USB_OTG_FS_MspDeInit 0 */
 618:../../CM4/Core/Src/stm32h7xx_hal_msp.c ****     /* Peripheral clock disable */
 619:../../CM4/Core/Src/stm32h7xx_hal_msp.c ****     __HAL_RCC_USB_OTG_FS_CLK_DISABLE();
 620:../../CM4/Core/Src/stm32h7xx_hal_msp.c **** 
 621:../../CM4/Core/Src/stm32h7xx_hal_msp.c ****     /**USB_OTG_FS GPIO Configuration
 622:../../CM4/Core/Src/stm32h7xx_hal_msp.c ****     PA8     ------> USB_OTG_FS_SOF
 623:../../CM4/Core/Src/stm32h7xx_hal_msp.c ****     PA9     ------> USB_OTG_FS_VBUS
 624:../../CM4/Core/Src/stm32h7xx_hal_msp.c ****     PA11     ------> USB_OTG_FS_DM
 625:../../CM4/Core/Src/stm32h7xx_hal_msp.c ****     PA12     ------> USB_OTG_FS_DP
 626:../../CM4/Core/Src/stm32h7xx_hal_msp.c ****     */
 627:../../CM4/Core/Src/stm32h7xx_hal_msp.c ****     HAL_GPIO_DeInit(GPIOA, GPIO_PIN_8|GPIO_PIN_9|GPIO_PIN_11|GPIO_PIN_12);
 628:../../CM4/Core/Src/stm32h7xx_hal_msp.c **** 
 629:../../CM4/Core/Src/stm32h7xx_hal_msp.c ****   /* USER CODE BEGIN USB_OTG_FS_MspDeInit 1 */
 630:../../CM4/Core/Src/stm32h7xx_hal_msp.c **** 
ARM GAS  /tmp/ccTm6Fei.s 			page 43


 631:../../CM4/Core/Src/stm32h7xx_hal_msp.c ****   /* USER CODE END USB_OTG_FS_MspDeInit 1 */
 632:../../CM4/Core/Src/stm32h7xx_hal_msp.c ****   }
 633:../../CM4/Core/Src/stm32h7xx_hal_msp.c **** 
 634:../../CM4/Core/Src/stm32h7xx_hal_msp.c **** }
 1455              		.loc 1 634 1 view .LVU432
 1456 000a 08BD     		pop	{r3, pc}
 1457              	.LVL81:
 1458              	.L82:
 619:../../CM4/Core/Src/stm32h7xx_hal_msp.c **** 
 1459              		.loc 1 619 5 is_stmt 1 view .LVU433
 1460 000c 074A     		ldr	r2, .L83+4
 1461 000e D2F8D830 		ldr	r3, [r2, #216]
 1462 0012 23F00063 		bic	r3, r3, #134217728
 1463 0016 C2F8D830 		str	r3, [r2, #216]
 627:../../CM4/Core/Src/stm32h7xx_hal_msp.c **** 
 1464              		.loc 1 627 5 view .LVU434
 1465 001a 4FF4D851 		mov	r1, #6912
 1466 001e 0448     		ldr	r0, .L83+8
 1467              	.LVL82:
 627:../../CM4/Core/Src/stm32h7xx_hal_msp.c **** 
 1468              		.loc 1 627 5 is_stmt 0 view .LVU435
 1469 0020 FFF7FEFF 		bl	HAL_GPIO_DeInit
 1470              	.LVL83:
 1471              		.loc 1 634 1 view .LVU436
 1472 0024 F1E7     		b	.L79
 1473              	.L84:
 1474 0026 00BF     		.align	2
 1475              	.L83:
 1476 0028 00000840 		.word	1074266112
 1477 002c 00440258 		.word	1476543488
 1478 0030 00000258 		.word	1476526080
 1479              		.cfi_endproc
 1480              	.LFE331:
 1482              		.section	.bss.HAL_RCC_ADC12_CLK_ENABLED,"aw",%nobits
 1483              		.align	2
 1484              		.set	.LANCHOR0,. + 0
 1487              	HAL_RCC_ADC12_CLK_ENABLED:
 1488 0000 00000000 		.space	4
 1489              		.text
 1490              	.Letext0:
 1491              		.file 2 "/usr/lib/gcc/arm-none-eabi/10.3.1/include/stdint.h"
 1492              		.file 3 "../../Drivers/CMSIS/Device/ST/STM32H7xx/Include/stm32h745xx.h"
 1493              		.file 4 "../../Drivers/CMSIS/Device/ST/STM32H7xx/Include/stm32h7xx.h"
 1494              		.file 5 "../../Drivers/STM32H7xx_HAL_Driver/Inc/stm32h7xx_hal_def.h"
 1495              		.file 6 "../../Drivers/STM32H7xx_HAL_Driver/Inc/stm32h7xx_hal_rcc_ex.h"
 1496              		.file 7 "../../Drivers/STM32H7xx_HAL_Driver/Inc/stm32h7xx_hal_gpio.h"
 1497              		.file 8 "../../Drivers/STM32H7xx_HAL_Driver/Inc/stm32h7xx_hal_dma.h"
 1498              		.file 9 "../../Drivers/STM32H7xx_HAL_Driver/Inc/stm32h7xx_hal_eth.h"
 1499              		.file 10 "../../Drivers/STM32H7xx_HAL_Driver/Inc/stm32h7xx_hal_adc.h"
 1500              		.file 11 "../../Drivers/STM32H7xx_HAL_Driver/Inc/stm32h7xx_hal_uart.h"
 1501              		.file 12 "../../Drivers/STM32H7xx_HAL_Driver/Inc/stm32h7xx_ll_usb.h"
 1502              		.file 13 "../../Drivers/STM32H7xx_HAL_Driver/Inc/stm32h7xx_hal_pcd.h"
 1503              		.file 14 "../../Drivers/STM32H7xx_HAL_Driver/Inc/stm32h7xx_hal_pwr_ex.h"
 1504              		.file 15 "../../CM4/Core/Inc/main.h"
 1505              		.file 16 "../../Drivers/STM32H7xx_HAL_Driver/Inc/stm32h7xx_hal.h"
 1506              		.file 17 "<built-in>"
ARM GAS  /tmp/ccTm6Fei.s 			page 44

