ARM GAS  /tmp/ccIOaCu9.s 			page 1


   1              		.cpu cortex-m7
   2              		.eabi_attribute 27, 1
   3              		.eabi_attribute 28, 1
   4              		.eabi_attribute 20, 1
   5              		.eabi_attribute 21, 1
   6              		.eabi_attribute 23, 3
   7              		.eabi_attribute 24, 1
   8              		.eabi_attribute 25, 1
   9              		.eabi_attribute 26, 1
  10              		.eabi_attribute 30, 1
  11              		.eabi_attribute 34, 1
  12              		.eabi_attribute 18, 4
  13              		.file	"stm32h7xx_hal_eth_ex.c"
  14              		.text
  15              	.Ltext0:
  16              		.cfi_sections	.debug_frame
  17              		.section	.text.HAL_ETHEx_EnableARPOffload,"ax",%progbits
  18              		.align	1
  19              		.global	HAL_ETHEx_EnableARPOffload
  20              		.arch armv7e-m
  21              		.syntax unified
  22              		.thumb
  23              		.thumb_func
  24              		.fpu fpv4-sp-d16
  26              	HAL_ETHEx_EnableARPOffload:
  27              	.LVL0:
  28              	.LFB323:
  29              		.file 1 "../../Drivers/STM32H7xx_HAL_Driver/Src/stm32h7xx_hal_eth_ex.c"
   1:../../Drivers/STM32H7xx_HAL_Driver/Src/stm32h7xx_hal_eth_ex.c **** /**
   2:../../Drivers/STM32H7xx_HAL_Driver/Src/stm32h7xx_hal_eth_ex.c ****   ******************************************************************************
   3:../../Drivers/STM32H7xx_HAL_Driver/Src/stm32h7xx_hal_eth_ex.c ****   * @file    stm32h7xx_hal_eth_ex.c
   4:../../Drivers/STM32H7xx_HAL_Driver/Src/stm32h7xx_hal_eth_ex.c ****   * @author  MCD Application Team
   5:../../Drivers/STM32H7xx_HAL_Driver/Src/stm32h7xx_hal_eth_ex.c ****   * @brief   ETH HAL Extended module driver.
   6:../../Drivers/STM32H7xx_HAL_Driver/Src/stm32h7xx_hal_eth_ex.c ****   *
   7:../../Drivers/STM32H7xx_HAL_Driver/Src/stm32h7xx_hal_eth_ex.c ****   ******************************************************************************
   8:../../Drivers/STM32H7xx_HAL_Driver/Src/stm32h7xx_hal_eth_ex.c ****   * @attention
   9:../../Drivers/STM32H7xx_HAL_Driver/Src/stm32h7xx_hal_eth_ex.c ****   *
  10:../../Drivers/STM32H7xx_HAL_Driver/Src/stm32h7xx_hal_eth_ex.c ****   * Copyright (c) 2017 STMicroelectronics.
  11:../../Drivers/STM32H7xx_HAL_Driver/Src/stm32h7xx_hal_eth_ex.c ****   * All rights reserved.
  12:../../Drivers/STM32H7xx_HAL_Driver/Src/stm32h7xx_hal_eth_ex.c ****   *
  13:../../Drivers/STM32H7xx_HAL_Driver/Src/stm32h7xx_hal_eth_ex.c ****   * This software is licensed under terms that can be found in the LICENSE file
  14:../../Drivers/STM32H7xx_HAL_Driver/Src/stm32h7xx_hal_eth_ex.c ****   * in the root directory of this software component.
  15:../../Drivers/STM32H7xx_HAL_Driver/Src/stm32h7xx_hal_eth_ex.c ****   * If no LICENSE file comes with this software, it is provided AS-IS.
  16:../../Drivers/STM32H7xx_HAL_Driver/Src/stm32h7xx_hal_eth_ex.c ****   *
  17:../../Drivers/STM32H7xx_HAL_Driver/Src/stm32h7xx_hal_eth_ex.c ****   ******************************************************************************
  18:../../Drivers/STM32H7xx_HAL_Driver/Src/stm32h7xx_hal_eth_ex.c ****   */
  19:../../Drivers/STM32H7xx_HAL_Driver/Src/stm32h7xx_hal_eth_ex.c **** 
  20:../../Drivers/STM32H7xx_HAL_Driver/Src/stm32h7xx_hal_eth_ex.c **** /* Includes ------------------------------------------------------------------*/
  21:../../Drivers/STM32H7xx_HAL_Driver/Src/stm32h7xx_hal_eth_ex.c **** #include "stm32h7xx_hal.h"
  22:../../Drivers/STM32H7xx_HAL_Driver/Src/stm32h7xx_hal_eth_ex.c **** 
  23:../../Drivers/STM32H7xx_HAL_Driver/Src/stm32h7xx_hal_eth_ex.c **** /** @addtogroup STM32H7xx_HAL_Driver
  24:../../Drivers/STM32H7xx_HAL_Driver/Src/stm32h7xx_hal_eth_ex.c ****   * @{
  25:../../Drivers/STM32H7xx_HAL_Driver/Src/stm32h7xx_hal_eth_ex.c ****   */
  26:../../Drivers/STM32H7xx_HAL_Driver/Src/stm32h7xx_hal_eth_ex.c **** 
  27:../../Drivers/STM32H7xx_HAL_Driver/Src/stm32h7xx_hal_eth_ex.c **** #ifdef HAL_ETH_MODULE_ENABLED
  28:../../Drivers/STM32H7xx_HAL_Driver/Src/stm32h7xx_hal_eth_ex.c **** 
  29:../../Drivers/STM32H7xx_HAL_Driver/Src/stm32h7xx_hal_eth_ex.c **** #if defined(ETH)
ARM GAS  /tmp/ccIOaCu9.s 			page 2


  30:../../Drivers/STM32H7xx_HAL_Driver/Src/stm32h7xx_hal_eth_ex.c **** 
  31:../../Drivers/STM32H7xx_HAL_Driver/Src/stm32h7xx_hal_eth_ex.c **** /** @defgroup ETHEx ETHEx
  32:../../Drivers/STM32H7xx_HAL_Driver/Src/stm32h7xx_hal_eth_ex.c ****   * @brief ETH HAL Extended module driver
  33:../../Drivers/STM32H7xx_HAL_Driver/Src/stm32h7xx_hal_eth_ex.c ****   * @{
  34:../../Drivers/STM32H7xx_HAL_Driver/Src/stm32h7xx_hal_eth_ex.c ****   */
  35:../../Drivers/STM32H7xx_HAL_Driver/Src/stm32h7xx_hal_eth_ex.c **** 
  36:../../Drivers/STM32H7xx_HAL_Driver/Src/stm32h7xx_hal_eth_ex.c **** /* Private typedef -----------------------------------------------------------*/
  37:../../Drivers/STM32H7xx_HAL_Driver/Src/stm32h7xx_hal_eth_ex.c **** /* Private define ------------------------------------------------------------*/
  38:../../Drivers/STM32H7xx_HAL_Driver/Src/stm32h7xx_hal_eth_ex.c **** /** @defgroup ETHEx_Private_Constants ETHEx Private Constants
  39:../../Drivers/STM32H7xx_HAL_Driver/Src/stm32h7xx_hal_eth_ex.c ****   * @{
  40:../../Drivers/STM32H7xx_HAL_Driver/Src/stm32h7xx_hal_eth_ex.c ****   */
  41:../../Drivers/STM32H7xx_HAL_Driver/Src/stm32h7xx_hal_eth_ex.c **** #define ETH_MACL4CR_MASK     (ETH_MACL3L4CR_L4PEN | ETH_MACL3L4CR_L4SPM | \
  42:../../Drivers/STM32H7xx_HAL_Driver/Src/stm32h7xx_hal_eth_ex.c ****                               ETH_MACL3L4CR_L4SPIM | ETH_MACL3L4CR_L4DPM | \
  43:../../Drivers/STM32H7xx_HAL_Driver/Src/stm32h7xx_hal_eth_ex.c ****                               ETH_MACL3L4CR_L4DPIM)
  44:../../Drivers/STM32H7xx_HAL_Driver/Src/stm32h7xx_hal_eth_ex.c **** 
  45:../../Drivers/STM32H7xx_HAL_Driver/Src/stm32h7xx_hal_eth_ex.c **** #define ETH_MACL3CR_MASK     (ETH_MACL3L4CR_L3PEN | ETH_MACL3L4CR_L3SAM | \
  46:../../Drivers/STM32H7xx_HAL_Driver/Src/stm32h7xx_hal_eth_ex.c ****                               ETH_MACL3L4CR_L3SAIM | ETH_MACL3L4CR_L3DAM | \
  47:../../Drivers/STM32H7xx_HAL_Driver/Src/stm32h7xx_hal_eth_ex.c ****                               ETH_MACL3L4CR_L3DAIM | ETH_MACL3L4CR_L3HSBM | \
  48:../../Drivers/STM32H7xx_HAL_Driver/Src/stm32h7xx_hal_eth_ex.c ****                               ETH_MACL3L4CR_L3HDBM)
  49:../../Drivers/STM32H7xx_HAL_Driver/Src/stm32h7xx_hal_eth_ex.c **** 
  50:../../Drivers/STM32H7xx_HAL_Driver/Src/stm32h7xx_hal_eth_ex.c **** #define ETH_MACRXVLAN_MASK (ETH_MACVTR_EIVLRXS | ETH_MACVTR_EIVLS | \
  51:../../Drivers/STM32H7xx_HAL_Driver/Src/stm32h7xx_hal_eth_ex.c ****                             ETH_MACVTR_ERIVLT | ETH_MACVTR_EDVLP | \
  52:../../Drivers/STM32H7xx_HAL_Driver/Src/stm32h7xx_hal_eth_ex.c ****                             ETH_MACVTR_VTHM | ETH_MACVTR_EVLRXS | \
  53:../../Drivers/STM32H7xx_HAL_Driver/Src/stm32h7xx_hal_eth_ex.c ****                             ETH_MACVTR_EVLS | ETH_MACVTR_DOVLTC | \
  54:../../Drivers/STM32H7xx_HAL_Driver/Src/stm32h7xx_hal_eth_ex.c ****                             ETH_MACVTR_ERSVLM | ETH_MACVTR_ESVL | \
  55:../../Drivers/STM32H7xx_HAL_Driver/Src/stm32h7xx_hal_eth_ex.c ****                             ETH_MACVTR_VTIM | ETH_MACVTR_ETV)
  56:../../Drivers/STM32H7xx_HAL_Driver/Src/stm32h7xx_hal_eth_ex.c **** 
  57:../../Drivers/STM32H7xx_HAL_Driver/Src/stm32h7xx_hal_eth_ex.c **** #define ETH_MACTXVLAN_MASK (ETH_MACVIR_VLTI | ETH_MACVIR_CSVL | \
  58:../../Drivers/STM32H7xx_HAL_Driver/Src/stm32h7xx_hal_eth_ex.c ****                             ETH_MACVIR_VLP | ETH_MACVIR_VLC)
  59:../../Drivers/STM32H7xx_HAL_Driver/Src/stm32h7xx_hal_eth_ex.c **** 
  60:../../Drivers/STM32H7xx_HAL_Driver/Src/stm32h7xx_hal_eth_ex.c **** #define ETH_MAC_L4_SRSP_MASK          0x0000FFFFU
  61:../../Drivers/STM32H7xx_HAL_Driver/Src/stm32h7xx_hal_eth_ex.c **** #define ETH_MAC_L4_DSTP_MASK          0xFFFF0000U
  62:../../Drivers/STM32H7xx_HAL_Driver/Src/stm32h7xx_hal_eth_ex.c **** /**
  63:../../Drivers/STM32H7xx_HAL_Driver/Src/stm32h7xx_hal_eth_ex.c ****   * @}
  64:../../Drivers/STM32H7xx_HAL_Driver/Src/stm32h7xx_hal_eth_ex.c ****   */
  65:../../Drivers/STM32H7xx_HAL_Driver/Src/stm32h7xx_hal_eth_ex.c **** 
  66:../../Drivers/STM32H7xx_HAL_Driver/Src/stm32h7xx_hal_eth_ex.c **** /* Private macros ------------------------------------------------------------*/
  67:../../Drivers/STM32H7xx_HAL_Driver/Src/stm32h7xx_hal_eth_ex.c **** /* Private function prototypes -----------------------------------------------*/
  68:../../Drivers/STM32H7xx_HAL_Driver/Src/stm32h7xx_hal_eth_ex.c **** /* Exported functions ---------------------------------------------------------*/
  69:../../Drivers/STM32H7xx_HAL_Driver/Src/stm32h7xx_hal_eth_ex.c **** /** @defgroup ETHEx_Exported_Functions ETH Extended Exported Functions
  70:../../Drivers/STM32H7xx_HAL_Driver/Src/stm32h7xx_hal_eth_ex.c ****   * @{
  71:../../Drivers/STM32H7xx_HAL_Driver/Src/stm32h7xx_hal_eth_ex.c ****   */
  72:../../Drivers/STM32H7xx_HAL_Driver/Src/stm32h7xx_hal_eth_ex.c **** 
  73:../../Drivers/STM32H7xx_HAL_Driver/Src/stm32h7xx_hal_eth_ex.c **** /** @defgroup ETHEx_Exported_Functions_Group1 Extended features functions
  74:../../Drivers/STM32H7xx_HAL_Driver/Src/stm32h7xx_hal_eth_ex.c ****   * @brief    Extended features functions
  75:../../Drivers/STM32H7xx_HAL_Driver/Src/stm32h7xx_hal_eth_ex.c ****   *
  76:../../Drivers/STM32H7xx_HAL_Driver/Src/stm32h7xx_hal_eth_ex.c **** @verbatim
  77:../../Drivers/STM32H7xx_HAL_Driver/Src/stm32h7xx_hal_eth_ex.c ****  ===============================================================================
  78:../../Drivers/STM32H7xx_HAL_Driver/Src/stm32h7xx_hal_eth_ex.c ****                       ##### Extended features functions #####
  79:../../Drivers/STM32H7xx_HAL_Driver/Src/stm32h7xx_hal_eth_ex.c ****  ===============================================================================
  80:../../Drivers/STM32H7xx_HAL_Driver/Src/stm32h7xx_hal_eth_ex.c ****     [..] This section provides functions allowing to:
  81:../../Drivers/STM32H7xx_HAL_Driver/Src/stm32h7xx_hal_eth_ex.c ****       (+) Configure ARP offload module
  82:../../Drivers/STM32H7xx_HAL_Driver/Src/stm32h7xx_hal_eth_ex.c ****       (+) Configure L3 and L4 filters
  83:../../Drivers/STM32H7xx_HAL_Driver/Src/stm32h7xx_hal_eth_ex.c ****       (+) Configure Extended VLAN features
  84:../../Drivers/STM32H7xx_HAL_Driver/Src/stm32h7xx_hal_eth_ex.c ****       (+) Configure Energy Efficient Ethernet module
  85:../../Drivers/STM32H7xx_HAL_Driver/Src/stm32h7xx_hal_eth_ex.c **** 
  86:../../Drivers/STM32H7xx_HAL_Driver/Src/stm32h7xx_hal_eth_ex.c **** @endverbatim
ARM GAS  /tmp/ccIOaCu9.s 			page 3


  87:../../Drivers/STM32H7xx_HAL_Driver/Src/stm32h7xx_hal_eth_ex.c ****   * @{
  88:../../Drivers/STM32H7xx_HAL_Driver/Src/stm32h7xx_hal_eth_ex.c ****   */
  89:../../Drivers/STM32H7xx_HAL_Driver/Src/stm32h7xx_hal_eth_ex.c **** 
  90:../../Drivers/STM32H7xx_HAL_Driver/Src/stm32h7xx_hal_eth_ex.c **** /**
  91:../../Drivers/STM32H7xx_HAL_Driver/Src/stm32h7xx_hal_eth_ex.c ****   * @brief  Enables ARP Offload.
  92:../../Drivers/STM32H7xx_HAL_Driver/Src/stm32h7xx_hal_eth_ex.c ****   * @param  heth: pointer to a ETH_HandleTypeDef structure that contains
  93:../../Drivers/STM32H7xx_HAL_Driver/Src/stm32h7xx_hal_eth_ex.c ****   *         the configuration information for ETHERNET module
  94:../../Drivers/STM32H7xx_HAL_Driver/Src/stm32h7xx_hal_eth_ex.c ****   * @retval None
  95:../../Drivers/STM32H7xx_HAL_Driver/Src/stm32h7xx_hal_eth_ex.c ****   */
  96:../../Drivers/STM32H7xx_HAL_Driver/Src/stm32h7xx_hal_eth_ex.c **** 
  97:../../Drivers/STM32H7xx_HAL_Driver/Src/stm32h7xx_hal_eth_ex.c **** void HAL_ETHEx_EnableARPOffload(ETH_HandleTypeDef *heth)
  98:../../Drivers/STM32H7xx_HAL_Driver/Src/stm32h7xx_hal_eth_ex.c **** {
  30              		.loc 1 98 1 view -0
  31              		.cfi_startproc
  32              		@ args = 0, pretend = 0, frame = 0
  33              		@ frame_needed = 0, uses_anonymous_args = 0
  34              		@ link register save eliminated.
  99:../../Drivers/STM32H7xx_HAL_Driver/Src/stm32h7xx_hal_eth_ex.c ****   SET_BIT(heth->Instance->MACCR, ETH_MACCR_ARP);
  35              		.loc 1 99 3 view .LVU1
  36 0000 0268     		ldr	r2, [r0]
  37 0002 1368     		ldr	r3, [r2]
  38 0004 43F00043 		orr	r3, r3, #-2147483648
  39 0008 1360     		str	r3, [r2]
 100:../../Drivers/STM32H7xx_HAL_Driver/Src/stm32h7xx_hal_eth_ex.c **** }
  40              		.loc 1 100 1 is_stmt 0 view .LVU2
  41 000a 7047     		bx	lr
  42              		.cfi_endproc
  43              	.LFE323:
  45              		.section	.text.HAL_ETHEx_DisableARPOffload,"ax",%progbits
  46              		.align	1
  47              		.global	HAL_ETHEx_DisableARPOffload
  48              		.syntax unified
  49              		.thumb
  50              		.thumb_func
  51              		.fpu fpv4-sp-d16
  53              	HAL_ETHEx_DisableARPOffload:
  54              	.LVL1:
  55              	.LFB324:
 101:../../Drivers/STM32H7xx_HAL_Driver/Src/stm32h7xx_hal_eth_ex.c **** 
 102:../../Drivers/STM32H7xx_HAL_Driver/Src/stm32h7xx_hal_eth_ex.c **** /**
 103:../../Drivers/STM32H7xx_HAL_Driver/Src/stm32h7xx_hal_eth_ex.c ****   * @brief  Disables ARP Offload.
 104:../../Drivers/STM32H7xx_HAL_Driver/Src/stm32h7xx_hal_eth_ex.c ****   * @param  heth: pointer to a ETH_HandleTypeDef structure that contains
 105:../../Drivers/STM32H7xx_HAL_Driver/Src/stm32h7xx_hal_eth_ex.c ****   *         the configuration information for ETHERNET module
 106:../../Drivers/STM32H7xx_HAL_Driver/Src/stm32h7xx_hal_eth_ex.c ****   * @retval None
 107:../../Drivers/STM32H7xx_HAL_Driver/Src/stm32h7xx_hal_eth_ex.c ****   */
 108:../../Drivers/STM32H7xx_HAL_Driver/Src/stm32h7xx_hal_eth_ex.c **** void HAL_ETHEx_DisableARPOffload(ETH_HandleTypeDef *heth)
 109:../../Drivers/STM32H7xx_HAL_Driver/Src/stm32h7xx_hal_eth_ex.c **** {
  56              		.loc 1 109 1 is_stmt 1 view -0
  57              		.cfi_startproc
  58              		@ args = 0, pretend = 0, frame = 0
  59              		@ frame_needed = 0, uses_anonymous_args = 0
  60              		@ link register save eliminated.
 110:../../Drivers/STM32H7xx_HAL_Driver/Src/stm32h7xx_hal_eth_ex.c ****   CLEAR_BIT(heth->Instance->MACCR, ETH_MACCR_ARP);
  61              		.loc 1 110 3 view .LVU4
  62 0000 0268     		ldr	r2, [r0]
  63 0002 1368     		ldr	r3, [r2]
  64 0004 23F00043 		bic	r3, r3, #-2147483648
ARM GAS  /tmp/ccIOaCu9.s 			page 4


  65 0008 1360     		str	r3, [r2]
 111:../../Drivers/STM32H7xx_HAL_Driver/Src/stm32h7xx_hal_eth_ex.c **** }
  66              		.loc 1 111 1 is_stmt 0 view .LVU5
  67 000a 7047     		bx	lr
  68              		.cfi_endproc
  69              	.LFE324:
  71              		.section	.text.HAL_ETHEx_SetARPAddressMatch,"ax",%progbits
  72              		.align	1
  73              		.global	HAL_ETHEx_SetARPAddressMatch
  74              		.syntax unified
  75              		.thumb
  76              		.thumb_func
  77              		.fpu fpv4-sp-d16
  79              	HAL_ETHEx_SetARPAddressMatch:
  80              	.LVL2:
  81              	.LFB325:
 112:../../Drivers/STM32H7xx_HAL_Driver/Src/stm32h7xx_hal_eth_ex.c **** 
 113:../../Drivers/STM32H7xx_HAL_Driver/Src/stm32h7xx_hal_eth_ex.c **** /**
 114:../../Drivers/STM32H7xx_HAL_Driver/Src/stm32h7xx_hal_eth_ex.c ****   * @brief  Set the ARP Match IP address
 115:../../Drivers/STM32H7xx_HAL_Driver/Src/stm32h7xx_hal_eth_ex.c ****   * @param  heth: pointer to a ETH_HandleTypeDef structure that contains
 116:../../Drivers/STM32H7xx_HAL_Driver/Src/stm32h7xx_hal_eth_ex.c ****   *         the configuration information for ETHERNET module
 117:../../Drivers/STM32H7xx_HAL_Driver/Src/stm32h7xx_hal_eth_ex.c ****   * @param  IpAddress: IP Address to be matched for incoming ARP requests
 118:../../Drivers/STM32H7xx_HAL_Driver/Src/stm32h7xx_hal_eth_ex.c ****   * @retval None
 119:../../Drivers/STM32H7xx_HAL_Driver/Src/stm32h7xx_hal_eth_ex.c ****   */
 120:../../Drivers/STM32H7xx_HAL_Driver/Src/stm32h7xx_hal_eth_ex.c **** void HAL_ETHEx_SetARPAddressMatch(ETH_HandleTypeDef *heth, uint32_t IpAddress)
 121:../../Drivers/STM32H7xx_HAL_Driver/Src/stm32h7xx_hal_eth_ex.c **** {
  82              		.loc 1 121 1 is_stmt 1 view -0
  83              		.cfi_startproc
  84              		@ args = 0, pretend = 0, frame = 0
  85              		@ frame_needed = 0, uses_anonymous_args = 0
  86              		@ link register save eliminated.
 122:../../Drivers/STM32H7xx_HAL_Driver/Src/stm32h7xx_hal_eth_ex.c ****   WRITE_REG(heth->Instance->MACARPAR, IpAddress);
  87              		.loc 1 122 3 view .LVU7
  88 0000 0368     		ldr	r3, [r0]
  89 0002 C3F81012 		str	r1, [r3, #528]
 123:../../Drivers/STM32H7xx_HAL_Driver/Src/stm32h7xx_hal_eth_ex.c **** }
  90              		.loc 1 123 1 is_stmt 0 view .LVU8
  91 0006 7047     		bx	lr
  92              		.cfi_endproc
  93              	.LFE325:
  95              		.section	.text.HAL_ETHEx_SetL4FilterConfig,"ax",%progbits
  96              		.align	1
  97              		.global	HAL_ETHEx_SetL4FilterConfig
  98              		.syntax unified
  99              		.thumb
 100              		.thumb_func
 101              		.fpu fpv4-sp-d16
 103              	HAL_ETHEx_SetL4FilterConfig:
 104              	.LVL3:
 105              	.LFB326:
 124:../../Drivers/STM32H7xx_HAL_Driver/Src/stm32h7xx_hal_eth_ex.c **** 
 125:../../Drivers/STM32H7xx_HAL_Driver/Src/stm32h7xx_hal_eth_ex.c **** /**
 126:../../Drivers/STM32H7xx_HAL_Driver/Src/stm32h7xx_hal_eth_ex.c ****   * @brief  Configures the L4 Filter, this function allow to:
 127:../../Drivers/STM32H7xx_HAL_Driver/Src/stm32h7xx_hal_eth_ex.c ****   *         set the layer 4 protocol to be matched (TCP or UDP)
 128:../../Drivers/STM32H7xx_HAL_Driver/Src/stm32h7xx_hal_eth_ex.c ****   *         enable/disable L4 source/destination port perfect/inverse match.
 129:../../Drivers/STM32H7xx_HAL_Driver/Src/stm32h7xx_hal_eth_ex.c ****   * @param  heth: pointer to a ETH_HandleTypeDef structure that contains
 130:../../Drivers/STM32H7xx_HAL_Driver/Src/stm32h7xx_hal_eth_ex.c ****   *         the configuration information for ETHERNET module
ARM GAS  /tmp/ccIOaCu9.s 			page 5


 131:../../Drivers/STM32H7xx_HAL_Driver/Src/stm32h7xx_hal_eth_ex.c ****   * @param  Filter: L4 filter to configured, this parameter must be one of the following
 132:../../Drivers/STM32H7xx_HAL_Driver/Src/stm32h7xx_hal_eth_ex.c ****   *           ETH_L4_FILTER_0
 133:../../Drivers/STM32H7xx_HAL_Driver/Src/stm32h7xx_hal_eth_ex.c ****   *           ETH_L4_FILTER_1
 134:../../Drivers/STM32H7xx_HAL_Driver/Src/stm32h7xx_hal_eth_ex.c ****   * @param  pL4FilterConfig: pointer to a ETH_L4FilterConfigTypeDef structure
 135:../../Drivers/STM32H7xx_HAL_Driver/Src/stm32h7xx_hal_eth_ex.c ****   *         that contains L4 filter configuration.
 136:../../Drivers/STM32H7xx_HAL_Driver/Src/stm32h7xx_hal_eth_ex.c ****   * @retval HAL status
 137:../../Drivers/STM32H7xx_HAL_Driver/Src/stm32h7xx_hal_eth_ex.c ****   */
 138:../../Drivers/STM32H7xx_HAL_Driver/Src/stm32h7xx_hal_eth_ex.c **** HAL_StatusTypeDef HAL_ETHEx_SetL4FilterConfig(ETH_HandleTypeDef *heth, uint32_t Filter,
 139:../../Drivers/STM32H7xx_HAL_Driver/Src/stm32h7xx_hal_eth_ex.c ****                                               const ETH_L4FilterConfigTypeDef *pL4FilterConfig)
 140:../../Drivers/STM32H7xx_HAL_Driver/Src/stm32h7xx_hal_eth_ex.c **** {
 106              		.loc 1 140 1 is_stmt 1 view -0
 107              		.cfi_startproc
 108              		@ args = 0, pretend = 0, frame = 0
 109              		@ frame_needed = 0, uses_anonymous_args = 0
 110              		@ link register save eliminated.
 141:../../Drivers/STM32H7xx_HAL_Driver/Src/stm32h7xx_hal_eth_ex.c ****   if (pL4FilterConfig == NULL)
 111              		.loc 1 141 3 view .LVU10
 112              		.loc 1 141 6 is_stmt 0 view .LVU11
 113 0000 002A     		cmp	r2, #0
 114 0002 33D0     		beq	.L8
 140:../../Drivers/STM32H7xx_HAL_Driver/Src/stm32h7xx_hal_eth_ex.c ****   if (pL4FilterConfig == NULL)
 115              		.loc 1 140 1 view .LVU12
 116 0004 30B4     		push	{r4, r5}
 117              	.LCFI0:
 118              		.cfi_def_cfa_offset 8
 119              		.cfi_offset 4, -8
 120              		.cfi_offset 5, -4
 121 0006 1346     		mov	r3, r2
 142:../../Drivers/STM32H7xx_HAL_Driver/Src/stm32h7xx_hal_eth_ex.c ****   {
 143:../../Drivers/STM32H7xx_HAL_Driver/Src/stm32h7xx_hal_eth_ex.c ****     return HAL_ERROR;
 144:../../Drivers/STM32H7xx_HAL_Driver/Src/stm32h7xx_hal_eth_ex.c ****   }
 145:../../Drivers/STM32H7xx_HAL_Driver/Src/stm32h7xx_hal_eth_ex.c **** 
 146:../../Drivers/STM32H7xx_HAL_Driver/Src/stm32h7xx_hal_eth_ex.c ****   if (Filter == ETH_L4_FILTER_0)
 122              		.loc 1 146 3 is_stmt 1 view .LVU13
 123              		.loc 1 146 6 is_stmt 0 view .LVU14
 124 0008 D9B9     		cbnz	r1, .L6
 147:../../Drivers/STM32H7xx_HAL_Driver/Src/stm32h7xx_hal_eth_ex.c ****   {
 148:../../Drivers/STM32H7xx_HAL_Driver/Src/stm32h7xx_hal_eth_ex.c ****     /* Write configuration to MACL3L4C0R register */
 149:../../Drivers/STM32H7xx_HAL_Driver/Src/stm32h7xx_hal_eth_ex.c ****     MODIFY_REG(heth->Instance->MACL3L4C0R, ETH_MACL4CR_MASK, (pL4FilterConfig->Protocol |
 125              		.loc 1 149 5 is_stmt 1 view .LVU15
 126 000a 0468     		ldr	r4, [r0]
 127 000c D4F80029 		ldr	r2, [r4, #2304]
 128              	.LVL4:
 129              		.loc 1 149 5 is_stmt 0 view .LVU16
 130 0010 22F47412 		bic	r2, r2, #3997696
 131 0014 1968     		ldr	r1, [r3]
 132              	.LVL5:
 133              		.loc 1 149 5 view .LVU17
 134 0016 5D68     		ldr	r5, [r3, #4]
 135 0018 2943     		orrs	r1, r1, r5
 136 001a 9D68     		ldr	r5, [r3, #8]
 137 001c 2943     		orrs	r1, r1, r5
 138 001e 0A43     		orrs	r2, r2, r1
 139 0020 C4F80029 		str	r2, [r4, #2304]
 150:../../Drivers/STM32H7xx_HAL_Driver/Src/stm32h7xx_hal_eth_ex.c ****                                                               pL4FilterConfig->SrcPortFilterMatch |
 151:../../Drivers/STM32H7xx_HAL_Driver/Src/stm32h7xx_hal_eth_ex.c ****                                                               pL4FilterConfig->DestPortFilterMatch)
 152:../../Drivers/STM32H7xx_HAL_Driver/Src/stm32h7xx_hal_eth_ex.c **** 
ARM GAS  /tmp/ccIOaCu9.s 			page 6


 153:../../Drivers/STM32H7xx_HAL_Driver/Src/stm32h7xx_hal_eth_ex.c ****     /* Write configuration to MACL4A0R register */
 154:../../Drivers/STM32H7xx_HAL_Driver/Src/stm32h7xx_hal_eth_ex.c ****     WRITE_REG(heth->Instance->MACL4A0R, (pL4FilterConfig->SourcePort | (pL4FilterConfig->Destinatio
 140              		.loc 1 154 5 is_stmt 1 view .LVU18
 141 0024 DA68     		ldr	r2, [r3, #12]
 142 0026 1B69     		ldr	r3, [r3, #16]
 143              	.LVL6:
 144              		.loc 1 154 5 is_stmt 0 view .LVU19
 145 0028 0168     		ldr	r1, [r0]
 146 002a 42EA0343 		orr	r3, r2, r3, lsl #16
 147 002e C1F80439 		str	r3, [r1, #2308]
 148              	.L7:
 155:../../Drivers/STM32H7xx_HAL_Driver/Src/stm32h7xx_hal_eth_ex.c **** 
 156:../../Drivers/STM32H7xx_HAL_Driver/Src/stm32h7xx_hal_eth_ex.c ****   }
 157:../../Drivers/STM32H7xx_HAL_Driver/Src/stm32h7xx_hal_eth_ex.c ****   else /* Filter == ETH_L4_FILTER_1 */
 158:../../Drivers/STM32H7xx_HAL_Driver/Src/stm32h7xx_hal_eth_ex.c ****   {
 159:../../Drivers/STM32H7xx_HAL_Driver/Src/stm32h7xx_hal_eth_ex.c ****     /* Write configuration to MACL3L4C1R register */
 160:../../Drivers/STM32H7xx_HAL_Driver/Src/stm32h7xx_hal_eth_ex.c ****     MODIFY_REG(heth->Instance->MACL3L4C1R, ETH_MACL4CR_MASK, (pL4FilterConfig->Protocol |
 161:../../Drivers/STM32H7xx_HAL_Driver/Src/stm32h7xx_hal_eth_ex.c ****                                                               pL4FilterConfig->SrcPortFilterMatch |
 162:../../Drivers/STM32H7xx_HAL_Driver/Src/stm32h7xx_hal_eth_ex.c ****                                                               pL4FilterConfig->DestPortFilterMatch)
 163:../../Drivers/STM32H7xx_HAL_Driver/Src/stm32h7xx_hal_eth_ex.c **** 
 164:../../Drivers/STM32H7xx_HAL_Driver/Src/stm32h7xx_hal_eth_ex.c ****     /* Write configuration to MACL4A1R register */
 165:../../Drivers/STM32H7xx_HAL_Driver/Src/stm32h7xx_hal_eth_ex.c ****     WRITE_REG(heth->Instance->MACL4A1R, (pL4FilterConfig->SourcePort | (pL4FilterConfig->Destinatio
 166:../../Drivers/STM32H7xx_HAL_Driver/Src/stm32h7xx_hal_eth_ex.c ****   }
 167:../../Drivers/STM32H7xx_HAL_Driver/Src/stm32h7xx_hal_eth_ex.c **** 
 168:../../Drivers/STM32H7xx_HAL_Driver/Src/stm32h7xx_hal_eth_ex.c ****   /* Enable L4 filter */
 169:../../Drivers/STM32H7xx_HAL_Driver/Src/stm32h7xx_hal_eth_ex.c ****   SET_BIT(heth->Instance->MACPFR, ETH_MACPFR_IPFE);
 149              		.loc 1 169 3 is_stmt 1 view .LVU20
 150 0032 0268     		ldr	r2, [r0]
 151 0034 9368     		ldr	r3, [r2, #8]
 152 0036 43F48013 		orr	r3, r3, #1048576
 153 003a 9360     		str	r3, [r2, #8]
 170:../../Drivers/STM32H7xx_HAL_Driver/Src/stm32h7xx_hal_eth_ex.c **** 
 171:../../Drivers/STM32H7xx_HAL_Driver/Src/stm32h7xx_hal_eth_ex.c ****   return HAL_OK;
 154              		.loc 1 171 3 view .LVU21
 155              		.loc 1 171 10 is_stmt 0 view .LVU22
 156 003c 0020     		movs	r0, #0
 157              	.LVL7:
 172:../../Drivers/STM32H7xx_HAL_Driver/Src/stm32h7xx_hal_eth_ex.c **** }
 158              		.loc 1 172 1 view .LVU23
 159 003e 30BC     		pop	{r4, r5}
 160              	.LCFI1:
 161              		.cfi_remember_state
 162              		.cfi_restore 5
 163              		.cfi_restore 4
 164              		.cfi_def_cfa_offset 0
 165 0040 7047     		bx	lr
 166              	.LVL8:
 167              	.L6:
 168              	.LCFI2:
 169              		.cfi_restore_state
 160:../../Drivers/STM32H7xx_HAL_Driver/Src/stm32h7xx_hal_eth_ex.c ****                                                               pL4FilterConfig->SrcPortFilterMatch |
 170              		.loc 1 160 5 is_stmt 1 view .LVU24
 171 0042 0468     		ldr	r4, [r0]
 172 0044 D4F83029 		ldr	r2, [r4, #2352]
 173              	.LVL9:
 160:../../Drivers/STM32H7xx_HAL_Driver/Src/stm32h7xx_hal_eth_ex.c ****                                                               pL4FilterConfig->SrcPortFilterMatch |
 174              		.loc 1 160 5 is_stmt 0 view .LVU25
ARM GAS  /tmp/ccIOaCu9.s 			page 7


 175 0048 22F47412 		bic	r2, r2, #3997696
 176 004c 1968     		ldr	r1, [r3]
 177              	.LVL10:
 160:../../Drivers/STM32H7xx_HAL_Driver/Src/stm32h7xx_hal_eth_ex.c ****                                                               pL4FilterConfig->SrcPortFilterMatch |
 178              		.loc 1 160 5 view .LVU26
 179 004e 5D68     		ldr	r5, [r3, #4]
 180 0050 2943     		orrs	r1, r1, r5
 181 0052 9D68     		ldr	r5, [r3, #8]
 182 0054 2943     		orrs	r1, r1, r5
 183 0056 0A43     		orrs	r2, r2, r1
 184 0058 C4F83029 		str	r2, [r4, #2352]
 165:../../Drivers/STM32H7xx_HAL_Driver/Src/stm32h7xx_hal_eth_ex.c ****   }
 185              		.loc 1 165 5 is_stmt 1 view .LVU27
 186 005c DA68     		ldr	r2, [r3, #12]
 187 005e 1B69     		ldr	r3, [r3, #16]
 188              	.LVL11:
 165:../../Drivers/STM32H7xx_HAL_Driver/Src/stm32h7xx_hal_eth_ex.c ****   }
 189              		.loc 1 165 5 is_stmt 0 view .LVU28
 190 0060 0168     		ldr	r1, [r0]
 191 0062 42EA0343 		orr	r3, r2, r3, lsl #16
 192 0066 C1F83439 		str	r3, [r1, #2356]
 193 006a E2E7     		b	.L7
 194              	.LVL12:
 195              	.L8:
 196              	.LCFI3:
 197              		.cfi_def_cfa_offset 0
 198              		.cfi_restore 4
 199              		.cfi_restore 5
 143:../../Drivers/STM32H7xx_HAL_Driver/Src/stm32h7xx_hal_eth_ex.c ****   }
 200              		.loc 1 143 12 view .LVU29
 201 006c 0120     		movs	r0, #1
 202              	.LVL13:
 203              		.loc 1 172 1 view .LVU30
 204 006e 7047     		bx	lr
 205              		.cfi_endproc
 206              	.LFE326:
 208              		.section	.text.HAL_ETHEx_GetL4FilterConfig,"ax",%progbits
 209              		.align	1
 210              		.global	HAL_ETHEx_GetL4FilterConfig
 211              		.syntax unified
 212              		.thumb
 213              		.thumb_func
 214              		.fpu fpv4-sp-d16
 216              	HAL_ETHEx_GetL4FilterConfig:
 217              	.LVL14:
 218              	.LFB327:
 173:../../Drivers/STM32H7xx_HAL_Driver/Src/stm32h7xx_hal_eth_ex.c **** 
 174:../../Drivers/STM32H7xx_HAL_Driver/Src/stm32h7xx_hal_eth_ex.c **** /**
 175:../../Drivers/STM32H7xx_HAL_Driver/Src/stm32h7xx_hal_eth_ex.c ****   * @brief  Configures the L4 Filter, this function allow to:
 176:../../Drivers/STM32H7xx_HAL_Driver/Src/stm32h7xx_hal_eth_ex.c ****   *         set the layer 4 protocol to be matched (TCP or UDP)
 177:../../Drivers/STM32H7xx_HAL_Driver/Src/stm32h7xx_hal_eth_ex.c ****   *         enable/disable L4 source/destination port perfect/inverse match.
 178:../../Drivers/STM32H7xx_HAL_Driver/Src/stm32h7xx_hal_eth_ex.c ****   * @param  heth: pointer to a ETH_HandleTypeDef structure that contains
 179:../../Drivers/STM32H7xx_HAL_Driver/Src/stm32h7xx_hal_eth_ex.c ****   *         the configuration information for ETHERNET module
 180:../../Drivers/STM32H7xx_HAL_Driver/Src/stm32h7xx_hal_eth_ex.c ****   * @param  Filter: L4 filter to configured, this parameter must be one of the following
 181:../../Drivers/STM32H7xx_HAL_Driver/Src/stm32h7xx_hal_eth_ex.c ****   *           ETH_L4_FILTER_0
 182:../../Drivers/STM32H7xx_HAL_Driver/Src/stm32h7xx_hal_eth_ex.c ****   *           ETH_L4_FILTER_1
 183:../../Drivers/STM32H7xx_HAL_Driver/Src/stm32h7xx_hal_eth_ex.c ****   * @param  pL4FilterConfig: pointer to a ETH_L4FilterConfigTypeDef structure
ARM GAS  /tmp/ccIOaCu9.s 			page 8


 184:../../Drivers/STM32H7xx_HAL_Driver/Src/stm32h7xx_hal_eth_ex.c ****   *         that contains L4 filter configuration.
 185:../../Drivers/STM32H7xx_HAL_Driver/Src/stm32h7xx_hal_eth_ex.c ****   * @retval HAL status
 186:../../Drivers/STM32H7xx_HAL_Driver/Src/stm32h7xx_hal_eth_ex.c ****   */
 187:../../Drivers/STM32H7xx_HAL_Driver/Src/stm32h7xx_hal_eth_ex.c **** HAL_StatusTypeDef HAL_ETHEx_GetL4FilterConfig(const ETH_HandleTypeDef *heth, uint32_t Filter,
 188:../../Drivers/STM32H7xx_HAL_Driver/Src/stm32h7xx_hal_eth_ex.c ****                                               ETH_L4FilterConfigTypeDef *pL4FilterConfig)
 189:../../Drivers/STM32H7xx_HAL_Driver/Src/stm32h7xx_hal_eth_ex.c **** {
 219              		.loc 1 189 1 is_stmt 1 view -0
 220              		.cfi_startproc
 221              		@ args = 0, pretend = 0, frame = 0
 222              		@ frame_needed = 0, uses_anonymous_args = 0
 223              		@ link register save eliminated.
 190:../../Drivers/STM32H7xx_HAL_Driver/Src/stm32h7xx_hal_eth_ex.c ****   if (pL4FilterConfig == NULL)
 224              		.loc 1 190 3 view .LVU32
 225              		.loc 1 190 6 is_stmt 0 view .LVU33
 226 0000 1346     		mov	r3, r2
 227 0002 002A     		cmp	r2, #0
 228 0004 3CD0     		beq	.L16
 191:../../Drivers/STM32H7xx_HAL_Driver/Src/stm32h7xx_hal_eth_ex.c ****   {
 192:../../Drivers/STM32H7xx_HAL_Driver/Src/stm32h7xx_hal_eth_ex.c ****     return HAL_ERROR;
 193:../../Drivers/STM32H7xx_HAL_Driver/Src/stm32h7xx_hal_eth_ex.c ****   }
 194:../../Drivers/STM32H7xx_HAL_Driver/Src/stm32h7xx_hal_eth_ex.c **** 
 195:../../Drivers/STM32H7xx_HAL_Driver/Src/stm32h7xx_hal_eth_ex.c ****   if (Filter == ETH_L4_FILTER_0)
 229              		.loc 1 195 3 is_stmt 1 view .LVU34
 230              		.loc 1 195 6 is_stmt 0 view .LVU35
 231 0006 E9B9     		cbnz	r1, .L15
 196:../../Drivers/STM32H7xx_HAL_Driver/Src/stm32h7xx_hal_eth_ex.c ****   {
 197:../../Drivers/STM32H7xx_HAL_Driver/Src/stm32h7xx_hal_eth_ex.c ****     /* Get configuration from MACL3L4C0R register */
 198:../../Drivers/STM32H7xx_HAL_Driver/Src/stm32h7xx_hal_eth_ex.c ****     pL4FilterConfig->Protocol = READ_BIT(heth->Instance->MACL3L4C0R, ETH_MACL3L4CR_L4PEN);
 232              		.loc 1 198 5 is_stmt 1 view .LVU36
 233              		.loc 1 198 33 is_stmt 0 view .LVU37
 234 0008 0268     		ldr	r2, [r0]
 235              	.LVL15:
 236              		.loc 1 198 33 view .LVU38
 237 000a D2F80029 		ldr	r2, [r2, #2304]
 238 000e 02F48032 		and	r2, r2, #65536
 239              		.loc 1 198 31 view .LVU39
 240 0012 1A60     		str	r2, [r3]
 199:../../Drivers/STM32H7xx_HAL_Driver/Src/stm32h7xx_hal_eth_ex.c ****     pL4FilterConfig->DestPortFilterMatch = READ_BIT(heth->Instance->MACL3L4C0R,
 241              		.loc 1 199 5 is_stmt 1 view .LVU40
 242              		.loc 1 199 44 is_stmt 0 view .LVU41
 243 0014 0268     		ldr	r2, [r0]
 244 0016 D2F80029 		ldr	r2, [r2, #2304]
 245 001a 02F44012 		and	r2, r2, #3145728
 246              		.loc 1 199 42 view .LVU42
 247 001e 9A60     		str	r2, [r3, #8]
 200:../../Drivers/STM32H7xx_HAL_Driver/Src/stm32h7xx_hal_eth_ex.c ****                                                     (ETH_MACL3L4CR_L4DPM | ETH_MACL3L4CR_L4DPIM));
 201:../../Drivers/STM32H7xx_HAL_Driver/Src/stm32h7xx_hal_eth_ex.c ****     pL4FilterConfig->SrcPortFilterMatch = READ_BIT(heth->Instance->MACL3L4C0R,
 248              		.loc 1 201 5 is_stmt 1 view .LVU43
 249              		.loc 1 201 43 is_stmt 0 view .LVU44
 250 0020 0268     		ldr	r2, [r0]
 251 0022 D2F80029 		ldr	r2, [r2, #2304]
 252 0026 02F44022 		and	r2, r2, #786432
 253              		.loc 1 201 41 view .LVU45
 254 002a 5A60     		str	r2, [r3, #4]
 202:../../Drivers/STM32H7xx_HAL_Driver/Src/stm32h7xx_hal_eth_ex.c ****                                                    (ETH_MACL3L4CR_L4SPM | ETH_MACL3L4CR_L4SPIM));
 203:../../Drivers/STM32H7xx_HAL_Driver/Src/stm32h7xx_hal_eth_ex.c **** 
 204:../../Drivers/STM32H7xx_HAL_Driver/Src/stm32h7xx_hal_eth_ex.c ****     /* Get configuration from MACL4A0R register */
ARM GAS  /tmp/ccIOaCu9.s 			page 9


 205:../../Drivers/STM32H7xx_HAL_Driver/Src/stm32h7xx_hal_eth_ex.c ****     pL4FilterConfig->DestinationPort = (READ_BIT(heth->Instance->MACL4A0R, ETH_MAC_L4_DSTP_MASK) >>
 255              		.loc 1 205 5 is_stmt 1 view .LVU46
 256              		.loc 1 205 41 is_stmt 0 view .LVU47
 257 002c 0268     		ldr	r2, [r0]
 258 002e D2F80429 		ldr	r2, [r2, #2308]
 259              		.loc 1 205 98 view .LVU48
 260 0032 120C     		lsrs	r2, r2, #16
 261              		.loc 1 205 38 view .LVU49
 262 0034 1A61     		str	r2, [r3, #16]
 206:../../Drivers/STM32H7xx_HAL_Driver/Src/stm32h7xx_hal_eth_ex.c ****     pL4FilterConfig->SourcePort = READ_BIT(heth->Instance->MACL4A0R, ETH_MAC_L4_SRSP_MASK);
 263              		.loc 1 206 5 is_stmt 1 view .LVU50
 264              		.loc 1 206 35 is_stmt 0 view .LVU51
 265 0036 0268     		ldr	r2, [r0]
 266 0038 D2F80429 		ldr	r2, [r2, #2308]
 267 003c 92B2     		uxth	r2, r2
 268              		.loc 1 206 33 view .LVU52
 269 003e DA60     		str	r2, [r3, #12]
 207:../../Drivers/STM32H7xx_HAL_Driver/Src/stm32h7xx_hal_eth_ex.c ****   }
 208:../../Drivers/STM32H7xx_HAL_Driver/Src/stm32h7xx_hal_eth_ex.c ****   else /* Filter == ETH_L4_FILTER_1 */
 209:../../Drivers/STM32H7xx_HAL_Driver/Src/stm32h7xx_hal_eth_ex.c ****   {
 210:../../Drivers/STM32H7xx_HAL_Driver/Src/stm32h7xx_hal_eth_ex.c ****     /* Get configuration from MACL3L4C1R register */
 211:../../Drivers/STM32H7xx_HAL_Driver/Src/stm32h7xx_hal_eth_ex.c ****     pL4FilterConfig->Protocol = READ_BIT(heth->Instance->MACL3L4C1R, ETH_MACL3L4CR_L4PEN);
 212:../../Drivers/STM32H7xx_HAL_Driver/Src/stm32h7xx_hal_eth_ex.c ****     pL4FilterConfig->DestPortFilterMatch = READ_BIT(heth->Instance->MACL3L4C1R,
 213:../../Drivers/STM32H7xx_HAL_Driver/Src/stm32h7xx_hal_eth_ex.c ****                                                     (ETH_MACL3L4CR_L4DPM | ETH_MACL3L4CR_L4DPIM));
 214:../../Drivers/STM32H7xx_HAL_Driver/Src/stm32h7xx_hal_eth_ex.c ****     pL4FilterConfig->SrcPortFilterMatch = READ_BIT(heth->Instance->MACL3L4C1R,
 215:../../Drivers/STM32H7xx_HAL_Driver/Src/stm32h7xx_hal_eth_ex.c ****                                                    (ETH_MACL3L4CR_L4SPM | ETH_MACL3L4CR_L4SPIM));
 216:../../Drivers/STM32H7xx_HAL_Driver/Src/stm32h7xx_hal_eth_ex.c **** 
 217:../../Drivers/STM32H7xx_HAL_Driver/Src/stm32h7xx_hal_eth_ex.c ****     /* Get configuration from MACL4A1R register */
 218:../../Drivers/STM32H7xx_HAL_Driver/Src/stm32h7xx_hal_eth_ex.c ****     pL4FilterConfig->DestinationPort = (READ_BIT(heth->Instance->MACL4A1R, ETH_MAC_L4_DSTP_MASK) >>
 219:../../Drivers/STM32H7xx_HAL_Driver/Src/stm32h7xx_hal_eth_ex.c ****     pL4FilterConfig->SourcePort = READ_BIT(heth->Instance->MACL4A1R, ETH_MAC_L4_SRSP_MASK);
 220:../../Drivers/STM32H7xx_HAL_Driver/Src/stm32h7xx_hal_eth_ex.c ****   }
 221:../../Drivers/STM32H7xx_HAL_Driver/Src/stm32h7xx_hal_eth_ex.c **** 
 222:../../Drivers/STM32H7xx_HAL_Driver/Src/stm32h7xx_hal_eth_ex.c ****   return HAL_OK;
 270              		.loc 1 222 10 view .LVU53
 271 0040 0020     		movs	r0, #0
 272              	.LVL16:
 273              		.loc 1 222 10 view .LVU54
 274 0042 7047     		bx	lr
 275              	.LVL17:
 276              	.L15:
 211:../../Drivers/STM32H7xx_HAL_Driver/Src/stm32h7xx_hal_eth_ex.c ****     pL4FilterConfig->DestPortFilterMatch = READ_BIT(heth->Instance->MACL3L4C1R,
 277              		.loc 1 211 5 is_stmt 1 view .LVU55
 211:../../Drivers/STM32H7xx_HAL_Driver/Src/stm32h7xx_hal_eth_ex.c ****     pL4FilterConfig->DestPortFilterMatch = READ_BIT(heth->Instance->MACL3L4C1R,
 278              		.loc 1 211 33 is_stmt 0 view .LVU56
 279 0044 0268     		ldr	r2, [r0]
 280              	.LVL18:
 211:../../Drivers/STM32H7xx_HAL_Driver/Src/stm32h7xx_hal_eth_ex.c ****     pL4FilterConfig->DestPortFilterMatch = READ_BIT(heth->Instance->MACL3L4C1R,
 281              		.loc 1 211 33 view .LVU57
 282 0046 D2F83029 		ldr	r2, [r2, #2352]
 283 004a 02F48032 		and	r2, r2, #65536
 211:../../Drivers/STM32H7xx_HAL_Driver/Src/stm32h7xx_hal_eth_ex.c ****     pL4FilterConfig->DestPortFilterMatch = READ_BIT(heth->Instance->MACL3L4C1R,
 284              		.loc 1 211 31 view .LVU58
 285 004e 1A60     		str	r2, [r3]
 212:../../Drivers/STM32H7xx_HAL_Driver/Src/stm32h7xx_hal_eth_ex.c ****                                                     (ETH_MACL3L4CR_L4DPM | ETH_MACL3L4CR_L4DPIM));
 286              		.loc 1 212 5 is_stmt 1 view .LVU59
 212:../../Drivers/STM32H7xx_HAL_Driver/Src/stm32h7xx_hal_eth_ex.c ****                                                     (ETH_MACL3L4CR_L4DPM | ETH_MACL3L4CR_L4DPIM));
 287              		.loc 1 212 44 is_stmt 0 view .LVU60
ARM GAS  /tmp/ccIOaCu9.s 			page 10


 288 0050 0268     		ldr	r2, [r0]
 289 0052 D2F83029 		ldr	r2, [r2, #2352]
 290 0056 02F44012 		and	r2, r2, #3145728
 212:../../Drivers/STM32H7xx_HAL_Driver/Src/stm32h7xx_hal_eth_ex.c ****                                                     (ETH_MACL3L4CR_L4DPM | ETH_MACL3L4CR_L4DPIM));
 291              		.loc 1 212 42 view .LVU61
 292 005a 9A60     		str	r2, [r3, #8]
 214:../../Drivers/STM32H7xx_HAL_Driver/Src/stm32h7xx_hal_eth_ex.c ****                                                    (ETH_MACL3L4CR_L4SPM | ETH_MACL3L4CR_L4SPIM));
 293              		.loc 1 214 5 is_stmt 1 view .LVU62
 214:../../Drivers/STM32H7xx_HAL_Driver/Src/stm32h7xx_hal_eth_ex.c ****                                                    (ETH_MACL3L4CR_L4SPM | ETH_MACL3L4CR_L4SPIM));
 294              		.loc 1 214 43 is_stmt 0 view .LVU63
 295 005c 0268     		ldr	r2, [r0]
 296 005e D2F83029 		ldr	r2, [r2, #2352]
 297 0062 02F44022 		and	r2, r2, #786432
 214:../../Drivers/STM32H7xx_HAL_Driver/Src/stm32h7xx_hal_eth_ex.c ****                                                    (ETH_MACL3L4CR_L4SPM | ETH_MACL3L4CR_L4SPIM));
 298              		.loc 1 214 41 view .LVU64
 299 0066 5A60     		str	r2, [r3, #4]
 218:../../Drivers/STM32H7xx_HAL_Driver/Src/stm32h7xx_hal_eth_ex.c ****     pL4FilterConfig->SourcePort = READ_BIT(heth->Instance->MACL4A1R, ETH_MAC_L4_SRSP_MASK);
 300              		.loc 1 218 5 is_stmt 1 view .LVU65
 218:../../Drivers/STM32H7xx_HAL_Driver/Src/stm32h7xx_hal_eth_ex.c ****     pL4FilterConfig->SourcePort = READ_BIT(heth->Instance->MACL4A1R, ETH_MAC_L4_SRSP_MASK);
 301              		.loc 1 218 41 is_stmt 0 view .LVU66
 302 0068 0268     		ldr	r2, [r0]
 303 006a D2F83429 		ldr	r2, [r2, #2356]
 218:../../Drivers/STM32H7xx_HAL_Driver/Src/stm32h7xx_hal_eth_ex.c ****     pL4FilterConfig->SourcePort = READ_BIT(heth->Instance->MACL4A1R, ETH_MAC_L4_SRSP_MASK);
 304              		.loc 1 218 98 view .LVU67
 305 006e 120C     		lsrs	r2, r2, #16
 218:../../Drivers/STM32H7xx_HAL_Driver/Src/stm32h7xx_hal_eth_ex.c ****     pL4FilterConfig->SourcePort = READ_BIT(heth->Instance->MACL4A1R, ETH_MAC_L4_SRSP_MASK);
 306              		.loc 1 218 38 view .LVU68
 307 0070 1A61     		str	r2, [r3, #16]
 219:../../Drivers/STM32H7xx_HAL_Driver/Src/stm32h7xx_hal_eth_ex.c ****   }
 308              		.loc 1 219 5 is_stmt 1 view .LVU69
 219:../../Drivers/STM32H7xx_HAL_Driver/Src/stm32h7xx_hal_eth_ex.c ****   }
 309              		.loc 1 219 35 is_stmt 0 view .LVU70
 310 0072 0268     		ldr	r2, [r0]
 311 0074 D2F83429 		ldr	r2, [r2, #2356]
 312 0078 92B2     		uxth	r2, r2
 219:../../Drivers/STM32H7xx_HAL_Driver/Src/stm32h7xx_hal_eth_ex.c ****   }
 313              		.loc 1 219 33 view .LVU71
 314 007a DA60     		str	r2, [r3, #12]
 315              		.loc 1 222 10 view .LVU72
 316 007c 0020     		movs	r0, #0
 317              	.LVL19:
 318              		.loc 1 222 10 view .LVU73
 319 007e 7047     		bx	lr
 320              	.LVL20:
 321              	.L16:
 192:../../Drivers/STM32H7xx_HAL_Driver/Src/stm32h7xx_hal_eth_ex.c ****   }
 322              		.loc 1 192 12 view .LVU74
 323 0080 0120     		movs	r0, #1
 324              	.LVL21:
 223:../../Drivers/STM32H7xx_HAL_Driver/Src/stm32h7xx_hal_eth_ex.c **** }
 325              		.loc 1 223 1 view .LVU75
 326 0082 7047     		bx	lr
 327              		.cfi_endproc
 328              	.LFE327:
 330              		.section	.text.HAL_ETHEx_SetL3FilterConfig,"ax",%progbits
 331              		.align	1
 332              		.global	HAL_ETHEx_SetL3FilterConfig
ARM GAS  /tmp/ccIOaCu9.s 			page 11


 333              		.syntax unified
 334              		.thumb
 335              		.thumb_func
 336              		.fpu fpv4-sp-d16
 338              	HAL_ETHEx_SetL3FilterConfig:
 339              	.LVL22:
 340              	.LFB328:
 224:../../Drivers/STM32H7xx_HAL_Driver/Src/stm32h7xx_hal_eth_ex.c **** 
 225:../../Drivers/STM32H7xx_HAL_Driver/Src/stm32h7xx_hal_eth_ex.c **** /**
 226:../../Drivers/STM32H7xx_HAL_Driver/Src/stm32h7xx_hal_eth_ex.c ****   * @brief  Configures the L3 Filter, this function allow to:
 227:../../Drivers/STM32H7xx_HAL_Driver/Src/stm32h7xx_hal_eth_ex.c ****   *         set the layer 3 protocol to be matched (IPv4 or IPv6)
 228:../../Drivers/STM32H7xx_HAL_Driver/Src/stm32h7xx_hal_eth_ex.c ****   *         enable/disable L3 source/destination port perfect/inverse match.
 229:../../Drivers/STM32H7xx_HAL_Driver/Src/stm32h7xx_hal_eth_ex.c ****   * @param  heth: pointer to a ETH_HandleTypeDef structure that contains
 230:../../Drivers/STM32H7xx_HAL_Driver/Src/stm32h7xx_hal_eth_ex.c ****   *         the configuration information for ETHERNET module
 231:../../Drivers/STM32H7xx_HAL_Driver/Src/stm32h7xx_hal_eth_ex.c ****   * @param  Filter: L3 filter to configured, this parameter must be one of the following
 232:../../Drivers/STM32H7xx_HAL_Driver/Src/stm32h7xx_hal_eth_ex.c ****   *           ETH_L3_FILTER_0
 233:../../Drivers/STM32H7xx_HAL_Driver/Src/stm32h7xx_hal_eth_ex.c ****   *           ETH_L3_FILTER_1
 234:../../Drivers/STM32H7xx_HAL_Driver/Src/stm32h7xx_hal_eth_ex.c ****   * @param  pL3FilterConfig: pointer to a ETH_L3FilterConfigTypeDef structure
 235:../../Drivers/STM32H7xx_HAL_Driver/Src/stm32h7xx_hal_eth_ex.c ****   *         that contains L3 filter configuration.
 236:../../Drivers/STM32H7xx_HAL_Driver/Src/stm32h7xx_hal_eth_ex.c ****   * @retval HAL status
 237:../../Drivers/STM32H7xx_HAL_Driver/Src/stm32h7xx_hal_eth_ex.c ****   */
 238:../../Drivers/STM32H7xx_HAL_Driver/Src/stm32h7xx_hal_eth_ex.c **** HAL_StatusTypeDef HAL_ETHEx_SetL3FilterConfig(ETH_HandleTypeDef *heth, uint32_t Filter,
 239:../../Drivers/STM32H7xx_HAL_Driver/Src/stm32h7xx_hal_eth_ex.c ****                                               const ETH_L3FilterConfigTypeDef *pL3FilterConfig)
 240:../../Drivers/STM32H7xx_HAL_Driver/Src/stm32h7xx_hal_eth_ex.c **** {
 341              		.loc 1 240 1 is_stmt 1 view -0
 342              		.cfi_startproc
 343              		@ args = 0, pretend = 0, frame = 0
 344              		@ frame_needed = 0, uses_anonymous_args = 0
 345              		@ link register save eliminated.
 241:../../Drivers/STM32H7xx_HAL_Driver/Src/stm32h7xx_hal_eth_ex.c ****   if (pL3FilterConfig == NULL)
 346              		.loc 1 241 3 view .LVU77
 347              		.loc 1 241 6 is_stmt 0 view .LVU78
 348 0000 002A     		cmp	r2, #0
 349 0002 6BD0     		beq	.L25
 240:../../Drivers/STM32H7xx_HAL_Driver/Src/stm32h7xx_hal_eth_ex.c ****   if (pL3FilterConfig == NULL)
 350              		.loc 1 240 1 view .LVU79
 351 0004 70B4     		push	{r4, r5, r6}
 352              	.LCFI4:
 353              		.cfi_def_cfa_offset 12
 354              		.cfi_offset 4, -12
 355              		.cfi_offset 5, -8
 356              		.cfi_offset 6, -4
 357 0006 1346     		mov	r3, r2
 242:../../Drivers/STM32H7xx_HAL_Driver/Src/stm32h7xx_hal_eth_ex.c ****   {
 243:../../Drivers/STM32H7xx_HAL_Driver/Src/stm32h7xx_hal_eth_ex.c ****     return HAL_ERROR;
 244:../../Drivers/STM32H7xx_HAL_Driver/Src/stm32h7xx_hal_eth_ex.c ****   }
 245:../../Drivers/STM32H7xx_HAL_Driver/Src/stm32h7xx_hal_eth_ex.c **** 
 246:../../Drivers/STM32H7xx_HAL_Driver/Src/stm32h7xx_hal_eth_ex.c ****   if (Filter == ETH_L3_FILTER_0)
 358              		.loc 1 246 3 is_stmt 1 view .LVU80
 359              		.loc 1 246 6 is_stmt 0 view .LVU81
 360 0008 0029     		cmp	r1, #0
 361 000a 2ED1     		bne	.L19
 247:../../Drivers/STM32H7xx_HAL_Driver/Src/stm32h7xx_hal_eth_ex.c ****   {
 248:../../Drivers/STM32H7xx_HAL_Driver/Src/stm32h7xx_hal_eth_ex.c ****     /* Write configuration to MACL3L4C0R register */
 249:../../Drivers/STM32H7xx_HAL_Driver/Src/stm32h7xx_hal_eth_ex.c ****     MODIFY_REG(heth->Instance->MACL3L4C0R, ETH_MACL3CR_MASK, (pL3FilterConfig->Protocol |
 362              		.loc 1 249 5 is_stmt 1 view .LVU82
 363 000c 0568     		ldr	r5, [r0]
ARM GAS  /tmp/ccIOaCu9.s 			page 12


 364 000e D5F80029 		ldr	r2, [r5, #2304]
 365              	.LVL23:
 366              		.loc 1 249 5 is_stmt 0 view .LVU83
 367 0012 334C     		ldr	r4, .L30
 368 0014 1440     		ands	r4, r4, r2
 369 0016 1A68     		ldr	r2, [r3]
 370 0018 5E68     		ldr	r6, [r3, #4]
 371 001a 3243     		orrs	r2, r2, r6
 372 001c 9E68     		ldr	r6, [r3, #8]
 373 001e 3243     		orrs	r2, r2, r6
 374 0020 DE68     		ldr	r6, [r3, #12]
 375 0022 42EA8612 		orr	r2, r2, r6, lsl #6
 376 0026 1E69     		ldr	r6, [r3, #16]
 377 0028 42EAC622 		orr	r2, r2, r6, lsl #11
 378 002c 2243     		orrs	r2, r2, r4
 379 002e C5F80029 		str	r2, [r5, #2304]
 380              	.L20:
 250:../../Drivers/STM32H7xx_HAL_Driver/Src/stm32h7xx_hal_eth_ex.c ****                                                               pL3FilterConfig->SrcAddrFilterMatch |
 251:../../Drivers/STM32H7xx_HAL_Driver/Src/stm32h7xx_hal_eth_ex.c ****                                                               pL3FilterConfig->DestAddrFilterMatch 
 252:../../Drivers/STM32H7xx_HAL_Driver/Src/stm32h7xx_hal_eth_ex.c ****                                                               (pL3FilterConfig->SrcAddrHigherBitsMa
 253:../../Drivers/STM32H7xx_HAL_Driver/Src/stm32h7xx_hal_eth_ex.c ****                                                               (pL3FilterConfig->DestAddrHigherBitsM
 254:../../Drivers/STM32H7xx_HAL_Driver/Src/stm32h7xx_hal_eth_ex.c ****   }
 255:../../Drivers/STM32H7xx_HAL_Driver/Src/stm32h7xx_hal_eth_ex.c ****   else  /* Filter == ETH_L3_FILTER_1 */
 256:../../Drivers/STM32H7xx_HAL_Driver/Src/stm32h7xx_hal_eth_ex.c ****   {
 257:../../Drivers/STM32H7xx_HAL_Driver/Src/stm32h7xx_hal_eth_ex.c ****     /* Write configuration to MACL3L4C1R register */
 258:../../Drivers/STM32H7xx_HAL_Driver/Src/stm32h7xx_hal_eth_ex.c ****     MODIFY_REG(heth->Instance->MACL3L4C1R, ETH_MACL3CR_MASK, (pL3FilterConfig->Protocol |
 259:../../Drivers/STM32H7xx_HAL_Driver/Src/stm32h7xx_hal_eth_ex.c ****                                                               pL3FilterConfig->SrcAddrFilterMatch |
 260:../../Drivers/STM32H7xx_HAL_Driver/Src/stm32h7xx_hal_eth_ex.c ****                                                               pL3FilterConfig->DestAddrFilterMatch 
 261:../../Drivers/STM32H7xx_HAL_Driver/Src/stm32h7xx_hal_eth_ex.c ****                                                               (pL3FilterConfig->SrcAddrHigherBitsMa
 262:../../Drivers/STM32H7xx_HAL_Driver/Src/stm32h7xx_hal_eth_ex.c ****                                                               (pL3FilterConfig->DestAddrHigherBitsM
 263:../../Drivers/STM32H7xx_HAL_Driver/Src/stm32h7xx_hal_eth_ex.c ****   }
 264:../../Drivers/STM32H7xx_HAL_Driver/Src/stm32h7xx_hal_eth_ex.c **** 
 265:../../Drivers/STM32H7xx_HAL_Driver/Src/stm32h7xx_hal_eth_ex.c ****   if (Filter == ETH_L3_FILTER_0)
 381              		.loc 1 265 3 is_stmt 1 view .LVU84
 382              		.loc 1 265 6 is_stmt 0 view .LVU85
 383 0032 0029     		cmp	r1, #0
 384 0034 36D1     		bne	.L21
 266:../../Drivers/STM32H7xx_HAL_Driver/Src/stm32h7xx_hal_eth_ex.c ****   {
 267:../../Drivers/STM32H7xx_HAL_Driver/Src/stm32h7xx_hal_eth_ex.c ****     /* Check if IPv6 protocol is selected */
 268:../../Drivers/STM32H7xx_HAL_Driver/Src/stm32h7xx_hal_eth_ex.c ****     if (pL3FilterConfig->Protocol != ETH_L3_IPV4_MATCH)
 385              		.loc 1 268 5 is_stmt 1 view .LVU86
 386              		.loc 1 268 24 is_stmt 0 view .LVU87
 387 0036 1A68     		ldr	r2, [r3]
 388              		.loc 1 268 8 view .LVU88
 389 0038 5AB3     		cbz	r2, .L22
 269:../../Drivers/STM32H7xx_HAL_Driver/Src/stm32h7xx_hal_eth_ex.c ****     {
 270:../../Drivers/STM32H7xx_HAL_Driver/Src/stm32h7xx_hal_eth_ex.c ****       /* Set the IPv6 address match */
 271:../../Drivers/STM32H7xx_HAL_Driver/Src/stm32h7xx_hal_eth_ex.c ****       /* Set Bits[31:0] of 128-bit IP addr */
 272:../../Drivers/STM32H7xx_HAL_Driver/Src/stm32h7xx_hal_eth_ex.c ****       WRITE_REG(heth->Instance->MACL3A0R0R, pL3FilterConfig->Ip6Addr[0]);
 390              		.loc 1 272 7 is_stmt 1 view .LVU89
 391 003a 0268     		ldr	r2, [r0]
 392 003c D969     		ldr	r1, [r3, #28]
 393              	.LVL24:
 394              		.loc 1 272 7 is_stmt 0 view .LVU90
 395 003e C2F81019 		str	r1, [r2, #2320]
 273:../../Drivers/STM32H7xx_HAL_Driver/Src/stm32h7xx_hal_eth_ex.c ****       /* Set Bits[63:32] of 128-bit IP addr */
 274:../../Drivers/STM32H7xx_HAL_Driver/Src/stm32h7xx_hal_eth_ex.c ****       WRITE_REG(heth->Instance->MACL3A1R0R, pL3FilterConfig->Ip6Addr[1]);
ARM GAS  /tmp/ccIOaCu9.s 			page 13


 396              		.loc 1 274 7 is_stmt 1 view .LVU91
 397 0042 0268     		ldr	r2, [r0]
 398 0044 196A     		ldr	r1, [r3, #32]
 399 0046 C2F81419 		str	r1, [r2, #2324]
 275:../../Drivers/STM32H7xx_HAL_Driver/Src/stm32h7xx_hal_eth_ex.c ****       /* update Bits[95:64] of 128-bit IP addr */
 276:../../Drivers/STM32H7xx_HAL_Driver/Src/stm32h7xx_hal_eth_ex.c ****       WRITE_REG(heth->Instance->MACL3A2R0R, pL3FilterConfig->Ip6Addr[2]);
 400              		.loc 1 276 7 view .LVU92
 401 004a 0268     		ldr	r2, [r0]
 402 004c 596A     		ldr	r1, [r3, #36]
 403 004e C2F81819 		str	r1, [r2, #2328]
 277:../../Drivers/STM32H7xx_HAL_Driver/Src/stm32h7xx_hal_eth_ex.c ****       /* update Bits[127:96] of 128-bit IP addr */
 278:../../Drivers/STM32H7xx_HAL_Driver/Src/stm32h7xx_hal_eth_ex.c ****       WRITE_REG(heth->Instance->MACL3A3R0R, pL3FilterConfig->Ip6Addr[3]);
 404              		.loc 1 278 7 view .LVU93
 405 0052 0268     		ldr	r2, [r0]
 406 0054 9B6A     		ldr	r3, [r3, #40]
 407              	.LVL25:
 408              		.loc 1 278 7 is_stmt 0 view .LVU94
 409 0056 C2F81C39 		str	r3, [r2, #2332]
 410              	.L23:
 279:../../Drivers/STM32H7xx_HAL_Driver/Src/stm32h7xx_hal_eth_ex.c ****     }
 280:../../Drivers/STM32H7xx_HAL_Driver/Src/stm32h7xx_hal_eth_ex.c ****     else /* IPv4 protocol is selected */
 281:../../Drivers/STM32H7xx_HAL_Driver/Src/stm32h7xx_hal_eth_ex.c ****     {
 282:../../Drivers/STM32H7xx_HAL_Driver/Src/stm32h7xx_hal_eth_ex.c ****       /* Set the IPv4 source address match */
 283:../../Drivers/STM32H7xx_HAL_Driver/Src/stm32h7xx_hal_eth_ex.c ****       WRITE_REG(heth->Instance->MACL3A0R0R, pL3FilterConfig->Ip4SrcAddr);
 284:../../Drivers/STM32H7xx_HAL_Driver/Src/stm32h7xx_hal_eth_ex.c ****       /* Set the IPv4 destination address match */
 285:../../Drivers/STM32H7xx_HAL_Driver/Src/stm32h7xx_hal_eth_ex.c ****       WRITE_REG(heth->Instance->MACL3A1R0R, pL3FilterConfig->Ip4DestAddr);
 286:../../Drivers/STM32H7xx_HAL_Driver/Src/stm32h7xx_hal_eth_ex.c ****     }
 287:../../Drivers/STM32H7xx_HAL_Driver/Src/stm32h7xx_hal_eth_ex.c ****   }
 288:../../Drivers/STM32H7xx_HAL_Driver/Src/stm32h7xx_hal_eth_ex.c ****   else  /* Filter == ETH_L3_FILTER_1 */
 289:../../Drivers/STM32H7xx_HAL_Driver/Src/stm32h7xx_hal_eth_ex.c ****   {
 290:../../Drivers/STM32H7xx_HAL_Driver/Src/stm32h7xx_hal_eth_ex.c ****     /* Check if IPv6 protocol is selected */
 291:../../Drivers/STM32H7xx_HAL_Driver/Src/stm32h7xx_hal_eth_ex.c ****     if (pL3FilterConfig->Protocol != ETH_L3_IPV4_MATCH)
 292:../../Drivers/STM32H7xx_HAL_Driver/Src/stm32h7xx_hal_eth_ex.c ****     {
 293:../../Drivers/STM32H7xx_HAL_Driver/Src/stm32h7xx_hal_eth_ex.c ****       /* Set the IPv6 address match */
 294:../../Drivers/STM32H7xx_HAL_Driver/Src/stm32h7xx_hal_eth_ex.c ****       /* Set Bits[31:0] of 128-bit IP addr */
 295:../../Drivers/STM32H7xx_HAL_Driver/Src/stm32h7xx_hal_eth_ex.c ****       WRITE_REG(heth->Instance->MACL3A0R1R, pL3FilterConfig->Ip6Addr[0]);
 296:../../Drivers/STM32H7xx_HAL_Driver/Src/stm32h7xx_hal_eth_ex.c ****       /* Set Bits[63:32] of 128-bit IP addr */
 297:../../Drivers/STM32H7xx_HAL_Driver/Src/stm32h7xx_hal_eth_ex.c ****       WRITE_REG(heth->Instance->MACL3A1R1R, pL3FilterConfig->Ip6Addr[1]);
 298:../../Drivers/STM32H7xx_HAL_Driver/Src/stm32h7xx_hal_eth_ex.c ****       /* update Bits[95:64] of 128-bit IP addr */
 299:../../Drivers/STM32H7xx_HAL_Driver/Src/stm32h7xx_hal_eth_ex.c ****       WRITE_REG(heth->Instance->MACL3A1R1R, pL3FilterConfig->Ip6Addr[2]);
 300:../../Drivers/STM32H7xx_HAL_Driver/Src/stm32h7xx_hal_eth_ex.c ****       /* update Bits[127:96] of 128-bit IP addr */
 301:../../Drivers/STM32H7xx_HAL_Driver/Src/stm32h7xx_hal_eth_ex.c ****       WRITE_REG(heth->Instance->MACL3A1R1R, pL3FilterConfig->Ip6Addr[3]);
 302:../../Drivers/STM32H7xx_HAL_Driver/Src/stm32h7xx_hal_eth_ex.c ****     }
 303:../../Drivers/STM32H7xx_HAL_Driver/Src/stm32h7xx_hal_eth_ex.c ****     else /* IPv4 protocol is selected */
 304:../../Drivers/STM32H7xx_HAL_Driver/Src/stm32h7xx_hal_eth_ex.c ****     {
 305:../../Drivers/STM32H7xx_HAL_Driver/Src/stm32h7xx_hal_eth_ex.c ****       /* Set the IPv4 source address match */
 306:../../Drivers/STM32H7xx_HAL_Driver/Src/stm32h7xx_hal_eth_ex.c ****       WRITE_REG(heth->Instance->MACL3A0R1R, pL3FilterConfig->Ip4SrcAddr);
 307:../../Drivers/STM32H7xx_HAL_Driver/Src/stm32h7xx_hal_eth_ex.c ****       /* Set the IPv4 destination address match */
 308:../../Drivers/STM32H7xx_HAL_Driver/Src/stm32h7xx_hal_eth_ex.c ****       WRITE_REG(heth->Instance->MACL3A0R1R, pL3FilterConfig->Ip4DestAddr);
 309:../../Drivers/STM32H7xx_HAL_Driver/Src/stm32h7xx_hal_eth_ex.c **** 
 310:../../Drivers/STM32H7xx_HAL_Driver/Src/stm32h7xx_hal_eth_ex.c ****     }
 311:../../Drivers/STM32H7xx_HAL_Driver/Src/stm32h7xx_hal_eth_ex.c ****   }
 312:../../Drivers/STM32H7xx_HAL_Driver/Src/stm32h7xx_hal_eth_ex.c **** 
 313:../../Drivers/STM32H7xx_HAL_Driver/Src/stm32h7xx_hal_eth_ex.c ****   /* Enable L3 filter */
 314:../../Drivers/STM32H7xx_HAL_Driver/Src/stm32h7xx_hal_eth_ex.c ****   SET_BIT(heth->Instance->MACPFR, ETH_MACPFR_IPFE);
 411              		.loc 1 314 3 is_stmt 1 view .LVU95
 412 005a 0268     		ldr	r2, [r0]
ARM GAS  /tmp/ccIOaCu9.s 			page 14


 413 005c 9368     		ldr	r3, [r2, #8]
 414 005e 43F48013 		orr	r3, r3, #1048576
 415 0062 9360     		str	r3, [r2, #8]
 315:../../Drivers/STM32H7xx_HAL_Driver/Src/stm32h7xx_hal_eth_ex.c **** 
 316:../../Drivers/STM32H7xx_HAL_Driver/Src/stm32h7xx_hal_eth_ex.c ****   return HAL_OK;
 416              		.loc 1 316 3 view .LVU96
 417              		.loc 1 316 10 is_stmt 0 view .LVU97
 418 0064 0020     		movs	r0, #0
 419              	.LVL26:
 317:../../Drivers/STM32H7xx_HAL_Driver/Src/stm32h7xx_hal_eth_ex.c **** }
 420              		.loc 1 317 1 view .LVU98
 421 0066 70BC     		pop	{r4, r5, r6}
 422              	.LCFI5:
 423              		.cfi_remember_state
 424              		.cfi_restore 6
 425              		.cfi_restore 5
 426              		.cfi_restore 4
 427              		.cfi_def_cfa_offset 0
 428 0068 7047     		bx	lr
 429              	.LVL27:
 430              	.L19:
 431              	.LCFI6:
 432              		.cfi_restore_state
 258:../../Drivers/STM32H7xx_HAL_Driver/Src/stm32h7xx_hal_eth_ex.c ****                                                               pL3FilterConfig->SrcAddrFilterMatch |
 433              		.loc 1 258 5 is_stmt 1 view .LVU99
 434 006a 0568     		ldr	r5, [r0]
 435 006c D5F83029 		ldr	r2, [r5, #2352]
 436              	.LVL28:
 258:../../Drivers/STM32H7xx_HAL_Driver/Src/stm32h7xx_hal_eth_ex.c ****                                                               pL3FilterConfig->SrcAddrFilterMatch |
 437              		.loc 1 258 5 is_stmt 0 view .LVU100
 438 0070 1B4C     		ldr	r4, .L30
 439 0072 1440     		ands	r4, r4, r2
 440 0074 1A68     		ldr	r2, [r3]
 441 0076 5E68     		ldr	r6, [r3, #4]
 442 0078 3243     		orrs	r2, r2, r6
 443 007a 9E68     		ldr	r6, [r3, #8]
 444 007c 3243     		orrs	r2, r2, r6
 445 007e DE68     		ldr	r6, [r3, #12]
 446 0080 42EA8612 		orr	r2, r2, r6, lsl #6
 447 0084 1E69     		ldr	r6, [r3, #16]
 448 0086 42EAC622 		orr	r2, r2, r6, lsl #11
 449 008a 2243     		orrs	r2, r2, r4
 450 008c C5F83029 		str	r2, [r5, #2352]
 451 0090 CFE7     		b	.L20
 452              	.L22:
 283:../../Drivers/STM32H7xx_HAL_Driver/Src/stm32h7xx_hal_eth_ex.c ****       /* Set the IPv4 destination address match */
 453              		.loc 1 283 7 is_stmt 1 view .LVU101
 454 0092 0268     		ldr	r2, [r0]
 455 0094 5969     		ldr	r1, [r3, #20]
 456              	.LVL29:
 283:../../Drivers/STM32H7xx_HAL_Driver/Src/stm32h7xx_hal_eth_ex.c ****       /* Set the IPv4 destination address match */
 457              		.loc 1 283 7 is_stmt 0 view .LVU102
 458 0096 C2F81019 		str	r1, [r2, #2320]
 285:../../Drivers/STM32H7xx_HAL_Driver/Src/stm32h7xx_hal_eth_ex.c ****     }
 459              		.loc 1 285 7 is_stmt 1 view .LVU103
 460 009a 0268     		ldr	r2, [r0]
 461 009c 9B69     		ldr	r3, [r3, #24]
ARM GAS  /tmp/ccIOaCu9.s 			page 15


 462              	.LVL30:
 285:../../Drivers/STM32H7xx_HAL_Driver/Src/stm32h7xx_hal_eth_ex.c ****     }
 463              		.loc 1 285 7 is_stmt 0 view .LVU104
 464 009e C2F81439 		str	r3, [r2, #2324]
 465 00a2 DAE7     		b	.L23
 466              	.LVL31:
 467              	.L21:
 291:../../Drivers/STM32H7xx_HAL_Driver/Src/stm32h7xx_hal_eth_ex.c ****     {
 468              		.loc 1 291 5 is_stmt 1 view .LVU105
 291:../../Drivers/STM32H7xx_HAL_Driver/Src/stm32h7xx_hal_eth_ex.c ****     {
 469              		.loc 1 291 24 is_stmt 0 view .LVU106
 470 00a4 1A68     		ldr	r2, [r3]
 291:../../Drivers/STM32H7xx_HAL_Driver/Src/stm32h7xx_hal_eth_ex.c ****     {
 471              		.loc 1 291 8 view .LVU107
 472 00a6 82B1     		cbz	r2, .L24
 295:../../Drivers/STM32H7xx_HAL_Driver/Src/stm32h7xx_hal_eth_ex.c ****       /* Set Bits[63:32] of 128-bit IP addr */
 473              		.loc 1 295 7 is_stmt 1 view .LVU108
 474 00a8 0268     		ldr	r2, [r0]
 475 00aa D969     		ldr	r1, [r3, #28]
 476              	.LVL32:
 295:../../Drivers/STM32H7xx_HAL_Driver/Src/stm32h7xx_hal_eth_ex.c ****       /* Set Bits[63:32] of 128-bit IP addr */
 477              		.loc 1 295 7 is_stmt 0 view .LVU109
 478 00ac C2F84019 		str	r1, [r2, #2368]
 297:../../Drivers/STM32H7xx_HAL_Driver/Src/stm32h7xx_hal_eth_ex.c ****       /* update Bits[95:64] of 128-bit IP addr */
 479              		.loc 1 297 7 is_stmt 1 view .LVU110
 480 00b0 0268     		ldr	r2, [r0]
 481 00b2 196A     		ldr	r1, [r3, #32]
 482 00b4 C2F84419 		str	r1, [r2, #2372]
 299:../../Drivers/STM32H7xx_HAL_Driver/Src/stm32h7xx_hal_eth_ex.c ****       /* update Bits[127:96] of 128-bit IP addr */
 483              		.loc 1 299 7 view .LVU111
 484 00b8 0268     		ldr	r2, [r0]
 485 00ba 596A     		ldr	r1, [r3, #36]
 486 00bc C2F84419 		str	r1, [r2, #2372]
 301:../../Drivers/STM32H7xx_HAL_Driver/Src/stm32h7xx_hal_eth_ex.c ****     }
 487              		.loc 1 301 7 view .LVU112
 488 00c0 0268     		ldr	r2, [r0]
 489 00c2 9B6A     		ldr	r3, [r3, #40]
 490              	.LVL33:
 301:../../Drivers/STM32H7xx_HAL_Driver/Src/stm32h7xx_hal_eth_ex.c ****     }
 491              		.loc 1 301 7 is_stmt 0 view .LVU113
 492 00c4 C2F84439 		str	r3, [r2, #2372]
 493 00c8 C7E7     		b	.L23
 494              	.LVL34:
 495              	.L24:
 306:../../Drivers/STM32H7xx_HAL_Driver/Src/stm32h7xx_hal_eth_ex.c ****       /* Set the IPv4 destination address match */
 496              		.loc 1 306 7 is_stmt 1 view .LVU114
 497 00ca 0268     		ldr	r2, [r0]
 498 00cc 5969     		ldr	r1, [r3, #20]
 499              	.LVL35:
 306:../../Drivers/STM32H7xx_HAL_Driver/Src/stm32h7xx_hal_eth_ex.c ****       /* Set the IPv4 destination address match */
 500              		.loc 1 306 7 is_stmt 0 view .LVU115
 501 00ce C2F84019 		str	r1, [r2, #2368]
 308:../../Drivers/STM32H7xx_HAL_Driver/Src/stm32h7xx_hal_eth_ex.c **** 
 502              		.loc 1 308 7 is_stmt 1 view .LVU116
 503 00d2 0268     		ldr	r2, [r0]
 504 00d4 9B69     		ldr	r3, [r3, #24]
 505              	.LVL36:
ARM GAS  /tmp/ccIOaCu9.s 			page 16


 308:../../Drivers/STM32H7xx_HAL_Driver/Src/stm32h7xx_hal_eth_ex.c **** 
 506              		.loc 1 308 7 is_stmt 0 view .LVU117
 507 00d6 C2F84039 		str	r3, [r2, #2368]
 508 00da BEE7     		b	.L23
 509              	.LVL37:
 510              	.L25:
 511              	.LCFI7:
 512              		.cfi_def_cfa_offset 0
 513              		.cfi_restore 4
 514              		.cfi_restore 5
 515              		.cfi_restore 6
 243:../../Drivers/STM32H7xx_HAL_Driver/Src/stm32h7xx_hal_eth_ex.c ****   }
 516              		.loc 1 243 12 view .LVU118
 517 00dc 0120     		movs	r0, #1
 518              	.LVL38:
 519              		.loc 1 317 1 view .LVU119
 520 00de 7047     		bx	lr
 521              	.L31:
 522              		.align	2
 523              	.L30:
 524 00e0 0200FFFF 		.word	-65534
 525              		.cfi_endproc
 526              	.LFE328:
 528              		.section	.text.HAL_ETHEx_GetL3FilterConfig,"ax",%progbits
 529              		.align	1
 530              		.global	HAL_ETHEx_GetL3FilterConfig
 531              		.syntax unified
 532              		.thumb
 533              		.thumb_func
 534              		.fpu fpv4-sp-d16
 536              	HAL_ETHEx_GetL3FilterConfig:
 537              	.LVL39:
 538              	.LFB329:
 318:../../Drivers/STM32H7xx_HAL_Driver/Src/stm32h7xx_hal_eth_ex.c **** 
 319:../../Drivers/STM32H7xx_HAL_Driver/Src/stm32h7xx_hal_eth_ex.c **** /**
 320:../../Drivers/STM32H7xx_HAL_Driver/Src/stm32h7xx_hal_eth_ex.c ****   * @brief  Configures the L3 Filter, this function allow to:
 321:../../Drivers/STM32H7xx_HAL_Driver/Src/stm32h7xx_hal_eth_ex.c ****   *         set the layer 3 protocol to be matched (IPv4 or IPv6)
 322:../../Drivers/STM32H7xx_HAL_Driver/Src/stm32h7xx_hal_eth_ex.c ****   *         enable/disable L3 source/destination port perfect/inverse match.
 323:../../Drivers/STM32H7xx_HAL_Driver/Src/stm32h7xx_hal_eth_ex.c ****   * @param  heth: pointer to a ETH_HandleTypeDef structure that contains
 324:../../Drivers/STM32H7xx_HAL_Driver/Src/stm32h7xx_hal_eth_ex.c ****   *         the configuration information for ETHERNET module
 325:../../Drivers/STM32H7xx_HAL_Driver/Src/stm32h7xx_hal_eth_ex.c ****   * @param  Filter: L3 filter to configured, this parameter must be one of the following
 326:../../Drivers/STM32H7xx_HAL_Driver/Src/stm32h7xx_hal_eth_ex.c ****   *           ETH_L3_FILTER_0
 327:../../Drivers/STM32H7xx_HAL_Driver/Src/stm32h7xx_hal_eth_ex.c ****   *           ETH_L3_FILTER_1
 328:../../Drivers/STM32H7xx_HAL_Driver/Src/stm32h7xx_hal_eth_ex.c ****   * @param  pL3FilterConfig: pointer to a ETH_L3FilterConfigTypeDef structure
 329:../../Drivers/STM32H7xx_HAL_Driver/Src/stm32h7xx_hal_eth_ex.c ****   *         that will contain the L3 filter configuration.
 330:../../Drivers/STM32H7xx_HAL_Driver/Src/stm32h7xx_hal_eth_ex.c ****   * @retval HAL status
 331:../../Drivers/STM32H7xx_HAL_Driver/Src/stm32h7xx_hal_eth_ex.c ****   */
 332:../../Drivers/STM32H7xx_HAL_Driver/Src/stm32h7xx_hal_eth_ex.c **** HAL_StatusTypeDef HAL_ETHEx_GetL3FilterConfig(const ETH_HandleTypeDef *heth, uint32_t Filter,
 333:../../Drivers/STM32H7xx_HAL_Driver/Src/stm32h7xx_hal_eth_ex.c ****                                               ETH_L3FilterConfigTypeDef *pL3FilterConfig)
 334:../../Drivers/STM32H7xx_HAL_Driver/Src/stm32h7xx_hal_eth_ex.c **** {
 539              		.loc 1 334 1 is_stmt 1 view -0
 540              		.cfi_startproc
 541              		@ args = 0, pretend = 0, frame = 0
 542              		@ frame_needed = 0, uses_anonymous_args = 0
 543              		@ link register save eliminated.
 335:../../Drivers/STM32H7xx_HAL_Driver/Src/stm32h7xx_hal_eth_ex.c ****   if (pL3FilterConfig == NULL)
 544              		.loc 1 335 3 view .LVU121
ARM GAS  /tmp/ccIOaCu9.s 			page 17


 545              		.loc 1 335 6 is_stmt 0 view .LVU122
 546 0000 002A     		cmp	r2, #0
 547 0002 66D0     		beq	.L37
 334:../../Drivers/STM32H7xx_HAL_Driver/Src/stm32h7xx_hal_eth_ex.c ****   if (pL3FilterConfig == NULL)
 548              		.loc 1 334 1 view .LVU123
 549 0004 10B4     		push	{r4}
 550              	.LCFI8:
 551              		.cfi_def_cfa_offset 4
 552              		.cfi_offset 4, -4
 553 0006 1346     		mov	r3, r2
 336:../../Drivers/STM32H7xx_HAL_Driver/Src/stm32h7xx_hal_eth_ex.c ****   {
 337:../../Drivers/STM32H7xx_HAL_Driver/Src/stm32h7xx_hal_eth_ex.c ****     return HAL_ERROR;
 338:../../Drivers/STM32H7xx_HAL_Driver/Src/stm32h7xx_hal_eth_ex.c ****   }
 339:../../Drivers/STM32H7xx_HAL_Driver/Src/stm32h7xx_hal_eth_ex.c ****   pL3FilterConfig->Protocol = READ_BIT(*((__IO uint32_t *)(&(heth->Instance->MACL3L4C0R) + Filter))
 554              		.loc 1 339 3 is_stmt 1 view .LVU124
 555              		.loc 1 339 31 is_stmt 0 view .LVU125
 556 0008 0268     		ldr	r2, [r0]
 557              	.LVL40:
 558              		.loc 1 339 31 view .LVU126
 559 000a 02F51062 		add	r2, r2, #2304
 560 000e 52F82120 		ldr	r2, [r2, r1, lsl #2]
 561 0012 02F00102 		and	r2, r2, #1
 562              		.loc 1 339 29 view .LVU127
 563 0016 1A60     		str	r2, [r3]
 340:../../Drivers/STM32H7xx_HAL_Driver/Src/stm32h7xx_hal_eth_ex.c ****                                        ETH_MACL3L4CR_L3PEN);
 341:../../Drivers/STM32H7xx_HAL_Driver/Src/stm32h7xx_hal_eth_ex.c ****   pL3FilterConfig->SrcAddrFilterMatch = READ_BIT(*((__IO uint32_t *)(&(heth->Instance->MACL3L4C0R) 
 564              		.loc 1 341 3 is_stmt 1 view .LVU128
 565              		.loc 1 341 41 is_stmt 0 view .LVU129
 566 0018 0468     		ldr	r4, [r0]
 567 001a 04F51064 		add	r4, r4, #2304
 568 001e 54F82140 		ldr	r4, [r4, r1, lsl #2]
 569 0022 04F00C04 		and	r4, r4, #12
 570              		.loc 1 341 39 view .LVU130
 571 0026 5C60     		str	r4, [r3, #4]
 342:../../Drivers/STM32H7xx_HAL_Driver/Src/stm32h7xx_hal_eth_ex.c ****                                                  (ETH_MACL3L4CR_L3SAM | ETH_MACL3L4CR_L3SAIM));
 343:../../Drivers/STM32H7xx_HAL_Driver/Src/stm32h7xx_hal_eth_ex.c ****   pL3FilterConfig->DestAddrFilterMatch = READ_BIT(*((__IO uint32_t *)(&(heth->Instance->MACL3L4C0R)
 572              		.loc 1 343 3 is_stmt 1 view .LVU131
 573              		.loc 1 343 42 is_stmt 0 view .LVU132
 574 0028 0468     		ldr	r4, [r0]
 575 002a 04F51064 		add	r4, r4, #2304
 576 002e 54F82140 		ldr	r4, [r4, r1, lsl #2]
 577 0032 04F03004 		and	r4, r4, #48
 578              		.loc 1 343 40 view .LVU133
 579 0036 9C60     		str	r4, [r3, #8]
 344:../../Drivers/STM32H7xx_HAL_Driver/Src/stm32h7xx_hal_eth_ex.c ****                                                   (ETH_MACL3L4CR_L3DAM | ETH_MACL3L4CR_L3DAIM));
 345:../../Drivers/STM32H7xx_HAL_Driver/Src/stm32h7xx_hal_eth_ex.c ****   pL3FilterConfig->SrcAddrHigherBitsMatch = (READ_BIT(*((__IO uint32_t *)(&(heth->Instance->MACL3L4
 580              		.loc 1 345 3 is_stmt 1 view .LVU134
 581              		.loc 1 345 46 is_stmt 0 view .LVU135
 582 0038 0468     		ldr	r4, [r0]
 583 003a 04F51064 		add	r4, r4, #2304
 584 003e 54F82140 		ldr	r4, [r4, r1, lsl #2]
 346:../../Drivers/STM32H7xx_HAL_Driver/Src/stm32h7xx_hal_eth_ex.c ****                                                       ETH_MACL3L4CR_L3HSBM) >> 6);
 585              		.loc 1 346 77 view .LVU136
 586 0042 C4F38414 		ubfx	r4, r4, #6, #5
 345:../../Drivers/STM32H7xx_HAL_Driver/Src/stm32h7xx_hal_eth_ex.c ****                                                       ETH_MACL3L4CR_L3HSBM) >> 6);
 587              		.loc 1 345 43 view .LVU137
 588 0046 DC60     		str	r4, [r3, #12]
ARM GAS  /tmp/ccIOaCu9.s 			page 18


 347:../../Drivers/STM32H7xx_HAL_Driver/Src/stm32h7xx_hal_eth_ex.c ****   pL3FilterConfig->DestAddrHigherBitsMatch = (READ_BIT(*((__IO uint32_t *)(&(heth->Instance->MACL3L
 589              		.loc 1 347 3 is_stmt 1 view .LVU138
 590              		.loc 1 347 47 is_stmt 0 view .LVU139
 591 0048 0468     		ldr	r4, [r0]
 592 004a 04F51064 		add	r4, r4, #2304
 593 004e 54F82140 		ldr	r4, [r4, r1, lsl #2]
 348:../../Drivers/STM32H7xx_HAL_Driver/Src/stm32h7xx_hal_eth_ex.c ****                                                        ETH_MACL3L4CR_L3HDBM) >> 11);
 594              		.loc 1 348 78 view .LVU140
 595 0052 C4F3C424 		ubfx	r4, r4, #11, #5
 347:../../Drivers/STM32H7xx_HAL_Driver/Src/stm32h7xx_hal_eth_ex.c ****   pL3FilterConfig->DestAddrHigherBitsMatch = (READ_BIT(*((__IO uint32_t *)(&(heth->Instance->MACL3L
 596              		.loc 1 347 44 view .LVU141
 597 0056 1C61     		str	r4, [r3, #16]
 349:../../Drivers/STM32H7xx_HAL_Driver/Src/stm32h7xx_hal_eth_ex.c **** 
 350:../../Drivers/STM32H7xx_HAL_Driver/Src/stm32h7xx_hal_eth_ex.c ****   if (Filter == ETH_L3_FILTER_0)
 598              		.loc 1 350 3 is_stmt 1 view .LVU142
 599              		.loc 1 350 6 is_stmt 0 view .LVU143
 600 0058 F1B9     		cbnz	r1, .L34
 351:../../Drivers/STM32H7xx_HAL_Driver/Src/stm32h7xx_hal_eth_ex.c ****   {
 352:../../Drivers/STM32H7xx_HAL_Driver/Src/stm32h7xx_hal_eth_ex.c ****     if (pL3FilterConfig->Protocol != ETH_L3_IPV4_MATCH)
 601              		.loc 1 352 5 is_stmt 1 view .LVU144
 602              		.loc 1 352 8 is_stmt 0 view .LVU145
 603 005a 9AB1     		cbz	r2, .L35
 353:../../Drivers/STM32H7xx_HAL_Driver/Src/stm32h7xx_hal_eth_ex.c ****     {
 354:../../Drivers/STM32H7xx_HAL_Driver/Src/stm32h7xx_hal_eth_ex.c ****       WRITE_REG(pL3FilterConfig->Ip6Addr[0], heth->Instance->MACL3A0R0R);
 604              		.loc 1 354 7 is_stmt 1 view .LVU146
 605 005c 0268     		ldr	r2, [r0]
 606 005e D2F81029 		ldr	r2, [r2, #2320]
 607 0062 DA61     		str	r2, [r3, #28]
 355:../../Drivers/STM32H7xx_HAL_Driver/Src/stm32h7xx_hal_eth_ex.c ****       WRITE_REG(pL3FilterConfig->Ip6Addr[1], heth->Instance->MACL3A1R0R);
 608              		.loc 1 355 7 view .LVU147
 609 0064 0268     		ldr	r2, [r0]
 610 0066 D2F81429 		ldr	r2, [r2, #2324]
 611 006a 1A62     		str	r2, [r3, #32]
 356:../../Drivers/STM32H7xx_HAL_Driver/Src/stm32h7xx_hal_eth_ex.c ****       WRITE_REG(pL3FilterConfig->Ip6Addr[2], heth->Instance->MACL3A2R0R);
 612              		.loc 1 356 7 view .LVU148
 613 006c 0268     		ldr	r2, [r0]
 614 006e D2F81829 		ldr	r2, [r2, #2328]
 615 0072 5A62     		str	r2, [r3, #36]
 357:../../Drivers/STM32H7xx_HAL_Driver/Src/stm32h7xx_hal_eth_ex.c ****       WRITE_REG(pL3FilterConfig->Ip6Addr[3], heth->Instance->MACL3A3R0R);
 616              		.loc 1 357 7 view .LVU149
 617 0074 0268     		ldr	r2, [r0]
 618 0076 D2F81C29 		ldr	r2, [r2, #2332]
 619 007a 9A62     		str	r2, [r3, #40]
 358:../../Drivers/STM32H7xx_HAL_Driver/Src/stm32h7xx_hal_eth_ex.c ****     }
 359:../../Drivers/STM32H7xx_HAL_Driver/Src/stm32h7xx_hal_eth_ex.c ****     else
 360:../../Drivers/STM32H7xx_HAL_Driver/Src/stm32h7xx_hal_eth_ex.c ****     {
 361:../../Drivers/STM32H7xx_HAL_Driver/Src/stm32h7xx_hal_eth_ex.c ****       WRITE_REG(pL3FilterConfig->Ip4SrcAddr, heth->Instance->MACL3A0R0R);
 362:../../Drivers/STM32H7xx_HAL_Driver/Src/stm32h7xx_hal_eth_ex.c ****       WRITE_REG(pL3FilterConfig->Ip4DestAddr, heth->Instance->MACL3A1R0R);
 363:../../Drivers/STM32H7xx_HAL_Driver/Src/stm32h7xx_hal_eth_ex.c ****     }
 364:../../Drivers/STM32H7xx_HAL_Driver/Src/stm32h7xx_hal_eth_ex.c ****   }
 365:../../Drivers/STM32H7xx_HAL_Driver/Src/stm32h7xx_hal_eth_ex.c ****   else /* ETH_L3_FILTER_1 */
 366:../../Drivers/STM32H7xx_HAL_Driver/Src/stm32h7xx_hal_eth_ex.c ****   {
 367:../../Drivers/STM32H7xx_HAL_Driver/Src/stm32h7xx_hal_eth_ex.c ****     if (pL3FilterConfig->Protocol != ETH_L3_IPV4_MATCH)
 368:../../Drivers/STM32H7xx_HAL_Driver/Src/stm32h7xx_hal_eth_ex.c ****     {
 369:../../Drivers/STM32H7xx_HAL_Driver/Src/stm32h7xx_hal_eth_ex.c ****       WRITE_REG(pL3FilterConfig->Ip6Addr[0], heth->Instance->MACL3A0R1R);
 370:../../Drivers/STM32H7xx_HAL_Driver/Src/stm32h7xx_hal_eth_ex.c ****       WRITE_REG(pL3FilterConfig->Ip6Addr[1], heth->Instance->MACL3A1R1R);
 371:../../Drivers/STM32H7xx_HAL_Driver/Src/stm32h7xx_hal_eth_ex.c ****       WRITE_REG(pL3FilterConfig->Ip6Addr[2], heth->Instance->MACL3A2R1R);
ARM GAS  /tmp/ccIOaCu9.s 			page 19


 372:../../Drivers/STM32H7xx_HAL_Driver/Src/stm32h7xx_hal_eth_ex.c ****       WRITE_REG(pL3FilterConfig->Ip6Addr[3], heth->Instance->MACL3A3R1R);
 373:../../Drivers/STM32H7xx_HAL_Driver/Src/stm32h7xx_hal_eth_ex.c ****     }
 374:../../Drivers/STM32H7xx_HAL_Driver/Src/stm32h7xx_hal_eth_ex.c ****     else
 375:../../Drivers/STM32H7xx_HAL_Driver/Src/stm32h7xx_hal_eth_ex.c ****     {
 376:../../Drivers/STM32H7xx_HAL_Driver/Src/stm32h7xx_hal_eth_ex.c ****       WRITE_REG(pL3FilterConfig->Ip4SrcAddr, heth->Instance->MACL3A0R1R);
 377:../../Drivers/STM32H7xx_HAL_Driver/Src/stm32h7xx_hal_eth_ex.c ****       WRITE_REG(pL3FilterConfig->Ip4DestAddr, heth->Instance->MACL3A1R1R);
 378:../../Drivers/STM32H7xx_HAL_Driver/Src/stm32h7xx_hal_eth_ex.c ****     }
 379:../../Drivers/STM32H7xx_HAL_Driver/Src/stm32h7xx_hal_eth_ex.c ****   }
 380:../../Drivers/STM32H7xx_HAL_Driver/Src/stm32h7xx_hal_eth_ex.c **** 
 381:../../Drivers/STM32H7xx_HAL_Driver/Src/stm32h7xx_hal_eth_ex.c ****   return HAL_OK;
 620              		.loc 1 381 10 is_stmt 0 view .LVU150
 621 007c 0020     		movs	r0, #0
 622              	.LVL41:
 623              	.L33:
 382:../../Drivers/STM32H7xx_HAL_Driver/Src/stm32h7xx_hal_eth_ex.c **** }
 624              		.loc 1 382 1 view .LVU151
 625 007e 5DF8044B 		ldr	r4, [sp], #4
 626              	.LCFI9:
 627              		.cfi_remember_state
 628              		.cfi_restore 4
 629              		.cfi_def_cfa_offset 0
 630 0082 7047     		bx	lr
 631              	.LVL42:
 632              	.L35:
 633              	.LCFI10:
 634              		.cfi_restore_state
 361:../../Drivers/STM32H7xx_HAL_Driver/Src/stm32h7xx_hal_eth_ex.c ****       WRITE_REG(pL3FilterConfig->Ip4DestAddr, heth->Instance->MACL3A1R0R);
 635              		.loc 1 361 7 is_stmt 1 view .LVU152
 636 0084 0268     		ldr	r2, [r0]
 637 0086 D2F81029 		ldr	r2, [r2, #2320]
 638 008a 5A61     		str	r2, [r3, #20]
 362:../../Drivers/STM32H7xx_HAL_Driver/Src/stm32h7xx_hal_eth_ex.c ****     }
 639              		.loc 1 362 7 view .LVU153
 640 008c 0268     		ldr	r2, [r0]
 641 008e D2F81429 		ldr	r2, [r2, #2324]
 642 0092 9A61     		str	r2, [r3, #24]
 381:../../Drivers/STM32H7xx_HAL_Driver/Src/stm32h7xx_hal_eth_ex.c **** }
 643              		.loc 1 381 10 is_stmt 0 view .LVU154
 644 0094 0020     		movs	r0, #0
 645              	.LVL43:
 381:../../Drivers/STM32H7xx_HAL_Driver/Src/stm32h7xx_hal_eth_ex.c **** }
 646              		.loc 1 381 10 view .LVU155
 647 0096 F2E7     		b	.L33
 648              	.LVL44:
 649              	.L34:
 367:../../Drivers/STM32H7xx_HAL_Driver/Src/stm32h7xx_hal_eth_ex.c ****     {
 650              		.loc 1 367 5 is_stmt 1 view .LVU156
 367:../../Drivers/STM32H7xx_HAL_Driver/Src/stm32h7xx_hal_eth_ex.c ****     {
 651              		.loc 1 367 8 is_stmt 0 view .LVU157
 652 0098 8AB1     		cbz	r2, .L36
 369:../../Drivers/STM32H7xx_HAL_Driver/Src/stm32h7xx_hal_eth_ex.c ****       WRITE_REG(pL3FilterConfig->Ip6Addr[1], heth->Instance->MACL3A1R1R);
 653              		.loc 1 369 7 is_stmt 1 view .LVU158
 654 009a 0268     		ldr	r2, [r0]
 655 009c D2F84029 		ldr	r2, [r2, #2368]
 656 00a0 DA61     		str	r2, [r3, #28]
 370:../../Drivers/STM32H7xx_HAL_Driver/Src/stm32h7xx_hal_eth_ex.c ****       WRITE_REG(pL3FilterConfig->Ip6Addr[2], heth->Instance->MACL3A2R1R);
 657              		.loc 1 370 7 view .LVU159
ARM GAS  /tmp/ccIOaCu9.s 			page 20


 658 00a2 0268     		ldr	r2, [r0]
 659 00a4 D2F84429 		ldr	r2, [r2, #2372]
 660 00a8 1A62     		str	r2, [r3, #32]
 371:../../Drivers/STM32H7xx_HAL_Driver/Src/stm32h7xx_hal_eth_ex.c ****       WRITE_REG(pL3FilterConfig->Ip6Addr[3], heth->Instance->MACL3A3R1R);
 661              		.loc 1 371 7 view .LVU160
 662 00aa 0268     		ldr	r2, [r0]
 663 00ac D2F84829 		ldr	r2, [r2, #2376]
 664 00b0 5A62     		str	r2, [r3, #36]
 372:../../Drivers/STM32H7xx_HAL_Driver/Src/stm32h7xx_hal_eth_ex.c ****     }
 665              		.loc 1 372 7 view .LVU161
 666 00b2 0268     		ldr	r2, [r0]
 667 00b4 D2F84C29 		ldr	r2, [r2, #2380]
 668 00b8 9A62     		str	r2, [r3, #40]
 381:../../Drivers/STM32H7xx_HAL_Driver/Src/stm32h7xx_hal_eth_ex.c **** }
 669              		.loc 1 381 10 is_stmt 0 view .LVU162
 670 00ba 0020     		movs	r0, #0
 671              	.LVL45:
 381:../../Drivers/STM32H7xx_HAL_Driver/Src/stm32h7xx_hal_eth_ex.c **** }
 672              		.loc 1 381 10 view .LVU163
 673 00bc DFE7     		b	.L33
 674              	.LVL46:
 675              	.L36:
 376:../../Drivers/STM32H7xx_HAL_Driver/Src/stm32h7xx_hal_eth_ex.c ****       WRITE_REG(pL3FilterConfig->Ip4DestAddr, heth->Instance->MACL3A1R1R);
 676              		.loc 1 376 7 is_stmt 1 view .LVU164
 677 00be 0268     		ldr	r2, [r0]
 678 00c0 D2F84029 		ldr	r2, [r2, #2368]
 679 00c4 5A61     		str	r2, [r3, #20]
 377:../../Drivers/STM32H7xx_HAL_Driver/Src/stm32h7xx_hal_eth_ex.c ****     }
 680              		.loc 1 377 7 view .LVU165
 681 00c6 0268     		ldr	r2, [r0]
 682 00c8 D2F84429 		ldr	r2, [r2, #2372]
 683 00cc 9A61     		str	r2, [r3, #24]
 381:../../Drivers/STM32H7xx_HAL_Driver/Src/stm32h7xx_hal_eth_ex.c **** }
 684              		.loc 1 381 10 is_stmt 0 view .LVU166
 685 00ce 0020     		movs	r0, #0
 686              	.LVL47:
 381:../../Drivers/STM32H7xx_HAL_Driver/Src/stm32h7xx_hal_eth_ex.c **** }
 687              		.loc 1 381 10 view .LVU167
 688 00d0 D5E7     		b	.L33
 689              	.LVL48:
 690              	.L37:
 691              	.LCFI11:
 692              		.cfi_def_cfa_offset 0
 693              		.cfi_restore 4
 337:../../Drivers/STM32H7xx_HAL_Driver/Src/stm32h7xx_hal_eth_ex.c ****   }
 694              		.loc 1 337 12 view .LVU168
 695 00d2 0120     		movs	r0, #1
 696              	.LVL49:
 697              		.loc 1 382 1 view .LVU169
 698 00d4 7047     		bx	lr
 699              		.cfi_endproc
 700              	.LFE329:
 702              		.section	.text.HAL_ETHEx_EnableL3L4Filtering,"ax",%progbits
 703              		.align	1
 704              		.global	HAL_ETHEx_EnableL3L4Filtering
 705              		.syntax unified
 706              		.thumb
ARM GAS  /tmp/ccIOaCu9.s 			page 21


 707              		.thumb_func
 708              		.fpu fpv4-sp-d16
 710              	HAL_ETHEx_EnableL3L4Filtering:
 711              	.LVL50:
 712              	.LFB330:
 383:../../Drivers/STM32H7xx_HAL_Driver/Src/stm32h7xx_hal_eth_ex.c **** 
 384:../../Drivers/STM32H7xx_HAL_Driver/Src/stm32h7xx_hal_eth_ex.c **** /**
 385:../../Drivers/STM32H7xx_HAL_Driver/Src/stm32h7xx_hal_eth_ex.c ****   * @brief  Enables L3 and L4 filtering process.
 386:../../Drivers/STM32H7xx_HAL_Driver/Src/stm32h7xx_hal_eth_ex.c ****   * @param  heth: pointer to a ETH_HandleTypeDef structure that contains
 387:../../Drivers/STM32H7xx_HAL_Driver/Src/stm32h7xx_hal_eth_ex.c ****   *         the configuration information for ETHERNET module
 388:../../Drivers/STM32H7xx_HAL_Driver/Src/stm32h7xx_hal_eth_ex.c ****   * @retval None.
 389:../../Drivers/STM32H7xx_HAL_Driver/Src/stm32h7xx_hal_eth_ex.c ****   */
 390:../../Drivers/STM32H7xx_HAL_Driver/Src/stm32h7xx_hal_eth_ex.c **** void HAL_ETHEx_EnableL3L4Filtering(ETH_HandleTypeDef *heth)
 391:../../Drivers/STM32H7xx_HAL_Driver/Src/stm32h7xx_hal_eth_ex.c **** {
 713              		.loc 1 391 1 is_stmt 1 view -0
 714              		.cfi_startproc
 715              		@ args = 0, pretend = 0, frame = 0
 716              		@ frame_needed = 0, uses_anonymous_args = 0
 717              		@ link register save eliminated.
 392:../../Drivers/STM32H7xx_HAL_Driver/Src/stm32h7xx_hal_eth_ex.c ****   /* Enable L3/L4 filter */
 393:../../Drivers/STM32H7xx_HAL_Driver/Src/stm32h7xx_hal_eth_ex.c ****   SET_BIT(heth->Instance->MACPFR, ETH_MACPFR_IPFE);
 718              		.loc 1 393 3 view .LVU171
 719 0000 0268     		ldr	r2, [r0]
 720 0002 9368     		ldr	r3, [r2, #8]
 721 0004 43F48013 		orr	r3, r3, #1048576
 722 0008 9360     		str	r3, [r2, #8]
 394:../../Drivers/STM32H7xx_HAL_Driver/Src/stm32h7xx_hal_eth_ex.c **** }
 723              		.loc 1 394 1 is_stmt 0 view .LVU172
 724 000a 7047     		bx	lr
 725              		.cfi_endproc
 726              	.LFE330:
 728              		.section	.text.HAL_ETHEx_DisableL3L4Filtering,"ax",%progbits
 729              		.align	1
 730              		.global	HAL_ETHEx_DisableL3L4Filtering
 731              		.syntax unified
 732              		.thumb
 733              		.thumb_func
 734              		.fpu fpv4-sp-d16
 736              	HAL_ETHEx_DisableL3L4Filtering:
 737              	.LVL51:
 738              	.LFB331:
 395:../../Drivers/STM32H7xx_HAL_Driver/Src/stm32h7xx_hal_eth_ex.c **** 
 396:../../Drivers/STM32H7xx_HAL_Driver/Src/stm32h7xx_hal_eth_ex.c **** /**
 397:../../Drivers/STM32H7xx_HAL_Driver/Src/stm32h7xx_hal_eth_ex.c ****   * @brief  Disables L3 and L4 filtering process.
 398:../../Drivers/STM32H7xx_HAL_Driver/Src/stm32h7xx_hal_eth_ex.c ****   * @param  heth: pointer to a ETH_HandleTypeDef structure that contains
 399:../../Drivers/STM32H7xx_HAL_Driver/Src/stm32h7xx_hal_eth_ex.c ****   *         the configuration information for ETHERNET module
 400:../../Drivers/STM32H7xx_HAL_Driver/Src/stm32h7xx_hal_eth_ex.c ****   * @retval None.
 401:../../Drivers/STM32H7xx_HAL_Driver/Src/stm32h7xx_hal_eth_ex.c ****   */
 402:../../Drivers/STM32H7xx_HAL_Driver/Src/stm32h7xx_hal_eth_ex.c **** void HAL_ETHEx_DisableL3L4Filtering(ETH_HandleTypeDef *heth)
 403:../../Drivers/STM32H7xx_HAL_Driver/Src/stm32h7xx_hal_eth_ex.c **** {
 739              		.loc 1 403 1 is_stmt 1 view -0
 740              		.cfi_startproc
 741              		@ args = 0, pretend = 0, frame = 0
 742              		@ frame_needed = 0, uses_anonymous_args = 0
 743              		@ link register save eliminated.
 404:../../Drivers/STM32H7xx_HAL_Driver/Src/stm32h7xx_hal_eth_ex.c ****   /* Disable L3/L4 filter */
 405:../../Drivers/STM32H7xx_HAL_Driver/Src/stm32h7xx_hal_eth_ex.c ****   CLEAR_BIT(heth->Instance->MACPFR, ETH_MACPFR_IPFE);
ARM GAS  /tmp/ccIOaCu9.s 			page 22


 744              		.loc 1 405 3 view .LVU174
 745 0000 0268     		ldr	r2, [r0]
 746 0002 9368     		ldr	r3, [r2, #8]
 747 0004 23F48013 		bic	r3, r3, #1048576
 748 0008 9360     		str	r3, [r2, #8]
 406:../../Drivers/STM32H7xx_HAL_Driver/Src/stm32h7xx_hal_eth_ex.c **** }
 749              		.loc 1 406 1 is_stmt 0 view .LVU175
 750 000a 7047     		bx	lr
 751              		.cfi_endproc
 752              	.LFE331:
 754              		.section	.text.HAL_ETHEx_GetRxVLANConfig,"ax",%progbits
 755              		.align	1
 756              		.global	HAL_ETHEx_GetRxVLANConfig
 757              		.syntax unified
 758              		.thumb
 759              		.thumb_func
 760              		.fpu fpv4-sp-d16
 762              	HAL_ETHEx_GetRxVLANConfig:
 763              	.LVL52:
 764              	.LFB332:
 407:../../Drivers/STM32H7xx_HAL_Driver/Src/stm32h7xx_hal_eth_ex.c **** 
 408:../../Drivers/STM32H7xx_HAL_Driver/Src/stm32h7xx_hal_eth_ex.c **** /**
 409:../../Drivers/STM32H7xx_HAL_Driver/Src/stm32h7xx_hal_eth_ex.c ****   * @brief  Get the VLAN Configuration for Receive Packets.
 410:../../Drivers/STM32H7xx_HAL_Driver/Src/stm32h7xx_hal_eth_ex.c ****   * @param  heth: pointer to a ETH_HandleTypeDef structure that contains
 411:../../Drivers/STM32H7xx_HAL_Driver/Src/stm32h7xx_hal_eth_ex.c ****   *         the configuration information for ETHERNET module
 412:../../Drivers/STM32H7xx_HAL_Driver/Src/stm32h7xx_hal_eth_ex.c ****   * @param  pVlanConfig: pointer to a ETH_RxVLANConfigTypeDef structure
 413:../../Drivers/STM32H7xx_HAL_Driver/Src/stm32h7xx_hal_eth_ex.c ****   *         that will contain the VLAN filter configuration.
 414:../../Drivers/STM32H7xx_HAL_Driver/Src/stm32h7xx_hal_eth_ex.c ****   * @retval HAL status
 415:../../Drivers/STM32H7xx_HAL_Driver/Src/stm32h7xx_hal_eth_ex.c ****   */
 416:../../Drivers/STM32H7xx_HAL_Driver/Src/stm32h7xx_hal_eth_ex.c **** HAL_StatusTypeDef HAL_ETHEx_GetRxVLANConfig(const ETH_HandleTypeDef *heth, ETH_RxVLANConfigTypeDef 
 417:../../Drivers/STM32H7xx_HAL_Driver/Src/stm32h7xx_hal_eth_ex.c **** {
 765              		.loc 1 417 1 is_stmt 1 view -0
 766              		.cfi_startproc
 767              		@ args = 0, pretend = 0, frame = 0
 768              		@ frame_needed = 0, uses_anonymous_args = 0
 769              		@ link register save eliminated.
 418:../../Drivers/STM32H7xx_HAL_Driver/Src/stm32h7xx_hal_eth_ex.c ****   if (pVlanConfig == NULL)
 770              		.loc 1 418 3 view .LVU177
 771              		.loc 1 418 6 is_stmt 0 view .LVU178
 772 0000 0029     		cmp	r1, #0
 773 0002 2DD0     		beq	.L46
 419:../../Drivers/STM32H7xx_HAL_Driver/Src/stm32h7xx_hal_eth_ex.c ****   {
 420:../../Drivers/STM32H7xx_HAL_Driver/Src/stm32h7xx_hal_eth_ex.c ****     return HAL_ERROR;
 421:../../Drivers/STM32H7xx_HAL_Driver/Src/stm32h7xx_hal_eth_ex.c ****   }
 422:../../Drivers/STM32H7xx_HAL_Driver/Src/stm32h7xx_hal_eth_ex.c **** 
 423:../../Drivers/STM32H7xx_HAL_Driver/Src/stm32h7xx_hal_eth_ex.c ****   pVlanConfig->InnerVLANTagInStatus = ((READ_BIT(heth->Instance->MACVTR,
 774              		.loc 1 423 3 is_stmt 1 view .LVU179
 775              		.loc 1 423 41 is_stmt 0 view .LVU180
 776 0004 0268     		ldr	r2, [r0]
 777 0006 126D     		ldr	r2, [r2, #80]
 424:../../Drivers/STM32H7xx_HAL_Driver/Src/stm32h7xx_hal_eth_ex.c ****                                                  ETH_MACVTR_EIVLRXS) >> 31) == 0U) ? DISABLE : ENAB
 778              		.loc 1 424 94 view .LVU181
 779 0008 D20F     		lsrs	r2, r2, #31
 423:../../Drivers/STM32H7xx_HAL_Driver/Src/stm32h7xx_hal_eth_ex.c ****                                                  ETH_MACVTR_EIVLRXS) >> 31) == 0U) ? DISABLE : ENAB
 780              		.loc 1 423 37 view .LVU182
 781 000a 0A70     		strb	r2, [r1]
 425:../../Drivers/STM32H7xx_HAL_Driver/Src/stm32h7xx_hal_eth_ex.c ****   pVlanConfig->StripInnerVLANTag  = READ_BIT(heth->Instance->MACVTR, ETH_MACVTR_EIVLS);
ARM GAS  /tmp/ccIOaCu9.s 			page 23


 782              		.loc 1 425 3 is_stmt 1 view .LVU183
 783              		.loc 1 425 37 is_stmt 0 view .LVU184
 784 000c 0268     		ldr	r2, [r0]
 785 000e 126D     		ldr	r2, [r2, #80]
 786 0010 02F04052 		and	r2, r2, #805306368
 787              		.loc 1 425 35 view .LVU185
 788 0014 4A60     		str	r2, [r1, #4]
 426:../../Drivers/STM32H7xx_HAL_Driver/Src/stm32h7xx_hal_eth_ex.c ****   pVlanConfig->InnerVLANTag = ((READ_BIT(heth->Instance->MACVTR,
 789              		.loc 1 426 3 is_stmt 1 view .LVU186
 790              		.loc 1 426 33 is_stmt 0 view .LVU187
 791 0016 0268     		ldr	r2, [r0]
 792 0018 126D     		ldr	r2, [r2, #80]
 427:../../Drivers/STM32H7xx_HAL_Driver/Src/stm32h7xx_hal_eth_ex.c ****                                          ETH_MACVTR_ERIVLT) >> 27) == 0U) ? DISABLE : ENABLE;
 793              		.loc 1 427 85 view .LVU188
 794 001a C2F3C062 		ubfx	r2, r2, #27, #1
 426:../../Drivers/STM32H7xx_HAL_Driver/Src/stm32h7xx_hal_eth_ex.c ****   pVlanConfig->InnerVLANTag = ((READ_BIT(heth->Instance->MACVTR,
 795              		.loc 1 426 29 view .LVU189
 796 001e 0A72     		strb	r2, [r1, #8]
 428:../../Drivers/STM32H7xx_HAL_Driver/Src/stm32h7xx_hal_eth_ex.c ****   pVlanConfig->DoubleVLANProcessing = ((READ_BIT(heth->Instance->MACVTR,
 797              		.loc 1 428 3 is_stmt 1 view .LVU190
 798              		.loc 1 428 41 is_stmt 0 view .LVU191
 799 0020 0268     		ldr	r2, [r0]
 800 0022 126D     		ldr	r2, [r2, #80]
 429:../../Drivers/STM32H7xx_HAL_Driver/Src/stm32h7xx_hal_eth_ex.c ****                                                  ETH_MACVTR_EDVLP) >> 26) == 0U) ? DISABLE : ENABLE
 801              		.loc 1 429 92 view .LVU192
 802 0024 C2F38062 		ubfx	r2, r2, #26, #1
 428:../../Drivers/STM32H7xx_HAL_Driver/Src/stm32h7xx_hal_eth_ex.c ****   pVlanConfig->DoubleVLANProcessing = ((READ_BIT(heth->Instance->MACVTR,
 803              		.loc 1 428 37 view .LVU193
 804 0028 4A72     		strb	r2, [r1, #9]
 430:../../Drivers/STM32H7xx_HAL_Driver/Src/stm32h7xx_hal_eth_ex.c ****   pVlanConfig->VLANTagHashTableMatch = ((READ_BIT(heth->Instance->MACVTR,
 805              		.loc 1 430 3 is_stmt 1 view .LVU194
 806              		.loc 1 430 42 is_stmt 0 view .LVU195
 807 002a 0268     		ldr	r2, [r0]
 808 002c 126D     		ldr	r2, [r2, #80]
 431:../../Drivers/STM32H7xx_HAL_Driver/Src/stm32h7xx_hal_eth_ex.c ****                                                   ETH_MACVTR_VTHM) >> 25) == 0U) ? DISABLE : ENABLE
 809              		.loc 1 431 92 view .LVU196
 810 002e C2F34062 		ubfx	r2, r2, #25, #1
 430:../../Drivers/STM32H7xx_HAL_Driver/Src/stm32h7xx_hal_eth_ex.c ****   pVlanConfig->VLANTagHashTableMatch = ((READ_BIT(heth->Instance->MACVTR,
 811              		.loc 1 430 38 view .LVU197
 812 0032 8A72     		strb	r2, [r1, #10]
 432:../../Drivers/STM32H7xx_HAL_Driver/Src/stm32h7xx_hal_eth_ex.c ****   pVlanConfig->VLANTagInStatus = ((READ_BIT(heth->Instance->MACVTR,
 813              		.loc 1 432 3 is_stmt 1 view .LVU198
 814              		.loc 1 432 36 is_stmt 0 view .LVU199
 815 0034 0268     		ldr	r2, [r0]
 816 0036 126D     		ldr	r2, [r2, #80]
 433:../../Drivers/STM32H7xx_HAL_Driver/Src/stm32h7xx_hal_eth_ex.c ****                                             ETH_MACVTR_EVLRXS) >> 24) == 0U) ? DISABLE : ENABLE;
 817              		.loc 1 433 88 view .LVU200
 818 0038 C2F30062 		ubfx	r2, r2, #24, #1
 432:../../Drivers/STM32H7xx_HAL_Driver/Src/stm32h7xx_hal_eth_ex.c ****   pVlanConfig->VLANTagInStatus = ((READ_BIT(heth->Instance->MACVTR,
 819              		.loc 1 432 32 view .LVU201
 820 003c CA72     		strb	r2, [r1, #11]
 434:../../Drivers/STM32H7xx_HAL_Driver/Src/stm32h7xx_hal_eth_ex.c ****   pVlanConfig->StripVLANTag = READ_BIT(heth->Instance->MACVTR, ETH_MACVTR_EVLS);
 821              		.loc 1 434 3 is_stmt 1 view .LVU202
 822              		.loc 1 434 31 is_stmt 0 view .LVU203
 823 003e 0268     		ldr	r2, [r0]
 824 0040 126D     		ldr	r2, [r2, #80]
 825 0042 02F4C002 		and	r2, r2, #6291456
ARM GAS  /tmp/ccIOaCu9.s 			page 24


 826              		.loc 1 434 29 view .LVU204
 827 0046 CA60     		str	r2, [r1, #12]
 435:../../Drivers/STM32H7xx_HAL_Driver/Src/stm32h7xx_hal_eth_ex.c ****   pVlanConfig->VLANTypeCheck = READ_BIT(heth->Instance->MACVTR,
 828              		.loc 1 435 3 is_stmt 1 view .LVU205
 829              		.loc 1 435 32 is_stmt 0 view .LVU206
 830 0048 0268     		ldr	r2, [r0]
 831 004a 126D     		ldr	r2, [r2, #80]
 832 004c 02F4E012 		and	r2, r2, #1835008
 833              		.loc 1 435 30 view .LVU207
 834 0050 0A61     		str	r2, [r1, #16]
 436:../../Drivers/STM32H7xx_HAL_Driver/Src/stm32h7xx_hal_eth_ex.c ****                                         (ETH_MACVTR_DOVLTC | ETH_MACVTR_ERSVLM | ETH_MACVTR_ESVL));
 437:../../Drivers/STM32H7xx_HAL_Driver/Src/stm32h7xx_hal_eth_ex.c ****   pVlanConfig->VLANTagInverceMatch = ((READ_BIT(heth->Instance->MACVTR, ETH_MACVTR_VTIM) >> 17) == 
 835              		.loc 1 437 3 is_stmt 1 view .LVU208
 836              		.loc 1 437 40 is_stmt 0 view .LVU209
 837 0052 0268     		ldr	r2, [r0]
 838 0054 126D     		ldr	r2, [r2, #80]
 438:../../Drivers/STM32H7xx_HAL_Driver/Src/stm32h7xx_hal_eth_ex.c ****                                      ? DISABLE : ENABLE;
 839              		.loc 1 438 48 view .LVU210
 840 0056 C2F34042 		ubfx	r2, r2, #17, #1
 437:../../Drivers/STM32H7xx_HAL_Driver/Src/stm32h7xx_hal_eth_ex.c ****                                      ? DISABLE : ENABLE;
 841              		.loc 1 437 36 view .LVU211
 842 005a 0A75     		strb	r2, [r1, #20]
 439:../../Drivers/STM32H7xx_HAL_Driver/Src/stm32h7xx_hal_eth_ex.c **** 
 440:../../Drivers/STM32H7xx_HAL_Driver/Src/stm32h7xx_hal_eth_ex.c ****   return HAL_OK;
 843              		.loc 1 440 3 is_stmt 1 view .LVU212
 844              		.loc 1 440 10 is_stmt 0 view .LVU213
 845 005c 0020     		movs	r0, #0
 846              	.LVL53:
 847              		.loc 1 440 10 view .LVU214
 848 005e 7047     		bx	lr
 849              	.LVL54:
 850              	.L46:
 420:../../Drivers/STM32H7xx_HAL_Driver/Src/stm32h7xx_hal_eth_ex.c ****   }
 851              		.loc 1 420 12 view .LVU215
 852 0060 0120     		movs	r0, #1
 853              	.LVL55:
 441:../../Drivers/STM32H7xx_HAL_Driver/Src/stm32h7xx_hal_eth_ex.c **** }
 854              		.loc 1 441 1 view .LVU216
 855 0062 7047     		bx	lr
 856              		.cfi_endproc
 857              	.LFE332:
 859              		.section	.text.HAL_ETHEx_SetRxVLANConfig,"ax",%progbits
 860              		.align	1
 861              		.global	HAL_ETHEx_SetRxVLANConfig
 862              		.syntax unified
 863              		.thumb
 864              		.thumb_func
 865              		.fpu fpv4-sp-d16
 867              	HAL_ETHEx_SetRxVLANConfig:
 868              	.LVL56:
 869              	.LFB333:
 442:../../Drivers/STM32H7xx_HAL_Driver/Src/stm32h7xx_hal_eth_ex.c **** 
 443:../../Drivers/STM32H7xx_HAL_Driver/Src/stm32h7xx_hal_eth_ex.c **** /**
 444:../../Drivers/STM32H7xx_HAL_Driver/Src/stm32h7xx_hal_eth_ex.c ****   * @brief  Set the VLAN Configuration for Receive Packets.
 445:../../Drivers/STM32H7xx_HAL_Driver/Src/stm32h7xx_hal_eth_ex.c ****   * @param  heth: pointer to a ETH_HandleTypeDef structure that contains
 446:../../Drivers/STM32H7xx_HAL_Driver/Src/stm32h7xx_hal_eth_ex.c ****   *         the configuration information for ETHERNET module
 447:../../Drivers/STM32H7xx_HAL_Driver/Src/stm32h7xx_hal_eth_ex.c ****   * @param  pVlanConfig: pointer to a ETH_RxVLANConfigTypeDef structure
ARM GAS  /tmp/ccIOaCu9.s 			page 25


 448:../../Drivers/STM32H7xx_HAL_Driver/Src/stm32h7xx_hal_eth_ex.c ****   *         that contains VLAN filter configuration.
 449:../../Drivers/STM32H7xx_HAL_Driver/Src/stm32h7xx_hal_eth_ex.c ****   * @retval HAL status
 450:../../Drivers/STM32H7xx_HAL_Driver/Src/stm32h7xx_hal_eth_ex.c ****   */
 451:../../Drivers/STM32H7xx_HAL_Driver/Src/stm32h7xx_hal_eth_ex.c **** HAL_StatusTypeDef HAL_ETHEx_SetRxVLANConfig(ETH_HandleTypeDef *heth, ETH_RxVLANConfigTypeDef *pVlan
 452:../../Drivers/STM32H7xx_HAL_Driver/Src/stm32h7xx_hal_eth_ex.c **** {
 870              		.loc 1 452 1 is_stmt 1 view -0
 871              		.cfi_startproc
 872              		@ args = 0, pretend = 0, frame = 0
 873              		@ frame_needed = 0, uses_anonymous_args = 0
 874              		@ link register save eliminated.
 453:../../Drivers/STM32H7xx_HAL_Driver/Src/stm32h7xx_hal_eth_ex.c ****   if (pVlanConfig == NULL)
 875              		.loc 1 453 3 view .LVU218
 876              		.loc 1 453 6 is_stmt 0 view .LVU219
 877 0000 39B3     		cbz	r1, .L49
 452:../../Drivers/STM32H7xx_HAL_Driver/Src/stm32h7xx_hal_eth_ex.c ****   if (pVlanConfig == NULL)
 878              		.loc 1 452 1 view .LVU220
 879 0002 10B4     		push	{r4}
 880              	.LCFI12:
 881              		.cfi_def_cfa_offset 4
 882              		.cfi_offset 4, -4
 883 0004 0A46     		mov	r2, r1
 454:../../Drivers/STM32H7xx_HAL_Driver/Src/stm32h7xx_hal_eth_ex.c ****   {
 455:../../Drivers/STM32H7xx_HAL_Driver/Src/stm32h7xx_hal_eth_ex.c ****     return HAL_ERROR;
 456:../../Drivers/STM32H7xx_HAL_Driver/Src/stm32h7xx_hal_eth_ex.c ****   }
 457:../../Drivers/STM32H7xx_HAL_Driver/Src/stm32h7xx_hal_eth_ex.c **** 
 458:../../Drivers/STM32H7xx_HAL_Driver/Src/stm32h7xx_hal_eth_ex.c ****   /* Write config to MACVTR */
 459:../../Drivers/STM32H7xx_HAL_Driver/Src/stm32h7xx_hal_eth_ex.c ****   MODIFY_REG(heth->Instance->MACVTR, ETH_MACRXVLAN_MASK, (((uint32_t)pVlanConfig->InnerVLANTagInSta
 884              		.loc 1 459 3 is_stmt 1 view .LVU221
 885 0006 0068     		ldr	r0, [r0]
 886              	.LVL57:
 887              		.loc 1 459 3 is_stmt 0 view .LVU222
 888 0008 036D     		ldr	r3, [r0, #80]
 889 000a 1349     		ldr	r1, .L54
 890              	.LVL58:
 891              		.loc 1 459 3 view .LVU223
 892 000c 1940     		ands	r1, r1, r3
 893 000e 92F800C0 		ldrb	ip, [r2]	@ zero_extendqisi2
 894 0012 5368     		ldr	r3, [r2, #4]
 895 0014 43EACC73 		orr	r3, r3, ip, lsl #31
 896 0018 92F808C0 		ldrb	ip, [r2, #8]	@ zero_extendqisi2
 897 001c 43EACC63 		orr	r3, r3, ip, lsl #27
 898 0020 92F809C0 		ldrb	ip, [r2, #9]	@ zero_extendqisi2
 899 0024 43EA8C63 		orr	r3, r3, ip, lsl #26
 900 0028 92F80AC0 		ldrb	ip, [r2, #10]	@ zero_extendqisi2
 901 002c 43EA4C63 		orr	r3, r3, ip, lsl #25
 902 0030 92F80BC0 		ldrb	ip, [r2, #11]	@ zero_extendqisi2
 903 0034 43EA0C63 		orr	r3, r3, ip, lsl #24
 904 0038 D468     		ldr	r4, [r2, #12]
 905 003a 2343     		orrs	r3, r3, r4
 906 003c 1469     		ldr	r4, [r2, #16]
 907 003e 2343     		orrs	r3, r3, r4
 908 0040 127D     		ldrb	r2, [r2, #20]	@ zero_extendqisi2
 909              	.LVL59:
 910              		.loc 1 459 3 view .LVU224
 911 0042 43EA4243 		orr	r3, r3, r2, lsl #17
 912 0046 0B43     		orrs	r3, r3, r1
 913 0048 0365     		str	r3, [r0, #80]
ARM GAS  /tmp/ccIOaCu9.s 			page 26


 460:../../Drivers/STM32H7xx_HAL_Driver/Src/stm32h7xx_hal_eth_ex.c ****                                                           pVlanConfig->StripInnerVLANTag |
 461:../../Drivers/STM32H7xx_HAL_Driver/Src/stm32h7xx_hal_eth_ex.c ****                                                           ((uint32_t)pVlanConfig->InnerVLANTag << 2
 462:../../Drivers/STM32H7xx_HAL_Driver/Src/stm32h7xx_hal_eth_ex.c ****                                                           ((uint32_t)pVlanConfig->DoubleVLANProcess
 463:../../Drivers/STM32H7xx_HAL_Driver/Src/stm32h7xx_hal_eth_ex.c ****                                                           ((uint32_t)pVlanConfig->VLANTagHashTableM
 464:../../Drivers/STM32H7xx_HAL_Driver/Src/stm32h7xx_hal_eth_ex.c ****                                                           ((uint32_t)pVlanConfig->VLANTagInStatus <
 465:../../Drivers/STM32H7xx_HAL_Driver/Src/stm32h7xx_hal_eth_ex.c ****                                                           pVlanConfig->StripVLANTag |
 466:../../Drivers/STM32H7xx_HAL_Driver/Src/stm32h7xx_hal_eth_ex.c ****                                                           pVlanConfig->VLANTypeCheck |
 467:../../Drivers/STM32H7xx_HAL_Driver/Src/stm32h7xx_hal_eth_ex.c ****                                                           ((uint32_t)pVlanConfig->VLANTagInverceMat
 468:../../Drivers/STM32H7xx_HAL_Driver/Src/stm32h7xx_hal_eth_ex.c **** 
 469:../../Drivers/STM32H7xx_HAL_Driver/Src/stm32h7xx_hal_eth_ex.c ****   return HAL_OK;
 914              		.loc 1 469 3 is_stmt 1 view .LVU225
 915              		.loc 1 469 10 is_stmt 0 view .LVU226
 916 004a 0020     		movs	r0, #0
 470:../../Drivers/STM32H7xx_HAL_Driver/Src/stm32h7xx_hal_eth_ex.c **** }
 917              		.loc 1 470 1 view .LVU227
 918 004c 5DF8044B 		ldr	r4, [sp], #4
 919              	.LCFI13:
 920              		.cfi_restore 4
 921              		.cfi_def_cfa_offset 0
 922 0050 7047     		bx	lr
 923              	.LVL60:
 924              	.L49:
 455:../../Drivers/STM32H7xx_HAL_Driver/Src/stm32h7xx_hal_eth_ex.c ****   }
 925              		.loc 1 455 12 view .LVU228
 926 0052 0120     		movs	r0, #1
 927              	.LVL61:
 928              		.loc 1 470 1 view .LVU229
 929 0054 7047     		bx	lr
 930              	.L55:
 931 0056 00BF     		.align	2
 932              	.L54:
 933 0058 FFFF8040 		.word	1082195967
 934              		.cfi_endproc
 935              	.LFE333:
 937              		.section	.text.HAL_ETHEx_SetVLANHashTable,"ax",%progbits
 938              		.align	1
 939              		.global	HAL_ETHEx_SetVLANHashTable
 940              		.syntax unified
 941              		.thumb
 942              		.thumb_func
 943              		.fpu fpv4-sp-d16
 945              	HAL_ETHEx_SetVLANHashTable:
 946              	.LVL62:
 947              	.LFB334:
 471:../../Drivers/STM32H7xx_HAL_Driver/Src/stm32h7xx_hal_eth_ex.c **** 
 472:../../Drivers/STM32H7xx_HAL_Driver/Src/stm32h7xx_hal_eth_ex.c **** /**
 473:../../Drivers/STM32H7xx_HAL_Driver/Src/stm32h7xx_hal_eth_ex.c ****   * @brief  Set the VLAN Hash Table
 474:../../Drivers/STM32H7xx_HAL_Driver/Src/stm32h7xx_hal_eth_ex.c ****   * @param  heth: pointer to a ETH_HandleTypeDef structure that contains
 475:../../Drivers/STM32H7xx_HAL_Driver/Src/stm32h7xx_hal_eth_ex.c ****   *         the configuration information for ETHERNET module
 476:../../Drivers/STM32H7xx_HAL_Driver/Src/stm32h7xx_hal_eth_ex.c ****   * @param  VLANHashTable: VLAN hash table 16 bit value
 477:../../Drivers/STM32H7xx_HAL_Driver/Src/stm32h7xx_hal_eth_ex.c ****   * @retval None
 478:../../Drivers/STM32H7xx_HAL_Driver/Src/stm32h7xx_hal_eth_ex.c ****   */
 479:../../Drivers/STM32H7xx_HAL_Driver/Src/stm32h7xx_hal_eth_ex.c **** void HAL_ETHEx_SetVLANHashTable(ETH_HandleTypeDef *heth, uint32_t VLANHashTable)
 480:../../Drivers/STM32H7xx_HAL_Driver/Src/stm32h7xx_hal_eth_ex.c **** {
 948              		.loc 1 480 1 is_stmt 1 view -0
 949              		.cfi_startproc
 950              		@ args = 0, pretend = 0, frame = 0
ARM GAS  /tmp/ccIOaCu9.s 			page 27


 951              		@ frame_needed = 0, uses_anonymous_args = 0
 952              		@ link register save eliminated.
 481:../../Drivers/STM32H7xx_HAL_Driver/Src/stm32h7xx_hal_eth_ex.c ****   MODIFY_REG(heth->Instance->MACVHTR, ETH_MACVHTR_VLHT, VLANHashTable);
 953              		.loc 1 481 3 view .LVU231
 954 0000 0268     		ldr	r2, [r0]
 955 0002 906D     		ldr	r0, [r2, #88]
 956              	.LVL63:
 957              		.loc 1 481 3 is_stmt 0 view .LVU232
 958 0004 024B     		ldr	r3, .L57
 959 0006 0340     		ands	r3, r3, r0
 960 0008 0B43     		orrs	r3, r3, r1
 961 000a 9365     		str	r3, [r2, #88]
 482:../../Drivers/STM32H7xx_HAL_Driver/Src/stm32h7xx_hal_eth_ex.c **** }
 962              		.loc 1 482 1 view .LVU233
 963 000c 7047     		bx	lr
 964              	.L58:
 965 000e 00BF     		.align	2
 966              	.L57:
 967 0010 0000FFFF 		.word	-65536
 968              		.cfi_endproc
 969              	.LFE334:
 971              		.section	.text.HAL_ETHEx_GetTxVLANConfig,"ax",%progbits
 972              		.align	1
 973              		.global	HAL_ETHEx_GetTxVLANConfig
 974              		.syntax unified
 975              		.thumb
 976              		.thumb_func
 977              		.fpu fpv4-sp-d16
 979              	HAL_ETHEx_GetTxVLANConfig:
 980              	.LVL64:
 981              	.LFB335:
 483:../../Drivers/STM32H7xx_HAL_Driver/Src/stm32h7xx_hal_eth_ex.c **** 
 484:../../Drivers/STM32H7xx_HAL_Driver/Src/stm32h7xx_hal_eth_ex.c **** /**
 485:../../Drivers/STM32H7xx_HAL_Driver/Src/stm32h7xx_hal_eth_ex.c ****   * @brief  Get the VLAN Configuration for Transmit Packets.
 486:../../Drivers/STM32H7xx_HAL_Driver/Src/stm32h7xx_hal_eth_ex.c ****   * @param  heth: pointer to a ETH_HandleTypeDef structure that contains
 487:../../Drivers/STM32H7xx_HAL_Driver/Src/stm32h7xx_hal_eth_ex.c ****   *         the configuration information for ETHERNET module
 488:../../Drivers/STM32H7xx_HAL_Driver/Src/stm32h7xx_hal_eth_ex.c ****   * @param  VLANTag: Selects the vlan tag, this parameter must be one of the following
 489:../../Drivers/STM32H7xx_HAL_Driver/Src/stm32h7xx_hal_eth_ex.c ****   *                 ETH_OUTER_TX_VLANTAG
 490:../../Drivers/STM32H7xx_HAL_Driver/Src/stm32h7xx_hal_eth_ex.c ****   *                 ETH_INNER_TX_VLANTAG
 491:../../Drivers/STM32H7xx_HAL_Driver/Src/stm32h7xx_hal_eth_ex.c ****   * @param  pVlanConfig: pointer to a ETH_TxVLANConfigTypeDef structure
 492:../../Drivers/STM32H7xx_HAL_Driver/Src/stm32h7xx_hal_eth_ex.c ****   *         that will contain the Tx VLAN filter configuration.
 493:../../Drivers/STM32H7xx_HAL_Driver/Src/stm32h7xx_hal_eth_ex.c ****   * @retval HAL Status.
 494:../../Drivers/STM32H7xx_HAL_Driver/Src/stm32h7xx_hal_eth_ex.c ****   */
 495:../../Drivers/STM32H7xx_HAL_Driver/Src/stm32h7xx_hal_eth_ex.c **** HAL_StatusTypeDef HAL_ETHEx_GetTxVLANConfig(const ETH_HandleTypeDef *heth, uint32_t VLANTag,
 496:../../Drivers/STM32H7xx_HAL_Driver/Src/stm32h7xx_hal_eth_ex.c ****                                             ETH_TxVLANConfigTypeDef *pVlanConfig)
 497:../../Drivers/STM32H7xx_HAL_Driver/Src/stm32h7xx_hal_eth_ex.c **** {
 982              		.loc 1 497 1 is_stmt 1 view -0
 983              		.cfi_startproc
 984              		@ args = 0, pretend = 0, frame = 0
 985              		@ frame_needed = 0, uses_anonymous_args = 0
 986              		@ link register save eliminated.
 498:../../Drivers/STM32H7xx_HAL_Driver/Src/stm32h7xx_hal_eth_ex.c ****   if (pVlanConfig == NULL)
 987              		.loc 1 498 3 view .LVU235
 988              		.loc 1 498 6 is_stmt 0 view .LVU236
 989 0000 1AB3     		cbz	r2, .L62
 499:../../Drivers/STM32H7xx_HAL_Driver/Src/stm32h7xx_hal_eth_ex.c ****   {
 500:../../Drivers/STM32H7xx_HAL_Driver/Src/stm32h7xx_hal_eth_ex.c ****     return HAL_ERROR;
ARM GAS  /tmp/ccIOaCu9.s 			page 28


 501:../../Drivers/STM32H7xx_HAL_Driver/Src/stm32h7xx_hal_eth_ex.c ****   }
 502:../../Drivers/STM32H7xx_HAL_Driver/Src/stm32h7xx_hal_eth_ex.c **** 
 503:../../Drivers/STM32H7xx_HAL_Driver/Src/stm32h7xx_hal_eth_ex.c ****   if (VLANTag == ETH_INNER_TX_VLANTAG)
 990              		.loc 1 503 3 is_stmt 1 view .LVU237
 991              		.loc 1 503 6 is_stmt 0 view .LVU238
 992 0002 0129     		cmp	r1, #1
 993 0004 10D0     		beq	.L63
 504:../../Drivers/STM32H7xx_HAL_Driver/Src/stm32h7xx_hal_eth_ex.c ****   {
 505:../../Drivers/STM32H7xx_HAL_Driver/Src/stm32h7xx_hal_eth_ex.c ****     pVlanConfig->SourceTxDesc = ((READ_BIT(heth->Instance->MACIVIR, ETH_MACVIR_VLTI) >> 20) == 0U) 
 506:../../Drivers/STM32H7xx_HAL_Driver/Src/stm32h7xx_hal_eth_ex.c ****     pVlanConfig->SVLANType = ((READ_BIT(heth->Instance->MACIVIR, ETH_MACVIR_CSVL) >> 19) == 0U) ? D
 507:../../Drivers/STM32H7xx_HAL_Driver/Src/stm32h7xx_hal_eth_ex.c ****     pVlanConfig->VLANTagControl = READ_BIT(heth->Instance->MACIVIR, (ETH_MACVIR_VLP | ETH_MACVIR_VL
 508:../../Drivers/STM32H7xx_HAL_Driver/Src/stm32h7xx_hal_eth_ex.c ****   }
 509:../../Drivers/STM32H7xx_HAL_Driver/Src/stm32h7xx_hal_eth_ex.c ****   else
 510:../../Drivers/STM32H7xx_HAL_Driver/Src/stm32h7xx_hal_eth_ex.c ****   {
 511:../../Drivers/STM32H7xx_HAL_Driver/Src/stm32h7xx_hal_eth_ex.c ****     pVlanConfig->SourceTxDesc = ((READ_BIT(heth->Instance->MACVIR, ETH_MACVIR_VLTI) >> 20) == 0U) ?
 994              		.loc 1 511 5 is_stmt 1 view .LVU239
 995              		.loc 1 511 35 is_stmt 0 view .LVU240
 996 0006 0368     		ldr	r3, [r0]
 997 0008 1B6E     		ldr	r3, [r3, #96]
 998              		.loc 1 511 109 view .LVU241
 999 000a C3F30053 		ubfx	r3, r3, #20, #1
 1000              		.loc 1 511 31 view .LVU242
 1001 000e 1370     		strb	r3, [r2]
 512:../../Drivers/STM32H7xx_HAL_Driver/Src/stm32h7xx_hal_eth_ex.c ****     pVlanConfig->SVLANType = ((READ_BIT(heth->Instance->MACVIR, ETH_MACVIR_CSVL) >> 19) == 0U) ? DI
 1002              		.loc 1 512 5 is_stmt 1 view .LVU243
 1003              		.loc 1 512 32 is_stmt 0 view .LVU244
 1004 0010 0368     		ldr	r3, [r0]
 1005 0012 1B6E     		ldr	r3, [r3, #96]
 1006              		.loc 1 512 106 view .LVU245
 1007 0014 C3F3C043 		ubfx	r3, r3, #19, #1
 1008              		.loc 1 512 28 view .LVU246
 1009 0018 5370     		strb	r3, [r2, #1]
 513:../../Drivers/STM32H7xx_HAL_Driver/Src/stm32h7xx_hal_eth_ex.c ****     pVlanConfig->VLANTagControl = READ_BIT(heth->Instance->MACVIR, (ETH_MACVIR_VLP | ETH_MACVIR_VLC
 1010              		.loc 1 513 5 is_stmt 1 view .LVU247
 1011              		.loc 1 513 35 is_stmt 0 view .LVU248
 1012 001a 0368     		ldr	r3, [r0]
 1013 001c 1B6E     		ldr	r3, [r3, #96]
 1014 001e 03F4E023 		and	r3, r3, #458752
 1015              		.loc 1 513 33 view .LVU249
 1016 0022 5360     		str	r3, [r2, #4]
 514:../../Drivers/STM32H7xx_HAL_Driver/Src/stm32h7xx_hal_eth_ex.c ****   }
 515:../../Drivers/STM32H7xx_HAL_Driver/Src/stm32h7xx_hal_eth_ex.c **** 
 516:../../Drivers/STM32H7xx_HAL_Driver/Src/stm32h7xx_hal_eth_ex.c ****   return HAL_OK;;
 1017              		.loc 1 516 10 view .LVU250
 1018 0024 0020     		movs	r0, #0
 1019              	.LVL65:
 1020              		.loc 1 516 10 view .LVU251
 1021 0026 7047     		bx	lr
 1022              	.LVL66:
 1023              	.L63:
 505:../../Drivers/STM32H7xx_HAL_Driver/Src/stm32h7xx_hal_eth_ex.c ****     pVlanConfig->SVLANType = ((READ_BIT(heth->Instance->MACIVIR, ETH_MACVIR_CSVL) >> 19) == 0U) ? D
 1024              		.loc 1 505 5 is_stmt 1 view .LVU252
 505:../../Drivers/STM32H7xx_HAL_Driver/Src/stm32h7xx_hal_eth_ex.c ****     pVlanConfig->SVLANType = ((READ_BIT(heth->Instance->MACIVIR, ETH_MACVIR_CSVL) >> 19) == 0U) ? D
 1025              		.loc 1 505 35 is_stmt 0 view .LVU253
 1026 0028 0368     		ldr	r3, [r0]
 1027 002a 5B6E     		ldr	r3, [r3, #100]
 505:../../Drivers/STM32H7xx_HAL_Driver/Src/stm32h7xx_hal_eth_ex.c ****     pVlanConfig->SVLANType = ((READ_BIT(heth->Instance->MACIVIR, ETH_MACVIR_CSVL) >> 19) == 0U) ? D
ARM GAS  /tmp/ccIOaCu9.s 			page 29


 1028              		.loc 1 505 110 view .LVU254
 1029 002c C3F30053 		ubfx	r3, r3, #20, #1
 505:../../Drivers/STM32H7xx_HAL_Driver/Src/stm32h7xx_hal_eth_ex.c ****     pVlanConfig->SVLANType = ((READ_BIT(heth->Instance->MACIVIR, ETH_MACVIR_CSVL) >> 19) == 0U) ? D
 1030              		.loc 1 505 31 view .LVU255
 1031 0030 1370     		strb	r3, [r2]
 506:../../Drivers/STM32H7xx_HAL_Driver/Src/stm32h7xx_hal_eth_ex.c ****     pVlanConfig->VLANTagControl = READ_BIT(heth->Instance->MACIVIR, (ETH_MACVIR_VLP | ETH_MACVIR_VL
 1032              		.loc 1 506 5 is_stmt 1 view .LVU256
 506:../../Drivers/STM32H7xx_HAL_Driver/Src/stm32h7xx_hal_eth_ex.c ****     pVlanConfig->VLANTagControl = READ_BIT(heth->Instance->MACIVIR, (ETH_MACVIR_VLP | ETH_MACVIR_VL
 1033              		.loc 1 506 32 is_stmt 0 view .LVU257
 1034 0032 0368     		ldr	r3, [r0]
 1035 0034 5B6E     		ldr	r3, [r3, #100]
 506:../../Drivers/STM32H7xx_HAL_Driver/Src/stm32h7xx_hal_eth_ex.c ****     pVlanConfig->VLANTagControl = READ_BIT(heth->Instance->MACIVIR, (ETH_MACVIR_VLP | ETH_MACVIR_VL
 1036              		.loc 1 506 107 view .LVU258
 1037 0036 C3F3C043 		ubfx	r3, r3, #19, #1
 506:../../Drivers/STM32H7xx_HAL_Driver/Src/stm32h7xx_hal_eth_ex.c ****     pVlanConfig->VLANTagControl = READ_BIT(heth->Instance->MACIVIR, (ETH_MACVIR_VLP | ETH_MACVIR_VL
 1038              		.loc 1 506 28 view .LVU259
 1039 003a 5370     		strb	r3, [r2, #1]
 507:../../Drivers/STM32H7xx_HAL_Driver/Src/stm32h7xx_hal_eth_ex.c ****   }
 1040              		.loc 1 507 5 is_stmt 1 view .LVU260
 507:../../Drivers/STM32H7xx_HAL_Driver/Src/stm32h7xx_hal_eth_ex.c ****   }
 1041              		.loc 1 507 35 is_stmt 0 view .LVU261
 1042 003c 0368     		ldr	r3, [r0]
 1043 003e 5B6E     		ldr	r3, [r3, #100]
 1044 0040 03F4E023 		and	r3, r3, #458752
 507:../../Drivers/STM32H7xx_HAL_Driver/Src/stm32h7xx_hal_eth_ex.c ****   }
 1045              		.loc 1 507 33 view .LVU262
 1046 0044 5360     		str	r3, [r2, #4]
 1047              		.loc 1 516 10 view .LVU263
 1048 0046 0020     		movs	r0, #0
 1049              	.LVL67:
 1050              		.loc 1 516 10 view .LVU264
 1051 0048 7047     		bx	lr
 1052              	.LVL68:
 1053              	.L62:
 500:../../Drivers/STM32H7xx_HAL_Driver/Src/stm32h7xx_hal_eth_ex.c ****   }
 1054              		.loc 1 500 12 view .LVU265
 1055 004a 0120     		movs	r0, #1
 1056              	.LVL69:
 1057              		.loc 1 516 17 is_stmt 1 view .LVU266
 517:../../Drivers/STM32H7xx_HAL_Driver/Src/stm32h7xx_hal_eth_ex.c **** }
 1058              		.loc 1 517 1 is_stmt 0 view .LVU267
 1059 004c 7047     		bx	lr
 1060              		.cfi_endproc
 1061              	.LFE335:
 1063              		.section	.text.HAL_ETHEx_SetTxVLANConfig,"ax",%progbits
 1064              		.align	1
 1065              		.global	HAL_ETHEx_SetTxVLANConfig
 1066              		.syntax unified
 1067              		.thumb
 1068              		.thumb_func
 1069              		.fpu fpv4-sp-d16
 1071              	HAL_ETHEx_SetTxVLANConfig:
 1072              	.LVL70:
 1073              	.LFB336:
 518:../../Drivers/STM32H7xx_HAL_Driver/Src/stm32h7xx_hal_eth_ex.c **** 
 519:../../Drivers/STM32H7xx_HAL_Driver/Src/stm32h7xx_hal_eth_ex.c **** /**
 520:../../Drivers/STM32H7xx_HAL_Driver/Src/stm32h7xx_hal_eth_ex.c ****   * @brief  Set the VLAN Configuration for Transmit Packets.
ARM GAS  /tmp/ccIOaCu9.s 			page 30


 521:../../Drivers/STM32H7xx_HAL_Driver/Src/stm32h7xx_hal_eth_ex.c ****   * @param  heth: pointer to a ETH_HandleTypeDef structure that contains
 522:../../Drivers/STM32H7xx_HAL_Driver/Src/stm32h7xx_hal_eth_ex.c ****   *         the configuration information for ETHERNET module
 523:../../Drivers/STM32H7xx_HAL_Driver/Src/stm32h7xx_hal_eth_ex.c ****   * @param  VLANTag: Selects the vlan tag, this parameter must be one of the following
 524:../../Drivers/STM32H7xx_HAL_Driver/Src/stm32h7xx_hal_eth_ex.c ****   *                 ETH_OUTER_TX_VLANTAG
 525:../../Drivers/STM32H7xx_HAL_Driver/Src/stm32h7xx_hal_eth_ex.c ****   *                 ETH_INNER_TX_VLANTAG
 526:../../Drivers/STM32H7xx_HAL_Driver/Src/stm32h7xx_hal_eth_ex.c ****   * @param  pVlanConfig: pointer to a ETH_TxVLANConfigTypeDef structure
 527:../../Drivers/STM32H7xx_HAL_Driver/Src/stm32h7xx_hal_eth_ex.c ****   *         that contains Tx VLAN filter configuration.
 528:../../Drivers/STM32H7xx_HAL_Driver/Src/stm32h7xx_hal_eth_ex.c ****   * @retval HAL Status
 529:../../Drivers/STM32H7xx_HAL_Driver/Src/stm32h7xx_hal_eth_ex.c ****   */
 530:../../Drivers/STM32H7xx_HAL_Driver/Src/stm32h7xx_hal_eth_ex.c **** HAL_StatusTypeDef HAL_ETHEx_SetTxVLANConfig(ETH_HandleTypeDef *heth, uint32_t VLANTag,
 531:../../Drivers/STM32H7xx_HAL_Driver/Src/stm32h7xx_hal_eth_ex.c ****                                             const ETH_TxVLANConfigTypeDef *pVlanConfig)
 532:../../Drivers/STM32H7xx_HAL_Driver/Src/stm32h7xx_hal_eth_ex.c **** {
 1074              		.loc 1 532 1 is_stmt 1 view -0
 1075              		.cfi_startproc
 1076              		@ args = 0, pretend = 0, frame = 0
 1077              		@ frame_needed = 0, uses_anonymous_args = 0
 1078              		@ link register save eliminated.
 533:../../Drivers/STM32H7xx_HAL_Driver/Src/stm32h7xx_hal_eth_ex.c ****   if (VLANTag == ETH_INNER_TX_VLANTAG)
 1079              		.loc 1 533 3 view .LVU269
 1080              		.loc 1 533 6 is_stmt 0 view .LVU270
 1081 0000 0129     		cmp	r1, #1
 1082 0002 0FD0     		beq	.L71
 534:../../Drivers/STM32H7xx_HAL_Driver/Src/stm32h7xx_hal_eth_ex.c ****   {
 535:../../Drivers/STM32H7xx_HAL_Driver/Src/stm32h7xx_hal_eth_ex.c ****     MODIFY_REG(heth->Instance->MACIVIR, ETH_MACTXVLAN_MASK, (((uint32_t)pVlanConfig->SourceTxDesc <
 536:../../Drivers/STM32H7xx_HAL_Driver/Src/stm32h7xx_hal_eth_ex.c ****                                                              ((uint32_t)pVlanConfig->SVLANType << 1
 537:../../Drivers/STM32H7xx_HAL_Driver/Src/stm32h7xx_hal_eth_ex.c ****                                                              pVlanConfig->VLANTagControl));
 538:../../Drivers/STM32H7xx_HAL_Driver/Src/stm32h7xx_hal_eth_ex.c ****     /* Enable Double VLAN processing */
 539:../../Drivers/STM32H7xx_HAL_Driver/Src/stm32h7xx_hal_eth_ex.c ****     SET_BIT(heth->Instance->MACVTR, ETH_MACVTR_EDVLP);
 540:../../Drivers/STM32H7xx_HAL_Driver/Src/stm32h7xx_hal_eth_ex.c ****   }
 541:../../Drivers/STM32H7xx_HAL_Driver/Src/stm32h7xx_hal_eth_ex.c ****   else
 542:../../Drivers/STM32H7xx_HAL_Driver/Src/stm32h7xx_hal_eth_ex.c ****   {
 543:../../Drivers/STM32H7xx_HAL_Driver/Src/stm32h7xx_hal_eth_ex.c ****     MODIFY_REG(heth->Instance->MACVIR, ETH_MACTXVLAN_MASK, (((uint32_t)pVlanConfig->SourceTxDesc <<
 1083              		.loc 1 543 5 is_stmt 1 view .LVU271
 1084 0004 0068     		ldr	r0, [r0]
 1085              	.LVL71:
 1086              		.loc 1 543 5 is_stmt 0 view .LVU272
 1087 0006 016E     		ldr	r1, [r0, #96]
 1088              	.LVL72:
 1089              		.loc 1 543 5 view .LVU273
 1090 0008 21F4F811 		bic	r1, r1, #2031616
 1091 000c 92F800C0 		ldrb	ip, [r2]	@ zero_extendqisi2
 1092 0010 5378     		ldrb	r3, [r2, #1]	@ zero_extendqisi2
 1093 0012 DB04     		lsls	r3, r3, #19
 1094 0014 43EA0C53 		orr	r3, r3, ip, lsl #20
 1095 0018 5268     		ldr	r2, [r2, #4]
 1096              	.LVL73:
 1097              		.loc 1 543 5 view .LVU274
 1098 001a 1343     		orrs	r3, r3, r2
 1099 001c 0B43     		orrs	r3, r3, r1
 1100 001e 0366     		str	r3, [r0, #96]
 544:../../Drivers/STM32H7xx_HAL_Driver/Src/stm32h7xx_hal_eth_ex.c ****                                                             ((uint32_t)pVlanConfig->SVLANType << 19
 545:../../Drivers/STM32H7xx_HAL_Driver/Src/stm32h7xx_hal_eth_ex.c ****                                                             pVlanConfig->VLANTagControl));
 546:../../Drivers/STM32H7xx_HAL_Driver/Src/stm32h7xx_hal_eth_ex.c ****   }
 547:../../Drivers/STM32H7xx_HAL_Driver/Src/stm32h7xx_hal_eth_ex.c **** 
 548:../../Drivers/STM32H7xx_HAL_Driver/Src/stm32h7xx_hal_eth_ex.c ****   return HAL_OK;
 1101              		.loc 1 548 3 is_stmt 1 view .LVU275
 549:../../Drivers/STM32H7xx_HAL_Driver/Src/stm32h7xx_hal_eth_ex.c **** }
ARM GAS  /tmp/ccIOaCu9.s 			page 31


 1102              		.loc 1 549 1 is_stmt 0 view .LVU276
 1103 0020 0020     		movs	r0, #0
 1104 0022 7047     		bx	lr
 1105              	.LVL74:
 1106              	.L71:
 532:../../Drivers/STM32H7xx_HAL_Driver/Src/stm32h7xx_hal_eth_ex.c ****   if (VLANTag == ETH_INNER_TX_VLANTAG)
 1107              		.loc 1 532 1 view .LVU277
 1108 0024 10B4     		push	{r4}
 1109              	.LCFI14:
 1110              		.cfi_def_cfa_offset 4
 1111              		.cfi_offset 4, -4
 535:../../Drivers/STM32H7xx_HAL_Driver/Src/stm32h7xx_hal_eth_ex.c ****                                                              ((uint32_t)pVlanConfig->SVLANType << 1
 1112              		.loc 1 535 5 is_stmt 1 view .LVU278
 1113 0026 0468     		ldr	r4, [r0]
 1114 0028 616E     		ldr	r1, [r4, #100]
 1115              	.LVL75:
 535:../../Drivers/STM32H7xx_HAL_Driver/Src/stm32h7xx_hal_eth_ex.c ****                                                              ((uint32_t)pVlanConfig->SVLANType << 1
 1116              		.loc 1 535 5 is_stmt 0 view .LVU279
 1117 002a 21F4F811 		bic	r1, r1, #2031616
 1118 002e 92F800C0 		ldrb	ip, [r2]	@ zero_extendqisi2
 1119 0032 5378     		ldrb	r3, [r2, #1]	@ zero_extendqisi2
 1120 0034 DB04     		lsls	r3, r3, #19
 1121 0036 43EA0C53 		orr	r3, r3, ip, lsl #20
 1122 003a 5268     		ldr	r2, [r2, #4]
 1123              	.LVL76:
 535:../../Drivers/STM32H7xx_HAL_Driver/Src/stm32h7xx_hal_eth_ex.c ****                                                              ((uint32_t)pVlanConfig->SVLANType << 1
 1124              		.loc 1 535 5 view .LVU280
 1125 003c 1343     		orrs	r3, r3, r2
 1126 003e 0B43     		orrs	r3, r3, r1
 1127 0040 6366     		str	r3, [r4, #100]
 539:../../Drivers/STM32H7xx_HAL_Driver/Src/stm32h7xx_hal_eth_ex.c ****   }
 1128              		.loc 1 539 5 is_stmt 1 view .LVU281
 1129 0042 0268     		ldr	r2, [r0]
 1130 0044 136D     		ldr	r3, [r2, #80]
 1131 0046 43F08063 		orr	r3, r3, #67108864
 1132 004a 1365     		str	r3, [r2, #80]
 548:../../Drivers/STM32H7xx_HAL_Driver/Src/stm32h7xx_hal_eth_ex.c **** }
 1133              		.loc 1 548 3 view .LVU282
 1134              		.loc 1 549 1 is_stmt 0 view .LVU283
 1135 004c 0020     		movs	r0, #0
 1136              	.LVL77:
 1137              		.loc 1 549 1 view .LVU284
 1138 004e 5DF8044B 		ldr	r4, [sp], #4
 1139              	.LCFI15:
 1140              		.cfi_restore 4
 1141              		.cfi_def_cfa_offset 0
 1142 0052 7047     		bx	lr
 1143              		.cfi_endproc
 1144              	.LFE336:
 1146              		.section	.text.HAL_ETHEx_SetTxVLANIdentifier,"ax",%progbits
 1147              		.align	1
 1148              		.global	HAL_ETHEx_SetTxVLANIdentifier
 1149              		.syntax unified
 1150              		.thumb
 1151              		.thumb_func
 1152              		.fpu fpv4-sp-d16
 1154              	HAL_ETHEx_SetTxVLANIdentifier:
ARM GAS  /tmp/ccIOaCu9.s 			page 32


 1155              	.LVL78:
 1156              	.LFB337:
 550:../../Drivers/STM32H7xx_HAL_Driver/Src/stm32h7xx_hal_eth_ex.c **** 
 551:../../Drivers/STM32H7xx_HAL_Driver/Src/stm32h7xx_hal_eth_ex.c **** /**
 552:../../Drivers/STM32H7xx_HAL_Driver/Src/stm32h7xx_hal_eth_ex.c ****   * @brief  Set the VLAN Tag Identifier for Transmit Packets.
 553:../../Drivers/STM32H7xx_HAL_Driver/Src/stm32h7xx_hal_eth_ex.c ****   * @param  heth: pointer to a ETH_HandleTypeDef structure that contains
 554:../../Drivers/STM32H7xx_HAL_Driver/Src/stm32h7xx_hal_eth_ex.c ****   *         the configuration information for ETHERNET module
 555:../../Drivers/STM32H7xx_HAL_Driver/Src/stm32h7xx_hal_eth_ex.c ****   * @param  VLANTag: Selects the vlan tag, this parameter must be one of the following
 556:../../Drivers/STM32H7xx_HAL_Driver/Src/stm32h7xx_hal_eth_ex.c ****   *                 ETH_OUTER_TX_VLANTAG
 557:../../Drivers/STM32H7xx_HAL_Driver/Src/stm32h7xx_hal_eth_ex.c ****   *                 ETH_INNER_TX_VLANTAG
 558:../../Drivers/STM32H7xx_HAL_Driver/Src/stm32h7xx_hal_eth_ex.c ****   * @param  VLANIdentifier: VLAN Identifier 16 bit value
 559:../../Drivers/STM32H7xx_HAL_Driver/Src/stm32h7xx_hal_eth_ex.c ****   * @retval None
 560:../../Drivers/STM32H7xx_HAL_Driver/Src/stm32h7xx_hal_eth_ex.c ****   */
 561:../../Drivers/STM32H7xx_HAL_Driver/Src/stm32h7xx_hal_eth_ex.c **** void HAL_ETHEx_SetTxVLANIdentifier(ETH_HandleTypeDef *heth, uint32_t VLANTag, uint32_t VLANIdentifi
 562:../../Drivers/STM32H7xx_HAL_Driver/Src/stm32h7xx_hal_eth_ex.c **** {
 1157              		.loc 1 562 1 is_stmt 1 view -0
 1158              		.cfi_startproc
 1159              		@ args = 0, pretend = 0, frame = 0
 1160              		@ frame_needed = 0, uses_anonymous_args = 0
 1161              		@ link register save eliminated.
 563:../../Drivers/STM32H7xx_HAL_Driver/Src/stm32h7xx_hal_eth_ex.c ****   if (VLANTag == ETH_INNER_TX_VLANTAG)
 1162              		.loc 1 563 3 view .LVU286
 1163              		.loc 1 563 6 is_stmt 0 view .LVU287
 1164 0000 0129     		cmp	r1, #1
 1165 0002 06D0     		beq	.L75
 564:../../Drivers/STM32H7xx_HAL_Driver/Src/stm32h7xx_hal_eth_ex.c ****   {
 565:../../Drivers/STM32H7xx_HAL_Driver/Src/stm32h7xx_hal_eth_ex.c ****     MODIFY_REG(heth->Instance->MACIVIR, ETH_MACVIR_VLT, VLANIdentifier);
 566:../../Drivers/STM32H7xx_HAL_Driver/Src/stm32h7xx_hal_eth_ex.c ****   }
 567:../../Drivers/STM32H7xx_HAL_Driver/Src/stm32h7xx_hal_eth_ex.c ****   else
 568:../../Drivers/STM32H7xx_HAL_Driver/Src/stm32h7xx_hal_eth_ex.c ****   {
 569:../../Drivers/STM32H7xx_HAL_Driver/Src/stm32h7xx_hal_eth_ex.c ****     MODIFY_REG(heth->Instance->MACVIR, ETH_MACVIR_VLT, VLANIdentifier);
 1166              		.loc 1 569 5 is_stmt 1 view .LVU288
 1167 0004 0168     		ldr	r1, [r0]
 1168              	.LVL79:
 1169              		.loc 1 569 5 is_stmt 0 view .LVU289
 1170 0006 086E     		ldr	r0, [r1, #96]
 1171              	.LVL80:
 1172              		.loc 1 569 5 view .LVU290
 1173 0008 054B     		ldr	r3, .L76
 1174 000a 0340     		ands	r3, r3, r0
 1175 000c 1A43     		orrs	r2, r2, r3
 1176              	.LVL81:
 1177              		.loc 1 569 5 view .LVU291
 1178 000e 0A66     		str	r2, [r1, #96]
 570:../../Drivers/STM32H7xx_HAL_Driver/Src/stm32h7xx_hal_eth_ex.c ****   }
 571:../../Drivers/STM32H7xx_HAL_Driver/Src/stm32h7xx_hal_eth_ex.c **** }
 1179              		.loc 1 571 1 view .LVU292
 1180 0010 7047     		bx	lr
 1181              	.LVL82:
 1182              	.L75:
 565:../../Drivers/STM32H7xx_HAL_Driver/Src/stm32h7xx_hal_eth_ex.c ****   }
 1183              		.loc 1 565 5 is_stmt 1 view .LVU293
 1184 0012 0168     		ldr	r1, [r0]
 1185              	.LVL83:
 565:../../Drivers/STM32H7xx_HAL_Driver/Src/stm32h7xx_hal_eth_ex.c ****   }
 1186              		.loc 1 565 5 is_stmt 0 view .LVU294
 1187 0014 486E     		ldr	r0, [r1, #100]
ARM GAS  /tmp/ccIOaCu9.s 			page 33


 1188              	.LVL84:
 565:../../Drivers/STM32H7xx_HAL_Driver/Src/stm32h7xx_hal_eth_ex.c ****   }
 1189              		.loc 1 565 5 view .LVU295
 1190 0016 024B     		ldr	r3, .L76
 1191 0018 0340     		ands	r3, r3, r0
 1192 001a 1A43     		orrs	r2, r2, r3
 1193              	.LVL85:
 565:../../Drivers/STM32H7xx_HAL_Driver/Src/stm32h7xx_hal_eth_ex.c ****   }
 1194              		.loc 1 565 5 view .LVU296
 1195 001c 4A66     		str	r2, [r1, #100]
 1196 001e 7047     		bx	lr
 1197              	.L77:
 1198              		.align	2
 1199              	.L76:
 1200 0020 0000FFFF 		.word	-65536
 1201              		.cfi_endproc
 1202              	.LFE337:
 1204              		.section	.text.HAL_ETHEx_EnableVLANProcessing,"ax",%progbits
 1205              		.align	1
 1206              		.global	HAL_ETHEx_EnableVLANProcessing
 1207              		.syntax unified
 1208              		.thumb
 1209              		.thumb_func
 1210              		.fpu fpv4-sp-d16
 1212              	HAL_ETHEx_EnableVLANProcessing:
 1213              	.LVL86:
 1214              	.LFB338:
 572:../../Drivers/STM32H7xx_HAL_Driver/Src/stm32h7xx_hal_eth_ex.c **** 
 573:../../Drivers/STM32H7xx_HAL_Driver/Src/stm32h7xx_hal_eth_ex.c **** /**
 574:../../Drivers/STM32H7xx_HAL_Driver/Src/stm32h7xx_hal_eth_ex.c ****   * @brief  Enables the VLAN Tag Filtering process.
 575:../../Drivers/STM32H7xx_HAL_Driver/Src/stm32h7xx_hal_eth_ex.c ****   * @param  heth: pointer to a ETH_HandleTypeDef structure that contains
 576:../../Drivers/STM32H7xx_HAL_Driver/Src/stm32h7xx_hal_eth_ex.c ****   *         the configuration information for ETHERNET module
 577:../../Drivers/STM32H7xx_HAL_Driver/Src/stm32h7xx_hal_eth_ex.c ****   * @retval None.
 578:../../Drivers/STM32H7xx_HAL_Driver/Src/stm32h7xx_hal_eth_ex.c ****   */
 579:../../Drivers/STM32H7xx_HAL_Driver/Src/stm32h7xx_hal_eth_ex.c **** void HAL_ETHEx_EnableVLANProcessing(ETH_HandleTypeDef *heth)
 580:../../Drivers/STM32H7xx_HAL_Driver/Src/stm32h7xx_hal_eth_ex.c **** {
 1215              		.loc 1 580 1 is_stmt 1 view -0
 1216              		.cfi_startproc
 1217              		@ args = 0, pretend = 0, frame = 0
 1218              		@ frame_needed = 0, uses_anonymous_args = 0
 1219              		@ link register save eliminated.
 581:../../Drivers/STM32H7xx_HAL_Driver/Src/stm32h7xx_hal_eth_ex.c ****   /* Enable VLAN processing */
 582:../../Drivers/STM32H7xx_HAL_Driver/Src/stm32h7xx_hal_eth_ex.c ****   SET_BIT(heth->Instance->MACPFR, ETH_MACPFR_VTFE);
 1220              		.loc 1 582 3 view .LVU298
 1221 0000 0268     		ldr	r2, [r0]
 1222 0002 9368     		ldr	r3, [r2, #8]
 1223 0004 43F48033 		orr	r3, r3, #65536
 1224 0008 9360     		str	r3, [r2, #8]
 583:../../Drivers/STM32H7xx_HAL_Driver/Src/stm32h7xx_hal_eth_ex.c **** }
 1225              		.loc 1 583 1 is_stmt 0 view .LVU299
 1226 000a 7047     		bx	lr
 1227              		.cfi_endproc
 1228              	.LFE338:
 1230              		.section	.text.HAL_ETHEx_DisableVLANProcessing,"ax",%progbits
 1231              		.align	1
 1232              		.global	HAL_ETHEx_DisableVLANProcessing
 1233              		.syntax unified
ARM GAS  /tmp/ccIOaCu9.s 			page 34


 1234              		.thumb
 1235              		.thumb_func
 1236              		.fpu fpv4-sp-d16
 1238              	HAL_ETHEx_DisableVLANProcessing:
 1239              	.LVL87:
 1240              	.LFB339:
 584:../../Drivers/STM32H7xx_HAL_Driver/Src/stm32h7xx_hal_eth_ex.c **** 
 585:../../Drivers/STM32H7xx_HAL_Driver/Src/stm32h7xx_hal_eth_ex.c **** /**
 586:../../Drivers/STM32H7xx_HAL_Driver/Src/stm32h7xx_hal_eth_ex.c ****   * @brief  Disables the VLAN Tag Filtering process.
 587:../../Drivers/STM32H7xx_HAL_Driver/Src/stm32h7xx_hal_eth_ex.c ****   * @param  heth: pointer to a ETH_HandleTypeDef structure that contains
 588:../../Drivers/STM32H7xx_HAL_Driver/Src/stm32h7xx_hal_eth_ex.c ****   *         the configuration information for ETHERNET module
 589:../../Drivers/STM32H7xx_HAL_Driver/Src/stm32h7xx_hal_eth_ex.c ****   * @retval None.
 590:../../Drivers/STM32H7xx_HAL_Driver/Src/stm32h7xx_hal_eth_ex.c ****   */
 591:../../Drivers/STM32H7xx_HAL_Driver/Src/stm32h7xx_hal_eth_ex.c **** void HAL_ETHEx_DisableVLANProcessing(ETH_HandleTypeDef *heth)
 592:../../Drivers/STM32H7xx_HAL_Driver/Src/stm32h7xx_hal_eth_ex.c **** {
 1241              		.loc 1 592 1 is_stmt 1 view -0
 1242              		.cfi_startproc
 1243              		@ args = 0, pretend = 0, frame = 0
 1244              		@ frame_needed = 0, uses_anonymous_args = 0
 1245              		@ link register save eliminated.
 593:../../Drivers/STM32H7xx_HAL_Driver/Src/stm32h7xx_hal_eth_ex.c ****   /* Disable VLAN processing */
 594:../../Drivers/STM32H7xx_HAL_Driver/Src/stm32h7xx_hal_eth_ex.c ****   CLEAR_BIT(heth->Instance->MACPFR, ETH_MACPFR_VTFE);
 1246              		.loc 1 594 3 view .LVU301
 1247 0000 0268     		ldr	r2, [r0]
 1248 0002 9368     		ldr	r3, [r2, #8]
 1249 0004 23F48033 		bic	r3, r3, #65536
 1250 0008 9360     		str	r3, [r2, #8]
 595:../../Drivers/STM32H7xx_HAL_Driver/Src/stm32h7xx_hal_eth_ex.c **** }
 1251              		.loc 1 595 1 is_stmt 0 view .LVU302
 1252 000a 7047     		bx	lr
 1253              		.cfi_endproc
 1254              	.LFE339:
 1256              		.section	.text.HAL_ETHEx_EnterLPIMode,"ax",%progbits
 1257              		.align	1
 1258              		.global	HAL_ETHEx_EnterLPIMode
 1259              		.syntax unified
 1260              		.thumb
 1261              		.thumb_func
 1262              		.fpu fpv4-sp-d16
 1264              	HAL_ETHEx_EnterLPIMode:
 1265              	.LVL88:
 1266              	.LFB340:
 596:../../Drivers/STM32H7xx_HAL_Driver/Src/stm32h7xx_hal_eth_ex.c **** 
 597:../../Drivers/STM32H7xx_HAL_Driver/Src/stm32h7xx_hal_eth_ex.c **** /**
 598:../../Drivers/STM32H7xx_HAL_Driver/Src/stm32h7xx_hal_eth_ex.c ****   * @brief  Enters the Low Power Idle (LPI) mode
 599:../../Drivers/STM32H7xx_HAL_Driver/Src/stm32h7xx_hal_eth_ex.c ****   * @param  heth: pointer to a ETH_HandleTypeDef structure that contains
 600:../../Drivers/STM32H7xx_HAL_Driver/Src/stm32h7xx_hal_eth_ex.c ****   *         the configuration information for ETHERNET module
 601:../../Drivers/STM32H7xx_HAL_Driver/Src/stm32h7xx_hal_eth_ex.c ****   * @param  TxAutomate: Enable/Disable automate enter/exit LPI mode.
 602:../../Drivers/STM32H7xx_HAL_Driver/Src/stm32h7xx_hal_eth_ex.c ****   * @param  TxClockStop: Enable/Disable Tx clock stop in LPI mode.
 603:../../Drivers/STM32H7xx_HAL_Driver/Src/stm32h7xx_hal_eth_ex.c ****   * @retval None
 604:../../Drivers/STM32H7xx_HAL_Driver/Src/stm32h7xx_hal_eth_ex.c ****   */
 605:../../Drivers/STM32H7xx_HAL_Driver/Src/stm32h7xx_hal_eth_ex.c **** void HAL_ETHEx_EnterLPIMode(ETH_HandleTypeDef *heth, FunctionalState TxAutomate, FunctionalState Tx
 606:../../Drivers/STM32H7xx_HAL_Driver/Src/stm32h7xx_hal_eth_ex.c **** {
 1267              		.loc 1 606 1 is_stmt 1 view -0
 1268              		.cfi_startproc
 1269              		@ args = 0, pretend = 0, frame = 0
 1270              		@ frame_needed = 0, uses_anonymous_args = 0
ARM GAS  /tmp/ccIOaCu9.s 			page 35


 1271              		@ link register save eliminated.
 1272              		.loc 1 606 1 is_stmt 0 view .LVU304
 1273 0000 30B4     		push	{r4, r5}
 1274              	.LCFI16:
 1275              		.cfi_def_cfa_offset 8
 1276              		.cfi_offset 4, -8
 1277              		.cfi_offset 5, -4
 607:../../Drivers/STM32H7xx_HAL_Driver/Src/stm32h7xx_hal_eth_ex.c ****   /* Enable LPI Interrupts */
 608:../../Drivers/STM32H7xx_HAL_Driver/Src/stm32h7xx_hal_eth_ex.c ****   __HAL_ETH_MAC_ENABLE_IT(heth, ETH_MACIER_LPIIE);
 1278              		.loc 1 608 3 is_stmt 1 view .LVU305
 1279 0002 0568     		ldr	r5, [r0]
 1280 0004 D5F8B440 		ldr	r4, [r5, #180]
 1281 0008 44F02004 		orr	r4, r4, #32
 1282 000c C5F8B440 		str	r4, [r5, #180]
 609:../../Drivers/STM32H7xx_HAL_Driver/Src/stm32h7xx_hal_eth_ex.c **** 
 610:../../Drivers/STM32H7xx_HAL_Driver/Src/stm32h7xx_hal_eth_ex.c ****   /* Write to LPI Control register: Enter low power mode */
 611:../../Drivers/STM32H7xx_HAL_Driver/Src/stm32h7xx_hal_eth_ex.c ****   MODIFY_REG(heth->Instance->MACLCSR, (ETH_MACLCSR_LPIEN | ETH_MACLCSR_LPITXA | ETH_MACLCSR_LPITCSE
 1283              		.loc 1 611 3 view .LVU306
 1284 0010 0068     		ldr	r0, [r0]
 1285              	.LVL89:
 1286              		.loc 1 611 3 is_stmt 0 view .LVU307
 1287 0012 D0F8D030 		ldr	r3, [r0, #208]
 1288 0016 23F42413 		bic	r3, r3, #2686976
 1289 001a 5205     		lsls	r2, r2, #21
 1290              	.LVL90:
 1291              		.loc 1 611 3 view .LVU308
 1292 001c 42EAC142 		orr	r2, r2, r1, lsl #19
 1293 0020 1343     		orrs	r3, r3, r2
 1294 0022 43F48033 		orr	r3, r3, #65536
 1295 0026 C0F8D030 		str	r3, [r0, #208]
 612:../../Drivers/STM32H7xx_HAL_Driver/Src/stm32h7xx_hal_eth_ex.c ****              (((uint32_t)TxAutomate << 19) |
 613:../../Drivers/STM32H7xx_HAL_Driver/Src/stm32h7xx_hal_eth_ex.c ****               ((uint32_t)TxClockStop << 21) |
 614:../../Drivers/STM32H7xx_HAL_Driver/Src/stm32h7xx_hal_eth_ex.c ****               ETH_MACLCSR_LPIEN));
 615:../../Drivers/STM32H7xx_HAL_Driver/Src/stm32h7xx_hal_eth_ex.c **** }
 1296              		.loc 1 615 1 view .LVU309
 1297 002a 30BC     		pop	{r4, r5}
 1298              	.LCFI17:
 1299              		.cfi_restore 5
 1300              		.cfi_restore 4
 1301              		.cfi_def_cfa_offset 0
 1302 002c 7047     		bx	lr
 1303              		.cfi_endproc
 1304              	.LFE340:
 1306              		.section	.text.HAL_ETHEx_ExitLPIMode,"ax",%progbits
 1307              		.align	1
 1308              		.global	HAL_ETHEx_ExitLPIMode
 1309              		.syntax unified
 1310              		.thumb
 1311              		.thumb_func
 1312              		.fpu fpv4-sp-d16
 1314              	HAL_ETHEx_ExitLPIMode:
 1315              	.LVL91:
 1316              	.LFB341:
 616:../../Drivers/STM32H7xx_HAL_Driver/Src/stm32h7xx_hal_eth_ex.c **** 
 617:../../Drivers/STM32H7xx_HAL_Driver/Src/stm32h7xx_hal_eth_ex.c **** /**
 618:../../Drivers/STM32H7xx_HAL_Driver/Src/stm32h7xx_hal_eth_ex.c ****   * @brief  Exits the Low Power Idle (LPI) mode.
 619:../../Drivers/STM32H7xx_HAL_Driver/Src/stm32h7xx_hal_eth_ex.c ****   * @param  heth: pointer to a ETH_HandleTypeDef structure that contains
ARM GAS  /tmp/ccIOaCu9.s 			page 36


 620:../../Drivers/STM32H7xx_HAL_Driver/Src/stm32h7xx_hal_eth_ex.c ****   *         the configuration information for ETHERNET module
 621:../../Drivers/STM32H7xx_HAL_Driver/Src/stm32h7xx_hal_eth_ex.c ****   * @retval None
 622:../../Drivers/STM32H7xx_HAL_Driver/Src/stm32h7xx_hal_eth_ex.c ****   */
 623:../../Drivers/STM32H7xx_HAL_Driver/Src/stm32h7xx_hal_eth_ex.c **** void HAL_ETHEx_ExitLPIMode(ETH_HandleTypeDef *heth)
 624:../../Drivers/STM32H7xx_HAL_Driver/Src/stm32h7xx_hal_eth_ex.c **** {
 1317              		.loc 1 624 1 is_stmt 1 view -0
 1318              		.cfi_startproc
 1319              		@ args = 0, pretend = 0, frame = 0
 1320              		@ frame_needed = 0, uses_anonymous_args = 0
 1321              		@ link register save eliminated.
 625:../../Drivers/STM32H7xx_HAL_Driver/Src/stm32h7xx_hal_eth_ex.c ****   /* Clear the LPI Config and exit low power mode */
 626:../../Drivers/STM32H7xx_HAL_Driver/Src/stm32h7xx_hal_eth_ex.c ****   CLEAR_BIT(heth->Instance->MACLCSR, (ETH_MACLCSR_LPIEN | ETH_MACLCSR_LPITXA | ETH_MACLCSR_LPITCSE)
 1322              		.loc 1 626 3 view .LVU311
 1323 0000 0268     		ldr	r2, [r0]
 1324 0002 D2F8D030 		ldr	r3, [r2, #208]
 1325 0006 23F42413 		bic	r3, r3, #2686976
 1326 000a C2F8D030 		str	r3, [r2, #208]
 627:../../Drivers/STM32H7xx_HAL_Driver/Src/stm32h7xx_hal_eth_ex.c **** 
 628:../../Drivers/STM32H7xx_HAL_Driver/Src/stm32h7xx_hal_eth_ex.c ****   /* Enable LPI Interrupts */
 629:../../Drivers/STM32H7xx_HAL_Driver/Src/stm32h7xx_hal_eth_ex.c ****   __HAL_ETH_MAC_DISABLE_IT(heth, ETH_MACIER_LPIIE);
 1327              		.loc 1 629 3 view .LVU312
 1328 000e 0268     		ldr	r2, [r0]
 1329 0010 D2F8B430 		ldr	r3, [r2, #180]
 1330 0014 23F02003 		bic	r3, r3, #32
 1331 0018 C2F8B430 		str	r3, [r2, #180]
 630:../../Drivers/STM32H7xx_HAL_Driver/Src/stm32h7xx_hal_eth_ex.c **** }
 1332              		.loc 1 630 1 is_stmt 0 view .LVU313
 1333 001c 7047     		bx	lr
 1334              		.cfi_endproc
 1335              	.LFE341:
 1337              		.section	.text.HAL_ETHEx_GetMACLPIEvent,"ax",%progbits
 1338              		.align	1
 1339              		.global	HAL_ETHEx_GetMACLPIEvent
 1340              		.syntax unified
 1341              		.thumb
 1342              		.thumb_func
 1343              		.fpu fpv4-sp-d16
 1345              	HAL_ETHEx_GetMACLPIEvent:
 1346              	.LVL92:
 1347              	.LFB342:
 631:../../Drivers/STM32H7xx_HAL_Driver/Src/stm32h7xx_hal_eth_ex.c **** 
 632:../../Drivers/STM32H7xx_HAL_Driver/Src/stm32h7xx_hal_eth_ex.c **** /**
 633:../../Drivers/STM32H7xx_HAL_Driver/Src/stm32h7xx_hal_eth_ex.c ****   * @brief  Returns the ETH MAC LPI event
 634:../../Drivers/STM32H7xx_HAL_Driver/Src/stm32h7xx_hal_eth_ex.c ****   * @param  heth: pointer to a ETH_HandleTypeDef structure that contains
 635:../../Drivers/STM32H7xx_HAL_Driver/Src/stm32h7xx_hal_eth_ex.c ****   *         the configuration information for ETHERNET module
 636:../../Drivers/STM32H7xx_HAL_Driver/Src/stm32h7xx_hal_eth_ex.c ****   * @retval ETH MAC WakeUp event
 637:../../Drivers/STM32H7xx_HAL_Driver/Src/stm32h7xx_hal_eth_ex.c ****   */
 638:../../Drivers/STM32H7xx_HAL_Driver/Src/stm32h7xx_hal_eth_ex.c **** uint32_t HAL_ETHEx_GetMACLPIEvent(const ETH_HandleTypeDef *heth)
 639:../../Drivers/STM32H7xx_HAL_Driver/Src/stm32h7xx_hal_eth_ex.c **** {
 1348              		.loc 1 639 1 is_stmt 1 view -0
 1349              		.cfi_startproc
 1350              		@ args = 0, pretend = 0, frame = 0
 1351              		@ frame_needed = 0, uses_anonymous_args = 0
 1352              		@ link register save eliminated.
 640:../../Drivers/STM32H7xx_HAL_Driver/Src/stm32h7xx_hal_eth_ex.c ****   return heth->MACLPIEvent;
 1353              		.loc 1 640 3 view .LVU315
 1354              		.loc 1 640 14 is_stmt 0 view .LVU316
ARM GAS  /tmp/ccIOaCu9.s 			page 37


 1355 0000 D0F89800 		ldr	r0, [r0, #152]
 1356              	.LVL93:
 641:../../Drivers/STM32H7xx_HAL_Driver/Src/stm32h7xx_hal_eth_ex.c **** }
 1357              		.loc 1 641 1 view .LVU317
 1358 0004 7047     		bx	lr
 1359              		.cfi_endproc
 1360              	.LFE342:
 1362              		.text
 1363              	.Letext0:
 1364              		.file 2 "/usr/lib/gcc/arm-none-eabi/10.3.1/include/stdint.h"
 1365              		.file 3 "../../Drivers/CMSIS/Device/ST/STM32H7xx/Include/stm32h745xx.h"
 1366              		.file 4 "../../Drivers/CMSIS/Device/ST/STM32H7xx/Include/stm32h7xx.h"
 1367              		.file 5 "../../Drivers/STM32H7xx_HAL_Driver/Inc/stm32h7xx_hal_def.h"
 1368              		.file 6 "../../Drivers/STM32H7xx_HAL_Driver/Inc/stm32h7xx_hal_eth.h"
 1369              		.file 7 "../../Drivers/STM32H7xx_HAL_Driver/Inc/stm32h7xx_hal_eth_ex.h"
ARM GAS  /tmp/ccIOaCu9.s 			page 38

