ARM GAS  /tmp/ccrewlIN.s 			page 1


   1              		.cpu cortex-m4
   2              		.eabi_attribute 27, 1
   3              		.eabi_attribute 28, 1
   4              		.eabi_attribute 20, 1
   5              		.eabi_attribute 21, 1
   6              		.eabi_attribute 23, 3
   7              		.eabi_attribute 24, 1
   8              		.eabi_attribute 25, 1
   9              		.eabi_attribute 26, 1
  10              		.eabi_attribute 30, 1
  11              		.eabi_attribute 34, 1
  12              		.eabi_attribute 18, 4
  13              		.file	"adc_isr.c"
  14              		.text
  15              	.Ltext0:
  16              		.cfi_sections	.debug_frame
  17              		.section	.text.HAL_ADC_ConvCpltCallback,"ax",%progbits
  18              		.align	1
  19              		.global	HAL_ADC_ConvCpltCallback
  20              		.arch armv7e-m
  21              		.syntax unified
  22              		.thumb
  23              		.thumb_func
  24              		.fpu fpv4-sp-d16
  26              	HAL_ADC_ConvCpltCallback:
  27              	.LVL0:
  28              	.LFB246:
  29              		.file 1 "../Core/Src/adc_isr.c"
   1:../Core/Src/adc_isr.c **** #include "port_config.h"
   2:../Core/Src/adc_isr.c **** #include "globals.h"
   3:../Core/Src/adc_isr.c **** #include "FreeRTOS.h"
   4:../Core/Src/adc_isr.c **** #include "portmacro.h"
   5:../Core/Src/adc_isr.c **** #include "adc.h"
   6:../Core/Src/adc_isr.c **** 
   7:../Core/Src/adc_isr.c **** void HAL_ADC_ConvCpltCallback(ADC_HandleTypeDef *hadc) {
  30              		.loc 1 7 56 view -0
  31              		.cfi_startproc
  32              		@ args = 0, pretend = 0, frame = 8
  33              		@ frame_needed = 0, uses_anonymous_args = 0
  34              		.loc 1 7 56 is_stmt 0 view .LVU1
  35 0000 70B5     		push	{r4, r5, r6, lr}
  36              	.LCFI0:
  37              		.cfi_def_cfa_offset 16
  38              		.cfi_offset 4, -16
  39              		.cfi_offset 5, -12
  40              		.cfi_offset 6, -8
  41              		.cfi_offset 14, -4
  42 0002 82B0     		sub	sp, sp, #8
  43              	.LCFI1:
  44              		.cfi_def_cfa_offset 24
  45 0004 0446     		mov	r4, r0
   8:../Core/Src/adc_isr.c ****     static uint16_t adc1_conv_ptr = 0;
  46              		.loc 1 8 5 is_stmt 1 view .LVU2
   9:../Core/Src/adc_isr.c ****     static uint16_t adc2_conv_ptr = 0;
  47              		.loc 1 9 5 view .LVU3
  10:../Core/Src/adc_isr.c ****     static uint16_t adc3_conv_ptr = 0;
  48              		.loc 1 10 5 view .LVU4
ARM GAS  /tmp/ccrewlIN.s 			page 2


  11:../Core/Src/adc_isr.c **** 
  12:../Core/Src/adc_isr.c ****     BaseType_t xHigherPriorityTaskWoken = pdFALSE;
  49              		.loc 1 12 5 view .LVU5
  50              		.loc 1 12 16 is_stmt 0 view .LVU6
  51 0006 0023     		movs	r3, #0
  52 0008 0193     		str	r3, [sp, #4]
  13:../Core/Src/adc_isr.c ****     uint16_t adc_val = HAL_ADC_GetValue(hadc);
  53              		.loc 1 13 5 is_stmt 1 view .LVU7
  54              		.loc 1 13 24 is_stmt 0 view .LVU8
  55 000a FFF7FEFF 		bl	HAL_ADC_GetValue
  56              	.LVL1:
  57              		.loc 1 13 14 view .LVU9
  58 000e 85B2     		uxth	r5, r0
  59              	.LVL2:
  14:../Core/Src/adc_isr.c ****     ADC_Channel channel;
  60              		.loc 1 14 5 is_stmt 1 view .LVU10
  15:../Core/Src/adc_isr.c **** 
  16:../Core/Src/adc_isr.c ****     ADC_HandleTypeDef *to_start = NULL;
  61              		.loc 1 16 5 view .LVU11
  17:../Core/Src/adc_isr.c ****     
  18:../Core/Src/adc_isr.c **** #ifdef USE_ADC1
  19:../Core/Src/adc_isr.c ****     if (hadc->Instance == hadc1.Instance) {
  20:../Core/Src/adc_isr.c ****         channel = ADC1_SEQUENCE[adc1_conv_ptr];
  21:../Core/Src/adc_isr.c ****         adc1_conv_ptr = (adc1_conv_ptr + 1) % ADC1_N_CHANNELS;
  22:../Core/Src/adc_isr.c **** 
  23:../Core/Src/adc_isr.c ****         if (adc1_conv_ptr == 0) {
  24:../Core/Src/adc_isr.c ****             to_start = ADC1_NEXT;
  25:../Core/Src/adc_isr.c ****         }
  26:../Core/Src/adc_isr.c ****     }
  27:../Core/Src/adc_isr.c **** #endif
  28:../Core/Src/adc_isr.c **** 
  29:../Core/Src/adc_isr.c **** #ifdef USE_ADC2
  30:../Core/Src/adc_isr.c ****     if (hadc->Instance == hadc2.Instance) {
  62              		.loc 1 30 5 view .LVU12
  63              		.loc 1 30 13 is_stmt 0 view .LVU13
  64 0010 2368     		ldr	r3, [r4]
  65              		.loc 1 30 32 view .LVU14
  66 0012 2E4A     		ldr	r2, .L20
  67 0014 1268     		ldr	r2, [r2]
  68              		.loc 1 30 8 view .LVU15
  69 0016 9342     		cmp	r3, r2
  70 0018 1FD0     		beq	.L17
  16:../Core/Src/adc_isr.c ****     
  71              		.loc 1 16 24 view .LVU16
  72 001a 0024     		movs	r4, #0
  73              	.LVL3:
  74              	.L2:
  31:../Core/Src/adc_isr.c ****         channel = ADC2_SEQUENCE[adc2_conv_ptr];
  32:../Core/Src/adc_isr.c ****         adc2_conv_ptr = (adc2_conv_ptr + 1) % ADC2_N_CHANNELS;
  33:../Core/Src/adc_isr.c **** 
  34:../Core/Src/adc_isr.c ****         if (adc2_conv_ptr == 0) {
  35:../Core/Src/adc_isr.c ****             to_start = ADC2_NEXT;
  36:../Core/Src/adc_isr.c ****         }
  37:../Core/Src/adc_isr.c ****     }
  38:../Core/Src/adc_isr.c **** #endif
  39:../Core/Src/adc_isr.c **** 
  40:../Core/Src/adc_isr.c **** #ifdef USE_ADC3
ARM GAS  /tmp/ccrewlIN.s 			page 3


  41:../Core/Src/adc_isr.c ****     if (hadc->Instance == hadc3.Instance) {
  75              		.loc 1 41 5 is_stmt 1 view .LVU17
  76              		.loc 1 41 32 is_stmt 0 view .LVU18
  77 001c 2C4A     		ldr	r2, .L20+4
  78 001e 1268     		ldr	r2, [r2]
  79              		.loc 1 41 8 view .LVU19
  80 0020 9342     		cmp	r3, r2
  81 0022 1FD0     		beq	.L18
  82 0024 0226     		movs	r6, #2
  83              	.LVL4:
  84              	.L3:
  42:../Core/Src/adc_isr.c ****         channel = ADC3_SEQUENCE[adc3_conv_ptr];
  43:../Core/Src/adc_isr.c ****         adc3_conv_ptr = (adc3_conv_ptr + 1) % ADC3_N_CHANNELS;
  44:../Core/Src/adc_isr.c **** 
  45:../Core/Src/adc_isr.c ****         if (adc3_conv_ptr == 0) {
  46:../Core/Src/adc_isr.c ****             to_start = ADC3_NEXT;
  47:../Core/Src/adc_isr.c ****         }
  48:../Core/Src/adc_isr.c ****     }
  49:../Core/Src/adc_isr.c **** #endif
  50:../Core/Src/adc_isr.c **** 
  51:../Core/Src/adc_isr.c ****     if (xSemaphoreTakeFromISR(g_state_mutex_handle, &xHigherPriorityTaskWoken) == pdTRUE) {
  85              		.loc 1 51 5 is_stmt 1 view .LVU20
  86              		.loc 1 51 9 is_stmt 0 view .LVU21
  87 0026 01AA     		add	r2, sp, #4
  88 0028 0021     		movs	r1, #0
  89 002a 2A4B     		ldr	r3, .L20+8
  90 002c 1868     		ldr	r0, [r3]
  91 002e FFF7FEFF 		bl	xQueueReceiveFromISR
  92              	.LVL5:
  93              		.loc 1 51 8 view .LVU22
  94 0032 0128     		cmp	r0, #1
  95 0034 27D0     		beq	.L19
  96              	.L4:
  52:../Core/Src/adc_isr.c ****         uint32_t rolling_avg = 0;
  53:../Core/Src/adc_isr.c **** 
  54:../Core/Src/adc_isr.c ****         switch (channel) {
  55:../Core/Src/adc_isr.c ****             case ADC_PYRO_I_0:
  56:../Core/Src/adc_isr.c ****                 g_current_state.analog_feedback_data.pyro_0_cont = adc_val;
  57:../Core/Src/adc_isr.c ****                 break;
  58:../Core/Src/adc_isr.c ****             case ADC_PYRO_I_1:
  59:../Core/Src/adc_isr.c ****                 g_current_state.analog_feedback_data.pyro_1_cont = adc_val;
  60:../Core/Src/adc_isr.c ****                 break;
  61:../Core/Src/adc_isr.c ****             case ADC_PYRO_I_2:
  62:../Core/Src/adc_isr.c ****                 g_current_state.analog_feedback_data.pyro_2_cont = adc_val;
  63:../Core/Src/adc_isr.c ****                 break;
  64:../Core/Src/adc_isr.c ****             case ADC_VCC_I:
  65:../Core/Src/adc_isr.c ****                 g_current_state.analog_feedback_data.current_fb_33 = adc_val;
  66:../Core/Src/adc_isr.c ****                 break;
  67:../Core/Src/adc_isr.c ****         }
  68:../Core/Src/adc_isr.c **** 
  69:../Core/Src/adc_isr.c ****         g_current_state.analog_feedback_data.timestamp = xTaskGetTickCount();
  70:../Core/Src/adc_isr.c ****         xSemaphoreGiveFromISR(g_state_mutex_handle, &xHigherPriorityTaskWoken);
  71:../Core/Src/adc_isr.c ****     }
  72:../Core/Src/adc_isr.c **** 
  73:../Core/Src/adc_isr.c ****     if (to_start != NULL) {
  97              		.loc 1 73 5 is_stmt 1 view .LVU23
  98              		.loc 1 73 8 is_stmt 0 view .LVU24
ARM GAS  /tmp/ccrewlIN.s 			page 4


  99 0036 14B1     		cbz	r4, .L11
  74:../Core/Src/adc_isr.c ****         HAL_ADC_Start_IT(to_start);
 100              		.loc 1 74 9 is_stmt 1 view .LVU25
 101 0038 2046     		mov	r0, r4
 102 003a FFF7FEFF 		bl	HAL_ADC_Start_IT
 103              	.LVL6:
 104              	.L11:
  75:../Core/Src/adc_isr.c ****     }
  76:../Core/Src/adc_isr.c **** 
  77:../Core/Src/adc_isr.c ****     portYIELD_FROM_ISR(xHigherPriorityTaskWoken);
 105              		.loc 1 77 5 view .LVU26
 106              		.loc 1 77 5 view .LVU27
 107 003e 019B     		ldr	r3, [sp, #4]
 108 0040 4BB1     		cbz	r3, .L1
 109              		.loc 1 77 5 discriminator 1 view .LVU28
 110              		.loc 1 77 5 discriminator 1 view .LVU29
 111 0042 4FF0E023 		mov	r3, #-536813568
 112 0046 4FF08052 		mov	r2, #268435456
 113 004a C3F8042D 		str	r2, [r3, #3332]
 114              		.loc 1 77 5 discriminator 1 view .LVU30
 115              		.syntax unified
 116              	@ 77 "../Core/Src/adc_isr.c" 1
 117 004e BFF34F8F 		dsb
 118              	@ 0 "" 2
 119              		.loc 1 77 5 discriminator 1 view .LVU31
 120              	@ 77 "../Core/Src/adc_isr.c" 1
 121 0052 BFF36F8F 		isb
 122              	@ 0 "" 2
 123              		.loc 1 77 5 discriminator 1 view .LVU32
 124              		.loc 1 77 5 discriminator 1 view .LVU33
 125              		.loc 1 77 5 discriminator 1 view .LVU34
 126              		.thumb
 127              		.syntax unified
 128              	.L1:
  78:../Core/Src/adc_isr.c **** }
 129              		.loc 1 78 1 is_stmt 0 view .LVU35
 130 0056 02B0     		add	sp, sp, #8
 131              	.LCFI2:
 132              		.cfi_remember_state
 133              		.cfi_def_cfa_offset 16
 134              		@ sp needed
 135 0058 70BD     		pop	{r4, r5, r6, pc}
 136              	.LVL7:
 137              	.L17:
 138              	.LCFI3:
 139              		.cfi_restore_state
  31:../Core/Src/adc_isr.c ****         adc2_conv_ptr = (adc2_conv_ptr + 1) % ADC2_N_CHANNELS;
 140              		.loc 1 31 9 is_stmt 1 view .LVU36
  32:../Core/Src/adc_isr.c **** 
 141              		.loc 1 32 9 view .LVU37
  32:../Core/Src/adc_isr.c **** 
 142              		.loc 1 32 23 is_stmt 0 view .LVU38
 143 005a 1F4A     		ldr	r2, .L20+12
 144 005c 0021     		movs	r1, #0
 145 005e 1180     		strh	r1, [r2]	@ movhi
  34:../Core/Src/adc_isr.c ****             to_start = ADC2_NEXT;
 146              		.loc 1 34 9 is_stmt 1 view .LVU39
ARM GAS  /tmp/ccrewlIN.s 			page 5


  35:../Core/Src/adc_isr.c ****         }
 147              		.loc 1 35 13 view .LVU40
 148              	.LVL8:
  35:../Core/Src/adc_isr.c ****         }
 149              		.loc 1 35 22 is_stmt 0 view .LVU41
 150 0060 1B4C     		ldr	r4, .L20+4
 151              	.LVL9:
  35:../Core/Src/adc_isr.c ****         }
 152              		.loc 1 35 22 view .LVU42
 153 0062 DBE7     		b	.L2
 154              	.LVL10:
 155              	.L18:
  42:../Core/Src/adc_isr.c ****         adc3_conv_ptr = (adc3_conv_ptr + 1) % ADC3_N_CHANNELS;
 156              		.loc 1 42 9 is_stmt 1 view .LVU43
  42:../Core/Src/adc_isr.c ****         adc3_conv_ptr = (adc3_conv_ptr + 1) % ADC3_N_CHANNELS;
 157              		.loc 1 42 32 is_stmt 0 view .LVU44
 158 0064 1D49     		ldr	r1, .L20+16
 159 0066 0A88     		ldrh	r2, [r1]
  42:../Core/Src/adc_isr.c ****         adc3_conv_ptr = (adc3_conv_ptr + 1) % ADC3_N_CHANNELS;
 160              		.loc 1 42 17 view .LVU45
 161 0068 1D4B     		ldr	r3, .L20+20
 162 006a 9E5C     		ldrb	r6, [r3, r2]	@ zero_extendqisi2
 163              	.LVL11:
  43:../Core/Src/adc_isr.c **** 
 164              		.loc 1 43 9 is_stmt 1 view .LVU46
  43:../Core/Src/adc_isr.c **** 
 165              		.loc 1 43 40 is_stmt 0 view .LVU47
 166 006c 0132     		adds	r2, r2, #1
  43:../Core/Src/adc_isr.c **** 
 167              		.loc 1 43 45 view .LVU48
 168 006e 1D4B     		ldr	r3, .L20+24
 169 0070 83FB0203 		smull	r0, r3, r3, r2
 170 0074 03EB4303 		add	r3, r3, r3, lsl #1
 171 0078 D31A     		subs	r3, r2, r3
  43:../Core/Src/adc_isr.c **** 
 172              		.loc 1 43 23 view .LVU49
 173 007a 9BB2     		uxth	r3, r3
 174 007c 0B80     		strh	r3, [r1]	@ movhi
  45:../Core/Src/adc_isr.c ****             to_start = ADC3_NEXT;
 175              		.loc 1 45 9 is_stmt 1 view .LVU50
  45:../Core/Src/adc_isr.c ****             to_start = ADC3_NEXT;
 176              		.loc 1 45 12 is_stmt 0 view .LVU51
 177 007e 002B     		cmp	r3, #0
 178 0080 D1D1     		bne	.L3
  46:../Core/Src/adc_isr.c ****         }
 179              		.loc 1 46 22 view .LVU52
 180 0082 0024     		movs	r4, #0
 181              	.LVL12:
  46:../Core/Src/adc_isr.c ****         }
 182              		.loc 1 46 22 view .LVU53
 183 0084 CFE7     		b	.L3
 184              	.LVL13:
 185              	.L19:
 186              	.LBB2:
  52:../Core/Src/adc_isr.c **** 
 187              		.loc 1 52 9 is_stmt 1 view .LVU54
  54:../Core/Src/adc_isr.c ****             case ADC_PYRO_I_0:
ARM GAS  /tmp/ccrewlIN.s 			page 6


 188              		.loc 1 54 9 view .LVU55
 189 0086 032E     		cmp	r6, #3
 190 0088 06D8     		bhi	.L5
 191 008a DFE806F0 		tbb	[pc, r6]
 192              	.L7:
 193 008e 02       		.byte	(.L10-.L7)/2
 194 008f 13       		.byte	(.L9-.L7)/2
 195 0090 17       		.byte	(.L8-.L7)/2
 196 0091 1B       		.byte	(.L6-.L7)/2
 197              		.p2align 1
 198              	.L10:
  56:../Core/Src/adc_isr.c ****                 break;
 199              		.loc 1 56 17 view .LVU56
  56:../Core/Src/adc_isr.c ****                 break;
 200              		.loc 1 56 66 is_stmt 0 view .LVU57
 201 0092 154B     		ldr	r3, .L20+28
 202 0094 A3F8BA50 		strh	r5, [r3, #186]	@ movhi
  57:../Core/Src/adc_isr.c ****             case ADC_PYRO_I_1:
 203              		.loc 1 57 17 is_stmt 1 view .LVU58
 204              	.L5:
  69:../Core/Src/adc_isr.c ****         xSemaphoreGiveFromISR(g_state_mutex_handle, &xHigherPriorityTaskWoken);
 205              		.loc 1 69 9 view .LVU59
  69:../Core/Src/adc_isr.c ****         xSemaphoreGiveFromISR(g_state_mutex_handle, &xHigherPriorityTaskWoken);
 206              		.loc 1 69 58 is_stmt 0 view .LVU60
 207 0098 FFF7FEFF 		bl	xTaskGetTickCount
 208              	.LVL14:
  69:../Core/Src/adc_isr.c ****         xSemaphoreGiveFromISR(g_state_mutex_handle, &xHigherPriorityTaskWoken);
 209              		.loc 1 69 56 view .LVU61
 210 009c 124B     		ldr	r3, .L20+28
 211 009e C3F8C800 		str	r0, [r3, #200]
 212 00a2 0022     		movs	r2, #0
 213 00a4 C3F8CC20 		str	r2, [r3, #204]
  70:../Core/Src/adc_isr.c ****     }
 214              		.loc 1 70 9 is_stmt 1 view .LVU62
 215 00a8 01A9     		add	r1, sp, #4
 216 00aa 0A4B     		ldr	r3, .L20+8
 217 00ac 1868     		ldr	r0, [r3]
 218 00ae FFF7FEFF 		bl	xQueueGiveFromISR
 219              	.LVL15:
 220 00b2 C0E7     		b	.L4
 221              	.L9:
  59:../Core/Src/adc_isr.c ****                 break;
 222              		.loc 1 59 17 view .LVU63
  59:../Core/Src/adc_isr.c ****                 break;
 223              		.loc 1 59 66 is_stmt 0 view .LVU64
 224 00b4 0C4B     		ldr	r3, .L20+28
 225 00b6 A3F8BC50 		strh	r5, [r3, #188]	@ movhi
  60:../Core/Src/adc_isr.c ****             case ADC_PYRO_I_2:
 226              		.loc 1 60 17 is_stmt 1 view .LVU65
 227 00ba EDE7     		b	.L5
 228              	.L8:
  62:../Core/Src/adc_isr.c ****                 break;
 229              		.loc 1 62 17 view .LVU66
  62:../Core/Src/adc_isr.c ****                 break;
 230              		.loc 1 62 66 is_stmt 0 view .LVU67
 231 00bc 0A4B     		ldr	r3, .L20+28
 232 00be A3F8BE50 		strh	r5, [r3, #190]	@ movhi
ARM GAS  /tmp/ccrewlIN.s 			page 7


  63:../Core/Src/adc_isr.c ****             case ADC_VCC_I:
 233              		.loc 1 63 17 is_stmt 1 view .LVU68
 234 00c2 E9E7     		b	.L5
 235              	.L6:
  65:../Core/Src/adc_isr.c ****                 break;
 236              		.loc 1 65 17 view .LVU69
  65:../Core/Src/adc_isr.c ****                 break;
 237              		.loc 1 65 68 is_stmt 0 view .LVU70
 238 00c4 084B     		ldr	r3, .L20+28
 239 00c6 A3F8B850 		strh	r5, [r3, #184]	@ movhi
  66:../Core/Src/adc_isr.c ****         }
 240              		.loc 1 66 17 is_stmt 1 view .LVU71
 241 00ca E5E7     		b	.L5
 242              	.L21:
 243              		.align	2
 244              	.L20:
 245 00cc 00000000 		.word	hadc2
 246 00d0 00000000 		.word	hadc3
 247 00d4 00000000 		.word	g_state_mutex_handle
 248 00d8 00000000 		.word	.LANCHOR0
 249 00dc 00000000 		.word	.LANCHOR1
 250 00e0 00000000 		.word	.LANCHOR2
 251 00e4 56555555 		.word	1431655766
 252 00e8 00000000 		.word	g_current_state
 253              	.LBE2:
 254              		.cfi_endproc
 255              	.LFE246:
 257              		.section	.bss.adc2_conv_ptr.1,"aw",%nobits
 258              		.align	1
 259              		.set	.LANCHOR0,. + 0
 262              	adc2_conv_ptr.1:
 263 0000 0000     		.space	2
 264              		.section	.bss.adc3_conv_ptr.0,"aw",%nobits
 265              		.align	1
 266              		.set	.LANCHOR1,. + 0
 269              	adc3_conv_ptr.0:
 270 0000 0000     		.space	2
 271              		.section	.rodata.ADC3_SEQUENCE,"a"
 272              		.align	2
 273              		.set	.LANCHOR2,. + 0
 276              	ADC3_SEQUENCE:
 277 0000 00       		.byte	0
 278 0001 01       		.byte	1
 279 0002 03       		.byte	3
 280              		.text
 281              	.Letext0:
 282              		.file 2 "/usr/lib/gcc/arm-none-eabi/10.3.1/include/stdint.h"
 283              		.file 3 "Drivers/CMSIS/Device/ST/STM32F4xx/Include/stm32f429xx.h"
 284              		.file 4 "Drivers/CMSIS/Device/ST/STM32F4xx/Include/stm32f4xx.h"
 285              		.file 5 "Drivers/STM32F4xx_HAL_Driver/Inc/stm32f4xx_hal_def.h"
 286              		.file 6 "Drivers/STM32F4xx_HAL_Driver/Inc/stm32f4xx_hal_dma.h"
 287              		.file 7 "Drivers/STM32F4xx_HAL_Driver/Inc/stm32f4xx_hal_adc.h"
 288              		.file 8 "../Core/Include/adc.h"
 289              		.file 9 "Core/Inc/port_config.h"
 290              		.file 10 "Core/Inc/portmacro.h"
 291              		.file 11 "../Core/FreeRTOS-Kernel/include/queue.h"
 292              		.file 12 "../Core/FreeRTOS-Kernel/include/semphr.h"
ARM GAS  /tmp/ccrewlIN.s 			page 8


 293              		.file 13 "../Core/Include/protocol.h"
 294              		.file 14 "../Core/Include/state.h"
 295              		.file 15 "../Core/Include/globals.h"
 296              		.file 16 "../Core/FreeRTOS-Kernel/include/task.h"
ARM GAS  /tmp/ccrewlIN.s 			page 9

