ARM GAS  /tmp/cc0CZAfl.s 			page 1


   1              		.cpu cortex-m4
   2              		.eabi_attribute 27, 1
   3              		.eabi_attribute 28, 1
   4              		.eabi_attribute 20, 1
   5              		.eabi_attribute 21, 1
   6              		.eabi_attribute 23, 3
   7              		.eabi_attribute 24, 1
   8              		.eabi_attribute 25, 1
   9              		.eabi_attribute 26, 1
  10              		.eabi_attribute 30, 1
  11              		.eabi_attribute 34, 1
  12              		.eabi_attribute 18, 4
  13              		.file	"periph_io.c"
  14              		.text
  15              	.Ltext0:
  16              		.cfi_sections	.debug_frame
  17              		.section	.rodata.io_init.str1.4,"aMS",%progbits,1
  18              		.align	2
  19              	.LC0:
  20 0000 496E6974 		.ascii	"Initializing IO devices...\015\012\000"
  20      69616C69 
  20      7A696E67 
  20      20494F20 
  20      64657669 
  21 001d 000000   		.align	2
  22              	.LC1:
  23 0020 2F00     		.ascii	"/\000"
  24 0022 0000     		.align	2
  25              	.LC2:
  26 0024 4D6F756E 		.ascii	"Mounted SD card\015\012\000"
  26      74656420 
  26      53442063 
  26      6172640D 
  26      0A00
  27              		.section	.text.io_init,"ax",%progbits
  28              		.align	1
  29              		.global	io_init
  30              		.arch armv7e-m
  31              		.syntax unified
  32              		.thumb
  33              		.thumb_func
  34              		.fpu fpv4-sp-d16
  36              	io_init:
  37              	.LFB246:
  38              		.file 1 "../Core/Src/periph_io.c"
   1:../Core/Src/periph_io.c **** #include "periph_io.h"
   2:../Core/Src/periph_io.c **** 
   3:../Core/Src/periph_io.c **** #include "FreeRTOS.h"
   4:../Core/Src/periph_io.c **** #include "stream_buffer.h"
   5:../Core/Src/periph_io.c **** #include "task.h"
   6:../Core/Src/periph_io.c **** 
   7:../Core/Src/periph_io.c **** #include "main.h"
   8:../Core/Src/periph_io.c **** #include "ff.h"
   9:../Core/Src/periph_io.c **** 
  10:../Core/Src/periph_io.c **** #include "globals.h"
  11:../Core/Src/periph_io.c **** #include "w25q.h"
  12:../Core/Src/periph_io.c **** 
ARM GAS  /tmp/cc0CZAfl.s 			page 2


  13:../Core/Src/periph_io.c **** /* Size of flash chip in software emulation */
  14:../Core/Src/periph_io.c **** #define SW_FLASH_CHIP_SIZE (4 * EXT_FLASH_SECTOR_SIZE)
  15:../Core/Src/periph_io.c **** 
  16:../Core/Src/periph_io.c **** /* Buffer for software emulation of flash chip */
  17:../Core/Src/periph_io.c **** #ifndef MCU_H725ZGT6
  18:../Core/Src/periph_io.c **** uint8_t _fake_flash_chip[SW_FLASH_CHIP_SIZE];
  19:../Core/Src/periph_io.c **** uint8_t *fake_flash_chip = _fake_flash_chip;
  20:../Core/Src/periph_io.c **** #endif
  21:../Core/Src/periph_io.c **** 
  22:../Core/Src/periph_io.c **** uint8_t sd_mounted = 0;
  23:../Core/Src/periph_io.c **** uint8_t flash_init = 0;
  24:../Core/Src/periph_io.c **** 
  25:../Core/Src/periph_io.c **** struct w25q_device flash_chip;
  26:../Core/Src/periph_io.c **** FATFS fs;
  27:../Core/Src/periph_io.c **** 
  28:../Core/Src/periph_io.c **** int io_init(void) {
  39              		.loc 1 28 19 view -0
  40              		.cfi_startproc
  41              		@ args = 0, pretend = 0, frame = 0
  42              		@ frame_needed = 0, uses_anonymous_args = 0
  43 0000 08B5     		push	{r3, lr}
  44              	.LCFI0:
  45              		.cfi_def_cfa_offset 8
  46              		.cfi_offset 3, -8
  47              		.cfi_offset 14, -4
  29:../Core/Src/periph_io.c ****     HAL_UART_Transmit(&debug_uart, (uint8_t *) "Initializing IO devices...\r\n", 28, HAL_MAX_DELAY)
  48              		.loc 1 29 5 view .LVU1
  49 0002 4FF0FF33 		mov	r3, #-1
  50 0006 1C22     		movs	r2, #28
  51 0008 1049     		ldr	r1, .L7
  52 000a 1148     		ldr	r0, .L7+4
  53 000c FFF7FEFF 		bl	HAL_UART_Transmit
  54              	.LVL0:
  30:../Core/Src/periph_io.c ****     if (f_mount(&fs, "/", 1) == FR_OK) {
  55              		.loc 1 30 5 view .LVU2
  56              		.loc 1 30 9 is_stmt 0 view .LVU3
  57 0010 0122     		movs	r2, #1
  58 0012 1049     		ldr	r1, .L7+8
  59 0014 1048     		ldr	r0, .L7+12
  60 0016 FFF7FEFF 		bl	f_mount
  61              	.LVL1:
  62              		.loc 1 30 8 view .LVU4
  63 001a 88B9     		cbnz	r0, .L2
  31:../Core/Src/periph_io.c ****         sd_mounted = 1;
  64              		.loc 1 31 9 is_stmt 1 view .LVU5
  65              		.loc 1 31 20 is_stmt 0 view .LVU6
  66 001c 0F4B     		ldr	r3, .L7+16
  67 001e 0122     		movs	r2, #1
  68 0020 1A70     		strb	r2, [r3]
  69              	.L3:
  32:../Core/Src/periph_io.c ****     } else {
  33:../Core/Src/periph_io.c ****         sd_mounted = 0;
  34:../Core/Src/periph_io.c ****     }
  35:../Core/Src/periph_io.c ****     HAL_UART_Transmit(&debug_uart, (uint8_t *) "Mounted SD card\r\n", 17, HAL_MAX_DELAY);
  70              		.loc 1 35 5 is_stmt 1 view .LVU7
  71 0022 4FF0FF33 		mov	r3, #-1
  72 0026 1122     		movs	r2, #17
ARM GAS  /tmp/cc0CZAfl.s 			page 3


  73 0028 0D49     		ldr	r1, .L7+20
  74 002a 0948     		ldr	r0, .L7+4
  75 002c FFF7FEFF 		bl	HAL_UART_Transmit
  76              	.LVL2:
  36:../Core/Src/periph_io.c **** 
  37:../Core/Src/periph_io.c **** #ifdef MCU_H725ZGT6
  38:../Core/Src/periph_io.c ****     if (w25q_init(&flash_chip) == W25Q_ERR_OK) {
  39:../Core/Src/periph_io.c ****         flash_init = 1;
  40:../Core/Src/periph_io.c ****     } else {
  41:../Core/Src/periph_io.c ****         flash_init = 0;
  42:../Core/Src/periph_io.c ****     }
  43:../Core/Src/periph_io.c **** #else
  44:../Core/Src/periph_io.c ****     flash_init = 1;
  77              		.loc 1 44 5 view .LVU8
  78              		.loc 1 44 16 is_stmt 0 view .LVU9
  79 0030 0C4B     		ldr	r3, .L7+24
  80 0032 0122     		movs	r2, #1
  81 0034 1A70     		strb	r2, [r3]
  45:../Core/Src/periph_io.c **** #endif
  46:../Core/Src/periph_io.c **** 
  47:../Core/Src/periph_io.c ****     return sd_mounted && flash_init;
  82              		.loc 1 47 5 is_stmt 1 view .LVU10
  83              		.loc 1 47 12 is_stmt 0 view .LVU11
  84 0036 094B     		ldr	r3, .L7+16
  85 0038 1B78     		ldrb	r3, [r3]	@ zero_extendqisi2
  86              		.loc 1 47 23 view .LVU12
  87 003a 2BB1     		cbz	r3, .L5
  88 003c 1046     		mov	r0, r2
  89              	.L1:
  48:../Core/Src/periph_io.c **** }
  90              		.loc 1 48 1 view .LVU13
  91 003e 08BD     		pop	{r3, pc}
  92              	.L2:
  33:../Core/Src/periph_io.c ****     }
  93              		.loc 1 33 9 is_stmt 1 view .LVU14
  33:../Core/Src/periph_io.c ****     }
  94              		.loc 1 33 20 is_stmt 0 view .LVU15
  95 0040 064B     		ldr	r3, .L7+16
  96 0042 0022     		movs	r2, #0
  97 0044 1A70     		strb	r2, [r3]
  98 0046 ECE7     		b	.L3
  99              	.L5:
  47:../Core/Src/periph_io.c **** }
 100              		.loc 1 47 23 view .LVU16
 101 0048 0020     		movs	r0, #0
 102 004a F8E7     		b	.L1
 103              	.L8:
 104              		.align	2
 105              	.L7:
 106 004c 00000000 		.word	.LC0
 107 0050 00000000 		.word	huart3
 108 0054 20000000 		.word	.LC1
 109 0058 00000000 		.word	fs
 110 005c 00000000 		.word	.LANCHOR0
 111 0060 24000000 		.word	.LC2
 112 0064 00000000 		.word	.LANCHOR1
 113              		.cfi_endproc
ARM GAS  /tmp/cc0CZAfl.s 			page 4


 114              	.LFE246:
 116              		.section	.text.sd_init_file,"ax",%progbits
 117              		.align	1
 118              		.global	sd_init_file
 119              		.syntax unified
 120              		.thumb
 121              		.thumb_func
 122              		.fpu fpv4-sp-d16
 124              	sd_init_file:
 125              	.LVL3:
 126              	.LFB247:
  49:../Core/Src/periph_io.c **** 
  50:../Core/Src/periph_io.c **** int sd_init_file(SDFile *file, const char *file_path) {
 127              		.loc 1 50 55 is_stmt 1 view -0
 128              		.cfi_startproc
 129              		@ args = 0, pretend = 0, frame = 0
 130              		@ frame_needed = 0, uses_anonymous_args = 0
 131              		.loc 1 50 55 is_stmt 0 view .LVU18
 132 0000 38B5     		push	{r3, r4, r5, lr}
 133              	.LCFI1:
 134              		.cfi_def_cfa_offset 16
 135              		.cfi_offset 3, -16
 136              		.cfi_offset 4, -12
 137              		.cfi_offset 5, -8
 138              		.cfi_offset 14, -4
 139 0002 0446     		mov	r4, r0
 140 0004 0D46     		mov	r5, r1
  51:../Core/Src/periph_io.c ****     if (strlen(file_path) >= SD_MAX_PATH_LEN) {
 141              		.loc 1 51 5 is_stmt 1 view .LVU19
 142              		.loc 1 51 9 is_stmt 0 view .LVU20
 143 0006 0846     		mov	r0, r1
 144              	.LVL4:
 145              		.loc 1 51 9 view .LVU21
 146 0008 FFF7FEFF 		bl	strlen
 147              	.LVL5:
 148              		.loc 1 51 8 view .LVU22
 149 000c 3F28     		cmp	r0, #63
 150 000e 01D9     		bls	.L13
  52:../Core/Src/periph_io.c ****         return 0;
 151              		.loc 1 52 16 view .LVU23
 152 0010 0020     		movs	r0, #0
 153              	.L9:
  53:../Core/Src/periph_io.c ****     }
  54:../Core/Src/periph_io.c **** 
  55:../Core/Src/periph_io.c ****     strcpy(file->file_path, file_path);
  56:../Core/Src/periph_io.c **** 
  57:../Core/Src/periph_io.c ****     file->current_mode = 0;
  58:../Core/Src/periph_io.c ****     file->is_open = 0;
  59:../Core/Src/periph_io.c ****     file->is_deleted = 0;
  60:../Core/Src/periph_io.c **** 
  61:../Core/Src/periph_io.c ****     return 1;
  62:../Core/Src/periph_io.c **** }
 154              		.loc 1 62 1 view .LVU24
 155 0012 38BD     		pop	{r3, r4, r5, pc}
 156              	.LVL6:
 157              	.L13:
  55:../Core/Src/periph_io.c **** 
ARM GAS  /tmp/cc0CZAfl.s 			page 5


 158              		.loc 1 55 5 is_stmt 1 view .LVU25
 159 0014 2946     		mov	r1, r5
 160 0016 2046     		mov	r0, r4
 161 0018 FFF7FEFF 		bl	strcpy
 162              	.LVL7:
  57:../Core/Src/periph_io.c ****     file->is_open = 0;
 163              		.loc 1 57 5 view .LVU26
  57:../Core/Src/periph_io.c ****     file->is_open = 0;
 164              		.loc 1 57 24 is_stmt 0 view .LVU27
 165 001c 0023     		movs	r3, #0
 166 001e 84F84230 		strb	r3, [r4, #66]
  58:../Core/Src/periph_io.c ****     file->is_deleted = 0;
 167              		.loc 1 58 5 is_stmt 1 view .LVU28
  58:../Core/Src/periph_io.c ****     file->is_deleted = 0;
 168              		.loc 1 58 19 is_stmt 0 view .LVU29
 169 0022 84F84030 		strb	r3, [r4, #64]
  59:../Core/Src/periph_io.c **** 
 170              		.loc 1 59 5 is_stmt 1 view .LVU30
  59:../Core/Src/periph_io.c **** 
 171              		.loc 1 59 22 is_stmt 0 view .LVU31
 172 0026 84F84130 		strb	r3, [r4, #65]
  61:../Core/Src/periph_io.c **** }
 173              		.loc 1 61 5 is_stmt 1 view .LVU32
  61:../Core/Src/periph_io.c **** }
 174              		.loc 1 61 12 is_stmt 0 view .LVU33
 175 002a 0120     		movs	r0, #1
 176 002c F1E7     		b	.L9
 177              		.cfi_endproc
 178              	.LFE247:
 180              		.section	.text.flash_init_block,"ax",%progbits
 181              		.align	1
 182              		.global	flash_init_block
 183              		.syntax unified
 184              		.thumb
 185              		.thumb_func
 186              		.fpu fpv4-sp-d16
 188              	flash_init_block:
 189              	.LVL8:
 190              	.LFB248:
  63:../Core/Src/periph_io.c **** 
  64:../Core/Src/periph_io.c **** int flash_init_block(FlashBlock *block, uint16_t start_sector, uint16_t n_sectors) {
 191              		.loc 1 64 84 is_stmt 1 view -0
 192              		.cfi_startproc
 193              		@ args = 0, pretend = 0, frame = 0
 194              		@ frame_needed = 0, uses_anonymous_args = 0
 195              		@ link register save eliminated.
  65:../Core/Src/periph_io.c ****     if (block == NULL) {
 196              		.loc 1 65 5 view .LVU35
 197              		.loc 1 65 8 is_stmt 0 view .LVU36
 198 0000 18B1     		cbz	r0, .L16
  66:../Core/Src/periph_io.c ****         return 0;
  67:../Core/Src/periph_io.c ****     }
  68:../Core/Src/periph_io.c **** 
  69:../Core/Src/periph_io.c ****     block->start_sector = start_sector;
 199              		.loc 1 69 5 is_stmt 1 view .LVU37
 200              		.loc 1 69 25 is_stmt 0 view .LVU38
 201 0002 0180     		strh	r1, [r0]	@ movhi
ARM GAS  /tmp/cc0CZAfl.s 			page 6


  70:../Core/Src/periph_io.c ****     block->n_sectors = n_sectors;
 202              		.loc 1 70 5 is_stmt 1 view .LVU39
 203              		.loc 1 70 22 is_stmt 0 view .LVU40
 204 0004 4280     		strh	r2, [r0, #2]	@ movhi
  71:../Core/Src/periph_io.c **** 
  72:../Core/Src/periph_io.c ****     return 1;
 205              		.loc 1 72 5 is_stmt 1 view .LVU41
 206              		.loc 1 72 12 is_stmt 0 view .LVU42
 207 0006 0120     		movs	r0, #1
 208              	.LVL9:
 209              		.loc 1 72 12 view .LVU43
 210 0008 7047     		bx	lr
 211              	.LVL10:
 212              	.L16:
  66:../Core/Src/periph_io.c ****     }
 213              		.loc 1 66 16 view .LVU44
 214 000a 0020     		movs	r0, #0
 215              	.LVL11:
  73:../Core/Src/periph_io.c **** }
 216              		.loc 1 73 1 view .LVU45
 217 000c 7047     		bx	lr
 218              		.cfi_endproc
 219              	.LFE248:
 221              		.section	.text.sd_open_file,"ax",%progbits
 222              		.align	1
 223              		.global	sd_open_file
 224              		.syntax unified
 225              		.thumb
 226              		.thumb_func
 227              		.fpu fpv4-sp-d16
 229              	sd_open_file:
 230              	.LVL12:
 231              	.LFB249:
  74:../Core/Src/periph_io.c **** 
  75:../Core/Src/periph_io.c **** int sd_open_file(SDFile *file, uint8_t mode) {
 232              		.loc 1 75 46 is_stmt 1 view -0
 233              		.cfi_startproc
 234              		@ args = 0, pretend = 0, frame = 0
 235              		@ frame_needed = 0, uses_anonymous_args = 0
  76:../Core/Src/periph_io.c ****     if (file == NULL || !sd_mounted) {
 236              		.loc 1 76 5 view .LVU47
 237              		.loc 1 76 8 is_stmt 0 view .LVU48
 238 0000 B0B1     		cbz	r0, .L19
  75:../Core/Src/periph_io.c ****     if (file == NULL || !sd_mounted) {
 239              		.loc 1 75 46 discriminator 1 view .LVU49
 240 0002 38B5     		push	{r3, r4, r5, lr}
 241              	.LCFI2:
 242              		.cfi_def_cfa_offset 16
 243              		.cfi_offset 3, -16
 244              		.cfi_offset 4, -12
 245              		.cfi_offset 5, -8
 246              		.cfi_offset 14, -4
 247 0004 0C46     		mov	r4, r1
 248 0006 0546     		mov	r5, r0
 249              		.loc 1 76 25 discriminator 1 view .LVU50
 250 0008 0B4B     		ldr	r3, .L27
 251 000a 1B78     		ldrb	r3, [r3]	@ zero_extendqisi2
ARM GAS  /tmp/cc0CZAfl.s 			page 7


 252              		.loc 1 76 22 discriminator 1 view .LVU51
 253 000c 0BB9     		cbnz	r3, .L26
  77:../Core/Src/periph_io.c ****         return 0;
 254              		.loc 1 77 16 view .LVU52
 255 000e 0020     		movs	r0, #0
 256              	.LVL13:
 257              	.L17:
  78:../Core/Src/periph_io.c ****     }
  79:../Core/Src/periph_io.c **** 
  80:../Core/Src/periph_io.c ****     if (f_open(&file->fil, file->file_path, mode) != FR_OK) {
  81:../Core/Src/periph_io.c ****         return 0;
  82:../Core/Src/periph_io.c ****     }
  83:../Core/Src/periph_io.c **** 
  84:../Core/Src/periph_io.c ****     file->is_open = 1;
  85:../Core/Src/periph_io.c ****     file->is_deleted = 0;
  86:../Core/Src/periph_io.c ****     file->current_mode = mode;
  87:../Core/Src/periph_io.c **** 
  88:../Core/Src/periph_io.c ****     return 1;
  89:../Core/Src/periph_io.c **** }
 258              		.loc 1 89 1 view .LVU53
 259 0010 38BD     		pop	{r3, r4, r5, pc}
 260              	.LVL14:
 261              	.L26:
  80:../Core/Src/periph_io.c ****         return 0;
 262              		.loc 1 80 5 is_stmt 1 view .LVU54
  80:../Core/Src/periph_io.c ****         return 0;
 263              		.loc 1 80 9 is_stmt 0 view .LVU55
 264 0012 0A46     		mov	r2, r1
 265 0014 0146     		mov	r1, r0
 266              	.LVL15:
  80:../Core/Src/periph_io.c ****         return 0;
 267              		.loc 1 80 9 view .LVU56
 268 0016 4430     		adds	r0, r0, #68
 269              	.LVL16:
  80:../Core/Src/periph_io.c ****         return 0;
 270              		.loc 1 80 9 view .LVU57
 271 0018 FFF7FEFF 		bl	f_open
 272              	.LVL17:
  80:../Core/Src/periph_io.c ****         return 0;
 273              		.loc 1 80 8 view .LVU58
 274 001c 50B9     		cbnz	r0, .L21
  84:../Core/Src/periph_io.c ****     file->is_deleted = 0;
 275              		.loc 1 84 5 is_stmt 1 view .LVU59
  84:../Core/Src/periph_io.c ****     file->is_deleted = 0;
 276              		.loc 1 84 19 is_stmt 0 view .LVU60
 277 001e 0120     		movs	r0, #1
 278 0020 85F84000 		strb	r0, [r5, #64]
  85:../Core/Src/periph_io.c ****     file->current_mode = mode;
 279              		.loc 1 85 5 is_stmt 1 view .LVU61
  85:../Core/Src/periph_io.c ****     file->current_mode = mode;
 280              		.loc 1 85 22 is_stmt 0 view .LVU62
 281 0024 0023     		movs	r3, #0
 282 0026 85F84130 		strb	r3, [r5, #65]
  86:../Core/Src/periph_io.c **** 
 283              		.loc 1 86 5 is_stmt 1 view .LVU63
  86:../Core/Src/periph_io.c **** 
 284              		.loc 1 86 24 is_stmt 0 view .LVU64
ARM GAS  /tmp/cc0CZAfl.s 			page 8


 285 002a 85F84240 		strb	r4, [r5, #66]
  88:../Core/Src/periph_io.c **** }
 286              		.loc 1 88 5 is_stmt 1 view .LVU65
  88:../Core/Src/periph_io.c **** }
 287              		.loc 1 88 12 is_stmt 0 view .LVU66
 288 002e EFE7     		b	.L17
 289              	.LVL18:
 290              	.L19:
 291              	.LCFI3:
 292              		.cfi_def_cfa_offset 0
 293              		.cfi_restore 3
 294              		.cfi_restore 4
 295              		.cfi_restore 5
 296              		.cfi_restore 14
  77:../Core/Src/periph_io.c ****     }
 297              		.loc 1 77 16 view .LVU67
 298 0030 0020     		movs	r0, #0
 299              	.LVL19:
 300              		.loc 1 89 1 view .LVU68
 301 0032 7047     		bx	lr
 302              	.LVL20:
 303              	.L21:
 304              	.LCFI4:
 305              		.cfi_def_cfa_offset 16
 306              		.cfi_offset 3, -16
 307              		.cfi_offset 4, -12
 308              		.cfi_offset 5, -8
 309              		.cfi_offset 14, -4
  81:../Core/Src/periph_io.c ****     }
 310              		.loc 1 81 16 view .LVU69
 311 0034 0020     		movs	r0, #0
 312 0036 EBE7     		b	.L17
 313              	.L28:
 314              		.align	2
 315              	.L27:
 316 0038 00000000 		.word	.LANCHOR0
 317              		.cfi_endproc
 318              	.LFE249:
 320              		.section	.rodata.sd_write_file.str1.4,"aMS",%progbits,1
 321              		.align	2
 322              	.LC3:
 323 0000 46696C65 		.ascii	"File is deleted: %d, Current mode: %d, SD mounted: "
 323      20697320 
 323      64656C65 
 323      7465643A 
 323      2025642C 
 324 0033 25640D0A 		.ascii	"%d\015\012\000"
 324      00
 325              		.align	2
 326              	.LC4:
 327 0038 4661696C 		.ascii	"Failure 2\015\012\000"
 327      75726520 
 327      320D0A00 
 328              		.align	2
 329              	.LC5:
 330 0044 57726F74 		.ascii	"Wrote %d bytes starting at %d\015\012\000"
 330      65202564 
ARM GAS  /tmp/cc0CZAfl.s 			page 9


 330      20627974 
 330      65732073 
 330      74617274 
 331              		.section	.text.sd_write_file,"ax",%progbits
 332              		.align	1
 333              		.global	sd_write_file
 334              		.syntax unified
 335              		.thumb
 336              		.thumb_func
 337              		.fpu fpv4-sp-d16
 339              	sd_write_file:
 340              	.LVL21:
 341              	.LFB250:
  90:../Core/Src/periph_io.c **** 
  91:../Core/Src/periph_io.c **** int sd_write_file(SDFile *file, uint16_t start_addr, uint8_t *data, size_t len) {
 342              		.loc 1 91 81 is_stmt 1 view -0
 343              		.cfi_startproc
 344              		@ args = 0, pretend = 0, frame = 104
 345              		@ frame_needed = 0, uses_anonymous_args = 0
 346              		.loc 1 91 81 is_stmt 0 view .LVU71
 347 0000 2DE9F041 		push	{r4, r5, r6, r7, r8, lr}
 348              	.LCFI5:
 349              		.cfi_def_cfa_offset 24
 350              		.cfi_offset 4, -24
 351              		.cfi_offset 5, -20
 352              		.cfi_offset 6, -16
 353              		.cfi_offset 7, -12
 354              		.cfi_offset 8, -8
 355              		.cfi_offset 14, -4
 356 0004 9CB0     		sub	sp, sp, #112
 357              	.LCFI6:
 358              		.cfi_def_cfa_offset 136
  92:../Core/Src/periph_io.c ****     if (file == NULL || file->is_deleted || (file->current_mode & FA_WRITE) != FA_WRITE || data == 
 359              		.loc 1 92 5 is_stmt 1 view .LVU72
 360              		.loc 1 92 8 is_stmt 0 view .LVU73
 361 0006 0446     		mov	r4, r0
 362 0008 70B1     		cbz	r0, .L30
 363 000a 8846     		mov	r8, r1
 364 000c 1746     		mov	r7, r2
 365 000e 1E46     		mov	r6, r3
 366              		.loc 1 92 29 discriminator 1 view .LVU74
 367 0010 90F84130 		ldrb	r3, [r0, #65]	@ zero_extendqisi2
 368              	.LVL22:
 369              		.loc 1 92 22 discriminator 1 view .LVU75
 370 0014 43B9     		cbnz	r3, .L30
 371              		.loc 1 92 50 discriminator 2 view .LVU76
 372 0016 90F84230 		ldrb	r3, [r0, #66]	@ zero_extendqisi2
 373              		.loc 1 92 42 discriminator 2 view .LVU77
 374 001a 13F0020F 		tst	r3, #2
 375 001e 03D0     		beq	.L30
 376              		.loc 1 92 89 discriminator 3 view .LVU78
 377 0020 12B1     		cbz	r2, .L30
 378              		.loc 1 92 108 discriminator 4 view .LVU79
 379 0022 2A4B     		ldr	r3, .L41
 380 0024 1B78     		ldrb	r3, [r3]	@ zero_extendqisi2
 381              		.loc 1 92 105 discriminator 4 view .LVU80
 382 0026 D3B9     		cbnz	r3, .L31
ARM GAS  /tmp/cc0CZAfl.s 			page 10


 383              	.LVL23:
 384              	.L30:
 385              	.LBB2:
  93:../Core/Src/periph_io.c ****         char buf[100];
 386              		.loc 1 93 9 is_stmt 1 view .LVU81
  94:../Core/Src/periph_io.c ****         sprintf(buf, "File is deleted: %d, Current mode: %d, SD mounted: %d\r\n", file->is_deleted,
 387              		.loc 1 94 9 view .LVU82
 388              		.loc 1 94 105 is_stmt 0 view .LVU83
 389 0028 94F84230 		ldrb	r3, [r4, #66]	@ zero_extendqisi2
 390              		.loc 1 94 9 view .LVU84
 391 002c 274A     		ldr	r2, .L41
 392              	.LVL24:
 393              		.loc 1 94 9 view .LVU85
 394 002e 1278     		ldrb	r2, [r2]	@ zero_extendqisi2
 395 0030 0092     		str	r2, [sp]
 396 0032 03F00203 		and	r3, r3, #2
 397 0036 94F84120 		ldrb	r2, [r4, #65]	@ zero_extendqisi2
 398 003a 2549     		ldr	r1, .L41+4
 399              	.LVL25:
 400              		.loc 1 94 9 view .LVU86
 401 003c 03A8     		add	r0, sp, #12
 402              	.LVL26:
 403              		.loc 1 94 9 view .LVU87
 404 003e FFF7FEFF 		bl	sprintf
 405              	.LVL27:
  95:../Core/Src/periph_io.c ****         HAL_UART_Transmit(&debug_uart, (uint8_t *) buf, strlen(buf), HAL_MAX_DELAY);
 406              		.loc 1 95 9 is_stmt 1 view .LVU88
 407              		.loc 1 95 57 is_stmt 0 view .LVU89
 408 0042 03A8     		add	r0, sp, #12
 409 0044 FFF7FEFF 		bl	strlen
 410              	.LVL28:
 411              		.loc 1 95 9 view .LVU90
 412 0048 4FF0FF33 		mov	r3, #-1
 413 004c 82B2     		uxth	r2, r0
 414 004e 03A9     		add	r1, sp, #12
 415 0050 2048     		ldr	r0, .L41+8
 416 0052 FFF7FEFF 		bl	HAL_UART_Transmit
 417              	.LVL29:
  96:../Core/Src/periph_io.c ****         return 0;
 418              		.loc 1 96 9 is_stmt 1 view .LVU91
 419              		.loc 1 96 16 is_stmt 0 view .LVU92
 420 0056 0020     		movs	r0, #0
 421              	.LVL30:
 422              	.L29:
 423              		.loc 1 96 16 view .LVU93
 424              	.LBE2:
  97:../Core/Src/periph_io.c ****     }
  98:../Core/Src/periph_io.c ****     
  99:../Core/Src/periph_io.c ****     if (f_lseek(&file->fil, start_addr) != FR_OK) {
 100:../Core/Src/periph_io.c ****         HAL_UART_Transmit(&debug_uart, (uint8_t *) "Failure 2\r\n", 11, HAL_MAX_DELAY);
 101:../Core/Src/periph_io.c ****         return 0;
 102:../Core/Src/periph_io.c ****     }
 103:../Core/Src/periph_io.c **** 
 104:../Core/Src/periph_io.c ****     for (size_t offset = 0; offset < len; offset += SD_MAX_READ_WRITE_SIZE) {
 105:../Core/Src/periph_io.c ****         size_t remaining = len - offset;
 106:../Core/Src/periph_io.c ****         size_t write_size = (remaining > SD_MAX_READ_WRITE_SIZE) ? SD_MAX_READ_WRITE_SIZE : remaini
 107:../Core/Src/periph_io.c **** 
ARM GAS  /tmp/cc0CZAfl.s 			page 11


 108:../Core/Src/periph_io.c ****         UINT bytes_written;
 109:../Core/Src/periph_io.c ****         if (f_write(&file->fil, data + offset, write_size, &bytes_written) != FR_OK) {
 110:../Core/Src/periph_io.c ****             return 0;
 111:../Core/Src/periph_io.c ****         }
 112:../Core/Src/periph_io.c **** 
 113:../Core/Src/periph_io.c ****         char buf[100];
 114:../Core/Src/periph_io.c ****         sprintf(buf, "Wrote %d bytes starting at %d\r\n", bytes_written, start_addr + offset);
 115:../Core/Src/periph_io.c ****         HAL_UART_Transmit(&debug_uart, (uint8_t *) buf, strlen(buf), HAL_MAX_DELAY);
 116:../Core/Src/periph_io.c ****     }
 117:../Core/Src/periph_io.c **** 
 118:../Core/Src/periph_io.c ****     return 1;
 119:../Core/Src/periph_io.c **** }
 425              		.loc 1 119 1 view .LVU94
 426 0058 1CB0     		add	sp, sp, #112
 427              	.LCFI7:
 428              		.cfi_remember_state
 429              		.cfi_def_cfa_offset 24
 430              		@ sp needed
 431 005a BDE8F081 		pop	{r4, r5, r6, r7, r8, pc}
 432              	.LVL31:
 433              	.L31:
 434              	.LCFI8:
 435              		.cfi_restore_state
  99:../Core/Src/periph_io.c ****         HAL_UART_Transmit(&debug_uart, (uint8_t *) "Failure 2\r\n", 11, HAL_MAX_DELAY);
 436              		.loc 1 99 5 is_stmt 1 view .LVU95
  99:../Core/Src/periph_io.c ****         HAL_UART_Transmit(&debug_uart, (uint8_t *) "Failure 2\r\n", 11, HAL_MAX_DELAY);
 437              		.loc 1 99 9 is_stmt 0 view .LVU96
 438 005e 00F14405 		add	r5, r0, #68
 439 0062 2846     		mov	r0, r5
 440              	.LVL32:
  99:../Core/Src/periph_io.c ****         HAL_UART_Transmit(&debug_uart, (uint8_t *) "Failure 2\r\n", 11, HAL_MAX_DELAY);
 441              		.loc 1 99 9 view .LVU97
 442 0064 FFF7FEFF 		bl	f_lseek
 443              	.LVL33:
  99:../Core/Src/periph_io.c ****         HAL_UART_Transmit(&debug_uart, (uint8_t *) "Failure 2\r\n", 11, HAL_MAX_DELAY);
 444              		.loc 1 99 8 view .LVU98
 445 0068 10BB     		cbnz	r0, .L38
 446              	.LBB3:
 104:../Core/Src/periph_io.c ****         size_t remaining = len - offset;
 447              		.loc 1 104 17 view .LVU99
 448 006a 0024     		movs	r4, #0
 449              	.LVL34:
 450              	.L33:
 104:../Core/Src/periph_io.c ****         size_t remaining = len - offset;
 451              		.loc 1 104 29 is_stmt 1 discriminator 1 view .LVU100
 104:../Core/Src/periph_io.c ****         size_t remaining = len - offset;
 452              		.loc 1 104 5 is_stmt 0 discriminator 1 view .LVU101
 453 006c B442     		cmp	r4, r6
 454 006e 2AD2     		bcs	.L39
 455              	.LBB4:
 105:../Core/Src/periph_io.c ****         size_t write_size = (remaining > SD_MAX_READ_WRITE_SIZE) ? SD_MAX_READ_WRITE_SIZE : remaini
 456              		.loc 1 105 9 is_stmt 1 view .LVU102
 105:../Core/Src/periph_io.c ****         size_t write_size = (remaining > SD_MAX_READ_WRITE_SIZE) ? SD_MAX_READ_WRITE_SIZE : remaini
 457              		.loc 1 105 16 is_stmt 0 view .LVU103
 458 0070 321B     		subs	r2, r6, r4
 106:../Core/Src/periph_io.c **** 
 459              		.loc 1 106 9 is_stmt 1 view .LVU104
ARM GAS  /tmp/cc0CZAfl.s 			page 12


 108:../Core/Src/periph_io.c ****         if (f_write(&file->fil, data + offset, write_size, &bytes_written) != FR_OK) {
 460              		.loc 1 108 9 view .LVU105
 109:../Core/Src/periph_io.c ****             return 0;
 461              		.loc 1 109 9 view .LVU106
 109:../Core/Src/periph_io.c ****             return 0;
 462              		.loc 1 109 13 is_stmt 0 view .LVU107
 463 0072 02AB     		add	r3, sp, #8
 464 0074 B2F5007F 		cmp	r2, #512
 465 0078 28BF     		it	cs
 466 007a 4FF40072 		movcs	r2, #512
 467 007e 3919     		adds	r1, r7, r4
 468 0080 2846     		mov	r0, r5
 469 0082 FFF7FEFF 		bl	f_write
 470              	.LVL35:
 109:../Core/Src/periph_io.c ****             return 0;
 471              		.loc 1 109 12 view .LVU108
 472 0086 E0B9     		cbnz	r0, .L40
 113:../Core/Src/periph_io.c ****         sprintf(buf, "Wrote %d bytes starting at %d\r\n", bytes_written, start_addr + offset);
 473              		.loc 1 113 9 is_stmt 1 view .LVU109
 114:../Core/Src/periph_io.c ****         HAL_UART_Transmit(&debug_uart, (uint8_t *) buf, strlen(buf), HAL_MAX_DELAY);
 474              		.loc 1 114 9 view .LVU110
 475 0088 08EB0403 		add	r3, r8, r4
 476 008c 029A     		ldr	r2, [sp, #8]
 477 008e 1249     		ldr	r1, .L41+12
 478 0090 03A8     		add	r0, sp, #12
 479 0092 FFF7FEFF 		bl	sprintf
 480              	.LVL36:
 115:../Core/Src/periph_io.c ****     }
 481              		.loc 1 115 9 view .LVU111
 115:../Core/Src/periph_io.c ****     }
 482              		.loc 1 115 57 is_stmt 0 view .LVU112
 483 0096 03A8     		add	r0, sp, #12
 484 0098 FFF7FEFF 		bl	strlen
 485              	.LVL37:
 115:../Core/Src/periph_io.c ****     }
 486              		.loc 1 115 9 view .LVU113
 487 009c 4FF0FF33 		mov	r3, #-1
 488 00a0 82B2     		uxth	r2, r0
 489 00a2 03A9     		add	r1, sp, #12
 490 00a4 0B48     		ldr	r0, .L41+8
 491 00a6 FFF7FEFF 		bl	HAL_UART_Transmit
 492              	.LVL38:
 493              	.LBE4:
 104:../Core/Src/periph_io.c ****         size_t remaining = len - offset;
 494              		.loc 1 104 43 is_stmt 1 view .LVU114
 104:../Core/Src/periph_io.c ****         size_t remaining = len - offset;
 495              		.loc 1 104 50 is_stmt 0 view .LVU115
 496 00aa 04F50074 		add	r4, r4, #512
 497              	.LVL39:
 104:../Core/Src/periph_io.c ****         size_t remaining = len - offset;
 498              		.loc 1 104 50 view .LVU116
 499 00ae DDE7     		b	.L33
 500              	.LVL40:
 501              	.L38:
 104:../Core/Src/periph_io.c ****         size_t remaining = len - offset;
 502              		.loc 1 104 50 view .LVU117
 503              	.LBE3:
ARM GAS  /tmp/cc0CZAfl.s 			page 13


 100:../Core/Src/periph_io.c ****         return 0;
 504              		.loc 1 100 9 is_stmt 1 view .LVU118
 505 00b0 4FF0FF33 		mov	r3, #-1
 506 00b4 0B22     		movs	r2, #11
 507 00b6 0949     		ldr	r1, .L41+16
 508 00b8 0648     		ldr	r0, .L41+8
 509 00ba FFF7FEFF 		bl	HAL_UART_Transmit
 510              	.LVL41:
 101:../Core/Src/periph_io.c ****     }
 511              		.loc 1 101 9 view .LVU119
 101:../Core/Src/periph_io.c ****     }
 512              		.loc 1 101 16 is_stmt 0 view .LVU120
 513 00be 0020     		movs	r0, #0
 514 00c0 CAE7     		b	.L29
 515              	.LVL42:
 516              	.L40:
 517              	.LBB6:
 518              	.LBB5:
 110:../Core/Src/periph_io.c ****         }
 519              		.loc 1 110 13 is_stmt 1 view .LVU121
 110:../Core/Src/periph_io.c ****         }
 520              		.loc 1 110 20 is_stmt 0 view .LVU122
 521 00c2 0020     		movs	r0, #0
 522 00c4 C8E7     		b	.L29
 523              	.L39:
 110:../Core/Src/periph_io.c ****         }
 524              		.loc 1 110 20 view .LVU123
 525              	.LBE5:
 526              	.LBE6:
 118:../Core/Src/periph_io.c **** }
 527              		.loc 1 118 12 view .LVU124
 528 00c6 0120     		movs	r0, #1
 529 00c8 C6E7     		b	.L29
 530              	.L42:
 531 00ca 00BF     		.align	2
 532              	.L41:
 533 00cc 00000000 		.word	.LANCHOR0
 534 00d0 00000000 		.word	.LC3
 535 00d4 00000000 		.word	huart3
 536 00d8 44000000 		.word	.LC5
 537 00dc 38000000 		.word	.LC4
 538              		.cfi_endproc
 539              	.LFE250:
 541              		.section	.text.sd_read_file,"ax",%progbits
 542              		.align	1
 543              		.global	sd_read_file
 544              		.syntax unified
 545              		.thumb
 546              		.thumb_func
 547              		.fpu fpv4-sp-d16
 549              	sd_read_file:
 550              	.LVL43:
 551              	.LFB251:
 120:../Core/Src/periph_io.c **** 
 121:../Core/Src/periph_io.c **** int sd_read_file(SDFile *file, uint16_t start_addr, uint8_t *data, size_t len) {
 552              		.loc 1 121 80 is_stmt 1 view -0
 553              		.cfi_startproc
ARM GAS  /tmp/cc0CZAfl.s 			page 14


 554              		@ args = 0, pretend = 0, frame = 8
 555              		@ frame_needed = 0, uses_anonymous_args = 0
 122:../Core/Src/periph_io.c ****     if (file == NULL || file->is_deleted || (file->current_mode & FA_READ) != FA_READ || data == NU
 556              		.loc 1 122 5 view .LVU126
 557              		.loc 1 122 8 is_stmt 0 view .LVU127
 558 0000 68B3     		cbz	r0, .L48
 121:../Core/Src/periph_io.c ****     if (file == NULL || file->is_deleted || (file->current_mode & FA_READ) != FA_READ || data == NU
 559              		.loc 1 121 80 discriminator 1 view .LVU128
 560 0002 F0B5     		push	{r4, r5, r6, r7, lr}
 561              	.LCFI9:
 562              		.cfi_def_cfa_offset 20
 563              		.cfi_offset 4, -20
 564              		.cfi_offset 5, -16
 565              		.cfi_offset 6, -12
 566              		.cfi_offset 7, -8
 567              		.cfi_offset 14, -4
 568 0004 83B0     		sub	sp, sp, #12
 569              	.LCFI10:
 570              		.cfi_def_cfa_offset 32
 571 0006 1646     		mov	r6, r2
 572 0008 1C46     		mov	r4, r3
 573              		.loc 1 122 29 discriminator 1 view .LVU129
 574 000a 90F84120 		ldrb	r2, [r0, #65]	@ zero_extendqisi2
 575              	.LVL44:
 576              		.loc 1 122 22 discriminator 1 view .LVU130
 577 000e 42BB     		cbnz	r2, .L49
 578              		.loc 1 122 50 discriminator 2 view .LVU131
 579 0010 90F84220 		ldrb	r2, [r0, #66]	@ zero_extendqisi2
 580              		.loc 1 122 42 discriminator 2 view .LVU132
 581 0014 12F0010F 		tst	r2, #1
 582 0018 26D0     		beq	.L50
 583              		.loc 1 122 87 discriminator 3 view .LVU133
 584 001a 3EB3     		cbz	r6, .L51
 585              		.loc 1 122 106 discriminator 4 view .LVU134
 586 001c 154A     		ldr	r2, .L61
 587 001e 1278     		ldrb	r2, [r2]	@ zero_extendqisi2
 588              		.loc 1 122 103 discriminator 4 view .LVU135
 589 0020 0AB9     		cbnz	r2, .L58
 123:../Core/Src/periph_io.c ****         return 0;
 590              		.loc 1 123 16 view .LVU136
 591 0022 0020     		movs	r0, #0
 592              	.LVL45:
 593              		.loc 1 123 16 view .LVU137
 594 0024 1EE0     		b	.L43
 595              	.LVL46:
 596              	.L58:
 124:../Core/Src/periph_io.c ****     }
 125:../Core/Src/periph_io.c **** 
 126:../Core/Src/periph_io.c ****     if (f_lseek(&file->fil, start_addr) != FR_OK) {
 597              		.loc 1 126 5 is_stmt 1 view .LVU138
 598              		.loc 1 126 9 is_stmt 0 view .LVU139
 599 0026 00F14407 		add	r7, r0, #68
 600 002a 3846     		mov	r0, r7
 601              	.LVL47:
 602              		.loc 1 126 9 view .LVU140
 603 002c FFF7FEFF 		bl	f_lseek
 604              	.LVL48:
ARM GAS  /tmp/cc0CZAfl.s 			page 15


 605              		.loc 1 126 8 view .LVU141
 606 0030 F0B9     		cbnz	r0, .L53
 607              	.LBB7:
 127:../Core/Src/periph_io.c ****         return 0;
 128:../Core/Src/periph_io.c ****     }
 129:../Core/Src/periph_io.c **** 
 130:../Core/Src/periph_io.c ****     for (size_t offset = 0; offset < len; offset += SD_MAX_READ_WRITE_SIZE) {
 608              		.loc 1 130 17 view .LVU142
 609 0032 0025     		movs	r5, #0
 610              	.L45:
 611              	.LVL49:
 612              		.loc 1 130 29 is_stmt 1 discriminator 1 view .LVU143
 613              		.loc 1 130 5 is_stmt 0 discriminator 1 view .LVU144
 614 0034 A542     		cmp	r5, r4
 615 0036 10D2     		bcs	.L59
 616              	.LBB8:
 131:../Core/Src/periph_io.c ****         size_t remaining = len - offset;
 617              		.loc 1 131 9 is_stmt 1 view .LVU145
 618              		.loc 1 131 16 is_stmt 0 view .LVU146
 619 0038 621B     		subs	r2, r4, r5
 132:../Core/Src/periph_io.c ****         size_t read_size = (remaining > SD_MAX_READ_WRITE_SIZE) ? SD_MAX_READ_WRITE_SIZE : remainin
 620              		.loc 1 132 9 is_stmt 1 view .LVU147
 133:../Core/Src/periph_io.c **** 
 134:../Core/Src/periph_io.c ****         UINT bytes_read;
 621              		.loc 1 134 9 view .LVU148
 135:../Core/Src/periph_io.c ****         if (f_read(&file->fil, data + offset, read_size, &bytes_read) != FR_OK) {
 622              		.loc 1 135 9 view .LVU149
 623              		.loc 1 135 13 is_stmt 0 view .LVU150
 624 003a 01AB     		add	r3, sp, #4
 625 003c B2F5007F 		cmp	r2, #512
 626 0040 28BF     		it	cs
 627 0042 4FF40072 		movcs	r2, #512
 628 0046 7119     		adds	r1, r6, r5
 629 0048 3846     		mov	r0, r7
 630 004a FFF7FEFF 		bl	f_read
 631              	.LVL50:
 632              		.loc 1 135 12 view .LVU151
 633 004e 10B9     		cbnz	r0, .L60
 634              	.LBE8:
 130:../Core/Src/periph_io.c ****         size_t remaining = len - offset;
 635              		.loc 1 130 43 is_stmt 1 view .LVU152
 130:../Core/Src/periph_io.c ****         size_t remaining = len - offset;
 636              		.loc 1 130 50 is_stmt 0 view .LVU153
 637 0050 05F50075 		add	r5, r5, #512
 638              	.LVL51:
 130:../Core/Src/periph_io.c ****         size_t remaining = len - offset;
 639              		.loc 1 130 50 view .LVU154
 640 0054 EEE7     		b	.L45
 641              	.L60:
 642              	.LBB9:
 136:../Core/Src/periph_io.c ****             return 0;
 643              		.loc 1 136 13 is_stmt 1 view .LVU155
 644              		.loc 1 136 20 is_stmt 0 view .LVU156
 645 0056 0020     		movs	r0, #0
 646 0058 04E0     		b	.L43
 647              	.L59:
 648              		.loc 1 136 20 view .LVU157
ARM GAS  /tmp/cc0CZAfl.s 			page 16


 649              	.LBE9:
 650              	.LBE7:
 137:../Core/Src/periph_io.c ****         }
 138:../Core/Src/periph_io.c ****     }
 139:../Core/Src/periph_io.c **** 
 140:../Core/Src/periph_io.c ****     return 1;
 651              		.loc 1 140 12 view .LVU158
 652 005a 0120     		movs	r0, #1
 653              	.LBB10:
 654 005c 02E0     		b	.L43
 655              	.LVL52:
 656              	.L48:
 657              	.LCFI11:
 658              		.cfi_def_cfa_offset 0
 659              		.cfi_restore 4
 660              		.cfi_restore 5
 661              		.cfi_restore 6
 662              		.cfi_restore 7
 663              		.cfi_restore 14
 664              		.loc 1 140 12 view .LVU159
 665              	.LBE10:
 123:../Core/Src/periph_io.c ****     }
 666              		.loc 1 123 16 view .LVU160
 667 005e 0020     		movs	r0, #0
 668              	.LVL53:
 141:../Core/Src/periph_io.c **** }
 669              		.loc 1 141 1 view .LVU161
 670 0060 7047     		bx	lr
 671              	.LVL54:
 672              	.L49:
 673              	.LCFI12:
 674              		.cfi_def_cfa_offset 32
 675              		.cfi_offset 4, -20
 676              		.cfi_offset 5, -16
 677              		.cfi_offset 6, -12
 678              		.cfi_offset 7, -8
 679              		.cfi_offset 14, -4
 123:../Core/Src/periph_io.c ****     }
 680              		.loc 1 123 16 view .LVU162
 681 0062 0020     		movs	r0, #0
 682              	.LVL55:
 683              	.L43:
 684              		.loc 1 141 1 view .LVU163
 685 0064 03B0     		add	sp, sp, #12
 686              	.LCFI13:
 687              		.cfi_remember_state
 688              		.cfi_def_cfa_offset 20
 689              		@ sp needed
 690 0066 F0BD     		pop	{r4, r5, r6, r7, pc}
 691              	.LVL56:
 692              	.L50:
 693              	.LCFI14:
 694              		.cfi_restore_state
 123:../Core/Src/periph_io.c ****     }
 695              		.loc 1 123 16 view .LVU164
 696 0068 0020     		movs	r0, #0
 697              	.LVL57:
ARM GAS  /tmp/cc0CZAfl.s 			page 17


 123:../Core/Src/periph_io.c ****     }
 698              		.loc 1 123 16 view .LVU165
 699 006a FBE7     		b	.L43
 700              	.LVL58:
 701              	.L51:
 123:../Core/Src/periph_io.c ****     }
 702              		.loc 1 123 16 view .LVU166
 703 006c 0020     		movs	r0, #0
 704              	.LVL59:
 123:../Core/Src/periph_io.c ****     }
 705              		.loc 1 123 16 view .LVU167
 706 006e F9E7     		b	.L43
 707              	.LVL60:
 708              	.L53:
 127:../Core/Src/periph_io.c ****     }
 709              		.loc 1 127 16 view .LVU168
 710 0070 0020     		movs	r0, #0
 711 0072 F7E7     		b	.L43
 712              	.L62:
 713              		.align	2
 714              	.L61:
 715 0074 00000000 		.word	.LANCHOR0
 716              		.cfi_endproc
 717              	.LFE251:
 719              		.section	.text.sd_close_file,"ax",%progbits
 720              		.align	1
 721              		.global	sd_close_file
 722              		.syntax unified
 723              		.thumb
 724              		.thumb_func
 725              		.fpu fpv4-sp-d16
 727              	sd_close_file:
 728              	.LVL61:
 729              	.LFB252:
 142:../Core/Src/periph_io.c **** 
 143:../Core/Src/periph_io.c **** int sd_close_file(SDFile *file) {
 730              		.loc 1 143 33 is_stmt 1 view -0
 731              		.cfi_startproc
 732              		@ args = 0, pretend = 0, frame = 0
 733              		@ frame_needed = 0, uses_anonymous_args = 0
 144:../Core/Src/periph_io.c ****     if (file == NULL || file->is_deleted || !file->is_open || !sd_mounted) {
 734              		.loc 1 144 5 view .LVU170
 735              		.loc 1 144 8 is_stmt 0 view .LVU171
 736 0000 A8B1     		cbz	r0, .L65
 143:../Core/Src/periph_io.c ****     if (file == NULL || file->is_deleted || !file->is_open || !sd_mounted) {
 737              		.loc 1 143 33 discriminator 1 view .LVU172
 738 0002 10B5     		push	{r4, lr}
 739              	.LCFI15:
 740              		.cfi_def_cfa_offset 8
 741              		.cfi_offset 4, -8
 742              		.cfi_offset 14, -4
 743 0004 0446     		mov	r4, r0
 744              		.loc 1 144 29 discriminator 1 view .LVU173
 745 0006 90F84130 		ldrb	r3, [r0, #65]	@ zero_extendqisi2
 746              		.loc 1 144 22 discriminator 1 view .LVU174
 747 000a 93B9     		cbnz	r3, .L66
 748              		.loc 1 144 50 discriminator 2 view .LVU175
ARM GAS  /tmp/cc0CZAfl.s 			page 18


 749 000c 90F84030 		ldrb	r3, [r0, #64]	@ zero_extendqisi2
 750              		.loc 1 144 42 discriminator 2 view .LVU176
 751 0010 8BB1     		cbz	r3, .L67
 752              		.loc 1 144 63 discriminator 3 view .LVU177
 753 0012 0B4B     		ldr	r3, .L75
 754 0014 1B78     		ldrb	r3, [r3]	@ zero_extendqisi2
 755              		.loc 1 144 60 discriminator 3 view .LVU178
 756 0016 0BB9     		cbnz	r3, .L74
 145:../Core/Src/periph_io.c ****         return 0;
 757              		.loc 1 145 16 view .LVU179
 758 0018 0020     		movs	r0, #0
 759              	.LVL62:
 760              		.loc 1 145 16 view .LVU180
 761 001a 0BE0     		b	.L63
 762              	.LVL63:
 763              	.L74:
 146:../Core/Src/periph_io.c ****     }
 147:../Core/Src/periph_io.c **** 
 148:../Core/Src/periph_io.c ****     if (f_close(&file->fil) != FR_OK) {
 764              		.loc 1 148 5 is_stmt 1 view .LVU181
 765              		.loc 1 148 9 is_stmt 0 view .LVU182
 766 001c 4430     		adds	r0, r0, #68
 767              	.LVL64:
 768              		.loc 1 148 9 view .LVU183
 769 001e FFF7FEFF 		bl	f_close
 770              	.LVL65:
 771              		.loc 1 148 8 view .LVU184
 772 0022 50B9     		cbnz	r0, .L69
 149:../Core/Src/periph_io.c ****         return 0;
 150:../Core/Src/periph_io.c ****     }
 151:../Core/Src/periph_io.c **** 
 152:../Core/Src/periph_io.c ****     file->is_open = 0;
 773              		.loc 1 152 5 is_stmt 1 view .LVU185
 774              		.loc 1 152 19 is_stmt 0 view .LVU186
 775 0024 0023     		movs	r3, #0
 776 0026 84F84030 		strb	r3, [r4, #64]
 153:../Core/Src/periph_io.c **** 
 154:../Core/Src/periph_io.c ****     return 1;
 777              		.loc 1 154 5 is_stmt 1 view .LVU187
 778              		.loc 1 154 12 is_stmt 0 view .LVU188
 779 002a 0120     		movs	r0, #1
 780 002c 02E0     		b	.L63
 781              	.LVL66:
 782              	.L65:
 783              	.LCFI16:
 784              		.cfi_def_cfa_offset 0
 785              		.cfi_restore 4
 786              		.cfi_restore 14
 145:../Core/Src/periph_io.c ****     }
 787              		.loc 1 145 16 view .LVU189
 788 002e 0020     		movs	r0, #0
 789              	.LVL67:
 155:../Core/Src/periph_io.c **** }
 790              		.loc 1 155 1 view .LVU190
 791 0030 7047     		bx	lr
 792              	.LVL68:
 793              	.L66:
ARM GAS  /tmp/cc0CZAfl.s 			page 19


 794              	.LCFI17:
 795              		.cfi_def_cfa_offset 8
 796              		.cfi_offset 4, -8
 797              		.cfi_offset 14, -4
 145:../Core/Src/periph_io.c ****     }
 798              		.loc 1 145 16 view .LVU191
 799 0032 0020     		movs	r0, #0
 800              	.LVL69:
 801              	.L63:
 802              		.loc 1 155 1 view .LVU192
 803 0034 10BD     		pop	{r4, pc}
 804              	.LVL70:
 805              	.L67:
 145:../Core/Src/periph_io.c ****     }
 806              		.loc 1 145 16 view .LVU193
 807 0036 0020     		movs	r0, #0
 808              	.LVL71:
 145:../Core/Src/periph_io.c ****     }
 809              		.loc 1 145 16 view .LVU194
 810 0038 FCE7     		b	.L63
 811              	.L69:
 149:../Core/Src/periph_io.c ****     }
 812              		.loc 1 149 16 view .LVU195
 813 003a 0020     		movs	r0, #0
 814 003c FAE7     		b	.L63
 815              	.L76:
 816 003e 00BF     		.align	2
 817              	.L75:
 818 0040 00000000 		.word	.LANCHOR0
 819              		.cfi_endproc
 820              	.LFE252:
 822              		.section	.text.sd_delete_file,"ax",%progbits
 823              		.align	1
 824              		.global	sd_delete_file
 825              		.syntax unified
 826              		.thumb
 827              		.thumb_func
 828              		.fpu fpv4-sp-d16
 830              	sd_delete_file:
 831              	.LVL72:
 832              	.LFB253:
 156:../Core/Src/periph_io.c **** 
 157:../Core/Src/periph_io.c **** int sd_delete_file(SDFile *file) {
 833              		.loc 1 157 34 is_stmt 1 view -0
 834              		.cfi_startproc
 835              		@ args = 0, pretend = 0, frame = 0
 836              		@ frame_needed = 0, uses_anonymous_args = 0
 158:../Core/Src/periph_io.c ****     if (file == NULL || file->is_deleted || !sd_mounted) {
 837              		.loc 1 158 5 view .LVU197
 838              		.loc 1 158 8 is_stmt 0 view .LVU198
 839 0000 80B1     		cbz	r0, .L79
 157:../Core/Src/periph_io.c ****     if (file == NULL || file->is_deleted || !sd_mounted) {
 840              		.loc 1 157 34 discriminator 1 view .LVU199
 841 0002 10B5     		push	{r4, lr}
 842              	.LCFI18:
 843              		.cfi_def_cfa_offset 8
 844              		.cfi_offset 4, -8
ARM GAS  /tmp/cc0CZAfl.s 			page 20


 845              		.cfi_offset 14, -4
 846 0004 0446     		mov	r4, r0
 847              		.loc 1 158 29 discriminator 1 view .LVU200
 848 0006 90F84130 		ldrb	r3, [r0, #65]	@ zero_extendqisi2
 849              		.loc 1 158 22 discriminator 1 view .LVU201
 850 000a 6BB9     		cbnz	r3, .L80
 851              		.loc 1 158 45 discriminator 2 view .LVU202
 852 000c 084B     		ldr	r3, .L88
 853 000e 1B78     		ldrb	r3, [r3]	@ zero_extendqisi2
 854              		.loc 1 158 42 discriminator 2 view .LVU203
 855 0010 0BB9     		cbnz	r3, .L87
 159:../Core/Src/periph_io.c ****         return 0;
 856              		.loc 1 159 16 view .LVU204
 857 0012 0020     		movs	r0, #0
 858              	.LVL73:
 859              		.loc 1 159 16 view .LVU205
 860 0014 09E0     		b	.L77
 861              	.LVL74:
 862              	.L87:
 160:../Core/Src/periph_io.c ****     }
 161:../Core/Src/periph_io.c **** 
 162:../Core/Src/periph_io.c ****     if (f_unlink(file->file_path) != FR_OK) {
 863              		.loc 1 162 5 is_stmt 1 view .LVU206
 864              		.loc 1 162 9 is_stmt 0 view .LVU207
 865 0016 FFF7FEFF 		bl	f_unlink
 866              	.LVL75:
 867              		.loc 1 162 8 view .LVU208
 868 001a 38B9     		cbnz	r0, .L82
 163:../Core/Src/periph_io.c ****         return 0;
 164:../Core/Src/periph_io.c ****     }
 165:../Core/Src/periph_io.c **** 
 166:../Core/Src/periph_io.c ****     file->is_deleted = 1;
 869              		.loc 1 166 5 is_stmt 1 view .LVU209
 870              		.loc 1 166 22 is_stmt 0 view .LVU210
 871 001c 0120     		movs	r0, #1
 872 001e 84F84100 		strb	r0, [r4, #65]
 167:../Core/Src/periph_io.c **** 
 168:../Core/Src/periph_io.c ****     return 1;
 873              		.loc 1 168 5 is_stmt 1 view .LVU211
 874              		.loc 1 168 12 is_stmt 0 view .LVU212
 875 0022 02E0     		b	.L77
 876              	.LVL76:
 877              	.L79:
 878              	.LCFI19:
 879              		.cfi_def_cfa_offset 0
 880              		.cfi_restore 4
 881              		.cfi_restore 14
 159:../Core/Src/periph_io.c ****     }
 882              		.loc 1 159 16 view .LVU213
 883 0024 0020     		movs	r0, #0
 884              	.LVL77:
 169:../Core/Src/periph_io.c **** }
 885              		.loc 1 169 1 view .LVU214
 886 0026 7047     		bx	lr
 887              	.LVL78:
 888              	.L80:
 889              	.LCFI20:
ARM GAS  /tmp/cc0CZAfl.s 			page 21


 890              		.cfi_def_cfa_offset 8
 891              		.cfi_offset 4, -8
 892              		.cfi_offset 14, -4
 159:../Core/Src/periph_io.c ****     }
 893              		.loc 1 159 16 view .LVU215
 894 0028 0020     		movs	r0, #0
 895              	.LVL79:
 896              	.L77:
 897              		.loc 1 169 1 view .LVU216
 898 002a 10BD     		pop	{r4, pc}
 899              	.LVL80:
 900              	.L82:
 163:../Core/Src/periph_io.c ****     }
 901              		.loc 1 163 16 view .LVU217
 902 002c 0020     		movs	r0, #0
 903 002e FCE7     		b	.L77
 904              	.L89:
 905              		.align	2
 906              	.L88:
 907 0030 00000000 		.word	.LANCHOR0
 908              		.cfi_endproc
 909              	.LFE253:
 911              		.section	.text.flash_erase_block,"ax",%progbits
 912              		.align	1
 913              		.global	flash_erase_block
 914              		.syntax unified
 915              		.thumb
 916              		.thumb_func
 917              		.fpu fpv4-sp-d16
 919              	flash_erase_block:
 920              	.LVL81:
 921              	.LFB254:
 170:../Core/Src/periph_io.c **** 
 171:../Core/Src/periph_io.c **** int flash_erase_block(FlashBlock *block) {
 922              		.loc 1 171 42 is_stmt 1 view -0
 923              		.cfi_startproc
 924              		@ args = 0, pretend = 0, frame = 0
 925              		@ frame_needed = 0, uses_anonymous_args = 0
 926              		.loc 1 171 42 is_stmt 0 view .LVU219
 927 0000 08B5     		push	{r3, lr}
 928              	.LCFI21:
 929              		.cfi_def_cfa_offset 8
 930              		.cfi_offset 3, -8
 931              		.cfi_offset 14, -4
 172:../Core/Src/periph_io.c ****     if (!flash_init) {
 932              		.loc 1 172 5 is_stmt 1 view .LVU220
 933              		.loc 1 172 9 is_stmt 0 view .LVU221
 934 0002 094B     		ldr	r3, .L95
 935 0004 1B78     		ldrb	r3, [r3]	@ zero_extendqisi2
 936              		.loc 1 172 8 view .LVU222
 937 0006 0BB9     		cbnz	r3, .L94
 173:../Core/Src/periph_io.c ****         return 0;
 938              		.loc 1 173 16 view .LVU223
 939 0008 0020     		movs	r0, #0
 940              	.LVL82:
 941              	.L90:
 174:../Core/Src/periph_io.c ****     }
ARM GAS  /tmp/cc0CZAfl.s 			page 22


 175:../Core/Src/periph_io.c **** 
 176:../Core/Src/periph_io.c ****     #ifdef MCU_H725ZGT6
 177:../Core/Src/periph_io.c ****         for (size_t i = 0; i < block->n_sectors; i++) {
 178:../Core/Src/periph_io.c ****             if (w25q_erase_sector(&flash_chip, block->start_sector + i) != W25Q_ERR_OK) {
 179:../Core/Src/periph_io.c ****                 return 0;
 180:../Core/Src/periph_io.c ****             }
 181:../Core/Src/periph_io.c ****         }
 182:../Core/Src/periph_io.c ****     #else
 183:../Core/Src/periph_io.c ****         memset(fake_flash_chip + block->start_sector * EXT_FLASH_SECTOR_SIZE, 0, block->n_sectors *
 184:../Core/Src/periph_io.c ****     #endif
 185:../Core/Src/periph_io.c **** 
 186:../Core/Src/periph_io.c ****     return 1;
 187:../Core/Src/periph_io.c **** }
 942              		.loc 1 187 1 view .LVU224
 943 000a 08BD     		pop	{r3, pc}
 944              	.LVL83:
 945              	.L94:
 183:../Core/Src/periph_io.c ****     #endif
 946              		.loc 1 183 9 is_stmt 1 view .LVU225
 947 000c 074B     		ldr	r3, .L95+4
 948 000e 1B68     		ldr	r3, [r3]
 183:../Core/Src/periph_io.c ****     #endif
 949              		.loc 1 183 39 is_stmt 0 view .LVU226
 950 0010 B0F800C0 		ldrh	ip, [r0]
 183:../Core/Src/periph_io.c ****     #endif
 951              		.loc 1 183 87 view .LVU227
 952 0014 4288     		ldrh	r2, [r0, #2]
 183:../Core/Src/periph_io.c ****     #endif
 953              		.loc 1 183 9 view .LVU228
 954 0016 1203     		lsls	r2, r2, #12
 955 0018 0021     		movs	r1, #0
 956 001a 03EB0C30 		add	r0, r3, ip, lsl #12
 957              	.LVL84:
 183:../Core/Src/periph_io.c ****     #endif
 958              		.loc 1 183 9 view .LVU229
 959 001e FFF7FEFF 		bl	memset
 960              	.LVL85:
 186:../Core/Src/periph_io.c **** }
 961              		.loc 1 186 5 is_stmt 1 view .LVU230
 186:../Core/Src/periph_io.c **** }
 962              		.loc 1 186 12 is_stmt 0 view .LVU231
 963 0022 0120     		movs	r0, #1
 964 0024 F1E7     		b	.L90
 965              	.L96:
 966 0026 00BF     		.align	2
 967              	.L95:
 968 0028 00000000 		.word	.LANCHOR1
 969 002c 00000000 		.word	.LANCHOR2
 970              		.cfi_endproc
 971              	.LFE254:
 973              		.section	.text.flash_write_block,"ax",%progbits
 974              		.align	1
 975              		.global	flash_write_block
 976              		.syntax unified
 977              		.thumb
 978              		.thumb_func
 979              		.fpu fpv4-sp-d16
ARM GAS  /tmp/cc0CZAfl.s 			page 23


 981              	flash_write_block:
 982              	.LVL86:
 983              	.LFB255:
 188:../Core/Src/periph_io.c **** 
 189:../Core/Src/periph_io.c **** int flash_write_block(FlashBlock *block, uint16_t start_addr, uint8_t *data, size_t len) {
 984              		.loc 1 189 90 is_stmt 1 view -0
 985              		.cfi_startproc
 986              		@ args = 0, pretend = 0, frame = 0
 987              		@ frame_needed = 0, uses_anonymous_args = 0
 190:../Core/Src/periph_io.c ****     if (block == NULL || !flash_init || start_addr % EXT_FLASH_PAGE_SIZE != 0) {
 988              		.loc 1 190 5 view .LVU233
 989              		.loc 1 190 8 is_stmt 0 view .LVU234
 990 0000 00B3     		cbz	r0, .L101
 189:../Core/Src/periph_io.c ****     if (block == NULL || !flash_init || start_addr % EXT_FLASH_PAGE_SIZE != 0) {
 991              		.loc 1 189 90 discriminator 1 view .LVU235
 992 0002 F8B5     		push	{r3, r4, r5, r6, r7, lr}
 993              	.LCFI22:
 994              		.cfi_def_cfa_offset 24
 995              		.cfi_offset 3, -24
 996              		.cfi_offset 4, -20
 997              		.cfi_offset 5, -16
 998              		.cfi_offset 6, -12
 999              		.cfi_offset 7, -8
 1000              		.cfi_offset 14, -4
 1001 0004 1746     		mov	r7, r2
 1002 0006 1D46     		mov	r5, r3
 1003              		.loc 1 190 26 discriminator 1 view .LVU236
 1004 0008 114B     		ldr	r3, .L108
 1005              	.LVL87:
 1006              		.loc 1 190 26 discriminator 1 view .LVU237
 1007 000a 1B78     		ldrb	r3, [r3]	@ zero_extendqisi2
 1008              		.loc 1 190 23 discriminator 1 view .LVU238
 1009 000c E3B1     		cbz	r3, .L102
 1010              		.loc 1 190 38 discriminator 2 view .LVU239
 1011 000e 11F0FF0F 		tst	r1, #255
 1012 0012 1BD1     		bne	.L103
 191:../Core/Src/periph_io.c ****         return 0;
 192:../Core/Src/periph_io.c ****     }
 193:../Core/Src/periph_io.c **** 
 194:../Core/Src/periph_io.c ****     size_t addr = block->start_sector * EXT_FLASH_SECTOR_SIZE + start_addr;
 1013              		.loc 1 194 5 is_stmt 1 view .LVU240
 1014              		.loc 1 194 24 is_stmt 0 view .LVU241
 1015 0014 0688     		ldrh	r6, [r0]
 1016              		.loc 1 194 12 view .LVU242
 1017 0016 01EB0636 		add	r6, r1, r6, lsl #12
 1018              	.LVL88:
 195:../Core/Src/periph_io.c **** 
 196:../Core/Src/periph_io.c ****     for (size_t offset = 0; offset < len; offset += EXT_FLASH_PAGE_SIZE) {
 1019              		.loc 1 196 5 is_stmt 1 view .LVU243
 1020              	.LBB11:
 1021              		.loc 1 196 10 view .LVU244
 1022              		.loc 1 196 17 is_stmt 0 view .LVU245
 1023 001a 0024     		movs	r4, #0
 1024              		.loc 1 196 5 view .LVU246
 1025 001c 0EE0     		b	.L99
 1026              	.LVL89:
 1027              	.L100:
ARM GAS  /tmp/cc0CZAfl.s 			page 24


 1028              	.LBB12:
 197:../Core/Src/periph_io.c ****         size_t remaining = len - offset;
 1029              		.loc 1 197 9 is_stmt 1 discriminator 3 view .LVU247
 1030              		.loc 1 197 16 is_stmt 0 discriminator 3 view .LVU248
 1031 001e 2A1B     		subs	r2, r5, r4
 1032              	.LVL90:
 198:../Core/Src/periph_io.c ****         size_t write_size = (remaining > EXT_FLASH_PAGE_SIZE) ? EXT_FLASH_PAGE_SIZE : remaining;
 1033              		.loc 1 198 9 is_stmt 1 discriminator 3 view .LVU249
 199:../Core/Src/periph_io.c **** 
 200:../Core/Src/periph_io.c **** #ifdef MCU_H725ZGT6
 201:../Core/Src/periph_io.c ****         if (w25q_write_raw(&flash_chip, data + offset, write_size, addr + offset) != W25Q_ERR_OK) {
 202:../Core/Src/periph_io.c ****             return 0;
 203:../Core/Src/periph_io.c ****         }
 204:../Core/Src/periph_io.c **** #else
 205:../Core/Src/periph_io.c ****         memcpy(fake_flash_chip + addr + offset, data + offset, write_size);
 1034              		.loc 1 205 9 discriminator 3 view .LVU250
 1035 0020 0C4B     		ldr	r3, .L108+4
 1036 0022 1868     		ldr	r0, [r3]
 1037              		.loc 1 205 39 is_stmt 0 discriminator 3 view .LVU251
 1038 0024 A319     		adds	r3, r4, r6
 1039              		.loc 1 205 9 discriminator 3 view .LVU252
 1040 0026 B2F5807F 		cmp	r2, #256
 1041 002a 28BF     		it	cs
 1042 002c 4FF48072 		movcs	r2, #256
 1043              	.LVL91:
 1044              		.loc 1 205 9 discriminator 3 view .LVU253
 1045 0030 3919     		adds	r1, r7, r4
 1046 0032 1844     		add	r0, r0, r3
 1047 0034 FFF7FEFF 		bl	memcpy
 1048              	.LVL92:
 1049              	.LBE12:
 196:../Core/Src/periph_io.c ****         size_t remaining = len - offset;
 1050              		.loc 1 196 43 is_stmt 1 discriminator 3 view .LVU254
 196:../Core/Src/periph_io.c ****         size_t remaining = len - offset;
 1051              		.loc 1 196 50 is_stmt 0 discriminator 3 view .LVU255
 1052 0038 04F58074 		add	r4, r4, #256
 1053              	.LVL93:
 1054              	.L99:
 196:../Core/Src/periph_io.c ****         size_t remaining = len - offset;
 1055              		.loc 1 196 29 is_stmt 1 discriminator 1 view .LVU256
 196:../Core/Src/periph_io.c ****         size_t remaining = len - offset;
 1056              		.loc 1 196 5 is_stmt 0 discriminator 1 view .LVU257
 1057 003c AC42     		cmp	r4, r5
 1058 003e EED3     		bcc	.L100
 1059              	.LBE11:
 206:../Core/Src/periph_io.c **** #endif
 207:../Core/Src/periph_io.c ****     }
 208:../Core/Src/periph_io.c **** 
 209:../Core/Src/periph_io.c ****     return 1;
 1060              		.loc 1 209 12 view .LVU258
 1061 0040 0120     		movs	r0, #1
 1062              	.LVL94:
 1063              	.L97:
 210:../Core/Src/periph_io.c **** }
 1064              		.loc 1 210 1 view .LVU259
 1065 0042 F8BD     		pop	{r3, r4, r5, r6, r7, pc}
 1066              	.LVL95:
ARM GAS  /tmp/cc0CZAfl.s 			page 25


 1067              	.L101:
 1068              	.LCFI23:
 1069              		.cfi_def_cfa_offset 0
 1070              		.cfi_restore 3
 1071              		.cfi_restore 4
 1072              		.cfi_restore 5
 1073              		.cfi_restore 6
 1074              		.cfi_restore 7
 1075              		.cfi_restore 14
 191:../Core/Src/periph_io.c ****     }
 1076              		.loc 1 191 16 view .LVU260
 1077 0044 0020     		movs	r0, #0
 1078              	.LVL96:
 1079              		.loc 1 210 1 view .LVU261
 1080 0046 7047     		bx	lr
 1081              	.LVL97:
 1082              	.L102:
 1083              	.LCFI24:
 1084              		.cfi_def_cfa_offset 24
 1085              		.cfi_offset 3, -24
 1086              		.cfi_offset 4, -20
 1087              		.cfi_offset 5, -16
 1088              		.cfi_offset 6, -12
 1089              		.cfi_offset 7, -8
 1090              		.cfi_offset 14, -4
 191:../Core/Src/periph_io.c ****     }
 1091              		.loc 1 191 16 view .LVU262
 1092 0048 0020     		movs	r0, #0
 1093              	.LVL98:
 191:../Core/Src/periph_io.c ****     }
 1094              		.loc 1 191 16 view .LVU263
 1095 004a FAE7     		b	.L97
 1096              	.LVL99:
 1097              	.L103:
 191:../Core/Src/periph_io.c ****     }
 1098              		.loc 1 191 16 view .LVU264
 1099 004c 0020     		movs	r0, #0
 1100              	.LVL100:
 191:../Core/Src/periph_io.c ****     }
 1101              		.loc 1 191 16 view .LVU265
 1102 004e F8E7     		b	.L97
 1103              	.L109:
 1104              		.align	2
 1105              	.L108:
 1106 0050 00000000 		.word	.LANCHOR1
 1107 0054 00000000 		.word	.LANCHOR2
 1108              		.cfi_endproc
 1109              	.LFE255:
 1111              		.section	.text.flash_read_block,"ax",%progbits
 1112              		.align	1
 1113              		.global	flash_read_block
 1114              		.syntax unified
 1115              		.thumb
 1116              		.thumb_func
 1117              		.fpu fpv4-sp-d16
 1119              	flash_read_block:
 1120              	.LVL101:
ARM GAS  /tmp/cc0CZAfl.s 			page 26


 1121              	.LFB256:
 211:../Core/Src/periph_io.c **** 
 212:../Core/Src/periph_io.c **** int flash_read_block(FlashBlock *block, uint16_t start_addr, uint8_t *data, size_t len) {
 1122              		.loc 1 212 89 is_stmt 1 view -0
 1123              		.cfi_startproc
 1124              		@ args = 0, pretend = 0, frame = 0
 1125              		@ frame_needed = 0, uses_anonymous_args = 0
 213:../Core/Src/periph_io.c ****     if (block == NULL || !flash_init || start_addr % EXT_FLASH_PAGE_SIZE != 0) {
 1126              		.loc 1 213 5 view .LVU267
 1127              		.loc 1 213 8 is_stmt 0 view .LVU268
 1128 0000 00B3     		cbz	r0, .L114
 212:../Core/Src/periph_io.c ****     if (block == NULL || !flash_init || start_addr % EXT_FLASH_PAGE_SIZE != 0) {
 1129              		.loc 1 212 89 discriminator 1 view .LVU269
 1130 0002 F8B5     		push	{r3, r4, r5, r6, r7, lr}
 1131              	.LCFI25:
 1132              		.cfi_def_cfa_offset 24
 1133              		.cfi_offset 3, -24
 1134              		.cfi_offset 4, -20
 1135              		.cfi_offset 5, -16
 1136              		.cfi_offset 6, -12
 1137              		.cfi_offset 7, -8
 1138              		.cfi_offset 14, -4
 1139 0004 1746     		mov	r7, r2
 1140 0006 1D46     		mov	r5, r3
 1141              		.loc 1 213 26 discriminator 1 view .LVU270
 1142 0008 114B     		ldr	r3, .L121
 1143              	.LVL102:
 1144              		.loc 1 213 26 discriminator 1 view .LVU271
 1145 000a 1B78     		ldrb	r3, [r3]	@ zero_extendqisi2
 1146              		.loc 1 213 23 discriminator 1 view .LVU272
 1147 000c E3B1     		cbz	r3, .L115
 1148              		.loc 1 213 38 discriminator 2 view .LVU273
 1149 000e 11F0FF0F 		tst	r1, #255
 1150 0012 1BD1     		bne	.L116
 214:../Core/Src/periph_io.c ****         return 0;
 215:../Core/Src/periph_io.c ****     }
 216:../Core/Src/periph_io.c **** 
 217:../Core/Src/periph_io.c ****     size_t addr = block->start_sector * EXT_FLASH_SECTOR_SIZE + start_addr;
 1151              		.loc 1 217 5 is_stmt 1 view .LVU274
 1152              		.loc 1 217 24 is_stmt 0 view .LVU275
 1153 0014 0688     		ldrh	r6, [r0]
 1154              		.loc 1 217 12 view .LVU276
 1155 0016 01EB0636 		add	r6, r1, r6, lsl #12
 1156              	.LVL103:
 218:../Core/Src/periph_io.c **** 
 219:../Core/Src/periph_io.c ****     for (size_t offset = 0; offset < len; offset += EXT_FLASH_PAGE_SIZE) {
 1157              		.loc 1 219 5 is_stmt 1 view .LVU277
 1158              	.LBB13:
 1159              		.loc 1 219 10 view .LVU278
 1160              		.loc 1 219 17 is_stmt 0 view .LVU279
 1161 001a 0024     		movs	r4, #0
 1162              		.loc 1 219 5 view .LVU280
 1163 001c 0EE0     		b	.L112
 1164              	.LVL104:
 1165              	.L113:
 1166              	.LBB14:
 220:../Core/Src/periph_io.c ****         size_t remaining = len - offset;
ARM GAS  /tmp/cc0CZAfl.s 			page 27


 1167              		.loc 1 220 9 is_stmt 1 discriminator 3 view .LVU281
 1168              		.loc 1 220 16 is_stmt 0 discriminator 3 view .LVU282
 1169 001e 2A1B     		subs	r2, r5, r4
 1170              	.LVL105:
 221:../Core/Src/periph_io.c ****         size_t read_size = (remaining > EXT_FLASH_PAGE_SIZE) ? EXT_FLASH_PAGE_SIZE : remaining;
 1171              		.loc 1 221 9 is_stmt 1 discriminator 3 view .LVU283
 222:../Core/Src/periph_io.c **** 
 223:../Core/Src/periph_io.c **** #ifdef MCU_H725ZGT6
 224:../Core/Src/periph_io.c ****         if (w25q_read_raw(&flash_chip, data + offset, read_size, addr + offset) != W25Q_ERR_OK) {
 225:../Core/Src/periph_io.c ****             return 0;
 226:../Core/Src/periph_io.c ****         }
 227:../Core/Src/periph_io.c **** #else
 228:../Core/Src/periph_io.c ****         memcpy(data + offset, fake_flash_chip + addr + offset, read_size);
 1172              		.loc 1 228 9 discriminator 3 view .LVU284
 1173 0020 0C4B     		ldr	r3, .L121+4
 1174 0022 1968     		ldr	r1, [r3]
 1175              		.loc 1 228 54 is_stmt 0 discriminator 3 view .LVU285
 1176 0024 A319     		adds	r3, r4, r6
 1177              		.loc 1 228 9 discriminator 3 view .LVU286
 1178 0026 B2F5807F 		cmp	r2, #256
 1179 002a 28BF     		it	cs
 1180 002c 4FF48072 		movcs	r2, #256
 1181              	.LVL106:
 1182              		.loc 1 228 9 discriminator 3 view .LVU287
 1183 0030 1944     		add	r1, r1, r3
 1184 0032 3819     		adds	r0, r7, r4
 1185 0034 FFF7FEFF 		bl	memcpy
 1186              	.LVL107:
 1187              	.LBE14:
 219:../Core/Src/periph_io.c ****         size_t remaining = len - offset;
 1188              		.loc 1 219 43 is_stmt 1 discriminator 3 view .LVU288
 219:../Core/Src/periph_io.c ****         size_t remaining = len - offset;
 1189              		.loc 1 219 50 is_stmt 0 discriminator 3 view .LVU289
 1190 0038 04F58074 		add	r4, r4, #256
 1191              	.LVL108:
 1192              	.L112:
 219:../Core/Src/periph_io.c ****         size_t remaining = len - offset;
 1193              		.loc 1 219 29 is_stmt 1 discriminator 1 view .LVU290
 219:../Core/Src/periph_io.c ****         size_t remaining = len - offset;
 1194              		.loc 1 219 5 is_stmt 0 discriminator 1 view .LVU291
 1195 003c AC42     		cmp	r4, r5
 1196 003e EED3     		bcc	.L113
 1197              	.LBE13:
 229:../Core/Src/periph_io.c **** #endif
 230:../Core/Src/periph_io.c ****     }
 231:../Core/Src/periph_io.c **** 
 232:../Core/Src/periph_io.c ****     return 1;
 1198              		.loc 1 232 12 view .LVU292
 1199 0040 0120     		movs	r0, #1
 1200              	.LVL109:
 1201              	.L110:
 233:../Core/Src/periph_io.c **** }
 1202              		.loc 1 233 1 view .LVU293
 1203 0042 F8BD     		pop	{r3, r4, r5, r6, r7, pc}
 1204              	.LVL110:
 1205              	.L114:
 1206              	.LCFI26:
ARM GAS  /tmp/cc0CZAfl.s 			page 28


 1207              		.cfi_def_cfa_offset 0
 1208              		.cfi_restore 3
 1209              		.cfi_restore 4
 1210              		.cfi_restore 5
 1211              		.cfi_restore 6
 1212              		.cfi_restore 7
 1213              		.cfi_restore 14
 214:../Core/Src/periph_io.c ****     }
 1214              		.loc 1 214 16 view .LVU294
 1215 0044 0020     		movs	r0, #0
 1216              	.LVL111:
 1217              		.loc 1 233 1 view .LVU295
 1218 0046 7047     		bx	lr
 1219              	.LVL112:
 1220              	.L115:
 1221              	.LCFI27:
 1222              		.cfi_def_cfa_offset 24
 1223              		.cfi_offset 3, -24
 1224              		.cfi_offset 4, -20
 1225              		.cfi_offset 5, -16
 1226              		.cfi_offset 6, -12
 1227              		.cfi_offset 7, -8
 1228              		.cfi_offset 14, -4
 214:../Core/Src/periph_io.c ****     }
 1229              		.loc 1 214 16 view .LVU296
 1230 0048 0020     		movs	r0, #0
 1231              	.LVL113:
 214:../Core/Src/periph_io.c ****     }
 1232              		.loc 1 214 16 view .LVU297
 1233 004a FAE7     		b	.L110
 1234              	.LVL114:
 1235              	.L116:
 214:../Core/Src/periph_io.c ****     }
 1236              		.loc 1 214 16 view .LVU298
 1237 004c 0020     		movs	r0, #0
 1238              	.LVL115:
 214:../Core/Src/periph_io.c ****     }
 1239              		.loc 1 214 16 view .LVU299
 1240 004e F8E7     		b	.L110
 1241              	.L122:
 1242              		.align	2
 1243              	.L121:
 1244 0050 00000000 		.word	.LANCHOR1
 1245 0054 00000000 		.word	.LANCHOR2
 1246              		.cfi_endproc
 1247              	.LFE256:
 1249              		.global	fs
 1250              		.global	flash_chip
 1251              		.global	flash_init
 1252              		.global	sd_mounted
 1253              		.global	fake_flash_chip
 1254              		.global	_fake_flash_chip
 1255              		.section	.bss._fake_flash_chip,"aw",%nobits
 1256              		.align	2
 1259              	_fake_flash_chip:
 1260 0000 00000000 		.space	16384
 1260      00000000 
ARM GAS  /tmp/cc0CZAfl.s 			page 29


 1260      00000000 
 1260      00000000 
 1260      00000000 
 1261              		.section	.bss.flash_chip,"aw",%nobits
 1262              		.align	2
 1265              	flash_chip:
 1266 0000 00000000 		.space	8
 1266      00000000 
 1267              		.section	.bss.flash_init,"aw",%nobits
 1268              		.set	.LANCHOR1,. + 0
 1271              	flash_init:
 1272 0000 00       		.space	1
 1273              		.section	.bss.fs,"aw",%nobits
 1274              		.align	2
 1277              	fs:
 1278 0000 00000000 		.space	4152
 1278      00000000 
 1278      00000000 
 1278      00000000 
 1278      00000000 
 1279              		.section	.bss.sd_mounted,"aw",%nobits
 1280              		.set	.LANCHOR0,. + 0
 1283              	sd_mounted:
 1284 0000 00       		.space	1
 1285              		.section	.data.fake_flash_chip,"aw"
 1286              		.align	2
 1287              		.set	.LANCHOR2,. + 0
 1290              	fake_flash_chip:
 1291 0000 00000000 		.word	_fake_flash_chip
 1292              		.text
 1293              	.Letext0:
 1294              		.file 2 "/usr/lib/gcc/arm-none-eabi/10.3.1/include/stdint.h"
 1295              		.file 3 "/usr/lib/gcc/arm-none-eabi/10.3.1/include/stddef.h"
 1296              		.file 4 "Middlewares/Third_Party/FatFs/src/integer.h"
 1297              		.file 5 "Drivers/CMSIS/Device/ST/STM32F4xx/Include/stm32f429xx.h"
 1298              		.file 6 "Drivers/STM32F4xx_HAL_Driver/Inc/stm32f4xx_hal_def.h"
 1299              		.file 7 "Drivers/STM32F4xx_HAL_Driver/Inc/stm32f4xx_hal_dma.h"
 1300              		.file 8 "Drivers/STM32F4xx_HAL_Driver/Inc/stm32f4xx_hal_uart.h"
 1301              		.file 9 "Middlewares/Third_Party/FatFs/src/ff.h"
 1302              		.file 10 "../Core/Include/w25q.h"
 1303              		.file 11 "../Core/Include/periph_io.h"
 1304              		.file 12 "../Core/Include/adc.h"
 1305              		.file 13 "Core/Inc/port_config.h"
 1306              		.file 14 "../Core/Include/globals.h"
 1307              		.file 15 "<built-in>"
 1308              		.file 16 "/usr/include/newlib/stdio.h"
 1309              		.file 17 "/usr/include/newlib/string.h"
ARM GAS  /tmp/cc0CZAfl.s 			page 30

