ARM GAS  /tmp/ccU2NMk6.s 			page 1


   1              		.cpu cortex-m4
   2              		.eabi_attribute 27, 1
   3              		.eabi_attribute 28, 1
   4              		.eabi_attribute 20, 1
   5              		.eabi_attribute 21, 1
   6              		.eabi_attribute 23, 3
   7              		.eabi_attribute 24, 1
   8              		.eabi_attribute 25, 1
   9              		.eabi_attribute 26, 1
  10              		.eabi_attribute 30, 1
  11              		.eabi_attribute 34, 1
  12              		.eabi_attribute 18, 4
  13              		.file	"state_tx.c"
  14              		.text
  15              	.Ltext0:
  16              		.cfi_sections	.debug_frame
  17              		.global	__aeabi_uldivmod
  18              		.section	.text.send_state_vector,"ax",%progbits
  19              		.align	1
  20              		.global	send_state_vector
  21              		.arch armv7e-m
  22              		.syntax unified
  23              		.thumb
  24              		.thumb_func
  25              		.fpu fpv4-sp-d16
  27              	send_state_vector:
  28              	.LVL0:
  29              	.LFB247:
  30              		.file 1 "../Core/Src/state_tx.c"
   1:../Core/Src/state_tx.c **** #include "state_tx.h"
   2:../Core/Src/state_tx.c **** 
   3:../Core/Src/state_tx.c **** void send_state_vector(RocketState *rocket_state, uint8_t *payload_buf);
   4:../Core/Src/state_tx.c **** void send_servo_deflection(RocketState *rocket_state, uint8_t *payload_buf);
   5:../Core/Src/state_tx.c **** void send_state(RocketState *rocket_state, uint8_t *payload_buf);
   6:../Core/Src/state_tx.c **** void send_ground_ekf(RocketState *rocket_state, uint8_t *payload_buf);
   7:../Core/Src/state_tx.c **** void send_sensor_data(RocketState *rocket_state, uint8_t *payload_buf);
   8:../Core/Src/state_tx.c **** void send_analog_feedback_data(RocketState *rocket_state, uint8_t *payload_buf);
   9:../Core/Src/state_tx.c **** 
  10:../Core/Src/state_tx.c **** #define MULT 1
  11:../Core/Src/state_tx.c **** 
  12:../Core/Src/state_tx.c **** void state_tx_task(void *args) {
  13:../Core/Src/state_tx.c ****     uint8_t payload_buf[TELEMETRY_MAX_PAYLOAD_SIZE];
  14:../Core/Src/state_tx.c **** 
  15:../Core/Src/state_tx.c ****     RocketState rocket_state;
  16:../Core/Src/state_tx.c **** 
  17:../Core/Src/state_tx.c ****     uint32_t notification_value = 0;
  18:../Core/Src/state_tx.c ****     while ((notification_value & BEGIN_STATE_TX_NOTIFICATION_BIT) == 0) {
  19:../Core/Src/state_tx.c ****         xTaskNotifyWait(0, BEGIN_STATE_TX_NOTIFICATION_BIT, &notification_value, portMAX_DELAY);
  20:../Core/Src/state_tx.c ****     }
  21:../Core/Src/state_tx.c **** 
  22:../Core/Src/state_tx.c ****     while (1) {
  23:../Core/Src/state_tx.c ****         xTaskNotifyWait(0, SEND_STATE_NOTIFICATION_BIT, &notification_value, portMAX_DELAY);
  24:../Core/Src/state_tx.c **** 
  25:../Core/Src/state_tx.c ****         if (xSemaphoreTake(g_state_mutex_handle, portMAX_DELAY) == pdTRUE) {
  26:../Core/Src/state_tx.c ****             memcpy(&rocket_state, &g_current_state, sizeof(RocketState));
  27:../Core/Src/state_tx.c ****             xSemaphoreGive(g_state_mutex_handle);
  28:../Core/Src/state_tx.c ****         }
ARM GAS  /tmp/ccU2NMk6.s 			page 2


  29:../Core/Src/state_tx.c **** 
  30:../Core/Src/state_tx.c ****         send_state_vector(&rocket_state, payload_buf);
  31:../Core/Src/state_tx.c ****         vTaskDelay(pdMS_TO_TICKS((ROCKETSTATEVECTOR_SIZE + 5) * MULT));
  32:../Core/Src/state_tx.c ****         send_servo_deflection(&rocket_state, payload_buf);
  33:../Core/Src/state_tx.c ****         vTaskDelay(pdMS_TO_TICKS((ROCKETSERVODEFLECTION_SIZE + 5) * MULT));
  34:../Core/Src/state_tx.c ****         send_state(&rocket_state, payload_buf);
  35:../Core/Src/state_tx.c ****         vTaskDelay(pdMS_TO_TICKS((ROCKETSTATE_SIZE + 5) * MULT));
  36:../Core/Src/state_tx.c **** 
  37:../Core/Src/state_tx.c ****         if (rocket_state.rocket_state.rocket_state == 1) {
  38:../Core/Src/state_tx.c ****             send_ground_ekf(&rocket_state, payload_buf);
  39:../Core/Src/state_tx.c ****             vTaskDelay(pdMS_TO_TICKS((ROCKETGROUNDEKF_SIZE + 5) * MULT));
  40:../Core/Src/state_tx.c ****         }
  41:../Core/Src/state_tx.c **** 
  42:../Core/Src/state_tx.c ****         send_sensor_data(&rocket_state, payload_buf);
  43:../Core/Src/state_tx.c ****         vTaskDelay(pdMS_TO_TICKS((ROCKETSENSORDATA_SIZE + 5) * MULT));
  44:../Core/Src/state_tx.c ****         send_analog_feedback_data(&rocket_state, payload_buf);
  45:../Core/Src/state_tx.c ****         vTaskDelay(pdMS_TO_TICKS((ROCKETANALOGFEEDBACKDATA_SIZE + 5) * MULT));
  46:../Core/Src/state_tx.c **** 
  47:../Core/Src/state_tx.c ****         vTaskDelay(200);
  48:../Core/Src/state_tx.c ****     }
  49:../Core/Src/state_tx.c **** }
  50:../Core/Src/state_tx.c **** 
  51:../Core/Src/state_tx.c **** void send_state_vector(RocketState *rocket_state, uint8_t *payload_buf) {
  31              		.loc 1 51 73 view -0
  32              		.cfi_startproc
  33              		@ args = 0, pretend = 0, frame = 0
  34              		@ frame_needed = 0, uses_anonymous_args = 0
  35              		.loc 1 51 73 is_stmt 0 view .LVU1
  36 0000 38B5     		push	{r3, r4, r5, lr}
  37              	.LCFI0:
  38              		.cfi_def_cfa_offset 16
  39              		.cfi_offset 3, -16
  40              		.cfi_offset 4, -12
  41              		.cfi_offset 5, -8
  42              		.cfi_offset 14, -4
  43 0002 0446     		mov	r4, r0
  44 0004 0D46     		mov	r5, r1
  52:../Core/Src/state_tx.c ****     struct RocketStateVector *state_vector = &rocket_state->state_vector;
  45              		.loc 1 52 5 is_stmt 1 view .LVU2
  46              	.LVL1:
  53:../Core/Src/state_tx.c ****     state_vector->timestamp = pdTICKS_TO_MS(xTaskGetTickCount());
  47              		.loc 1 53 5 view .LVU3
  48              		.loc 1 53 31 is_stmt 0 view .LVU4
  49 0006 FFF7FEFF 		bl	xTaskGetTickCount
  50              	.LVL2:
  51              		.loc 1 53 31 view .LVU5
  52 000a C20E     		lsrs	r2, r0, #27
  53 000c 4301     		lsls	r3, r0, #5
  54 000e 1B1A     		subs	r3, r3, r0
  55 0010 62F10002 		sbc	r2, r2, #0
  56 0014 9200     		lsls	r2, r2, #2
  57 0016 42EA9372 		orr	r2, r2, r3, lsr #30
  58 001a 9B00     		lsls	r3, r3, #2
  59 001c 13EB000C 		adds	ip, r3, r0
  60 0020 42F10002 		adc	r2, r2, #0
  61 0024 D100     		lsls	r1, r2, #3
  62 0026 4FF47A72 		mov	r2, #1000
ARM GAS  /tmp/ccU2NMk6.s 			page 3


  63 002a 0023     		movs	r3, #0
  64 002c 4FEACC00 		lsl	r0, ip, #3
  65 0030 41EA5C71 		orr	r1, r1, ip, lsr #29
  66 0034 FFF7FEFF 		bl	__aeabi_uldivmod
  67              	.LVL3:
  68              		.loc 1 53 29 view .LVU6
  69 0038 A063     		str	r0, [r4, #56]
  70 003a 0023     		movs	r3, #0
  71 003c E363     		str	r3, [r4, #60]
  54:../Core/Src/state_tx.c **** 
  55:../Core/Src/state_tx.c ****     RocketStateVector_encode(state_vector, payload_buf);
  72              		.loc 1 55 5 is_stmt 1 view .LVU7
  73 003e 2946     		mov	r1, r5
  74 0040 2046     		mov	r0, r4
  75 0042 FFF7FEFF 		bl	RocketStateVector_encode
  76              	.LVL4:
  56:../Core/Src/state_tx.c ****     telemetry_send_message(payload_buf, ROCKETSTATEVECTOR_SIZE, ROCKETSTATEVECTOR_MSG_ID);
  77              		.loc 1 56 5 view .LVU8
  78 0046 0A22     		movs	r2, #10
  79 0048 3C21     		movs	r1, #60
  80 004a 2846     		mov	r0, r5
  81 004c FFF7FEFF 		bl	telemetry_send_message
  82              	.LVL5:
  57:../Core/Src/state_tx.c **** }
  83              		.loc 1 57 1 is_stmt 0 view .LVU9
  84 0050 38BD     		pop	{r3, r4, r5, pc}
  85              		.loc 1 57 1 view .LVU10
  86              		.cfi_endproc
  87              	.LFE247:
  89              		.section	.text.send_servo_deflection,"ax",%progbits
  90              		.align	1
  91              		.global	send_servo_deflection
  92              		.syntax unified
  93              		.thumb
  94              		.thumb_func
  95              		.fpu fpv4-sp-d16
  97              	send_servo_deflection:
  98              	.LVL6:
  99              	.LFB248:
  58:../Core/Src/state_tx.c **** 
  59:../Core/Src/state_tx.c **** void send_servo_deflection(RocketState *rocket_state, uint8_t *payload_buf) {
 100              		.loc 1 59 77 is_stmt 1 view -0
 101              		.cfi_startproc
 102              		@ args = 0, pretend = 0, frame = 0
 103              		@ frame_needed = 0, uses_anonymous_args = 0
 104              		.loc 1 59 77 is_stmt 0 view .LVU12
 105 0000 70B5     		push	{r4, r5, r6, lr}
 106              	.LCFI1:
 107              		.cfi_def_cfa_offset 16
 108              		.cfi_offset 4, -16
 109              		.cfi_offset 5, -12
 110              		.cfi_offset 6, -8
 111              		.cfi_offset 14, -4
 112 0002 0446     		mov	r4, r0
 113 0004 0D46     		mov	r5, r1
  60:../Core/Src/state_tx.c ****     struct RocketServoDeflection *servo_deflection = &rocket_state->servo_deflection;
 114              		.loc 1 60 5 is_stmt 1 view .LVU13
ARM GAS  /tmp/ccU2NMk6.s 			page 4


 115              		.loc 1 60 35 is_stmt 0 view .LVU14
 116 0006 00F14006 		add	r6, r0, #64
 117              	.LVL7:
  61:../Core/Src/state_tx.c ****     servo_deflection->timestamp = pdTICKS_TO_MS(xTaskGetTickCount());
 118              		.loc 1 61 5 is_stmt 1 view .LVU15
 119              		.loc 1 61 35 is_stmt 0 view .LVU16
 120 000a FFF7FEFF 		bl	xTaskGetTickCount
 121              	.LVL8:
 122              		.loc 1 61 35 view .LVU17
 123 000e C20E     		lsrs	r2, r0, #27
 124 0010 4301     		lsls	r3, r0, #5
 125 0012 1B1A     		subs	r3, r3, r0
 126 0014 62F10002 		sbc	r2, r2, #0
 127 0018 9200     		lsls	r2, r2, #2
 128 001a 42EA9372 		orr	r2, r2, r3, lsr #30
 129 001e 9B00     		lsls	r3, r3, #2
 130 0020 13EB000C 		adds	ip, r3, r0
 131 0024 42F10001 		adc	r1, r2, #0
 132 0028 C900     		lsls	r1, r1, #3
 133 002a 4FF47A72 		mov	r2, #1000
 134 002e 0023     		movs	r3, #0
 135 0030 4FEACC00 		lsl	r0, ip, #3
 136 0034 41EA5C71 		orr	r1, r1, ip, lsr #29
 137 0038 FFF7FEFF 		bl	__aeabi_uldivmod
 138              	.LVL9:
 139              		.loc 1 61 33 view .LVU18
 140 003c 2065     		str	r0, [r4, #80]
 141 003e 0023     		movs	r3, #0
 142 0040 6365     		str	r3, [r4, #84]
  62:../Core/Src/state_tx.c **** 
  63:../Core/Src/state_tx.c ****     RocketServoDeflection_encode(servo_deflection, payload_buf);
 143              		.loc 1 63 5 is_stmt 1 view .LVU19
 144 0042 2946     		mov	r1, r5
 145 0044 3046     		mov	r0, r6
 146 0046 FFF7FEFF 		bl	RocketServoDeflection_encode
 147              	.LVL10:
  64:../Core/Src/state_tx.c ****     telemetry_send_message(payload_buf, ROCKETSERVODEFLECTION_SIZE, ROCKETSERVODEFLECTION_MSG_ID);
 148              		.loc 1 64 5 view .LVU20
 149 004a 0B22     		movs	r2, #11
 150 004c 1821     		movs	r1, #24
 151 004e 2846     		mov	r0, r5
 152 0050 FFF7FEFF 		bl	telemetry_send_message
 153              	.LVL11:
  65:../Core/Src/state_tx.c **** }
 154              		.loc 1 65 1 is_stmt 0 view .LVU21
 155 0054 70BD     		pop	{r4, r5, r6, pc}
 156              		.loc 1 65 1 view .LVU22
 157              		.cfi_endproc
 158              	.LFE248:
 160              		.section	.text.send_state,"ax",%progbits
 161              		.align	1
 162              		.global	send_state
 163              		.syntax unified
 164              		.thumb
 165              		.thumb_func
 166              		.fpu fpv4-sp-d16
 168              	send_state:
ARM GAS  /tmp/ccU2NMk6.s 			page 5


 169              	.LVL12:
 170              	.LFB249:
  66:../Core/Src/state_tx.c **** 
  67:../Core/Src/state_tx.c **** void send_state(RocketState *rocket_state, uint8_t *payload_buf) {
 171              		.loc 1 67 66 is_stmt 1 view -0
 172              		.cfi_startproc
 173              		@ args = 0, pretend = 0, frame = 0
 174              		@ frame_needed = 0, uses_anonymous_args = 0
 175              		.loc 1 67 66 is_stmt 0 view .LVU24
 176 0000 70B5     		push	{r4, r5, r6, lr}
 177              	.LCFI2:
 178              		.cfi_def_cfa_offset 16
 179              		.cfi_offset 4, -16
 180              		.cfi_offset 5, -12
 181              		.cfi_offset 6, -8
 182              		.cfi_offset 14, -4
 183 0002 0446     		mov	r4, r0
 184 0004 0D46     		mov	r5, r1
  68:../Core/Src/state_tx.c ****     struct RocketState *_rocket_state = &rocket_state->rocket_state;
 185              		.loc 1 68 5 is_stmt 1 view .LVU25
 186              		.loc 1 68 25 is_stmt 0 view .LVU26
 187 0006 00F15806 		add	r6, r0, #88
 188              	.LVL13:
  69:../Core/Src/state_tx.c ****     _rocket_state->timestamp = pdTICKS_TO_MS(xTaskGetTickCount());
 189              		.loc 1 69 5 is_stmt 1 view .LVU27
 190              		.loc 1 69 32 is_stmt 0 view .LVU28
 191 000a FFF7FEFF 		bl	xTaskGetTickCount
 192              	.LVL14:
 193              		.loc 1 69 32 view .LVU29
 194 000e C20E     		lsrs	r2, r0, #27
 195 0010 4301     		lsls	r3, r0, #5
 196 0012 1B1A     		subs	r3, r3, r0
 197 0014 62F10002 		sbc	r2, r2, #0
 198 0018 9200     		lsls	r2, r2, #2
 199 001a 42EA9372 		orr	r2, r2, r3, lsr #30
 200 001e 9B00     		lsls	r3, r3, #2
 201 0020 13EB000C 		adds	ip, r3, r0
 202 0024 42F10001 		adc	r1, r2, #0
 203 0028 C900     		lsls	r1, r1, #3
 204 002a 4FF47A72 		mov	r2, #1000
 205 002e 0023     		movs	r3, #0
 206 0030 4FEACC00 		lsl	r0, ip, #3
 207 0034 41EA5C71 		orr	r1, r1, ip, lsr #29
 208 0038 FFF7FEFF 		bl	__aeabi_uldivmod
 209              	.LVL15:
 210              		.loc 1 69 30 view .LVU30
 211 003c 2066     		str	r0, [r4, #96]
 212 003e 0023     		movs	r3, #0
 213 0040 6366     		str	r3, [r4, #100]
  70:../Core/Src/state_tx.c **** 
  71:../Core/Src/state_tx.c ****     RocketState_encode(_rocket_state, payload_buf);
 214              		.loc 1 71 5 is_stmt 1 view .LVU31
 215 0042 2946     		mov	r1, r5
 216 0044 3046     		mov	r0, r6
 217 0046 FFF7FEFF 		bl	RocketState_encode
 218              	.LVL16:
  72:../Core/Src/state_tx.c ****     telemetry_send_message(payload_buf, ROCKETSTATE_SIZE, ROCKETSTATE_MSG_ID);
ARM GAS  /tmp/ccU2NMk6.s 			page 6


 219              		.loc 1 72 5 view .LVU32
 220 004a 0C22     		movs	r2, #12
 221 004c 1146     		mov	r1, r2
 222 004e 2846     		mov	r0, r5
 223 0050 FFF7FEFF 		bl	telemetry_send_message
 224              	.LVL17:
  73:../Core/Src/state_tx.c **** }
 225              		.loc 1 73 1 is_stmt 0 view .LVU33
 226 0054 70BD     		pop	{r4, r5, r6, pc}
 227              		.loc 1 73 1 view .LVU34
 228              		.cfi_endproc
 229              	.LFE249:
 231              		.section	.text.send_ground_ekf,"ax",%progbits
 232              		.align	1
 233              		.global	send_ground_ekf
 234              		.syntax unified
 235              		.thumb
 236              		.thumb_func
 237              		.fpu fpv4-sp-d16
 239              	send_ground_ekf:
 240              	.LVL18:
 241              	.LFB250:
  74:../Core/Src/state_tx.c **** 
  75:../Core/Src/state_tx.c **** void send_ground_ekf(RocketState *rocket_state, uint8_t *payload_buf) {
 242              		.loc 1 75 71 is_stmt 1 view -0
 243              		.cfi_startproc
 244              		@ args = 0, pretend = 0, frame = 0
 245              		@ frame_needed = 0, uses_anonymous_args = 0
 246              		.loc 1 75 71 is_stmt 0 view .LVU36
 247 0000 70B5     		push	{r4, r5, r6, lr}
 248              	.LCFI3:
 249              		.cfi_def_cfa_offset 16
 250              		.cfi_offset 4, -16
 251              		.cfi_offset 5, -12
 252              		.cfi_offset 6, -8
 253              		.cfi_offset 14, -4
 254 0002 0446     		mov	r4, r0
 255 0004 0D46     		mov	r5, r1
  76:../Core/Src/state_tx.c ****     struct RocketGroundEKF *ground_ekf = &rocket_state->ground_ekf;
 256              		.loc 1 76 5 is_stmt 1 view .LVU37
 257              		.loc 1 76 29 is_stmt 0 view .LVU38
 258 0006 00F16806 		add	r6, r0, #104
 259              	.LVL19:
  77:../Core/Src/state_tx.c ****     ground_ekf->timestamp = pdTICKS_TO_MS(xTaskGetTickCount());
 260              		.loc 1 77 5 is_stmt 1 view .LVU39
 261              		.loc 1 77 29 is_stmt 0 view .LVU40
 262 000a FFF7FEFF 		bl	xTaskGetTickCount
 263              	.LVL20:
 264              		.loc 1 77 29 view .LVU41
 265 000e C20E     		lsrs	r2, r0, #27
 266 0010 4301     		lsls	r3, r0, #5
 267 0012 1B1A     		subs	r3, r3, r0
 268 0014 62F10002 		sbc	r2, r2, #0
 269 0018 9200     		lsls	r2, r2, #2
 270 001a 42EA9372 		orr	r2, r2, r3, lsr #30
 271 001e 9B00     		lsls	r3, r3, #2
 272 0020 13EB000C 		adds	ip, r3, r0
ARM GAS  /tmp/ccU2NMk6.s 			page 7


 273 0024 42F10001 		adc	r1, r2, #0
 274 0028 C900     		lsls	r1, r1, #3
 275 002a 4FF47A72 		mov	r2, #1000
 276 002e 0023     		movs	r3, #0
 277 0030 4FEACC00 		lsl	r0, ip, #3
 278 0034 41EA5C71 		orr	r1, r1, ip, lsr #29
 279 0038 FFF7FEFF 		bl	__aeabi_uldivmod
 280              	.LVL21:
 281              		.loc 1 77 27 view .LVU42
 282 003c C4F88000 		str	r0, [r4, #128]
 283 0040 0023     		movs	r3, #0
 284 0042 C4F88430 		str	r3, [r4, #132]
  78:../Core/Src/state_tx.c **** 
  79:../Core/Src/state_tx.c ****     RocketGroundEKF_encode(ground_ekf, payload_buf);
 285              		.loc 1 79 5 is_stmt 1 view .LVU43
 286 0046 2946     		mov	r1, r5
 287 0048 3046     		mov	r0, r6
 288 004a FFF7FEFF 		bl	RocketGroundEKF_encode
 289              	.LVL22:
  80:../Core/Src/state_tx.c ****     telemetry_send_message(payload_buf, ROCKETGROUNDEKF_SIZE, ROCKETGROUNDEKF_MSG_ID);
 290              		.loc 1 80 5 view .LVU44
 291 004e 0D22     		movs	r2, #13
 292 0050 2021     		movs	r1, #32
 293 0052 2846     		mov	r0, r5
 294 0054 FFF7FEFF 		bl	telemetry_send_message
 295              	.LVL23:
  81:../Core/Src/state_tx.c **** }
 296              		.loc 1 81 1 is_stmt 0 view .LVU45
 297 0058 70BD     		pop	{r4, r5, r6, pc}
 298              		.loc 1 81 1 view .LVU46
 299              		.cfi_endproc
 300              	.LFE250:
 302              		.section	.text.send_sensor_data,"ax",%progbits
 303              		.align	1
 304              		.global	send_sensor_data
 305              		.syntax unified
 306              		.thumb
 307              		.thumb_func
 308              		.fpu fpv4-sp-d16
 310              	send_sensor_data:
 311              	.LVL24:
 312              	.LFB251:
  82:../Core/Src/state_tx.c **** 
  83:../Core/Src/state_tx.c **** void send_sensor_data(RocketState *rocket_state, uint8_t *payload_buf) {
 313              		.loc 1 83 72 is_stmt 1 view -0
 314              		.cfi_startproc
 315              		@ args = 0, pretend = 0, frame = 0
 316              		@ frame_needed = 0, uses_anonymous_args = 0
 317              		.loc 1 83 72 is_stmt 0 view .LVU48
 318 0000 70B5     		push	{r4, r5, r6, lr}
 319              	.LCFI4:
 320              		.cfi_def_cfa_offset 16
 321              		.cfi_offset 4, -16
 322              		.cfi_offset 5, -12
 323              		.cfi_offset 6, -8
 324              		.cfi_offset 14, -4
 325 0002 0446     		mov	r4, r0
ARM GAS  /tmp/ccU2NMk6.s 			page 8


 326 0004 0D46     		mov	r5, r1
  84:../Core/Src/state_tx.c ****     struct RocketSensorData *sensor_data = &rocket_state->sensor_data;
 327              		.loc 1 84 5 is_stmt 1 view .LVU49
 328              		.loc 1 84 30 is_stmt 0 view .LVU50
 329 0006 00F18806 		add	r6, r0, #136
 330              	.LVL25:
  85:../Core/Src/state_tx.c ****     sensor_data->timestamp = pdTICKS_TO_MS(xTaskGetTickCount());
 331              		.loc 1 85 5 is_stmt 1 view .LVU51
 332              		.loc 1 85 30 is_stmt 0 view .LVU52
 333 000a FFF7FEFF 		bl	xTaskGetTickCount
 334              	.LVL26:
 335              		.loc 1 85 30 view .LVU53
 336 000e C20E     		lsrs	r2, r0, #27
 337 0010 4301     		lsls	r3, r0, #5
 338 0012 1B1A     		subs	r3, r3, r0
 339 0014 62F10002 		sbc	r2, r2, #0
 340 0018 9200     		lsls	r2, r2, #2
 341 001a 42EA9372 		orr	r2, r2, r3, lsr #30
 342 001e 9B00     		lsls	r3, r3, #2
 343 0020 13EB000C 		adds	ip, r3, r0
 344 0024 42F10001 		adc	r1, r2, #0
 345 0028 C900     		lsls	r1, r1, #3
 346 002a 4FF47A72 		mov	r2, #1000
 347 002e 0023     		movs	r3, #0
 348 0030 4FEACC00 		lsl	r0, ip, #3
 349 0034 41EA5C71 		orr	r1, r1, ip, lsr #29
 350 0038 FFF7FEFF 		bl	__aeabi_uldivmod
 351              	.LVL27:
 352              		.loc 1 85 28 view .LVU54
 353 003c C4F8B000 		str	r0, [r4, #176]
 354 0040 0023     		movs	r3, #0
 355 0042 C4F8B430 		str	r3, [r4, #180]
  86:../Core/Src/state_tx.c **** 
  87:../Core/Src/state_tx.c ****     RocketSensorData_encode(sensor_data, payload_buf);
 356              		.loc 1 87 5 is_stmt 1 view .LVU55
 357 0046 2946     		mov	r1, r5
 358 0048 3046     		mov	r0, r6
 359 004a FFF7FEFF 		bl	RocketSensorData_encode
 360              	.LVL28:
  88:../Core/Src/state_tx.c ****     telemetry_send_message(payload_buf, ROCKETSENSORDATA_SIZE, ROCKETSENSORDATA_MSG_ID);
 361              		.loc 1 88 5 view .LVU56
 362 004e 0E22     		movs	r2, #14
 363 0050 2C21     		movs	r1, #44
 364 0052 2846     		mov	r0, r5
 365 0054 FFF7FEFF 		bl	telemetry_send_message
 366              	.LVL29:
  89:../Core/Src/state_tx.c **** }
 367              		.loc 1 89 1 is_stmt 0 view .LVU57
 368 0058 70BD     		pop	{r4, r5, r6, pc}
 369              		.loc 1 89 1 view .LVU58
 370              		.cfi_endproc
 371              	.LFE251:
 373              		.section	.text.send_analog_feedback_data,"ax",%progbits
 374              		.align	1
 375              		.global	send_analog_feedback_data
 376              		.syntax unified
 377              		.thumb
ARM GAS  /tmp/ccU2NMk6.s 			page 9


 378              		.thumb_func
 379              		.fpu fpv4-sp-d16
 381              	send_analog_feedback_data:
 382              	.LVL30:
 383              	.LFB252:
  90:../Core/Src/state_tx.c **** 
  91:../Core/Src/state_tx.c **** void send_analog_feedback_data(RocketState *rocket_state, uint8_t *payload_buf) {
 384              		.loc 1 91 81 is_stmt 1 view -0
 385              		.cfi_startproc
 386              		@ args = 0, pretend = 0, frame = 0
 387              		@ frame_needed = 0, uses_anonymous_args = 0
 388              		.loc 1 91 81 is_stmt 0 view .LVU60
 389 0000 70B5     		push	{r4, r5, r6, lr}
 390              	.LCFI5:
 391              		.cfi_def_cfa_offset 16
 392              		.cfi_offset 4, -16
 393              		.cfi_offset 5, -12
 394              		.cfi_offset 6, -8
 395              		.cfi_offset 14, -4
 396 0002 0446     		mov	r4, r0
 397 0004 0D46     		mov	r5, r1
  92:../Core/Src/state_tx.c ****     struct RocketAnalogFeedbackData *analog_feedback_data = &rocket_state->analog_feedback_data;
 398              		.loc 1 92 5 is_stmt 1 view .LVU61
 399              		.loc 1 92 38 is_stmt 0 view .LVU62
 400 0006 00F1B806 		add	r6, r0, #184
 401              	.LVL31:
  93:../Core/Src/state_tx.c ****     analog_feedback_data->timestamp = pdTICKS_TO_MS(xTaskGetTickCount());
 402              		.loc 1 93 5 is_stmt 1 view .LVU63
 403              		.loc 1 93 39 is_stmt 0 view .LVU64
 404 000a FFF7FEFF 		bl	xTaskGetTickCount
 405              	.LVL32:
 406              		.loc 1 93 39 view .LVU65
 407 000e C20E     		lsrs	r2, r0, #27
 408 0010 4301     		lsls	r3, r0, #5
 409 0012 1B1A     		subs	r3, r3, r0
 410 0014 62F10002 		sbc	r2, r2, #0
 411 0018 9200     		lsls	r2, r2, #2
 412 001a 42EA9372 		orr	r2, r2, r3, lsr #30
 413 001e 9B00     		lsls	r3, r3, #2
 414 0020 13EB000C 		adds	ip, r3, r0
 415 0024 42F10001 		adc	r1, r2, #0
 416 0028 C900     		lsls	r1, r1, #3
 417 002a 4FF47A72 		mov	r2, #1000
 418 002e 0023     		movs	r3, #0
 419 0030 4FEACC00 		lsl	r0, ip, #3
 420 0034 41EA5C71 		orr	r1, r1, ip, lsr #29
 421 0038 FFF7FEFF 		bl	__aeabi_uldivmod
 422              	.LVL33:
 423              		.loc 1 93 37 view .LVU66
 424 003c C4F8C800 		str	r0, [r4, #200]
 425 0040 0023     		movs	r3, #0
 426 0042 C4F8CC30 		str	r3, [r4, #204]
  94:../Core/Src/state_tx.c **** 
  95:../Core/Src/state_tx.c ****     RocketAnalogFeedbackData_encode(analog_feedback_data, payload_buf);
 427              		.loc 1 95 5 is_stmt 1 view .LVU67
 428 0046 2946     		mov	r1, r5
 429 0048 3046     		mov	r0, r6
ARM GAS  /tmp/ccU2NMk6.s 			page 10


 430 004a FFF7FEFF 		bl	RocketAnalogFeedbackData_encode
 431              	.LVL34:
  96:../Core/Src/state_tx.c ****     telemetry_send_message(payload_buf, ROCKETANALOGFEEDBACKDATA_SIZE, ROCKETANALOGFEEDBACKDATA_MSG
 432              		.loc 1 96 5 view .LVU68
 433 004e 0F22     		movs	r2, #15
 434 0050 1121     		movs	r1, #17
 435 0052 2846     		mov	r0, r5
 436 0054 FFF7FEFF 		bl	telemetry_send_message
 437              	.LVL35:
  97:../Core/Src/state_tx.c **** }
 438              		.loc 1 97 1 is_stmt 0 view .LVU69
 439 0058 70BD     		pop	{r4, r5, r6, pc}
 440              		.loc 1 97 1 view .LVU70
 441              		.cfi_endproc
 442              	.LFE252:
 444              		.section	.text.state_tx_task,"ax",%progbits
 445              		.align	1
 446              		.global	state_tx_task
 447              		.syntax unified
 448              		.thumb
 449              		.thumb_func
 450              		.fpu fpv4-sp-d16
 452              	state_tx_task:
 453              	.LVL36:
 454              	.LFB246:
  12:../Core/Src/state_tx.c ****     uint8_t payload_buf[TELEMETRY_MAX_PAYLOAD_SIZE];
 455              		.loc 1 12 32 is_stmt 1 view -0
 456              		.cfi_startproc
 457              		@ Volatile: function does not return.
 458              		@ args = 0, pretend = 0, frame = 288
 459              		@ frame_needed = 0, uses_anonymous_args = 0
  12:../Core/Src/state_tx.c ****     uint8_t payload_buf[TELEMETRY_MAX_PAYLOAD_SIZE];
 460              		.loc 1 12 32 is_stmt 0 view .LVU72
 461 0000 00B5     		push	{lr}
 462              	.LCFI6:
 463              		.cfi_def_cfa_offset 4
 464              		.cfi_offset 14, -4
 465 0002 CBB0     		sub	sp, sp, #300
 466              	.LCFI7:
 467              		.cfi_def_cfa_offset 304
  13:../Core/Src/state_tx.c **** 
 468              		.loc 1 13 5 is_stmt 1 view .LVU73
  15:../Core/Src/state_tx.c **** 
 469              		.loc 1 15 5 view .LVU74
  17:../Core/Src/state_tx.c ****     while ((notification_value & BEGIN_STATE_TX_NOTIFICATION_BIT) == 0) {
 470              		.loc 1 17 5 view .LVU75
  17:../Core/Src/state_tx.c ****     while ((notification_value & BEGIN_STATE_TX_NOTIFICATION_BIT) == 0) {
 471              		.loc 1 17 14 is_stmt 0 view .LVU76
 472 0004 0023     		movs	r3, #0
 473 0006 0393     		str	r3, [sp, #12]
  18:../Core/Src/state_tx.c ****         xTaskNotifyWait(0, BEGIN_STATE_TX_NOTIFICATION_BIT, &notification_value, portMAX_DELAY);
 474              		.loc 1 18 5 is_stmt 1 view .LVU77
  18:../Core/Src/state_tx.c ****         xTaskNotifyWait(0, BEGIN_STATE_TX_NOTIFICATION_BIT, &notification_value, portMAX_DELAY);
 475              		.loc 1 18 11 is_stmt 0 view .LVU78
 476 0008 08E0     		b	.L14
 477              	.LVL37:
 478              	.L15:
ARM GAS  /tmp/ccU2NMk6.s 			page 11


  19:../Core/Src/state_tx.c ****     }
 479              		.loc 1 19 9 is_stmt 1 view .LVU79
 480 000a 4FF0FF33 		mov	r3, #-1
 481 000e 0093     		str	r3, [sp]
 482 0010 03AB     		add	r3, sp, #12
 483 0012 0122     		movs	r2, #1
 484 0014 0021     		movs	r1, #0
 485 0016 0846     		mov	r0, r1
 486 0018 FFF7FEFF 		bl	xTaskGenericNotifyWait
 487              	.LVL38:
 488              	.L14:
  18:../Core/Src/state_tx.c ****         xTaskNotifyWait(0, BEGIN_STATE_TX_NOTIFICATION_BIT, &notification_value, portMAX_DELAY);
 489              		.loc 1 18 11 view .LVU80
  18:../Core/Src/state_tx.c ****         xTaskNotifyWait(0, BEGIN_STATE_TX_NOTIFICATION_BIT, &notification_value, portMAX_DELAY);
 490              		.loc 1 18 32 is_stmt 0 view .LVU81
 491 001c 039B     		ldr	r3, [sp, #12]
  18:../Core/Src/state_tx.c ****         xTaskNotifyWait(0, BEGIN_STATE_TX_NOTIFICATION_BIT, &notification_value, portMAX_DELAY);
 492              		.loc 1 18 11 view .LVU82
 493 001e 13F0010F 		tst	r3, #1
 494 0022 F2D0     		beq	.L15
 495 0024 24E0     		b	.L18
 496              	.L20:
  26:../Core/Src/state_tx.c ****             xSemaphoreGive(g_state_mutex_handle);
 497              		.loc 1 26 13 is_stmt 1 view .LVU83
 498 0026 D822     		movs	r2, #216
 499 0028 2649     		ldr	r1, .L22
 500 002a 04A8     		add	r0, sp, #16
 501 002c FFF7FEFF 		bl	memcpy
 502              	.LVL39:
  27:../Core/Src/state_tx.c ****         }
 503              		.loc 1 27 13 view .LVU84
 504 0030 0023     		movs	r3, #0
 505 0032 1A46     		mov	r2, r3
 506 0034 1946     		mov	r1, r3
 507 0036 2448     		ldr	r0, .L22+4
 508 0038 0068     		ldr	r0, [r0]
 509 003a FFF7FEFF 		bl	xQueueGenericSend
 510              	.LVL40:
 511 003e 27E0     		b	.L16
 512              	.L21:
  38:../Core/Src/state_tx.c ****             vTaskDelay(pdMS_TO_TICKS((ROCKETGROUNDEKF_SIZE + 5) * MULT));
 513              		.loc 1 38 13 view .LVU85
 514 0040 3AA9     		add	r1, sp, #232
 515 0042 04A8     		add	r0, sp, #16
 516 0044 FFF7FEFF 		bl	send_ground_ekf
 517              	.LVL41:
  39:../Core/Src/state_tx.c ****         }
 518              		.loc 1 39 13 view .LVU86
 519 0048 2520     		movs	r0, #37
 520 004a FFF7FEFF 		bl	vTaskDelay
 521              	.LVL42:
 522              	.L17:
  42:../Core/Src/state_tx.c ****         vTaskDelay(pdMS_TO_TICKS((ROCKETSENSORDATA_SIZE + 5) * MULT));
 523              		.loc 1 42 9 view .LVU87
 524 004e 3AA9     		add	r1, sp, #232
 525 0050 04A8     		add	r0, sp, #16
 526 0052 FFF7FEFF 		bl	send_sensor_data
ARM GAS  /tmp/ccU2NMk6.s 			page 12


 527              	.LVL43:
  43:../Core/Src/state_tx.c ****         send_analog_feedback_data(&rocket_state, payload_buf);
 528              		.loc 1 43 9 view .LVU88
 529 0056 3120     		movs	r0, #49
 530 0058 FFF7FEFF 		bl	vTaskDelay
 531              	.LVL44:
  44:../Core/Src/state_tx.c ****         vTaskDelay(pdMS_TO_TICKS((ROCKETANALOGFEEDBACKDATA_SIZE + 5) * MULT));
 532              		.loc 1 44 9 view .LVU89
 533 005c 3AA9     		add	r1, sp, #232
 534 005e 04A8     		add	r0, sp, #16
 535 0060 FFF7FEFF 		bl	send_analog_feedback_data
 536              	.LVL45:
  45:../Core/Src/state_tx.c **** 
 537              		.loc 1 45 9 view .LVU90
 538 0064 1620     		movs	r0, #22
 539 0066 FFF7FEFF 		bl	vTaskDelay
 540              	.LVL46:
  47:../Core/Src/state_tx.c ****     }
 541              		.loc 1 47 9 view .LVU91
 542 006a C820     		movs	r0, #200
 543 006c FFF7FEFF 		bl	vTaskDelay
 544              	.LVL47:
  22:../Core/Src/state_tx.c ****         xTaskNotifyWait(0, SEND_STATE_NOTIFICATION_BIT, &notification_value, portMAX_DELAY);
 545              		.loc 1 22 11 view .LVU92
 546              	.L18:
  22:../Core/Src/state_tx.c ****         xTaskNotifyWait(0, SEND_STATE_NOTIFICATION_BIT, &notification_value, portMAX_DELAY);
 547              		.loc 1 22 5 view .LVU93
  23:../Core/Src/state_tx.c **** 
 548              		.loc 1 23 9 view .LVU94
 549 0070 4FF0FF34 		mov	r4, #-1
 550 0074 0094     		str	r4, [sp]
 551 0076 03AB     		add	r3, sp, #12
 552 0078 0122     		movs	r2, #1
 553 007a 0021     		movs	r1, #0
 554 007c 0846     		mov	r0, r1
 555 007e FFF7FEFF 		bl	xTaskGenericNotifyWait
 556              	.LVL48:
  25:../Core/Src/state_tx.c ****             memcpy(&rocket_state, &g_current_state, sizeof(RocketState));
 557              		.loc 1 25 9 view .LVU95
  25:../Core/Src/state_tx.c ****             memcpy(&rocket_state, &g_current_state, sizeof(RocketState));
 558              		.loc 1 25 13 is_stmt 0 view .LVU96
 559 0082 2146     		mov	r1, r4
 560 0084 104B     		ldr	r3, .L22+4
 561 0086 1868     		ldr	r0, [r3]
 562 0088 FFF7FEFF 		bl	xQueueSemaphoreTake
 563              	.LVL49:
  25:../Core/Src/state_tx.c ****             memcpy(&rocket_state, &g_current_state, sizeof(RocketState));
 564              		.loc 1 25 12 view .LVU97
 565 008c 0128     		cmp	r0, #1
 566 008e CAD0     		beq	.L20
 567              	.L16:
  30:../Core/Src/state_tx.c ****         vTaskDelay(pdMS_TO_TICKS((ROCKETSTATEVECTOR_SIZE + 5) * MULT));
 568              		.loc 1 30 9 is_stmt 1 view .LVU98
 569 0090 3AA9     		add	r1, sp, #232
 570 0092 04A8     		add	r0, sp, #16
 571 0094 FFF7FEFF 		bl	send_state_vector
 572              	.LVL50:
ARM GAS  /tmp/ccU2NMk6.s 			page 13


  31:../Core/Src/state_tx.c ****         send_servo_deflection(&rocket_state, payload_buf);
 573              		.loc 1 31 9 view .LVU99
 574 0098 4120     		movs	r0, #65
 575 009a FFF7FEFF 		bl	vTaskDelay
 576              	.LVL51:
  32:../Core/Src/state_tx.c ****         vTaskDelay(pdMS_TO_TICKS((ROCKETSERVODEFLECTION_SIZE + 5) * MULT));
 577              		.loc 1 32 9 view .LVU100
 578 009e 3AA9     		add	r1, sp, #232
 579 00a0 04A8     		add	r0, sp, #16
 580 00a2 FFF7FEFF 		bl	send_servo_deflection
 581              	.LVL52:
  33:../Core/Src/state_tx.c ****         send_state(&rocket_state, payload_buf);
 582              		.loc 1 33 9 view .LVU101
 583 00a6 1D20     		movs	r0, #29
 584 00a8 FFF7FEFF 		bl	vTaskDelay
 585              	.LVL53:
  34:../Core/Src/state_tx.c ****         vTaskDelay(pdMS_TO_TICKS((ROCKETSTATE_SIZE + 5) * MULT));
 586              		.loc 1 34 9 view .LVU102
 587 00ac 3AA9     		add	r1, sp, #232
 588 00ae 04A8     		add	r0, sp, #16
 589 00b0 FFF7FEFF 		bl	send_state
 590              	.LVL54:
  35:../Core/Src/state_tx.c **** 
 591              		.loc 1 35 9 view .LVU103
 592 00b4 1120     		movs	r0, #17
 593 00b6 FFF7FEFF 		bl	vTaskDelay
 594              	.LVL55:
  37:../Core/Src/state_tx.c ****             send_ground_ekf(&rocket_state, payload_buf);
 595              		.loc 1 37 9 view .LVU104
  37:../Core/Src/state_tx.c ****             send_ground_ekf(&rocket_state, payload_buf);
 596              		.loc 1 37 38 is_stmt 0 view .LVU105
 597 00ba 9DF86830 		ldrb	r3, [sp, #104]	@ zero_extendqisi2
  37:../Core/Src/state_tx.c ****             send_ground_ekf(&rocket_state, payload_buf);
 598              		.loc 1 37 12 view .LVU106
 599 00be 012B     		cmp	r3, #1
 600 00c0 BED0     		beq	.L21
 601 00c2 C4E7     		b	.L17
 602              	.L23:
 603              		.align	2
 604              	.L22:
 605 00c4 00000000 		.word	g_current_state
 606 00c8 00000000 		.word	g_state_mutex_handle
 607              		.cfi_endproc
 608              	.LFE246:
 610              		.text
 611              	.Letext0:
 612              		.file 2 "/usr/lib/gcc/arm-none-eabi/10.3.1/include/stdint.h"
 613              		.file 3 "Core/Inc/portmacro.h"
 614              		.file 4 "../Core/Include/protocol.h"
 615              		.file 5 "../Core/Include/adc.h"
 616              		.file 6 "Core/Inc/port_config.h"
 617              		.file 7 "../Core/FreeRTOS-Kernel/include/queue.h"
 618              		.file 8 "../Core/FreeRTOS-Kernel/include/semphr.h"
 619              		.file 9 "../Core/Include/state.h"
 620              		.file 10 "../Core/Include/globals.h"
 621              		.file 11 "../Core/FreeRTOS-Kernel/include/task.h"
 622              		.file 12 "../Core/Include/telemetry.h"
ARM GAS  /tmp/ccU2NMk6.s 			page 14


 623              		.file 13 "<built-in>"
ARM GAS  /tmp/ccU2NMk6.s 			page 15

