ARM GAS  /tmp/ccBM7g0c.s 			page 1


   1              		.cpu cortex-m4
   2              		.eabi_attribute 27, 1
   3              		.eabi_attribute 28, 1
   4              		.eabi_attribute 20, 1
   5              		.eabi_attribute 21, 1
   6              		.eabi_attribute 23, 3
   7              		.eabi_attribute 24, 1
   8              		.eabi_attribute 25, 1
   9              		.eabi_attribute 26, 1
  10              		.eabi_attribute 30, 1
  11              		.eabi_attribute 34, 1
  12              		.eabi_attribute 18, 4
  13              		.file	"telemetry.c"
  14              		.text
  15              	.Ltext0:
  16              		.cfi_sections	.debug_frame
  17              		.section	.text.telemetry_send_message,"ax",%progbits
  18              		.align	1
  19              		.global	telemetry_send_message
  20              		.arch armv7e-m
  21              		.syntax unified
  22              		.thumb
  23              		.thumb_func
  24              		.fpu fpv4-sp-d16
  26              	telemetry_send_message:
  27              	.LVL0:
  28              	.LFB246:
  29              		.file 1 "../Core/Src/telemetry.c"
   1:../Core/Src/telemetry.c **** #include <string.h>
   2:../Core/Src/telemetry.c **** 
   3:../Core/Src/telemetry.c **** #include "telemetry.h"
   4:../Core/Src/telemetry.c **** 
   5:../Core/Src/telemetry.c **** #include "FreeRTOS.h"
   6:../Core/Src/telemetry.c **** #include "message_buffer.h"
   7:../Core/Src/telemetry.c **** #include "task.h"
   8:../Core/Src/telemetry.c **** 
   9:../Core/Src/telemetry.c **** #include "packet_encode.h"
  10:../Core/Src/telemetry.c **** #include "protocol.h"
  11:../Core/Src/telemetry.c **** 
  12:../Core/Src/telemetry.c **** #include "globals.h"
  13:../Core/Src/telemetry.c **** 
  14:../Core/Src/telemetry.c **** uint8_t packet_buffer[TELEMETRY_MAX_PACKET_SIZE];
  15:../Core/Src/telemetry.c **** 
  16:../Core/Src/telemetry.c **** /**
  17:../Core/Src/telemetry.c ****  * Transmit a telemetry packet over uart
  18:../Core/Src/telemetry.c ****  * @param payload The payload of the message
  19:../Core/Src/telemetry.c ****  * @param payload_size The size of the payload
  20:../Core/Src/telemetry.c ****  * @param message_id The message id of the message
  21:../Core/Src/telemetry.c ****  * @return 1 if the message was sent successfully, 0 otherwise
  22:../Core/Src/telemetry.c ****  */
  23:../Core/Src/telemetry.c **** int telemetry_send_message(uint8_t *payload, uint8_t payload_size, uint8_t message_id) {
  30              		.loc 1 23 88 view -0
  31              		.cfi_startproc
  32              		@ args = 0, pretend = 0, frame = 72
  33              		@ frame_needed = 0, uses_anonymous_args = 0
  34              		.loc 1 23 88 is_stmt 0 view .LVU1
  35 0000 00B5     		push	{lr}
ARM GAS  /tmp/ccBM7g0c.s 			page 2


  36              	.LCFI0:
  37              		.cfi_def_cfa_offset 4
  38              		.cfi_offset 14, -4
  39 0002 93B0     		sub	sp, sp, #76
  40              	.LCFI1:
  41              		.cfi_def_cfa_offset 80
  42 0004 1346     		mov	r3, r2
  24:../Core/Src/telemetry.c ****     uint8_t packet_buf[TELEMETRY_MAX_PACKET_SIZE];
  43              		.loc 1 24 5 is_stmt 1 view .LVU2
  25:../Core/Src/telemetry.c ****     int packet_size = generate_packet(payload, payload_size, packet_buf, message_id);    
  44              		.loc 1 25 5 view .LVU3
  45              		.loc 1 25 23 is_stmt 0 view .LVU4
  46 0006 6A46     		mov	r2, sp
  47              	.LVL1:
  48              		.loc 1 25 23 view .LVU5
  49 0008 FFF7FEFF 		bl	generate_packet
  50              	.LVL2:
  26:../Core/Src/telemetry.c ****  
  27:../Core/Src/telemetry.c ****     if (HAL_UART_Transmit(&telemetry_uart, packet_buf, packet_size, HAL_MAX_DELAY) != HAL_OK) {
  51              		.loc 1 27 5 is_stmt 1 view .LVU6
  52              		.loc 1 27 9 is_stmt 0 view .LVU7
  53 000c 4FF0FF33 		mov	r3, #-1
  54 0010 82B2     		uxth	r2, r0
  55 0012 6946     		mov	r1, sp
  56 0014 0448     		ldr	r0, .L5
  57              	.LVL3:
  58              		.loc 1 27 9 view .LVU8
  59 0016 FFF7FEFF 		bl	HAL_UART_Transmit
  60              	.LVL4:
  61              		.loc 1 27 8 view .LVU9
  62 001a 18B9     		cbnz	r0, .L3
  28:../Core/Src/telemetry.c ****         return 0;
  29:../Core/Src/telemetry.c ****     }
  30:../Core/Src/telemetry.c **** 
  31:../Core/Src/telemetry.c ****     return 1;
  63              		.loc 1 31 12 view .LVU10
  64 001c 0120     		movs	r0, #1
  65              	.L1:
  32:../Core/Src/telemetry.c **** }
  66              		.loc 1 32 1 view .LVU11
  67 001e 13B0     		add	sp, sp, #76
  68              	.LCFI2:
  69              		.cfi_remember_state
  70              		.cfi_def_cfa_offset 4
  71              		@ sp needed
  72 0020 5DF804FB 		ldr	pc, [sp], #4
  73              	.L3:
  74              	.LCFI3:
  75              		.cfi_restore_state
  28:../Core/Src/telemetry.c ****         return 0;
  76              		.loc 1 28 16 view .LVU12
  77 0024 0020     		movs	r0, #0
  78 0026 FAE7     		b	.L1
  79              	.L6:
  80              		.align	2
  81              	.L5:
  82 0028 00000000 		.word	huart2
ARM GAS  /tmp/ccBM7g0c.s 			page 3


  83              		.cfi_endproc
  84              	.LFE246:
  86              		.global	packet_buffer
  87              		.section	.bss.packet_buffer,"aw",%nobits
  88              		.align	2
  91              	packet_buffer:
  92 0000 00000000 		.space	69
  92      00000000 
  92      00000000 
  92      00000000 
  92      00000000 
  93              		.text
  94              	.Letext0:
  95              		.file 2 "/usr/lib/gcc/arm-none-eabi/10.3.1/include/stdint.h"
  96              		.file 3 "Drivers/CMSIS/Device/ST/STM32F4xx/Include/stm32f429xx.h"
  97              		.file 4 "Drivers/STM32F4xx_HAL_Driver/Inc/stm32f4xx_hal_def.h"
  98              		.file 5 "Drivers/STM32F4xx_HAL_Driver/Inc/stm32f4xx_hal_dma.h"
  99              		.file 6 "Drivers/STM32F4xx_HAL_Driver/Inc/stm32f4xx_hal_uart.h"
 100              		.file 7 "../Core/Include/adc.h"
 101              		.file 8 "Core/Inc/port_config.h"
 102              		.file 9 "../Core/Include/globals.h"
 103              		.file 10 "../Core/Include/packet_encode.h"
ARM GAS  /tmp/ccBM7g0c.s 			page 4

