ARM GAS  /tmp/ccZFpcdw.s 			page 1


   1              		.cpu cortex-m7
   2              		.eabi_attribute 28, 1
   3              		.eabi_attribute 20, 1
   4              		.eabi_attribute 21, 1
   5              		.eabi_attribute 23, 3
   6              		.eabi_attribute 24, 1
   7              		.eabi_attribute 25, 1
   8              		.eabi_attribute 26, 1
   9              		.eabi_attribute 30, 1
  10              		.eabi_attribute 34, 1
  11              		.eabi_attribute 18, 4
  12              		.file	"event_groups.c"
  13              		.text
  14              	.Ltext0:
  15              		.cfi_sections	.debug_frame
  16              		.section	.text.prvTestWaitCondition,"ax",%progbits
  17              		.align	1
  18              		.arch armv7e-m
  19              		.syntax unified
  20              		.thumb
  21              		.thumb_func
  22              		.fpu fpv5-d16
  24              	prvTestWaitCondition:
  25              	.LVL0:
  26              	.LFB159:
  27              		.file 1 "../Core/FreeRTOS-Kernel/event_groups.c"
   1:../Core/FreeRTOS-Kernel/event_groups.c **** /*
   2:../Core/FreeRTOS-Kernel/event_groups.c ****  * FreeRTOS Kernel V11.1.0
   3:../Core/FreeRTOS-Kernel/event_groups.c ****  * Copyright (C) 2021 Amazon.com, Inc. or its affiliates. All Rights Reserved.
   4:../Core/FreeRTOS-Kernel/event_groups.c ****  *
   5:../Core/FreeRTOS-Kernel/event_groups.c ****  * SPDX-License-Identifier: MIT
   6:../Core/FreeRTOS-Kernel/event_groups.c ****  *
   7:../Core/FreeRTOS-Kernel/event_groups.c ****  * Permission is hereby granted, free of charge, to any person obtaining a copy of
   8:../Core/FreeRTOS-Kernel/event_groups.c ****  * this software and associated documentation files (the "Software"), to deal in
   9:../Core/FreeRTOS-Kernel/event_groups.c ****  * the Software without restriction, including without limitation the rights to
  10:../Core/FreeRTOS-Kernel/event_groups.c ****  * use, copy, modify, merge, publish, distribute, sublicense, and/or sell copies of
  11:../Core/FreeRTOS-Kernel/event_groups.c ****  * the Software, and to permit persons to whom the Software is furnished to do so,
  12:../Core/FreeRTOS-Kernel/event_groups.c ****  * subject to the following conditions:
  13:../Core/FreeRTOS-Kernel/event_groups.c ****  *
  14:../Core/FreeRTOS-Kernel/event_groups.c ****  * The above copyright notice and this permission notice shall be included in all
  15:../Core/FreeRTOS-Kernel/event_groups.c ****  * copies or substantial portions of the Software.
  16:../Core/FreeRTOS-Kernel/event_groups.c ****  *
  17:../Core/FreeRTOS-Kernel/event_groups.c ****  * THE SOFTWARE IS PROVIDED "AS IS", WITHOUT WARRANTY OF ANY KIND, EXPRESS OR
  18:../Core/FreeRTOS-Kernel/event_groups.c ****  * IMPLIED, INCLUDING BUT NOT LIMITED TO THE WARRANTIES OF MERCHANTABILITY, FITNESS
  19:../Core/FreeRTOS-Kernel/event_groups.c ****  * FOR A PARTICULAR PURPOSE AND NONINFRINGEMENT. IN NO EVENT SHALL THE AUTHORS OR
  20:../Core/FreeRTOS-Kernel/event_groups.c ****  * COPYRIGHT HOLDERS BE LIABLE FOR ANY CLAIM, DAMAGES OR OTHER LIABILITY, WHETHER
  21:../Core/FreeRTOS-Kernel/event_groups.c ****  * IN AN ACTION OF CONTRACT, TORT OR OTHERWISE, ARISING FROM, OUT OF OR IN
  22:../Core/FreeRTOS-Kernel/event_groups.c ****  * CONNECTION WITH THE SOFTWARE OR THE USE OR OTHER DEALINGS IN THE SOFTWARE.
  23:../Core/FreeRTOS-Kernel/event_groups.c ****  *
  24:../Core/FreeRTOS-Kernel/event_groups.c ****  * https://www.FreeRTOS.org
  25:../Core/FreeRTOS-Kernel/event_groups.c ****  * https://github.com/FreeRTOS
  26:../Core/FreeRTOS-Kernel/event_groups.c ****  *
  27:../Core/FreeRTOS-Kernel/event_groups.c ****  */
  28:../Core/FreeRTOS-Kernel/event_groups.c **** 
  29:../Core/FreeRTOS-Kernel/event_groups.c **** /* Standard includes. */
  30:../Core/FreeRTOS-Kernel/event_groups.c **** #include <stdlib.h>
  31:../Core/FreeRTOS-Kernel/event_groups.c **** 
ARM GAS  /tmp/ccZFpcdw.s 			page 2


  32:../Core/FreeRTOS-Kernel/event_groups.c **** /* Defining MPU_WRAPPERS_INCLUDED_FROM_API_FILE prevents task.h from redefining
  33:../Core/FreeRTOS-Kernel/event_groups.c ****  * all the API functions to use the MPU wrappers. That should only be done when
  34:../Core/FreeRTOS-Kernel/event_groups.c ****  * task.h is included from an application file. */
  35:../Core/FreeRTOS-Kernel/event_groups.c **** #define MPU_WRAPPERS_INCLUDED_FROM_API_FILE
  36:../Core/FreeRTOS-Kernel/event_groups.c **** 
  37:../Core/FreeRTOS-Kernel/event_groups.c **** /* FreeRTOS includes. */
  38:../Core/FreeRTOS-Kernel/event_groups.c **** #include "FreeRTOS.h"
  39:../Core/FreeRTOS-Kernel/event_groups.c **** #include "task.h"
  40:../Core/FreeRTOS-Kernel/event_groups.c **** #include "timers.h"
  41:../Core/FreeRTOS-Kernel/event_groups.c **** #include "event_groups.h"
  42:../Core/FreeRTOS-Kernel/event_groups.c **** 
  43:../Core/FreeRTOS-Kernel/event_groups.c **** /* The MPU ports require MPU_WRAPPERS_INCLUDED_FROM_API_FILE to be defined
  44:../Core/FreeRTOS-Kernel/event_groups.c ****  * for the header files above, but not in this file, in order to generate the
  45:../Core/FreeRTOS-Kernel/event_groups.c ****  * correct privileged Vs unprivileged linkage and placement. */
  46:../Core/FreeRTOS-Kernel/event_groups.c **** #undef MPU_WRAPPERS_INCLUDED_FROM_API_FILE
  47:../Core/FreeRTOS-Kernel/event_groups.c **** 
  48:../Core/FreeRTOS-Kernel/event_groups.c **** /* This entire source file will be skipped if the application is not configured
  49:../Core/FreeRTOS-Kernel/event_groups.c ****  * to include event groups functionality. This #if is closed at the very bottom
  50:../Core/FreeRTOS-Kernel/event_groups.c ****  * of this file. If you want to include event groups then ensure
  51:../Core/FreeRTOS-Kernel/event_groups.c ****  * configUSE_EVENT_GROUPS is set to 1 in FreeRTOSConfig.h. */
  52:../Core/FreeRTOS-Kernel/event_groups.c **** #if ( configUSE_EVENT_GROUPS == 1 )
  53:../Core/FreeRTOS-Kernel/event_groups.c **** 
  54:../Core/FreeRTOS-Kernel/event_groups.c ****     typedef struct EventGroupDef_t
  55:../Core/FreeRTOS-Kernel/event_groups.c ****     {
  56:../Core/FreeRTOS-Kernel/event_groups.c ****         EventBits_t uxEventBits;
  57:../Core/FreeRTOS-Kernel/event_groups.c ****         List_t xTasksWaitingForBits; /**< List of tasks waiting for a bit to be set. */
  58:../Core/FreeRTOS-Kernel/event_groups.c **** 
  59:../Core/FreeRTOS-Kernel/event_groups.c ****         #if ( configUSE_TRACE_FACILITY == 1 )
  60:../Core/FreeRTOS-Kernel/event_groups.c ****             UBaseType_t uxEventGroupNumber;
  61:../Core/FreeRTOS-Kernel/event_groups.c ****         #endif
  62:../Core/FreeRTOS-Kernel/event_groups.c **** 
  63:../Core/FreeRTOS-Kernel/event_groups.c ****         #if ( ( configSUPPORT_STATIC_ALLOCATION == 1 ) && ( configSUPPORT_DYNAMIC_ALLOCATION == 1 )
  64:../Core/FreeRTOS-Kernel/event_groups.c ****             uint8_t ucStaticallyAllocated; /**< Set to pdTRUE if the event group is statically allo
  65:../Core/FreeRTOS-Kernel/event_groups.c ****         #endif
  66:../Core/FreeRTOS-Kernel/event_groups.c ****     } EventGroup_t;
  67:../Core/FreeRTOS-Kernel/event_groups.c **** 
  68:../Core/FreeRTOS-Kernel/event_groups.c **** /*-----------------------------------------------------------*/
  69:../Core/FreeRTOS-Kernel/event_groups.c **** 
  70:../Core/FreeRTOS-Kernel/event_groups.c **** /*
  71:../Core/FreeRTOS-Kernel/event_groups.c ****  * Test the bits set in uxCurrentEventBits to see if the wait condition is met.
  72:../Core/FreeRTOS-Kernel/event_groups.c ****  * The wait condition is defined by xWaitForAllBits.  If xWaitForAllBits is
  73:../Core/FreeRTOS-Kernel/event_groups.c ****  * pdTRUE then the wait condition is met if all the bits set in uxBitsToWaitFor
  74:../Core/FreeRTOS-Kernel/event_groups.c ****  * are also set in uxCurrentEventBits.  If xWaitForAllBits is pdFALSE then the
  75:../Core/FreeRTOS-Kernel/event_groups.c ****  * wait condition is met if any of the bits set in uxBitsToWait for are also set
  76:../Core/FreeRTOS-Kernel/event_groups.c ****  * in uxCurrentEventBits.
  77:../Core/FreeRTOS-Kernel/event_groups.c ****  */
  78:../Core/FreeRTOS-Kernel/event_groups.c ****     static BaseType_t prvTestWaitCondition( const EventBits_t uxCurrentEventBits,
  79:../Core/FreeRTOS-Kernel/event_groups.c ****                                             const EventBits_t uxBitsToWaitFor,
  80:../Core/FreeRTOS-Kernel/event_groups.c ****                                             const BaseType_t xWaitForAllBits ) PRIVILEGED_FUNCTION;
  81:../Core/FreeRTOS-Kernel/event_groups.c **** 
  82:../Core/FreeRTOS-Kernel/event_groups.c **** /*-----------------------------------------------------------*/
  83:../Core/FreeRTOS-Kernel/event_groups.c **** 
  84:../Core/FreeRTOS-Kernel/event_groups.c ****     #if ( configSUPPORT_STATIC_ALLOCATION == 1 )
  85:../Core/FreeRTOS-Kernel/event_groups.c **** 
  86:../Core/FreeRTOS-Kernel/event_groups.c ****         EventGroupHandle_t xEventGroupCreateStatic( StaticEventGroup_t * pxEventGroupBuffer )
  87:../Core/FreeRTOS-Kernel/event_groups.c ****         {
  88:../Core/FreeRTOS-Kernel/event_groups.c ****             EventGroup_t * pxEventBits;
ARM GAS  /tmp/ccZFpcdw.s 			page 3


  89:../Core/FreeRTOS-Kernel/event_groups.c **** 
  90:../Core/FreeRTOS-Kernel/event_groups.c ****             traceENTER_xEventGroupCreateStatic( pxEventGroupBuffer );
  91:../Core/FreeRTOS-Kernel/event_groups.c **** 
  92:../Core/FreeRTOS-Kernel/event_groups.c ****             /* A StaticEventGroup_t object must be provided. */
  93:../Core/FreeRTOS-Kernel/event_groups.c ****             configASSERT( pxEventGroupBuffer );
  94:../Core/FreeRTOS-Kernel/event_groups.c **** 
  95:../Core/FreeRTOS-Kernel/event_groups.c ****             #if ( configASSERT_DEFINED == 1 )
  96:../Core/FreeRTOS-Kernel/event_groups.c ****             {
  97:../Core/FreeRTOS-Kernel/event_groups.c ****                 /* Sanity check that the size of the structure used to declare a
  98:../Core/FreeRTOS-Kernel/event_groups.c ****                  * variable of type StaticEventGroup_t equals the size of the real
  99:../Core/FreeRTOS-Kernel/event_groups.c ****                  * event group structure. */
 100:../Core/FreeRTOS-Kernel/event_groups.c ****                 volatile size_t xSize = sizeof( StaticEventGroup_t );
 101:../Core/FreeRTOS-Kernel/event_groups.c ****                 configASSERT( xSize == sizeof( EventGroup_t ) );
 102:../Core/FreeRTOS-Kernel/event_groups.c ****             }
 103:../Core/FreeRTOS-Kernel/event_groups.c ****             #endif /* configASSERT_DEFINED */
 104:../Core/FreeRTOS-Kernel/event_groups.c **** 
 105:../Core/FreeRTOS-Kernel/event_groups.c ****             /* The user has provided a statically allocated event group - use it. */
 106:../Core/FreeRTOS-Kernel/event_groups.c ****             /* MISRA Ref 11.3.1 [Misaligned access] */
 107:../Core/FreeRTOS-Kernel/event_groups.c ****             /* More details at: https://github.com/FreeRTOS/FreeRTOS-Kernel/blob/main/MISRA.md#rule
 108:../Core/FreeRTOS-Kernel/event_groups.c ****             /* coverity[misra_c_2012_rule_11_3_violation] */
 109:../Core/FreeRTOS-Kernel/event_groups.c ****             pxEventBits = ( EventGroup_t * ) pxEventGroupBuffer;
 110:../Core/FreeRTOS-Kernel/event_groups.c **** 
 111:../Core/FreeRTOS-Kernel/event_groups.c ****             if( pxEventBits != NULL )
 112:../Core/FreeRTOS-Kernel/event_groups.c ****             {
 113:../Core/FreeRTOS-Kernel/event_groups.c ****                 pxEventBits->uxEventBits = 0;
 114:../Core/FreeRTOS-Kernel/event_groups.c ****                 vListInitialise( &( pxEventBits->xTasksWaitingForBits ) );
 115:../Core/FreeRTOS-Kernel/event_groups.c **** 
 116:../Core/FreeRTOS-Kernel/event_groups.c ****                 #if ( configSUPPORT_DYNAMIC_ALLOCATION == 1 )
 117:../Core/FreeRTOS-Kernel/event_groups.c ****                 {
 118:../Core/FreeRTOS-Kernel/event_groups.c ****                     /* Both static and dynamic allocation can be used, so note that
 119:../Core/FreeRTOS-Kernel/event_groups.c ****                      * this event group was created statically in case the event group
 120:../Core/FreeRTOS-Kernel/event_groups.c ****                      * is later deleted. */
 121:../Core/FreeRTOS-Kernel/event_groups.c ****                     pxEventBits->ucStaticallyAllocated = pdTRUE;
 122:../Core/FreeRTOS-Kernel/event_groups.c ****                 }
 123:../Core/FreeRTOS-Kernel/event_groups.c ****                 #endif /* configSUPPORT_DYNAMIC_ALLOCATION */
 124:../Core/FreeRTOS-Kernel/event_groups.c **** 
 125:../Core/FreeRTOS-Kernel/event_groups.c ****                 traceEVENT_GROUP_CREATE( pxEventBits );
 126:../Core/FreeRTOS-Kernel/event_groups.c ****             }
 127:../Core/FreeRTOS-Kernel/event_groups.c ****             else
 128:../Core/FreeRTOS-Kernel/event_groups.c ****             {
 129:../Core/FreeRTOS-Kernel/event_groups.c ****                 /* xEventGroupCreateStatic should only ever be called with
 130:../Core/FreeRTOS-Kernel/event_groups.c ****                  * pxEventGroupBuffer pointing to a pre-allocated (compile time
 131:../Core/FreeRTOS-Kernel/event_groups.c ****                  * allocated) StaticEventGroup_t variable. */
 132:../Core/FreeRTOS-Kernel/event_groups.c ****                 traceEVENT_GROUP_CREATE_FAILED();
 133:../Core/FreeRTOS-Kernel/event_groups.c ****             }
 134:../Core/FreeRTOS-Kernel/event_groups.c **** 
 135:../Core/FreeRTOS-Kernel/event_groups.c ****             traceRETURN_xEventGroupCreateStatic( pxEventBits );
 136:../Core/FreeRTOS-Kernel/event_groups.c **** 
 137:../Core/FreeRTOS-Kernel/event_groups.c ****             return pxEventBits;
 138:../Core/FreeRTOS-Kernel/event_groups.c ****         }
 139:../Core/FreeRTOS-Kernel/event_groups.c **** 
 140:../Core/FreeRTOS-Kernel/event_groups.c ****     #endif /* configSUPPORT_STATIC_ALLOCATION */
 141:../Core/FreeRTOS-Kernel/event_groups.c **** /*-----------------------------------------------------------*/
 142:../Core/FreeRTOS-Kernel/event_groups.c **** 
 143:../Core/FreeRTOS-Kernel/event_groups.c ****     #if ( configSUPPORT_DYNAMIC_ALLOCATION == 1 )
 144:../Core/FreeRTOS-Kernel/event_groups.c **** 
 145:../Core/FreeRTOS-Kernel/event_groups.c ****         EventGroupHandle_t xEventGroupCreate( void )
ARM GAS  /tmp/ccZFpcdw.s 			page 4


 146:../Core/FreeRTOS-Kernel/event_groups.c ****         {
 147:../Core/FreeRTOS-Kernel/event_groups.c ****             EventGroup_t * pxEventBits;
 148:../Core/FreeRTOS-Kernel/event_groups.c **** 
 149:../Core/FreeRTOS-Kernel/event_groups.c ****             traceENTER_xEventGroupCreate();
 150:../Core/FreeRTOS-Kernel/event_groups.c **** 
 151:../Core/FreeRTOS-Kernel/event_groups.c ****             /* MISRA Ref 11.5.1 [Malloc memory assignment] */
 152:../Core/FreeRTOS-Kernel/event_groups.c ****             /* More details at: https://github.com/FreeRTOS/FreeRTOS-Kernel/blob/main/MISRA.md#rule
 153:../Core/FreeRTOS-Kernel/event_groups.c ****             /* coverity[misra_c_2012_rule_11_5_violation] */
 154:../Core/FreeRTOS-Kernel/event_groups.c ****             pxEventBits = ( EventGroup_t * ) pvPortMalloc( sizeof( EventGroup_t ) );
 155:../Core/FreeRTOS-Kernel/event_groups.c **** 
 156:../Core/FreeRTOS-Kernel/event_groups.c ****             if( pxEventBits != NULL )
 157:../Core/FreeRTOS-Kernel/event_groups.c ****             {
 158:../Core/FreeRTOS-Kernel/event_groups.c ****                 pxEventBits->uxEventBits = 0;
 159:../Core/FreeRTOS-Kernel/event_groups.c ****                 vListInitialise( &( pxEventBits->xTasksWaitingForBits ) );
 160:../Core/FreeRTOS-Kernel/event_groups.c **** 
 161:../Core/FreeRTOS-Kernel/event_groups.c ****                 #if ( configSUPPORT_STATIC_ALLOCATION == 1 )
 162:../Core/FreeRTOS-Kernel/event_groups.c ****                 {
 163:../Core/FreeRTOS-Kernel/event_groups.c ****                     /* Both static and dynamic allocation can be used, so note this
 164:../Core/FreeRTOS-Kernel/event_groups.c ****                      * event group was allocated statically in case the event group is
 165:../Core/FreeRTOS-Kernel/event_groups.c ****                      * later deleted. */
 166:../Core/FreeRTOS-Kernel/event_groups.c ****                     pxEventBits->ucStaticallyAllocated = pdFALSE;
 167:../Core/FreeRTOS-Kernel/event_groups.c ****                 }
 168:../Core/FreeRTOS-Kernel/event_groups.c ****                 #endif /* configSUPPORT_STATIC_ALLOCATION */
 169:../Core/FreeRTOS-Kernel/event_groups.c **** 
 170:../Core/FreeRTOS-Kernel/event_groups.c ****                 traceEVENT_GROUP_CREATE( pxEventBits );
 171:../Core/FreeRTOS-Kernel/event_groups.c ****             }
 172:../Core/FreeRTOS-Kernel/event_groups.c ****             else
 173:../Core/FreeRTOS-Kernel/event_groups.c ****             {
 174:../Core/FreeRTOS-Kernel/event_groups.c ****                 traceEVENT_GROUP_CREATE_FAILED();
 175:../Core/FreeRTOS-Kernel/event_groups.c ****             }
 176:../Core/FreeRTOS-Kernel/event_groups.c **** 
 177:../Core/FreeRTOS-Kernel/event_groups.c ****             traceRETURN_xEventGroupCreate( pxEventBits );
 178:../Core/FreeRTOS-Kernel/event_groups.c **** 
 179:../Core/FreeRTOS-Kernel/event_groups.c ****             return pxEventBits;
 180:../Core/FreeRTOS-Kernel/event_groups.c ****         }
 181:../Core/FreeRTOS-Kernel/event_groups.c **** 
 182:../Core/FreeRTOS-Kernel/event_groups.c ****     #endif /* configSUPPORT_DYNAMIC_ALLOCATION */
 183:../Core/FreeRTOS-Kernel/event_groups.c **** /*-----------------------------------------------------------*/
 184:../Core/FreeRTOS-Kernel/event_groups.c **** 
 185:../Core/FreeRTOS-Kernel/event_groups.c ****     EventBits_t xEventGroupSync( EventGroupHandle_t xEventGroup,
 186:../Core/FreeRTOS-Kernel/event_groups.c ****                                  const EventBits_t uxBitsToSet,
 187:../Core/FreeRTOS-Kernel/event_groups.c ****                                  const EventBits_t uxBitsToWaitFor,
 188:../Core/FreeRTOS-Kernel/event_groups.c ****                                  TickType_t xTicksToWait )
 189:../Core/FreeRTOS-Kernel/event_groups.c ****     {
 190:../Core/FreeRTOS-Kernel/event_groups.c ****         EventBits_t uxOriginalBitValue, uxReturn;
 191:../Core/FreeRTOS-Kernel/event_groups.c ****         EventGroup_t * pxEventBits = xEventGroup;
 192:../Core/FreeRTOS-Kernel/event_groups.c ****         BaseType_t xAlreadyYielded;
 193:../Core/FreeRTOS-Kernel/event_groups.c ****         BaseType_t xTimeoutOccurred = pdFALSE;
 194:../Core/FreeRTOS-Kernel/event_groups.c **** 
 195:../Core/FreeRTOS-Kernel/event_groups.c ****         traceENTER_xEventGroupSync( xEventGroup, uxBitsToSet, uxBitsToWaitFor, xTicksToWait );
 196:../Core/FreeRTOS-Kernel/event_groups.c **** 
 197:../Core/FreeRTOS-Kernel/event_groups.c ****         configASSERT( ( uxBitsToWaitFor & eventEVENT_BITS_CONTROL_BYTES ) == 0 );
 198:../Core/FreeRTOS-Kernel/event_groups.c ****         configASSERT( uxBitsToWaitFor != 0 );
 199:../Core/FreeRTOS-Kernel/event_groups.c ****         #if ( ( INCLUDE_xTaskGetSchedulerState == 1 ) || ( configUSE_TIMERS == 1 ) )
 200:../Core/FreeRTOS-Kernel/event_groups.c ****         {
 201:../Core/FreeRTOS-Kernel/event_groups.c ****             configASSERT( !( ( xTaskGetSchedulerState() == taskSCHEDULER_SUSPENDED ) && ( xTicksToW
 202:../Core/FreeRTOS-Kernel/event_groups.c ****         }
ARM GAS  /tmp/ccZFpcdw.s 			page 5


 203:../Core/FreeRTOS-Kernel/event_groups.c ****         #endif
 204:../Core/FreeRTOS-Kernel/event_groups.c **** 
 205:../Core/FreeRTOS-Kernel/event_groups.c ****         vTaskSuspendAll();
 206:../Core/FreeRTOS-Kernel/event_groups.c ****         {
 207:../Core/FreeRTOS-Kernel/event_groups.c ****             uxOriginalBitValue = pxEventBits->uxEventBits;
 208:../Core/FreeRTOS-Kernel/event_groups.c **** 
 209:../Core/FreeRTOS-Kernel/event_groups.c ****             ( void ) xEventGroupSetBits( xEventGroup, uxBitsToSet );
 210:../Core/FreeRTOS-Kernel/event_groups.c **** 
 211:../Core/FreeRTOS-Kernel/event_groups.c ****             if( ( ( uxOriginalBitValue | uxBitsToSet ) & uxBitsToWaitFor ) == uxBitsToWaitFor )
 212:../Core/FreeRTOS-Kernel/event_groups.c ****             {
 213:../Core/FreeRTOS-Kernel/event_groups.c ****                 /* All the rendezvous bits are now set - no need to block. */
 214:../Core/FreeRTOS-Kernel/event_groups.c ****                 uxReturn = ( uxOriginalBitValue | uxBitsToSet );
 215:../Core/FreeRTOS-Kernel/event_groups.c **** 
 216:../Core/FreeRTOS-Kernel/event_groups.c ****                 /* Rendezvous always clear the bits.  They will have been cleared
 217:../Core/FreeRTOS-Kernel/event_groups.c ****                  * already unless this is the only task in the rendezvous. */
 218:../Core/FreeRTOS-Kernel/event_groups.c ****                 pxEventBits->uxEventBits &= ~uxBitsToWaitFor;
 219:../Core/FreeRTOS-Kernel/event_groups.c **** 
 220:../Core/FreeRTOS-Kernel/event_groups.c ****                 xTicksToWait = 0;
 221:../Core/FreeRTOS-Kernel/event_groups.c ****             }
 222:../Core/FreeRTOS-Kernel/event_groups.c ****             else
 223:../Core/FreeRTOS-Kernel/event_groups.c ****             {
 224:../Core/FreeRTOS-Kernel/event_groups.c ****                 if( xTicksToWait != ( TickType_t ) 0 )
 225:../Core/FreeRTOS-Kernel/event_groups.c ****                 {
 226:../Core/FreeRTOS-Kernel/event_groups.c ****                     traceEVENT_GROUP_SYNC_BLOCK( xEventGroup, uxBitsToSet, uxBitsToWaitFor );
 227:../Core/FreeRTOS-Kernel/event_groups.c **** 
 228:../Core/FreeRTOS-Kernel/event_groups.c ****                     /* Store the bits that the calling task is waiting for in the
 229:../Core/FreeRTOS-Kernel/event_groups.c ****                      * task's event list item so the kernel knows when a match is
 230:../Core/FreeRTOS-Kernel/event_groups.c ****                      * found.  Then enter the blocked state. */
 231:../Core/FreeRTOS-Kernel/event_groups.c ****                     vTaskPlaceOnUnorderedEventList( &( pxEventBits->xTasksWaitingForBits ), ( uxBit
 232:../Core/FreeRTOS-Kernel/event_groups.c **** 
 233:../Core/FreeRTOS-Kernel/event_groups.c ****                     /* This assignment is obsolete as uxReturn will get set after
 234:../Core/FreeRTOS-Kernel/event_groups.c ****                      * the task unblocks, but some compilers mistakenly generate a
 235:../Core/FreeRTOS-Kernel/event_groups.c ****                      * warning about uxReturn being returned without being set if the
 236:../Core/FreeRTOS-Kernel/event_groups.c ****                      * assignment is omitted. */
 237:../Core/FreeRTOS-Kernel/event_groups.c ****                     uxReturn = 0;
 238:../Core/FreeRTOS-Kernel/event_groups.c ****                 }
 239:../Core/FreeRTOS-Kernel/event_groups.c ****                 else
 240:../Core/FreeRTOS-Kernel/event_groups.c ****                 {
 241:../Core/FreeRTOS-Kernel/event_groups.c ****                     /* The rendezvous bits were not set, but no block time was
 242:../Core/FreeRTOS-Kernel/event_groups.c ****                      * specified - just return the current event bit value. */
 243:../Core/FreeRTOS-Kernel/event_groups.c ****                     uxReturn = pxEventBits->uxEventBits;
 244:../Core/FreeRTOS-Kernel/event_groups.c ****                     xTimeoutOccurred = pdTRUE;
 245:../Core/FreeRTOS-Kernel/event_groups.c ****                 }
 246:../Core/FreeRTOS-Kernel/event_groups.c ****             }
 247:../Core/FreeRTOS-Kernel/event_groups.c ****         }
 248:../Core/FreeRTOS-Kernel/event_groups.c ****         xAlreadyYielded = xTaskResumeAll();
 249:../Core/FreeRTOS-Kernel/event_groups.c **** 
 250:../Core/FreeRTOS-Kernel/event_groups.c ****         if( xTicksToWait != ( TickType_t ) 0 )
 251:../Core/FreeRTOS-Kernel/event_groups.c ****         {
 252:../Core/FreeRTOS-Kernel/event_groups.c ****             if( xAlreadyYielded == pdFALSE )
 253:../Core/FreeRTOS-Kernel/event_groups.c ****             {
 254:../Core/FreeRTOS-Kernel/event_groups.c ****                 taskYIELD_WITHIN_API();
 255:../Core/FreeRTOS-Kernel/event_groups.c ****             }
 256:../Core/FreeRTOS-Kernel/event_groups.c ****             else
 257:../Core/FreeRTOS-Kernel/event_groups.c ****             {
 258:../Core/FreeRTOS-Kernel/event_groups.c ****                 mtCOVERAGE_TEST_MARKER();
 259:../Core/FreeRTOS-Kernel/event_groups.c ****             }
ARM GAS  /tmp/ccZFpcdw.s 			page 6


 260:../Core/FreeRTOS-Kernel/event_groups.c **** 
 261:../Core/FreeRTOS-Kernel/event_groups.c ****             /* The task blocked to wait for its required bits to be set - at this
 262:../Core/FreeRTOS-Kernel/event_groups.c ****              * point either the required bits were set or the block time expired.  If
 263:../Core/FreeRTOS-Kernel/event_groups.c ****              * the required bits were set they will have been stored in the task's
 264:../Core/FreeRTOS-Kernel/event_groups.c ****              * event list item, and they should now be retrieved then cleared. */
 265:../Core/FreeRTOS-Kernel/event_groups.c ****             uxReturn = uxTaskResetEventItemValue();
 266:../Core/FreeRTOS-Kernel/event_groups.c **** 
 267:../Core/FreeRTOS-Kernel/event_groups.c ****             if( ( uxReturn & eventUNBLOCKED_DUE_TO_BIT_SET ) == ( EventBits_t ) 0 )
 268:../Core/FreeRTOS-Kernel/event_groups.c ****             {
 269:../Core/FreeRTOS-Kernel/event_groups.c ****                 /* The task timed out, just return the current event bit value. */
 270:../Core/FreeRTOS-Kernel/event_groups.c ****                 taskENTER_CRITICAL();
 271:../Core/FreeRTOS-Kernel/event_groups.c ****                 {
 272:../Core/FreeRTOS-Kernel/event_groups.c ****                     uxReturn = pxEventBits->uxEventBits;
 273:../Core/FreeRTOS-Kernel/event_groups.c **** 
 274:../Core/FreeRTOS-Kernel/event_groups.c ****                     /* Although the task got here because it timed out before the
 275:../Core/FreeRTOS-Kernel/event_groups.c ****                      * bits it was waiting for were set, it is possible that since it
 276:../Core/FreeRTOS-Kernel/event_groups.c ****                      * unblocked another task has set the bits.  If this is the case
 277:../Core/FreeRTOS-Kernel/event_groups.c ****                      * then it needs to clear the bits before exiting. */
 278:../Core/FreeRTOS-Kernel/event_groups.c ****                     if( ( uxReturn & uxBitsToWaitFor ) == uxBitsToWaitFor )
 279:../Core/FreeRTOS-Kernel/event_groups.c ****                     {
 280:../Core/FreeRTOS-Kernel/event_groups.c ****                         pxEventBits->uxEventBits &= ~uxBitsToWaitFor;
 281:../Core/FreeRTOS-Kernel/event_groups.c ****                     }
 282:../Core/FreeRTOS-Kernel/event_groups.c ****                     else
 283:../Core/FreeRTOS-Kernel/event_groups.c ****                     {
 284:../Core/FreeRTOS-Kernel/event_groups.c ****                         mtCOVERAGE_TEST_MARKER();
 285:../Core/FreeRTOS-Kernel/event_groups.c ****                     }
 286:../Core/FreeRTOS-Kernel/event_groups.c ****                 }
 287:../Core/FreeRTOS-Kernel/event_groups.c ****                 taskEXIT_CRITICAL();
 288:../Core/FreeRTOS-Kernel/event_groups.c **** 
 289:../Core/FreeRTOS-Kernel/event_groups.c ****                 xTimeoutOccurred = pdTRUE;
 290:../Core/FreeRTOS-Kernel/event_groups.c ****             }
 291:../Core/FreeRTOS-Kernel/event_groups.c ****             else
 292:../Core/FreeRTOS-Kernel/event_groups.c ****             {
 293:../Core/FreeRTOS-Kernel/event_groups.c ****                 /* The task unblocked because the bits were set. */
 294:../Core/FreeRTOS-Kernel/event_groups.c ****             }
 295:../Core/FreeRTOS-Kernel/event_groups.c **** 
 296:../Core/FreeRTOS-Kernel/event_groups.c ****             /* Control bits might be set as the task had blocked should not be
 297:../Core/FreeRTOS-Kernel/event_groups.c ****              * returned. */
 298:../Core/FreeRTOS-Kernel/event_groups.c ****             uxReturn &= ~eventEVENT_BITS_CONTROL_BYTES;
 299:../Core/FreeRTOS-Kernel/event_groups.c ****         }
 300:../Core/FreeRTOS-Kernel/event_groups.c **** 
 301:../Core/FreeRTOS-Kernel/event_groups.c ****         traceEVENT_GROUP_SYNC_END( xEventGroup, uxBitsToSet, uxBitsToWaitFor, xTimeoutOccurred );
 302:../Core/FreeRTOS-Kernel/event_groups.c **** 
 303:../Core/FreeRTOS-Kernel/event_groups.c ****         /* Prevent compiler warnings when trace macros are not used. */
 304:../Core/FreeRTOS-Kernel/event_groups.c ****         ( void ) xTimeoutOccurred;
 305:../Core/FreeRTOS-Kernel/event_groups.c **** 
 306:../Core/FreeRTOS-Kernel/event_groups.c ****         traceRETURN_xEventGroupSync( uxReturn );
 307:../Core/FreeRTOS-Kernel/event_groups.c **** 
 308:../Core/FreeRTOS-Kernel/event_groups.c ****         return uxReturn;
 309:../Core/FreeRTOS-Kernel/event_groups.c ****     }
 310:../Core/FreeRTOS-Kernel/event_groups.c **** /*-----------------------------------------------------------*/
 311:../Core/FreeRTOS-Kernel/event_groups.c **** 
 312:../Core/FreeRTOS-Kernel/event_groups.c ****     EventBits_t xEventGroupWaitBits( EventGroupHandle_t xEventGroup,
 313:../Core/FreeRTOS-Kernel/event_groups.c ****                                      const EventBits_t uxBitsToWaitFor,
 314:../Core/FreeRTOS-Kernel/event_groups.c ****                                      const BaseType_t xClearOnExit,
 315:../Core/FreeRTOS-Kernel/event_groups.c ****                                      const BaseType_t xWaitForAllBits,
 316:../Core/FreeRTOS-Kernel/event_groups.c ****                                      TickType_t xTicksToWait )
ARM GAS  /tmp/ccZFpcdw.s 			page 7


 317:../Core/FreeRTOS-Kernel/event_groups.c ****     {
 318:../Core/FreeRTOS-Kernel/event_groups.c ****         EventGroup_t * pxEventBits = xEventGroup;
 319:../Core/FreeRTOS-Kernel/event_groups.c ****         EventBits_t uxReturn, uxControlBits = 0;
 320:../Core/FreeRTOS-Kernel/event_groups.c ****         BaseType_t xWaitConditionMet, xAlreadyYielded;
 321:../Core/FreeRTOS-Kernel/event_groups.c ****         BaseType_t xTimeoutOccurred = pdFALSE;
 322:../Core/FreeRTOS-Kernel/event_groups.c **** 
 323:../Core/FreeRTOS-Kernel/event_groups.c ****         traceENTER_xEventGroupWaitBits( xEventGroup, uxBitsToWaitFor, xClearOnExit, xWaitForAllBits
 324:../Core/FreeRTOS-Kernel/event_groups.c **** 
 325:../Core/FreeRTOS-Kernel/event_groups.c ****         /* Check the user is not attempting to wait on the bits used by the kernel
 326:../Core/FreeRTOS-Kernel/event_groups.c ****          * itself, and that at least one bit is being requested. */
 327:../Core/FreeRTOS-Kernel/event_groups.c ****         configASSERT( xEventGroup );
 328:../Core/FreeRTOS-Kernel/event_groups.c ****         configASSERT( ( uxBitsToWaitFor & eventEVENT_BITS_CONTROL_BYTES ) == 0 );
 329:../Core/FreeRTOS-Kernel/event_groups.c ****         configASSERT( uxBitsToWaitFor != 0 );
 330:../Core/FreeRTOS-Kernel/event_groups.c ****         #if ( ( INCLUDE_xTaskGetSchedulerState == 1 ) || ( configUSE_TIMERS == 1 ) )
 331:../Core/FreeRTOS-Kernel/event_groups.c ****         {
 332:../Core/FreeRTOS-Kernel/event_groups.c ****             configASSERT( !( ( xTaskGetSchedulerState() == taskSCHEDULER_SUSPENDED ) && ( xTicksToW
 333:../Core/FreeRTOS-Kernel/event_groups.c ****         }
 334:../Core/FreeRTOS-Kernel/event_groups.c ****         #endif
 335:../Core/FreeRTOS-Kernel/event_groups.c **** 
 336:../Core/FreeRTOS-Kernel/event_groups.c ****         vTaskSuspendAll();
 337:../Core/FreeRTOS-Kernel/event_groups.c ****         {
 338:../Core/FreeRTOS-Kernel/event_groups.c ****             const EventBits_t uxCurrentEventBits = pxEventBits->uxEventBits;
 339:../Core/FreeRTOS-Kernel/event_groups.c **** 
 340:../Core/FreeRTOS-Kernel/event_groups.c ****             /* Check to see if the wait condition is already met or not. */
 341:../Core/FreeRTOS-Kernel/event_groups.c ****             xWaitConditionMet = prvTestWaitCondition( uxCurrentEventBits, uxBitsToWaitFor, xWaitFor
 342:../Core/FreeRTOS-Kernel/event_groups.c **** 
 343:../Core/FreeRTOS-Kernel/event_groups.c ****             if( xWaitConditionMet != pdFALSE )
 344:../Core/FreeRTOS-Kernel/event_groups.c ****             {
 345:../Core/FreeRTOS-Kernel/event_groups.c ****                 /* The wait condition has already been met so there is no need to
 346:../Core/FreeRTOS-Kernel/event_groups.c ****                  * block. */
 347:../Core/FreeRTOS-Kernel/event_groups.c ****                 uxReturn = uxCurrentEventBits;
 348:../Core/FreeRTOS-Kernel/event_groups.c ****                 xTicksToWait = ( TickType_t ) 0;
 349:../Core/FreeRTOS-Kernel/event_groups.c **** 
 350:../Core/FreeRTOS-Kernel/event_groups.c ****                 /* Clear the wait bits if requested to do so. */
 351:../Core/FreeRTOS-Kernel/event_groups.c ****                 if( xClearOnExit != pdFALSE )
 352:../Core/FreeRTOS-Kernel/event_groups.c ****                 {
 353:../Core/FreeRTOS-Kernel/event_groups.c ****                     pxEventBits->uxEventBits &= ~uxBitsToWaitFor;
 354:../Core/FreeRTOS-Kernel/event_groups.c ****                 }
 355:../Core/FreeRTOS-Kernel/event_groups.c ****                 else
 356:../Core/FreeRTOS-Kernel/event_groups.c ****                 {
 357:../Core/FreeRTOS-Kernel/event_groups.c ****                     mtCOVERAGE_TEST_MARKER();
 358:../Core/FreeRTOS-Kernel/event_groups.c ****                 }
 359:../Core/FreeRTOS-Kernel/event_groups.c ****             }
 360:../Core/FreeRTOS-Kernel/event_groups.c ****             else if( xTicksToWait == ( TickType_t ) 0 )
 361:../Core/FreeRTOS-Kernel/event_groups.c ****             {
 362:../Core/FreeRTOS-Kernel/event_groups.c ****                 /* The wait condition has not been met, but no block time was
 363:../Core/FreeRTOS-Kernel/event_groups.c ****                  * specified, so just return the current value. */
 364:../Core/FreeRTOS-Kernel/event_groups.c ****                 uxReturn = uxCurrentEventBits;
 365:../Core/FreeRTOS-Kernel/event_groups.c ****                 xTimeoutOccurred = pdTRUE;
 366:../Core/FreeRTOS-Kernel/event_groups.c ****             }
 367:../Core/FreeRTOS-Kernel/event_groups.c ****             else
 368:../Core/FreeRTOS-Kernel/event_groups.c ****             {
 369:../Core/FreeRTOS-Kernel/event_groups.c ****                 /* The task is going to block to wait for its required bits to be
 370:../Core/FreeRTOS-Kernel/event_groups.c ****                  * set.  uxControlBits are used to remember the specified behaviour of
 371:../Core/FreeRTOS-Kernel/event_groups.c ****                  * this call to xEventGroupWaitBits() - for use when the event bits
 372:../Core/FreeRTOS-Kernel/event_groups.c ****                  * unblock the task. */
 373:../Core/FreeRTOS-Kernel/event_groups.c ****                 if( xClearOnExit != pdFALSE )
ARM GAS  /tmp/ccZFpcdw.s 			page 8


 374:../Core/FreeRTOS-Kernel/event_groups.c ****                 {
 375:../Core/FreeRTOS-Kernel/event_groups.c ****                     uxControlBits |= eventCLEAR_EVENTS_ON_EXIT_BIT;
 376:../Core/FreeRTOS-Kernel/event_groups.c ****                 }
 377:../Core/FreeRTOS-Kernel/event_groups.c ****                 else
 378:../Core/FreeRTOS-Kernel/event_groups.c ****                 {
 379:../Core/FreeRTOS-Kernel/event_groups.c ****                     mtCOVERAGE_TEST_MARKER();
 380:../Core/FreeRTOS-Kernel/event_groups.c ****                 }
 381:../Core/FreeRTOS-Kernel/event_groups.c **** 
 382:../Core/FreeRTOS-Kernel/event_groups.c ****                 if( xWaitForAllBits != pdFALSE )
 383:../Core/FreeRTOS-Kernel/event_groups.c ****                 {
 384:../Core/FreeRTOS-Kernel/event_groups.c ****                     uxControlBits |= eventWAIT_FOR_ALL_BITS;
 385:../Core/FreeRTOS-Kernel/event_groups.c ****                 }
 386:../Core/FreeRTOS-Kernel/event_groups.c ****                 else
 387:../Core/FreeRTOS-Kernel/event_groups.c ****                 {
 388:../Core/FreeRTOS-Kernel/event_groups.c ****                     mtCOVERAGE_TEST_MARKER();
 389:../Core/FreeRTOS-Kernel/event_groups.c ****                 }
 390:../Core/FreeRTOS-Kernel/event_groups.c **** 
 391:../Core/FreeRTOS-Kernel/event_groups.c ****                 /* Store the bits that the calling task is waiting for in the
 392:../Core/FreeRTOS-Kernel/event_groups.c ****                  * task's event list item so the kernel knows when a match is
 393:../Core/FreeRTOS-Kernel/event_groups.c ****                  * found.  Then enter the blocked state. */
 394:../Core/FreeRTOS-Kernel/event_groups.c ****                 vTaskPlaceOnUnorderedEventList( &( pxEventBits->xTasksWaitingForBits ), ( uxBitsToW
 395:../Core/FreeRTOS-Kernel/event_groups.c **** 
 396:../Core/FreeRTOS-Kernel/event_groups.c ****                 /* This is obsolete as it will get set after the task unblocks, but
 397:../Core/FreeRTOS-Kernel/event_groups.c ****                  * some compilers mistakenly generate a warning about the variable
 398:../Core/FreeRTOS-Kernel/event_groups.c ****                  * being returned without being set if it is not done. */
 399:../Core/FreeRTOS-Kernel/event_groups.c ****                 uxReturn = 0;
 400:../Core/FreeRTOS-Kernel/event_groups.c **** 
 401:../Core/FreeRTOS-Kernel/event_groups.c ****                 traceEVENT_GROUP_WAIT_BITS_BLOCK( xEventGroup, uxBitsToWaitFor );
 402:../Core/FreeRTOS-Kernel/event_groups.c ****             }
 403:../Core/FreeRTOS-Kernel/event_groups.c ****         }
 404:../Core/FreeRTOS-Kernel/event_groups.c ****         xAlreadyYielded = xTaskResumeAll();
 405:../Core/FreeRTOS-Kernel/event_groups.c **** 
 406:../Core/FreeRTOS-Kernel/event_groups.c ****         if( xTicksToWait != ( TickType_t ) 0 )
 407:../Core/FreeRTOS-Kernel/event_groups.c ****         {
 408:../Core/FreeRTOS-Kernel/event_groups.c ****             if( xAlreadyYielded == pdFALSE )
 409:../Core/FreeRTOS-Kernel/event_groups.c ****             {
 410:../Core/FreeRTOS-Kernel/event_groups.c ****                 taskYIELD_WITHIN_API();
 411:../Core/FreeRTOS-Kernel/event_groups.c ****             }
 412:../Core/FreeRTOS-Kernel/event_groups.c ****             else
 413:../Core/FreeRTOS-Kernel/event_groups.c ****             {
 414:../Core/FreeRTOS-Kernel/event_groups.c ****                 mtCOVERAGE_TEST_MARKER();
 415:../Core/FreeRTOS-Kernel/event_groups.c ****             }
 416:../Core/FreeRTOS-Kernel/event_groups.c **** 
 417:../Core/FreeRTOS-Kernel/event_groups.c ****             /* The task blocked to wait for its required bits to be set - at this
 418:../Core/FreeRTOS-Kernel/event_groups.c ****              * point either the required bits were set or the block time expired.  If
 419:../Core/FreeRTOS-Kernel/event_groups.c ****              * the required bits were set they will have been stored in the task's
 420:../Core/FreeRTOS-Kernel/event_groups.c ****              * event list item, and they should now be retrieved then cleared. */
 421:../Core/FreeRTOS-Kernel/event_groups.c ****             uxReturn = uxTaskResetEventItemValue();
 422:../Core/FreeRTOS-Kernel/event_groups.c **** 
 423:../Core/FreeRTOS-Kernel/event_groups.c ****             if( ( uxReturn & eventUNBLOCKED_DUE_TO_BIT_SET ) == ( EventBits_t ) 0 )
 424:../Core/FreeRTOS-Kernel/event_groups.c ****             {
 425:../Core/FreeRTOS-Kernel/event_groups.c ****                 taskENTER_CRITICAL();
 426:../Core/FreeRTOS-Kernel/event_groups.c ****                 {
 427:../Core/FreeRTOS-Kernel/event_groups.c ****                     /* The task timed out, just return the current event bit value. */
 428:../Core/FreeRTOS-Kernel/event_groups.c ****                     uxReturn = pxEventBits->uxEventBits;
 429:../Core/FreeRTOS-Kernel/event_groups.c **** 
 430:../Core/FreeRTOS-Kernel/event_groups.c ****                     /* It is possible that the event bits were updated between this
ARM GAS  /tmp/ccZFpcdw.s 			page 9


 431:../Core/FreeRTOS-Kernel/event_groups.c ****                      * task leaving the Blocked state and running again. */
 432:../Core/FreeRTOS-Kernel/event_groups.c ****                     if( prvTestWaitCondition( uxReturn, uxBitsToWaitFor, xWaitForAllBits ) != pdFAL
 433:../Core/FreeRTOS-Kernel/event_groups.c ****                     {
 434:../Core/FreeRTOS-Kernel/event_groups.c ****                         if( xClearOnExit != pdFALSE )
 435:../Core/FreeRTOS-Kernel/event_groups.c ****                         {
 436:../Core/FreeRTOS-Kernel/event_groups.c ****                             pxEventBits->uxEventBits &= ~uxBitsToWaitFor;
 437:../Core/FreeRTOS-Kernel/event_groups.c ****                         }
 438:../Core/FreeRTOS-Kernel/event_groups.c ****                         else
 439:../Core/FreeRTOS-Kernel/event_groups.c ****                         {
 440:../Core/FreeRTOS-Kernel/event_groups.c ****                             mtCOVERAGE_TEST_MARKER();
 441:../Core/FreeRTOS-Kernel/event_groups.c ****                         }
 442:../Core/FreeRTOS-Kernel/event_groups.c ****                     }
 443:../Core/FreeRTOS-Kernel/event_groups.c ****                     else
 444:../Core/FreeRTOS-Kernel/event_groups.c ****                     {
 445:../Core/FreeRTOS-Kernel/event_groups.c ****                         mtCOVERAGE_TEST_MARKER();
 446:../Core/FreeRTOS-Kernel/event_groups.c ****                     }
 447:../Core/FreeRTOS-Kernel/event_groups.c **** 
 448:../Core/FreeRTOS-Kernel/event_groups.c ****                     xTimeoutOccurred = pdTRUE;
 449:../Core/FreeRTOS-Kernel/event_groups.c ****                 }
 450:../Core/FreeRTOS-Kernel/event_groups.c ****                 taskEXIT_CRITICAL();
 451:../Core/FreeRTOS-Kernel/event_groups.c ****             }
 452:../Core/FreeRTOS-Kernel/event_groups.c ****             else
 453:../Core/FreeRTOS-Kernel/event_groups.c ****             {
 454:../Core/FreeRTOS-Kernel/event_groups.c ****                 /* The task unblocked because the bits were set. */
 455:../Core/FreeRTOS-Kernel/event_groups.c ****             }
 456:../Core/FreeRTOS-Kernel/event_groups.c **** 
 457:../Core/FreeRTOS-Kernel/event_groups.c ****             /* The task blocked so control bits may have been set. */
 458:../Core/FreeRTOS-Kernel/event_groups.c ****             uxReturn &= ~eventEVENT_BITS_CONTROL_BYTES;
 459:../Core/FreeRTOS-Kernel/event_groups.c ****         }
 460:../Core/FreeRTOS-Kernel/event_groups.c **** 
 461:../Core/FreeRTOS-Kernel/event_groups.c ****         traceEVENT_GROUP_WAIT_BITS_END( xEventGroup, uxBitsToWaitFor, xTimeoutOccurred );
 462:../Core/FreeRTOS-Kernel/event_groups.c **** 
 463:../Core/FreeRTOS-Kernel/event_groups.c ****         /* Prevent compiler warnings when trace macros are not used. */
 464:../Core/FreeRTOS-Kernel/event_groups.c ****         ( void ) xTimeoutOccurred;
 465:../Core/FreeRTOS-Kernel/event_groups.c **** 
 466:../Core/FreeRTOS-Kernel/event_groups.c ****         traceRETURN_xEventGroupWaitBits( uxReturn );
 467:../Core/FreeRTOS-Kernel/event_groups.c **** 
 468:../Core/FreeRTOS-Kernel/event_groups.c ****         return uxReturn;
 469:../Core/FreeRTOS-Kernel/event_groups.c ****     }
 470:../Core/FreeRTOS-Kernel/event_groups.c **** /*-----------------------------------------------------------*/
 471:../Core/FreeRTOS-Kernel/event_groups.c **** 
 472:../Core/FreeRTOS-Kernel/event_groups.c ****     EventBits_t xEventGroupClearBits( EventGroupHandle_t xEventGroup,
 473:../Core/FreeRTOS-Kernel/event_groups.c ****                                       const EventBits_t uxBitsToClear )
 474:../Core/FreeRTOS-Kernel/event_groups.c ****     {
 475:../Core/FreeRTOS-Kernel/event_groups.c ****         EventGroup_t * pxEventBits = xEventGroup;
 476:../Core/FreeRTOS-Kernel/event_groups.c ****         EventBits_t uxReturn;
 477:../Core/FreeRTOS-Kernel/event_groups.c **** 
 478:../Core/FreeRTOS-Kernel/event_groups.c ****         traceENTER_xEventGroupClearBits( xEventGroup, uxBitsToClear );
 479:../Core/FreeRTOS-Kernel/event_groups.c **** 
 480:../Core/FreeRTOS-Kernel/event_groups.c ****         /* Check the user is not attempting to clear the bits used by the kernel
 481:../Core/FreeRTOS-Kernel/event_groups.c ****          * itself. */
 482:../Core/FreeRTOS-Kernel/event_groups.c ****         configASSERT( xEventGroup );
 483:../Core/FreeRTOS-Kernel/event_groups.c ****         configASSERT( ( uxBitsToClear & eventEVENT_BITS_CONTROL_BYTES ) == 0 );
 484:../Core/FreeRTOS-Kernel/event_groups.c **** 
 485:../Core/FreeRTOS-Kernel/event_groups.c ****         taskENTER_CRITICAL();
 486:../Core/FreeRTOS-Kernel/event_groups.c ****         {
 487:../Core/FreeRTOS-Kernel/event_groups.c ****             traceEVENT_GROUP_CLEAR_BITS( xEventGroup, uxBitsToClear );
ARM GAS  /tmp/ccZFpcdw.s 			page 10


 488:../Core/FreeRTOS-Kernel/event_groups.c **** 
 489:../Core/FreeRTOS-Kernel/event_groups.c ****             /* The value returned is the event group value prior to the bits being
 490:../Core/FreeRTOS-Kernel/event_groups.c ****              * cleared. */
 491:../Core/FreeRTOS-Kernel/event_groups.c ****             uxReturn = pxEventBits->uxEventBits;
 492:../Core/FreeRTOS-Kernel/event_groups.c **** 
 493:../Core/FreeRTOS-Kernel/event_groups.c ****             /* Clear the bits. */
 494:../Core/FreeRTOS-Kernel/event_groups.c ****             pxEventBits->uxEventBits &= ~uxBitsToClear;
 495:../Core/FreeRTOS-Kernel/event_groups.c ****         }
 496:../Core/FreeRTOS-Kernel/event_groups.c ****         taskEXIT_CRITICAL();
 497:../Core/FreeRTOS-Kernel/event_groups.c **** 
 498:../Core/FreeRTOS-Kernel/event_groups.c ****         traceRETURN_xEventGroupClearBits( uxReturn );
 499:../Core/FreeRTOS-Kernel/event_groups.c **** 
 500:../Core/FreeRTOS-Kernel/event_groups.c ****         return uxReturn;
 501:../Core/FreeRTOS-Kernel/event_groups.c ****     }
 502:../Core/FreeRTOS-Kernel/event_groups.c **** /*-----------------------------------------------------------*/
 503:../Core/FreeRTOS-Kernel/event_groups.c **** 
 504:../Core/FreeRTOS-Kernel/event_groups.c ****     #if ( ( configUSE_TRACE_FACILITY == 1 ) && ( INCLUDE_xTimerPendFunctionCall == 1 ) && ( configU
 505:../Core/FreeRTOS-Kernel/event_groups.c **** 
 506:../Core/FreeRTOS-Kernel/event_groups.c ****         BaseType_t xEventGroupClearBitsFromISR( EventGroupHandle_t xEventGroup,
 507:../Core/FreeRTOS-Kernel/event_groups.c ****                                                 const EventBits_t uxBitsToClear )
 508:../Core/FreeRTOS-Kernel/event_groups.c ****         {
 509:../Core/FreeRTOS-Kernel/event_groups.c ****             BaseType_t xReturn;
 510:../Core/FreeRTOS-Kernel/event_groups.c **** 
 511:../Core/FreeRTOS-Kernel/event_groups.c ****             traceENTER_xEventGroupClearBitsFromISR( xEventGroup, uxBitsToClear );
 512:../Core/FreeRTOS-Kernel/event_groups.c **** 
 513:../Core/FreeRTOS-Kernel/event_groups.c ****             traceEVENT_GROUP_CLEAR_BITS_FROM_ISR( xEventGroup, uxBitsToClear );
 514:../Core/FreeRTOS-Kernel/event_groups.c ****             xReturn = xTimerPendFunctionCallFromISR( vEventGroupClearBitsCallback, ( void * ) xEven
 515:../Core/FreeRTOS-Kernel/event_groups.c **** 
 516:../Core/FreeRTOS-Kernel/event_groups.c ****             traceRETURN_xEventGroupClearBitsFromISR( xReturn );
 517:../Core/FreeRTOS-Kernel/event_groups.c **** 
 518:../Core/FreeRTOS-Kernel/event_groups.c ****             return xReturn;
 519:../Core/FreeRTOS-Kernel/event_groups.c ****         }
 520:../Core/FreeRTOS-Kernel/event_groups.c **** 
 521:../Core/FreeRTOS-Kernel/event_groups.c ****     #endif /* if ( ( configUSE_TRACE_FACILITY == 1 ) && ( INCLUDE_xTimerPendFunctionCall == 1 ) && 
 522:../Core/FreeRTOS-Kernel/event_groups.c **** /*-----------------------------------------------------------*/
 523:../Core/FreeRTOS-Kernel/event_groups.c **** 
 524:../Core/FreeRTOS-Kernel/event_groups.c ****     EventBits_t xEventGroupGetBitsFromISR( EventGroupHandle_t xEventGroup )
 525:../Core/FreeRTOS-Kernel/event_groups.c ****     {
 526:../Core/FreeRTOS-Kernel/event_groups.c ****         UBaseType_t uxSavedInterruptStatus;
 527:../Core/FreeRTOS-Kernel/event_groups.c ****         EventGroup_t const * const pxEventBits = xEventGroup;
 528:../Core/FreeRTOS-Kernel/event_groups.c ****         EventBits_t uxReturn;
 529:../Core/FreeRTOS-Kernel/event_groups.c **** 
 530:../Core/FreeRTOS-Kernel/event_groups.c ****         traceENTER_xEventGroupGetBitsFromISR( xEventGroup );
 531:../Core/FreeRTOS-Kernel/event_groups.c **** 
 532:../Core/FreeRTOS-Kernel/event_groups.c ****         /* MISRA Ref 4.7.1 [Return value shall be checked] */
 533:../Core/FreeRTOS-Kernel/event_groups.c ****         /* More details at: https://github.com/FreeRTOS/FreeRTOS-Kernel/blob/main/MISRA.md#dir-47 *
 534:../Core/FreeRTOS-Kernel/event_groups.c ****         /* coverity[misra_c_2012_directive_4_7_violation] */
 535:../Core/FreeRTOS-Kernel/event_groups.c ****         uxSavedInterruptStatus = taskENTER_CRITICAL_FROM_ISR();
 536:../Core/FreeRTOS-Kernel/event_groups.c ****         {
 537:../Core/FreeRTOS-Kernel/event_groups.c ****             uxReturn = pxEventBits->uxEventBits;
 538:../Core/FreeRTOS-Kernel/event_groups.c ****         }
 539:../Core/FreeRTOS-Kernel/event_groups.c ****         taskEXIT_CRITICAL_FROM_ISR( uxSavedInterruptStatus );
 540:../Core/FreeRTOS-Kernel/event_groups.c **** 
 541:../Core/FreeRTOS-Kernel/event_groups.c ****         traceRETURN_xEventGroupGetBitsFromISR( uxReturn );
 542:../Core/FreeRTOS-Kernel/event_groups.c **** 
 543:../Core/FreeRTOS-Kernel/event_groups.c ****         return uxReturn;
 544:../Core/FreeRTOS-Kernel/event_groups.c ****     }
ARM GAS  /tmp/ccZFpcdw.s 			page 11


 545:../Core/FreeRTOS-Kernel/event_groups.c **** /*-----------------------------------------------------------*/
 546:../Core/FreeRTOS-Kernel/event_groups.c **** 
 547:../Core/FreeRTOS-Kernel/event_groups.c ****     EventBits_t xEventGroupSetBits( EventGroupHandle_t xEventGroup,
 548:../Core/FreeRTOS-Kernel/event_groups.c ****                                     const EventBits_t uxBitsToSet )
 549:../Core/FreeRTOS-Kernel/event_groups.c ****     {
 550:../Core/FreeRTOS-Kernel/event_groups.c ****         ListItem_t * pxListItem;
 551:../Core/FreeRTOS-Kernel/event_groups.c ****         ListItem_t * pxNext;
 552:../Core/FreeRTOS-Kernel/event_groups.c ****         ListItem_t const * pxListEnd;
 553:../Core/FreeRTOS-Kernel/event_groups.c ****         List_t const * pxList;
 554:../Core/FreeRTOS-Kernel/event_groups.c ****         EventBits_t uxBitsToClear = 0, uxBitsWaitedFor, uxControlBits;
 555:../Core/FreeRTOS-Kernel/event_groups.c ****         EventGroup_t * pxEventBits = xEventGroup;
 556:../Core/FreeRTOS-Kernel/event_groups.c ****         BaseType_t xMatchFound = pdFALSE;
 557:../Core/FreeRTOS-Kernel/event_groups.c **** 
 558:../Core/FreeRTOS-Kernel/event_groups.c ****         traceENTER_xEventGroupSetBits( xEventGroup, uxBitsToSet );
 559:../Core/FreeRTOS-Kernel/event_groups.c **** 
 560:../Core/FreeRTOS-Kernel/event_groups.c ****         /* Check the user is not attempting to set the bits used by the kernel
 561:../Core/FreeRTOS-Kernel/event_groups.c ****          * itself. */
 562:../Core/FreeRTOS-Kernel/event_groups.c ****         configASSERT( xEventGroup );
 563:../Core/FreeRTOS-Kernel/event_groups.c ****         configASSERT( ( uxBitsToSet & eventEVENT_BITS_CONTROL_BYTES ) == 0 );
 564:../Core/FreeRTOS-Kernel/event_groups.c **** 
 565:../Core/FreeRTOS-Kernel/event_groups.c ****         pxList = &( pxEventBits->xTasksWaitingForBits );
 566:../Core/FreeRTOS-Kernel/event_groups.c ****         pxListEnd = listGET_END_MARKER( pxList );
 567:../Core/FreeRTOS-Kernel/event_groups.c ****         vTaskSuspendAll();
 568:../Core/FreeRTOS-Kernel/event_groups.c ****         {
 569:../Core/FreeRTOS-Kernel/event_groups.c ****             traceEVENT_GROUP_SET_BITS( xEventGroup, uxBitsToSet );
 570:../Core/FreeRTOS-Kernel/event_groups.c **** 
 571:../Core/FreeRTOS-Kernel/event_groups.c ****             pxListItem = listGET_HEAD_ENTRY( pxList );
 572:../Core/FreeRTOS-Kernel/event_groups.c **** 
 573:../Core/FreeRTOS-Kernel/event_groups.c ****             /* Set the bits. */
 574:../Core/FreeRTOS-Kernel/event_groups.c ****             pxEventBits->uxEventBits |= uxBitsToSet;
 575:../Core/FreeRTOS-Kernel/event_groups.c **** 
 576:../Core/FreeRTOS-Kernel/event_groups.c ****             /* See if the new bit value should unblock any tasks. */
 577:../Core/FreeRTOS-Kernel/event_groups.c ****             while( pxListItem != pxListEnd )
 578:../Core/FreeRTOS-Kernel/event_groups.c ****             {
 579:../Core/FreeRTOS-Kernel/event_groups.c ****                 pxNext = listGET_NEXT( pxListItem );
 580:../Core/FreeRTOS-Kernel/event_groups.c ****                 uxBitsWaitedFor = listGET_LIST_ITEM_VALUE( pxListItem );
 581:../Core/FreeRTOS-Kernel/event_groups.c ****                 xMatchFound = pdFALSE;
 582:../Core/FreeRTOS-Kernel/event_groups.c **** 
 583:../Core/FreeRTOS-Kernel/event_groups.c ****                 /* Split the bits waited for from the control bits. */
 584:../Core/FreeRTOS-Kernel/event_groups.c ****                 uxControlBits = uxBitsWaitedFor & eventEVENT_BITS_CONTROL_BYTES;
 585:../Core/FreeRTOS-Kernel/event_groups.c ****                 uxBitsWaitedFor &= ~eventEVENT_BITS_CONTROL_BYTES;
 586:../Core/FreeRTOS-Kernel/event_groups.c **** 
 587:../Core/FreeRTOS-Kernel/event_groups.c ****                 if( ( uxControlBits & eventWAIT_FOR_ALL_BITS ) == ( EventBits_t ) 0 )
 588:../Core/FreeRTOS-Kernel/event_groups.c ****                 {
 589:../Core/FreeRTOS-Kernel/event_groups.c ****                     /* Just looking for single bit being set. */
 590:../Core/FreeRTOS-Kernel/event_groups.c ****                     if( ( uxBitsWaitedFor & pxEventBits->uxEventBits ) != ( EventBits_t ) 0 )
 591:../Core/FreeRTOS-Kernel/event_groups.c ****                     {
 592:../Core/FreeRTOS-Kernel/event_groups.c ****                         xMatchFound = pdTRUE;
 593:../Core/FreeRTOS-Kernel/event_groups.c ****                     }
 594:../Core/FreeRTOS-Kernel/event_groups.c ****                     else
 595:../Core/FreeRTOS-Kernel/event_groups.c ****                     {
 596:../Core/FreeRTOS-Kernel/event_groups.c ****                         mtCOVERAGE_TEST_MARKER();
 597:../Core/FreeRTOS-Kernel/event_groups.c ****                     }
 598:../Core/FreeRTOS-Kernel/event_groups.c ****                 }
 599:../Core/FreeRTOS-Kernel/event_groups.c ****                 else if( ( uxBitsWaitedFor & pxEventBits->uxEventBits ) == uxBitsWaitedFor )
 600:../Core/FreeRTOS-Kernel/event_groups.c ****                 {
 601:../Core/FreeRTOS-Kernel/event_groups.c ****                     /* All bits are set. */
ARM GAS  /tmp/ccZFpcdw.s 			page 12


 602:../Core/FreeRTOS-Kernel/event_groups.c ****                     xMatchFound = pdTRUE;
 603:../Core/FreeRTOS-Kernel/event_groups.c ****                 }
 604:../Core/FreeRTOS-Kernel/event_groups.c ****                 else
 605:../Core/FreeRTOS-Kernel/event_groups.c ****                 {
 606:../Core/FreeRTOS-Kernel/event_groups.c ****                     /* Need all bits to be set, but not all the bits were set. */
 607:../Core/FreeRTOS-Kernel/event_groups.c ****                 }
 608:../Core/FreeRTOS-Kernel/event_groups.c **** 
 609:../Core/FreeRTOS-Kernel/event_groups.c ****                 if( xMatchFound != pdFALSE )
 610:../Core/FreeRTOS-Kernel/event_groups.c ****                 {
 611:../Core/FreeRTOS-Kernel/event_groups.c ****                     /* The bits match.  Should the bits be cleared on exit? */
 612:../Core/FreeRTOS-Kernel/event_groups.c ****                     if( ( uxControlBits & eventCLEAR_EVENTS_ON_EXIT_BIT ) != ( EventBits_t ) 0 )
 613:../Core/FreeRTOS-Kernel/event_groups.c ****                     {
 614:../Core/FreeRTOS-Kernel/event_groups.c ****                         uxBitsToClear |= uxBitsWaitedFor;
 615:../Core/FreeRTOS-Kernel/event_groups.c ****                     }
 616:../Core/FreeRTOS-Kernel/event_groups.c ****                     else
 617:../Core/FreeRTOS-Kernel/event_groups.c ****                     {
 618:../Core/FreeRTOS-Kernel/event_groups.c ****                         mtCOVERAGE_TEST_MARKER();
 619:../Core/FreeRTOS-Kernel/event_groups.c ****                     }
 620:../Core/FreeRTOS-Kernel/event_groups.c **** 
 621:../Core/FreeRTOS-Kernel/event_groups.c ****                     /* Store the actual event flag value in the task's event list
 622:../Core/FreeRTOS-Kernel/event_groups.c ****                      * item before removing the task from the event list.  The
 623:../Core/FreeRTOS-Kernel/event_groups.c ****                      * eventUNBLOCKED_DUE_TO_BIT_SET bit is set so the task knows
 624:../Core/FreeRTOS-Kernel/event_groups.c ****                      * that is was unblocked due to its required bits matching, rather
 625:../Core/FreeRTOS-Kernel/event_groups.c ****                      * than because it timed out. */
 626:../Core/FreeRTOS-Kernel/event_groups.c ****                     vTaskRemoveFromUnorderedEventList( pxListItem, pxEventBits->uxEventBits | event
 627:../Core/FreeRTOS-Kernel/event_groups.c ****                 }
 628:../Core/FreeRTOS-Kernel/event_groups.c **** 
 629:../Core/FreeRTOS-Kernel/event_groups.c ****                 /* Move onto the next list item.  Note pxListItem->pxNext is not
 630:../Core/FreeRTOS-Kernel/event_groups.c ****                  * used here as the list item may have been removed from the event list
 631:../Core/FreeRTOS-Kernel/event_groups.c ****                  * and inserted into the ready/pending reading list. */
 632:../Core/FreeRTOS-Kernel/event_groups.c ****                 pxListItem = pxNext;
 633:../Core/FreeRTOS-Kernel/event_groups.c ****             }
 634:../Core/FreeRTOS-Kernel/event_groups.c **** 
 635:../Core/FreeRTOS-Kernel/event_groups.c ****             /* Clear any bits that matched when the eventCLEAR_EVENTS_ON_EXIT_BIT
 636:../Core/FreeRTOS-Kernel/event_groups.c ****              * bit was set in the control word. */
 637:../Core/FreeRTOS-Kernel/event_groups.c ****             pxEventBits->uxEventBits &= ~uxBitsToClear;
 638:../Core/FreeRTOS-Kernel/event_groups.c ****         }
 639:../Core/FreeRTOS-Kernel/event_groups.c ****         ( void ) xTaskResumeAll();
 640:../Core/FreeRTOS-Kernel/event_groups.c **** 
 641:../Core/FreeRTOS-Kernel/event_groups.c ****         traceRETURN_xEventGroupSetBits( pxEventBits->uxEventBits );
 642:../Core/FreeRTOS-Kernel/event_groups.c **** 
 643:../Core/FreeRTOS-Kernel/event_groups.c ****         return pxEventBits->uxEventBits;
 644:../Core/FreeRTOS-Kernel/event_groups.c ****     }
 645:../Core/FreeRTOS-Kernel/event_groups.c **** /*-----------------------------------------------------------*/
 646:../Core/FreeRTOS-Kernel/event_groups.c **** 
 647:../Core/FreeRTOS-Kernel/event_groups.c ****     void vEventGroupDelete( EventGroupHandle_t xEventGroup )
 648:../Core/FreeRTOS-Kernel/event_groups.c ****     {
 649:../Core/FreeRTOS-Kernel/event_groups.c ****         EventGroup_t * pxEventBits = xEventGroup;
 650:../Core/FreeRTOS-Kernel/event_groups.c ****         const List_t * pxTasksWaitingForBits;
 651:../Core/FreeRTOS-Kernel/event_groups.c **** 
 652:../Core/FreeRTOS-Kernel/event_groups.c ****         traceENTER_vEventGroupDelete( xEventGroup );
 653:../Core/FreeRTOS-Kernel/event_groups.c **** 
 654:../Core/FreeRTOS-Kernel/event_groups.c ****         configASSERT( pxEventBits );
 655:../Core/FreeRTOS-Kernel/event_groups.c **** 
 656:../Core/FreeRTOS-Kernel/event_groups.c ****         pxTasksWaitingForBits = &( pxEventBits->xTasksWaitingForBits );
 657:../Core/FreeRTOS-Kernel/event_groups.c **** 
 658:../Core/FreeRTOS-Kernel/event_groups.c ****         vTaskSuspendAll();
ARM GAS  /tmp/ccZFpcdw.s 			page 13


 659:../Core/FreeRTOS-Kernel/event_groups.c ****         {
 660:../Core/FreeRTOS-Kernel/event_groups.c ****             traceEVENT_GROUP_DELETE( xEventGroup );
 661:../Core/FreeRTOS-Kernel/event_groups.c **** 
 662:../Core/FreeRTOS-Kernel/event_groups.c ****             while( listCURRENT_LIST_LENGTH( pxTasksWaitingForBits ) > ( UBaseType_t ) 0 )
 663:../Core/FreeRTOS-Kernel/event_groups.c ****             {
 664:../Core/FreeRTOS-Kernel/event_groups.c ****                 /* Unblock the task, returning 0 as the event list is being deleted
 665:../Core/FreeRTOS-Kernel/event_groups.c ****                  * and cannot therefore have any bits set. */
 666:../Core/FreeRTOS-Kernel/event_groups.c ****                 configASSERT( pxTasksWaitingForBits->xListEnd.pxNext != ( const ListItem_t * ) &( p
 667:../Core/FreeRTOS-Kernel/event_groups.c ****                 vTaskRemoveFromUnorderedEventList( pxTasksWaitingForBits->xListEnd.pxNext, eventUNB
 668:../Core/FreeRTOS-Kernel/event_groups.c ****             }
 669:../Core/FreeRTOS-Kernel/event_groups.c ****         }
 670:../Core/FreeRTOS-Kernel/event_groups.c ****         ( void ) xTaskResumeAll();
 671:../Core/FreeRTOS-Kernel/event_groups.c **** 
 672:../Core/FreeRTOS-Kernel/event_groups.c ****         #if ( ( configSUPPORT_DYNAMIC_ALLOCATION == 1 ) && ( configSUPPORT_STATIC_ALLOCATION == 0 )
 673:../Core/FreeRTOS-Kernel/event_groups.c ****         {
 674:../Core/FreeRTOS-Kernel/event_groups.c ****             /* The event group can only have been allocated dynamically - free
 675:../Core/FreeRTOS-Kernel/event_groups.c ****              * it again. */
 676:../Core/FreeRTOS-Kernel/event_groups.c ****             vPortFree( pxEventBits );
 677:../Core/FreeRTOS-Kernel/event_groups.c ****         }
 678:../Core/FreeRTOS-Kernel/event_groups.c ****         #elif ( ( configSUPPORT_DYNAMIC_ALLOCATION == 1 ) && ( configSUPPORT_STATIC_ALLOCATION == 1
 679:../Core/FreeRTOS-Kernel/event_groups.c ****         {
 680:../Core/FreeRTOS-Kernel/event_groups.c ****             /* The event group could have been allocated statically or
 681:../Core/FreeRTOS-Kernel/event_groups.c ****              * dynamically, so check before attempting to free the memory. */
 682:../Core/FreeRTOS-Kernel/event_groups.c ****             if( pxEventBits->ucStaticallyAllocated == ( uint8_t ) pdFALSE )
 683:../Core/FreeRTOS-Kernel/event_groups.c ****             {
 684:../Core/FreeRTOS-Kernel/event_groups.c ****                 vPortFree( pxEventBits );
 685:../Core/FreeRTOS-Kernel/event_groups.c ****             }
 686:../Core/FreeRTOS-Kernel/event_groups.c ****             else
 687:../Core/FreeRTOS-Kernel/event_groups.c ****             {
 688:../Core/FreeRTOS-Kernel/event_groups.c ****                 mtCOVERAGE_TEST_MARKER();
 689:../Core/FreeRTOS-Kernel/event_groups.c ****             }
 690:../Core/FreeRTOS-Kernel/event_groups.c ****         }
 691:../Core/FreeRTOS-Kernel/event_groups.c ****         #endif /* configSUPPORT_DYNAMIC_ALLOCATION */
 692:../Core/FreeRTOS-Kernel/event_groups.c **** 
 693:../Core/FreeRTOS-Kernel/event_groups.c ****         traceRETURN_vEventGroupDelete();
 694:../Core/FreeRTOS-Kernel/event_groups.c ****     }
 695:../Core/FreeRTOS-Kernel/event_groups.c **** /*-----------------------------------------------------------*/
 696:../Core/FreeRTOS-Kernel/event_groups.c **** 
 697:../Core/FreeRTOS-Kernel/event_groups.c ****     #if ( configSUPPORT_STATIC_ALLOCATION == 1 )
 698:../Core/FreeRTOS-Kernel/event_groups.c ****         BaseType_t xEventGroupGetStaticBuffer( EventGroupHandle_t xEventGroup,
 699:../Core/FreeRTOS-Kernel/event_groups.c ****                                                StaticEventGroup_t ** ppxEventGroupBuffer )
 700:../Core/FreeRTOS-Kernel/event_groups.c ****         {
 701:../Core/FreeRTOS-Kernel/event_groups.c ****             BaseType_t xReturn;
 702:../Core/FreeRTOS-Kernel/event_groups.c ****             EventGroup_t * pxEventBits = xEventGroup;
 703:../Core/FreeRTOS-Kernel/event_groups.c **** 
 704:../Core/FreeRTOS-Kernel/event_groups.c ****             traceENTER_xEventGroupGetStaticBuffer( xEventGroup, ppxEventGroupBuffer );
 705:../Core/FreeRTOS-Kernel/event_groups.c **** 
 706:../Core/FreeRTOS-Kernel/event_groups.c ****             configASSERT( pxEventBits );
 707:../Core/FreeRTOS-Kernel/event_groups.c ****             configASSERT( ppxEventGroupBuffer );
 708:../Core/FreeRTOS-Kernel/event_groups.c **** 
 709:../Core/FreeRTOS-Kernel/event_groups.c ****             #if ( configSUPPORT_DYNAMIC_ALLOCATION == 1 )
 710:../Core/FreeRTOS-Kernel/event_groups.c ****             {
 711:../Core/FreeRTOS-Kernel/event_groups.c ****                 /* Check if the event group was statically allocated. */
 712:../Core/FreeRTOS-Kernel/event_groups.c ****                 if( pxEventBits->ucStaticallyAllocated == ( uint8_t ) pdTRUE )
 713:../Core/FreeRTOS-Kernel/event_groups.c ****                 {
 714:../Core/FreeRTOS-Kernel/event_groups.c ****                     /* MISRA Ref 11.3.1 [Misaligned access] */
 715:../Core/FreeRTOS-Kernel/event_groups.c ****                     /* More details at: https://github.com/FreeRTOS/FreeRTOS-Kernel/blob/main/MISRA
ARM GAS  /tmp/ccZFpcdw.s 			page 14


 716:../Core/FreeRTOS-Kernel/event_groups.c ****                     /* coverity[misra_c_2012_rule_11_3_violation] */
 717:../Core/FreeRTOS-Kernel/event_groups.c ****                     *ppxEventGroupBuffer = ( StaticEventGroup_t * ) pxEventBits;
 718:../Core/FreeRTOS-Kernel/event_groups.c ****                     xReturn = pdTRUE;
 719:../Core/FreeRTOS-Kernel/event_groups.c ****                 }
 720:../Core/FreeRTOS-Kernel/event_groups.c ****                 else
 721:../Core/FreeRTOS-Kernel/event_groups.c ****                 {
 722:../Core/FreeRTOS-Kernel/event_groups.c ****                     xReturn = pdFALSE;
 723:../Core/FreeRTOS-Kernel/event_groups.c ****                 }
 724:../Core/FreeRTOS-Kernel/event_groups.c ****             }
 725:../Core/FreeRTOS-Kernel/event_groups.c ****             #else /* configSUPPORT_DYNAMIC_ALLOCATION */
 726:../Core/FreeRTOS-Kernel/event_groups.c ****             {
 727:../Core/FreeRTOS-Kernel/event_groups.c ****                 /* Event group must have been statically allocated. */
 728:../Core/FreeRTOS-Kernel/event_groups.c ****                 /* MISRA Ref 11.3.1 [Misaligned access] */
 729:../Core/FreeRTOS-Kernel/event_groups.c ****                 /* More details at: https://github.com/FreeRTOS/FreeRTOS-Kernel/blob/main/MISRA.md#
 730:../Core/FreeRTOS-Kernel/event_groups.c ****                 /* coverity[misra_c_2012_rule_11_3_violation] */
 731:../Core/FreeRTOS-Kernel/event_groups.c ****                 *ppxEventGroupBuffer = ( StaticEventGroup_t * ) pxEventBits;
 732:../Core/FreeRTOS-Kernel/event_groups.c ****                 xReturn = pdTRUE;
 733:../Core/FreeRTOS-Kernel/event_groups.c ****             }
 734:../Core/FreeRTOS-Kernel/event_groups.c ****             #endif /* configSUPPORT_DYNAMIC_ALLOCATION */
 735:../Core/FreeRTOS-Kernel/event_groups.c **** 
 736:../Core/FreeRTOS-Kernel/event_groups.c ****             traceRETURN_xEventGroupGetStaticBuffer( xReturn );
 737:../Core/FreeRTOS-Kernel/event_groups.c **** 
 738:../Core/FreeRTOS-Kernel/event_groups.c ****             return xReturn;
 739:../Core/FreeRTOS-Kernel/event_groups.c ****         }
 740:../Core/FreeRTOS-Kernel/event_groups.c ****     #endif /* configSUPPORT_STATIC_ALLOCATION */
 741:../Core/FreeRTOS-Kernel/event_groups.c **** /*-----------------------------------------------------------*/
 742:../Core/FreeRTOS-Kernel/event_groups.c **** 
 743:../Core/FreeRTOS-Kernel/event_groups.c **** /* For internal use only - execute a 'set bits' command that was pended from
 744:../Core/FreeRTOS-Kernel/event_groups.c ****  * an interrupt. */
 745:../Core/FreeRTOS-Kernel/event_groups.c ****     void vEventGroupSetBitsCallback( void * pvEventGroup,
 746:../Core/FreeRTOS-Kernel/event_groups.c ****                                      uint32_t ulBitsToSet )
 747:../Core/FreeRTOS-Kernel/event_groups.c ****     {
 748:../Core/FreeRTOS-Kernel/event_groups.c ****         traceENTER_vEventGroupSetBitsCallback( pvEventGroup, ulBitsToSet );
 749:../Core/FreeRTOS-Kernel/event_groups.c **** 
 750:../Core/FreeRTOS-Kernel/event_groups.c ****         /* MISRA Ref 11.5.4 [Callback function parameter] */
 751:../Core/FreeRTOS-Kernel/event_groups.c ****         /* More details at: https://github.com/FreeRTOS/FreeRTOS-Kernel/blob/main/MISRA.md#rule-115
 752:../Core/FreeRTOS-Kernel/event_groups.c ****         /* coverity[misra_c_2012_rule_11_5_violation] */
 753:../Core/FreeRTOS-Kernel/event_groups.c ****         ( void ) xEventGroupSetBits( pvEventGroup, ( EventBits_t ) ulBitsToSet );
 754:../Core/FreeRTOS-Kernel/event_groups.c **** 
 755:../Core/FreeRTOS-Kernel/event_groups.c ****         traceRETURN_vEventGroupSetBitsCallback();
 756:../Core/FreeRTOS-Kernel/event_groups.c ****     }
 757:../Core/FreeRTOS-Kernel/event_groups.c **** /*-----------------------------------------------------------*/
 758:../Core/FreeRTOS-Kernel/event_groups.c **** 
 759:../Core/FreeRTOS-Kernel/event_groups.c **** /* For internal use only - execute a 'clear bits' command that was pended from
 760:../Core/FreeRTOS-Kernel/event_groups.c ****  * an interrupt. */
 761:../Core/FreeRTOS-Kernel/event_groups.c ****     void vEventGroupClearBitsCallback( void * pvEventGroup,
 762:../Core/FreeRTOS-Kernel/event_groups.c ****                                        uint32_t ulBitsToClear )
 763:../Core/FreeRTOS-Kernel/event_groups.c ****     {
 764:../Core/FreeRTOS-Kernel/event_groups.c ****         traceENTER_vEventGroupClearBitsCallback( pvEventGroup, ulBitsToClear );
 765:../Core/FreeRTOS-Kernel/event_groups.c **** 
 766:../Core/FreeRTOS-Kernel/event_groups.c ****         /* MISRA Ref 11.5.4 [Callback function parameter] */
 767:../Core/FreeRTOS-Kernel/event_groups.c ****         /* More details at: https://github.com/FreeRTOS/FreeRTOS-Kernel/blob/main/MISRA.md#rule-115
 768:../Core/FreeRTOS-Kernel/event_groups.c ****         /* coverity[misra_c_2012_rule_11_5_violation] */
 769:../Core/FreeRTOS-Kernel/event_groups.c ****         ( void ) xEventGroupClearBits( pvEventGroup, ( EventBits_t ) ulBitsToClear );
 770:../Core/FreeRTOS-Kernel/event_groups.c **** 
 771:../Core/FreeRTOS-Kernel/event_groups.c ****         traceRETURN_vEventGroupClearBitsCallback();
 772:../Core/FreeRTOS-Kernel/event_groups.c ****     }
ARM GAS  /tmp/ccZFpcdw.s 			page 15


 773:../Core/FreeRTOS-Kernel/event_groups.c **** /*-----------------------------------------------------------*/
 774:../Core/FreeRTOS-Kernel/event_groups.c **** 
 775:../Core/FreeRTOS-Kernel/event_groups.c ****     static BaseType_t prvTestWaitCondition( const EventBits_t uxCurrentEventBits,
 776:../Core/FreeRTOS-Kernel/event_groups.c ****                                             const EventBits_t uxBitsToWaitFor,
 777:../Core/FreeRTOS-Kernel/event_groups.c ****                                             const BaseType_t xWaitForAllBits )
 778:../Core/FreeRTOS-Kernel/event_groups.c ****     {
  28              		.loc 1 778 5 view -0
  29              		.cfi_startproc
  30              		@ args = 0, pretend = 0, frame = 0
  31              		@ frame_needed = 0, uses_anonymous_args = 0
  32              		@ link register save eliminated.
 779:../Core/FreeRTOS-Kernel/event_groups.c ****         BaseType_t xWaitConditionMet = pdFALSE;
  33              		.loc 1 779 9 view .LVU1
 780:../Core/FreeRTOS-Kernel/event_groups.c **** 
 781:../Core/FreeRTOS-Kernel/event_groups.c ****         if( xWaitForAllBits == pdFALSE )
  34              		.loc 1 781 9 view .LVU2
  35              		.loc 1 781 11 is_stmt 0 view .LVU3
  36 0000 1AB9     		cbnz	r2, .L2
 782:../Core/FreeRTOS-Kernel/event_groups.c ****         {
 783:../Core/FreeRTOS-Kernel/event_groups.c ****             /* Task only has to wait for one bit within uxBitsToWaitFor to be
 784:../Core/FreeRTOS-Kernel/event_groups.c ****              * set.  Is one already set? */
 785:../Core/FreeRTOS-Kernel/event_groups.c ****             if( ( uxCurrentEventBits & uxBitsToWaitFor ) != ( EventBits_t ) 0 )
  37              		.loc 1 785 13 is_stmt 1 view .LVU4
  38              		.loc 1 785 15 is_stmt 0 view .LVU5
  39 0002 0842     		tst	r0, r1
  40 0004 06D1     		bne	.L4
 779:../Core/FreeRTOS-Kernel/event_groups.c **** 
  41              		.loc 1 779 20 view .LVU6
  42 0006 1046     		mov	r0, r2
  43              	.LVL1:
 779:../Core/FreeRTOS-Kernel/event_groups.c **** 
  44              		.loc 1 779 20 view .LVU7
  45 0008 7047     		bx	lr
  46              	.LVL2:
  47              	.L2:
 786:../Core/FreeRTOS-Kernel/event_groups.c ****             {
 787:../Core/FreeRTOS-Kernel/event_groups.c ****                 xWaitConditionMet = pdTRUE;
 788:../Core/FreeRTOS-Kernel/event_groups.c ****             }
 789:../Core/FreeRTOS-Kernel/event_groups.c ****             else
 790:../Core/FreeRTOS-Kernel/event_groups.c ****             {
 791:../Core/FreeRTOS-Kernel/event_groups.c ****                 mtCOVERAGE_TEST_MARKER();
 792:../Core/FreeRTOS-Kernel/event_groups.c ****             }
 793:../Core/FreeRTOS-Kernel/event_groups.c ****         }
 794:../Core/FreeRTOS-Kernel/event_groups.c ****         else
 795:../Core/FreeRTOS-Kernel/event_groups.c ****         {
 796:../Core/FreeRTOS-Kernel/event_groups.c ****             /* Task has to wait for all the bits in uxBitsToWaitFor to be set.
 797:../Core/FreeRTOS-Kernel/event_groups.c ****              * Are they set already? */
 798:../Core/FreeRTOS-Kernel/event_groups.c ****             if( ( uxCurrentEventBits & uxBitsToWaitFor ) == uxBitsToWaitFor )
  48              		.loc 1 798 13 is_stmt 1 view .LVU8
  49              		.loc 1 798 15 is_stmt 0 view .LVU9
  50 000a 31EA0003 		bics	r3, r1, r0
  51 000e 03D0     		beq	.L5
 779:../Core/FreeRTOS-Kernel/event_groups.c **** 
  52              		.loc 1 779 20 view .LVU10
  53 0010 0020     		movs	r0, #0
  54              	.LVL3:
 779:../Core/FreeRTOS-Kernel/event_groups.c **** 
ARM GAS  /tmp/ccZFpcdw.s 			page 16


  55              		.loc 1 779 20 view .LVU11
  56 0012 7047     		bx	lr
  57              	.LVL4:
  58              	.L4:
 787:../Core/FreeRTOS-Kernel/event_groups.c ****             }
  59              		.loc 1 787 35 view .LVU12
  60 0014 0120     		movs	r0, #1
  61              	.LVL5:
 787:../Core/FreeRTOS-Kernel/event_groups.c ****             }
  62              		.loc 1 787 35 view .LVU13
  63 0016 7047     		bx	lr
  64              	.LVL6:
  65              	.L5:
 799:../Core/FreeRTOS-Kernel/event_groups.c ****             {
 800:../Core/FreeRTOS-Kernel/event_groups.c ****                 xWaitConditionMet = pdTRUE;
  66              		.loc 1 800 35 view .LVU14
  67 0018 0120     		movs	r0, #1
  68              	.LVL7:
 801:../Core/FreeRTOS-Kernel/event_groups.c ****             }
 802:../Core/FreeRTOS-Kernel/event_groups.c ****             else
 803:../Core/FreeRTOS-Kernel/event_groups.c ****             {
 804:../Core/FreeRTOS-Kernel/event_groups.c ****                 mtCOVERAGE_TEST_MARKER();
  69              		.loc 1 804 41 is_stmt 1 view .LVU15
 805:../Core/FreeRTOS-Kernel/event_groups.c ****             }
 806:../Core/FreeRTOS-Kernel/event_groups.c ****         }
 807:../Core/FreeRTOS-Kernel/event_groups.c **** 
 808:../Core/FreeRTOS-Kernel/event_groups.c ****         return xWaitConditionMet;
  70              		.loc 1 808 9 view .LVU16
 809:../Core/FreeRTOS-Kernel/event_groups.c ****     }
  71              		.loc 1 809 5 is_stmt 0 view .LVU17
  72 001a 7047     		bx	lr
  73              		.cfi_endproc
  74              	.LFE159:
  76              		.section	.rodata.xEventGroupCreateStatic.str1.4,"aMS",%progbits,1
  77              		.align	2
  78              	.LC0:
  79 0000 4572726F 		.ascii	"Error\015\012\000"
  79      720D0A00 
  80              		.section	.text.xEventGroupCreateStatic,"ax",%progbits
  81              		.align	1
  82              		.global	xEventGroupCreateStatic
  83              		.syntax unified
  84              		.thumb
  85              		.thumb_func
  86              		.fpu fpv5-d16
  88              	xEventGroupCreateStatic:
  89              	.LVL8:
  90              	.LFB148:
  87:../Core/FreeRTOS-Kernel/event_groups.c ****             EventGroup_t * pxEventBits;
  91              		.loc 1 87 9 is_stmt 1 view -0
  92              		.cfi_startproc
  93              		@ args = 0, pretend = 0, frame = 8
  94              		@ frame_needed = 0, uses_anonymous_args = 0
  87:../Core/FreeRTOS-Kernel/event_groups.c ****             EventGroup_t * pxEventBits;
  95              		.loc 1 87 9 is_stmt 0 view .LVU19
  96 0000 10B5     		push	{r4, lr}
  97              	.LCFI0:
ARM GAS  /tmp/ccZFpcdw.s 			page 17


  98              		.cfi_def_cfa_offset 8
  99              		.cfi_offset 4, -8
 100              		.cfi_offset 14, -4
 101 0002 82B0     		sub	sp, sp, #8
 102              	.LCFI1:
 103              		.cfi_def_cfa_offset 16
  88:../Core/FreeRTOS-Kernel/event_groups.c **** 
 104              		.loc 1 88 13 is_stmt 1 view .LVU20
  90:../Core/FreeRTOS-Kernel/event_groups.c **** 
 105              		.loc 1 90 69 view .LVU21
  93:../Core/FreeRTOS-Kernel/event_groups.c **** 
 106              		.loc 1 93 13 view .LVU22
 107 0004 68B1     		cbz	r0, .L12
 108 0006 0446     		mov	r4, r0
  93:../Core/FreeRTOS-Kernel/event_groups.c **** 
 109              		.loc 1 93 47 discriminator 2 view .LVU23
 110              	.LBB6:
 100:../Core/FreeRTOS-Kernel/event_groups.c ****                 configASSERT( xSize == sizeof( EventGroup_t ) );
 111              		.loc 1 100 17 discriminator 2 view .LVU24
 100:../Core/FreeRTOS-Kernel/event_groups.c ****                 configASSERT( xSize == sizeof( EventGroup_t ) );
 112              		.loc 1 100 33 is_stmt 0 discriminator 2 view .LVU25
 113 0008 1C23     		movs	r3, #28
 114 000a 0193     		str	r3, [sp, #4]
 101:../Core/FreeRTOS-Kernel/event_groups.c ****             }
 115              		.loc 1 101 17 is_stmt 1 discriminator 2 view .LVU26
 116 000c 019B     		ldr	r3, [sp, #4]
 117 000e 1C2B     		cmp	r3, #28
 118 0010 0FD0     		beq	.L9
 101:../Core/FreeRTOS-Kernel/event_groups.c ****             }
 119              		.loc 1 101 17 discriminator 1 view .LVU27
 120 0012 4FF0FF33 		mov	r3, #-1
 121 0016 0822     		movs	r2, #8
 122 0018 0A49     		ldr	r1, .L13
 123 001a 0B48     		ldr	r0, .L13+4
 124              	.LVL9:
 101:../Core/FreeRTOS-Kernel/event_groups.c ****             }
 125              		.loc 1 101 17 is_stmt 0 discriminator 1 view .LVU28
 126 001c FFF7FEFF 		bl	HAL_UART_Transmit
 127              	.LVL10:
 128              	.L10:
 101:../Core/FreeRTOS-Kernel/event_groups.c ****             }
 129              		.loc 1 101 17 is_stmt 1 discriminator 2 view .LVU29
 101:../Core/FreeRTOS-Kernel/event_groups.c ****             }
 130              		.loc 1 101 17 discriminator 2 view .LVU30
 101:../Core/FreeRTOS-Kernel/event_groups.c ****             }
 131              		.loc 1 101 17 discriminator 2 view .LVU31
 132 0020 FEE7     		b	.L10
 133              	.LVL11:
 134              	.L12:
 101:../Core/FreeRTOS-Kernel/event_groups.c ****             }
 135              		.loc 1 101 17 is_stmt 0 discriminator 2 view .LVU32
 136              	.LBE6:
  93:../Core/FreeRTOS-Kernel/event_groups.c **** 
 137              		.loc 1 93 13 is_stmt 1 discriminator 1 view .LVU33
 138 0022 4FF0FF33 		mov	r3, #-1
 139 0026 0822     		movs	r2, #8
 140 0028 0649     		ldr	r1, .L13
ARM GAS  /tmp/ccZFpcdw.s 			page 18


 141 002a 0748     		ldr	r0, .L13+4
 142              	.LVL12:
  93:../Core/FreeRTOS-Kernel/event_groups.c **** 
 143              		.loc 1 93 13 is_stmt 0 discriminator 1 view .LVU34
 144 002c FFF7FEFF 		bl	HAL_UART_Transmit
 145              	.LVL13:
 146              	.L8:
  93:../Core/FreeRTOS-Kernel/event_groups.c **** 
 147              		.loc 1 93 13 is_stmt 1 discriminator 1 view .LVU35
  93:../Core/FreeRTOS-Kernel/event_groups.c **** 
 148              		.loc 1 93 13 discriminator 1 view .LVU36
  93:../Core/FreeRTOS-Kernel/event_groups.c **** 
 149              		.loc 1 93 13 discriminator 1 view .LVU37
 150 0030 FEE7     		b	.L8
 151              	.LVL14:
 152              	.L9:
 153              	.LBB7:
 101:../Core/FreeRTOS-Kernel/event_groups.c ****             }
 154              		.loc 1 101 64 view .LVU38
 155              	.LBE7:
 109:../Core/FreeRTOS-Kernel/event_groups.c **** 
 156              		.loc 1 109 13 view .LVU39
 111:../Core/FreeRTOS-Kernel/event_groups.c ****             {
 157              		.loc 1 111 13 view .LVU40
 113:../Core/FreeRTOS-Kernel/event_groups.c ****                 vListInitialise( &( pxEventBits->xTasksWaitingForBits ) );
 158              		.loc 1 113 17 view .LVU41
 113:../Core/FreeRTOS-Kernel/event_groups.c ****                 vListInitialise( &( pxEventBits->xTasksWaitingForBits ) );
 159              		.loc 1 113 42 is_stmt 0 view .LVU42
 160 0032 0023     		movs	r3, #0
 161 0034 40F8043B 		str	r3, [r0], #4
 162              	.LVL15:
 114:../Core/FreeRTOS-Kernel/event_groups.c **** 
 163              		.loc 1 114 17 is_stmt 1 view .LVU43
 164 0038 FFF7FEFF 		bl	vListInitialise
 165              	.LVL16:
 125:../Core/FreeRTOS-Kernel/event_groups.c ****             }
 166              		.loc 1 125 55 view .LVU44
 132:../Core/FreeRTOS-Kernel/event_groups.c ****             }
 167              		.loc 1 132 49 view .LVU45
 135:../Core/FreeRTOS-Kernel/event_groups.c **** 
 168              		.loc 1 135 63 view .LVU46
 137:../Core/FreeRTOS-Kernel/event_groups.c ****         }
 169              		.loc 1 137 13 view .LVU47
 138:../Core/FreeRTOS-Kernel/event_groups.c **** 
 170              		.loc 1 138 9 is_stmt 0 view .LVU48
 171 003c 2046     		mov	r0, r4
 172 003e 02B0     		add	sp, sp, #8
 173              	.LCFI2:
 174              		.cfi_def_cfa_offset 8
 175              		@ sp needed
 176 0040 10BD     		pop	{r4, pc}
 177              	.LVL17:
 178              	.L14:
 138:../Core/FreeRTOS-Kernel/event_groups.c **** 
 179              		.loc 1 138 9 view .LVU49
 180 0042 00BF     		.align	2
 181              	.L13:
ARM GAS  /tmp/ccZFpcdw.s 			page 19


 182 0044 00000000 		.word	.LC0
 183 0048 00000000 		.word	huart2
 184              		.cfi_endproc
 185              	.LFE148:
 187              		.section	.text.xEventGroupWaitBits,"ax",%progbits
 188              		.align	1
 189              		.global	xEventGroupWaitBits
 190              		.syntax unified
 191              		.thumb
 192              		.thumb_func
 193              		.fpu fpv5-d16
 195              	xEventGroupWaitBits:
 196              	.LVL18:
 197              	.LFB150:
 317:../Core/FreeRTOS-Kernel/event_groups.c ****         EventGroup_t * pxEventBits = xEventGroup;
 198              		.loc 1 317 5 is_stmt 1 view -0
 199              		.cfi_startproc
 200              		@ args = 4, pretend = 0, frame = 0
 201              		@ frame_needed = 0, uses_anonymous_args = 0
 317:../Core/FreeRTOS-Kernel/event_groups.c ****         EventGroup_t * pxEventBits = xEventGroup;
 202              		.loc 1 317 5 is_stmt 0 view .LVU51
 203 0000 2DE9F843 		push	{r3, r4, r5, r6, r7, r8, r9, lr}
 204              	.LCFI3:
 205              		.cfi_def_cfa_offset 32
 206              		.cfi_offset 3, -32
 207              		.cfi_offset 4, -28
 208              		.cfi_offset 5, -24
 209              		.cfi_offset 6, -20
 210              		.cfi_offset 7, -16
 211              		.cfi_offset 8, -12
 212              		.cfi_offset 9, -8
 213              		.cfi_offset 14, -4
 318:../Core/FreeRTOS-Kernel/event_groups.c ****         EventBits_t uxReturn, uxControlBits = 0;
 214              		.loc 1 318 9 is_stmt 1 view .LVU52
 215              	.LVL19:
 319:../Core/FreeRTOS-Kernel/event_groups.c ****         BaseType_t xWaitConditionMet, xAlreadyYielded;
 216              		.loc 1 319 9 view .LVU53
 320:../Core/FreeRTOS-Kernel/event_groups.c ****         BaseType_t xTimeoutOccurred = pdFALSE;
 217              		.loc 1 320 9 view .LVU54
 321:../Core/FreeRTOS-Kernel/event_groups.c **** 
 218              		.loc 1 321 9 view .LVU55
 323:../Core/FreeRTOS-Kernel/event_groups.c **** 
 219              		.loc 1 323 116 view .LVU56
 327:../Core/FreeRTOS-Kernel/event_groups.c ****         configASSERT( ( uxBitsToWaitFor & eventEVENT_BITS_CONTROL_BYTES ) == 0 );
 220              		.loc 1 327 9 view .LVU57
 221 0004 78B1     		cbz	r0, .L35
 222 0006 0C46     		mov	r4, r1
 223 0008 1646     		mov	r6, r2
 224 000a 1D46     		mov	r5, r3
 225 000c 0746     		mov	r7, r0
 327:../Core/FreeRTOS-Kernel/event_groups.c ****         configASSERT( ( uxBitsToWaitFor & eventEVENT_BITS_CONTROL_BYTES ) == 0 );
 226              		.loc 1 327 36 discriminator 2 view .LVU58
 328:../Core/FreeRTOS-Kernel/event_groups.c ****         configASSERT( uxBitsToWaitFor != 0 );
 227              		.loc 1 328 9 discriminator 2 view .LVU59
 228 000e 11F07F49 		ands	r9, r1, #-16777216
 229 0012 10D1     		bne	.L36
 328:../Core/FreeRTOS-Kernel/event_groups.c ****         configASSERT( uxBitsToWaitFor != 0 );
ARM GAS  /tmp/ccZFpcdw.s 			page 20


 230              		.loc 1 328 81 discriminator 2 view .LVU60
 329:../Core/FreeRTOS-Kernel/event_groups.c ****         #if ( ( INCLUDE_xTaskGetSchedulerState == 1 ) || ( configUSE_TIMERS == 1 ) )
 231              		.loc 1 329 9 discriminator 2 view .LVU61
 232 0014 B9B9     		cbnz	r1, .L20
 329:../Core/FreeRTOS-Kernel/event_groups.c ****         #if ( ( INCLUDE_xTaskGetSchedulerState == 1 ) || ( configUSE_TIMERS == 1 ) )
 233              		.loc 1 329 9 discriminator 1 view .LVU62
 234 0016 4FF0FF33 		mov	r3, #-1
 235              	.LVL20:
 329:../Core/FreeRTOS-Kernel/event_groups.c ****         #if ( ( INCLUDE_xTaskGetSchedulerState == 1 ) || ( configUSE_TIMERS == 1 ) )
 236              		.loc 1 329 9 is_stmt 0 discriminator 1 view .LVU63
 237 001a 0822     		movs	r2, #8
 238              	.LVL21:
 329:../Core/FreeRTOS-Kernel/event_groups.c ****         #if ( ( INCLUDE_xTaskGetSchedulerState == 1 ) || ( configUSE_TIMERS == 1 ) )
 239              		.loc 1 329 9 discriminator 1 view .LVU64
 240 001c 3849     		ldr	r1, .L39
 241              	.LVL22:
 329:../Core/FreeRTOS-Kernel/event_groups.c ****         #if ( ( INCLUDE_xTaskGetSchedulerState == 1 ) || ( configUSE_TIMERS == 1 ) )
 242              		.loc 1 329 9 discriminator 1 view .LVU65
 243 001e 3948     		ldr	r0, .L39+4
 244              	.LVL23:
 329:../Core/FreeRTOS-Kernel/event_groups.c ****         #if ( ( INCLUDE_xTaskGetSchedulerState == 1 ) || ( configUSE_TIMERS == 1 ) )
 245              		.loc 1 329 9 discriminator 1 view .LVU66
 246 0020 FFF7FEFF 		bl	HAL_UART_Transmit
 247              	.LVL24:
 248              	.L21:
 329:../Core/FreeRTOS-Kernel/event_groups.c ****         #if ( ( INCLUDE_xTaskGetSchedulerState == 1 ) || ( configUSE_TIMERS == 1 ) )
 249              		.loc 1 329 9 is_stmt 1 discriminator 3 view .LVU67
 329:../Core/FreeRTOS-Kernel/event_groups.c ****         #if ( ( INCLUDE_xTaskGetSchedulerState == 1 ) || ( configUSE_TIMERS == 1 ) )
 250              		.loc 1 329 9 discriminator 3 view .LVU68
 329:../Core/FreeRTOS-Kernel/event_groups.c ****         #if ( ( INCLUDE_xTaskGetSchedulerState == 1 ) || ( configUSE_TIMERS == 1 ) )
 251              		.loc 1 329 9 discriminator 3 view .LVU69
 252 0024 FEE7     		b	.L21
 253              	.LVL25:
 254              	.L35:
 327:../Core/FreeRTOS-Kernel/event_groups.c ****         configASSERT( ( uxBitsToWaitFor & eventEVENT_BITS_CONTROL_BYTES ) == 0 );
 255              		.loc 1 327 9 discriminator 1 view .LVU70
 256 0026 4FF0FF33 		mov	r3, #-1
 257              	.LVL26:
 327:../Core/FreeRTOS-Kernel/event_groups.c ****         configASSERT( ( uxBitsToWaitFor & eventEVENT_BITS_CONTROL_BYTES ) == 0 );
 258              		.loc 1 327 9 is_stmt 0 discriminator 1 view .LVU71
 259 002a 0822     		movs	r2, #8
 260              	.LVL27:
 327:../Core/FreeRTOS-Kernel/event_groups.c ****         configASSERT( ( uxBitsToWaitFor & eventEVENT_BITS_CONTROL_BYTES ) == 0 );
 261              		.loc 1 327 9 discriminator 1 view .LVU72
 262 002c 3449     		ldr	r1, .L39
 263              	.LVL28:
 327:../Core/FreeRTOS-Kernel/event_groups.c ****         configASSERT( ( uxBitsToWaitFor & eventEVENT_BITS_CONTROL_BYTES ) == 0 );
 264              		.loc 1 327 9 discriminator 1 view .LVU73
 265 002e 3548     		ldr	r0, .L39+4
 266              	.LVL29:
 327:../Core/FreeRTOS-Kernel/event_groups.c ****         configASSERT( ( uxBitsToWaitFor & eventEVENT_BITS_CONTROL_BYTES ) == 0 );
 267              		.loc 1 327 9 discriminator 1 view .LVU74
 268 0030 FFF7FEFF 		bl	HAL_UART_Transmit
 269              	.LVL30:
 270              	.L17:
 327:../Core/FreeRTOS-Kernel/event_groups.c ****         configASSERT( ( uxBitsToWaitFor & eventEVENT_BITS_CONTROL_BYTES ) == 0 );
 271              		.loc 1 327 9 is_stmt 1 discriminator 1 view .LVU75
ARM GAS  /tmp/ccZFpcdw.s 			page 21


 327:../Core/FreeRTOS-Kernel/event_groups.c ****         configASSERT( ( uxBitsToWaitFor & eventEVENT_BITS_CONTROL_BYTES ) == 0 );
 272              		.loc 1 327 9 discriminator 1 view .LVU76
 327:../Core/FreeRTOS-Kernel/event_groups.c ****         configASSERT( ( uxBitsToWaitFor & eventEVENT_BITS_CONTROL_BYTES ) == 0 );
 273              		.loc 1 327 9 discriminator 1 view .LVU77
 274 0034 FEE7     		b	.L17
 275              	.LVL31:
 276              	.L36:
 328:../Core/FreeRTOS-Kernel/event_groups.c ****         configASSERT( uxBitsToWaitFor != 0 );
 277              		.loc 1 328 9 discriminator 1 view .LVU78
 278 0036 4FF0FF33 		mov	r3, #-1
 279              	.LVL32:
 328:../Core/FreeRTOS-Kernel/event_groups.c ****         configASSERT( uxBitsToWaitFor != 0 );
 280              		.loc 1 328 9 is_stmt 0 discriminator 1 view .LVU79
 281 003a 0822     		movs	r2, #8
 282              	.LVL33:
 328:../Core/FreeRTOS-Kernel/event_groups.c ****         configASSERT( uxBitsToWaitFor != 0 );
 283              		.loc 1 328 9 discriminator 1 view .LVU80
 284 003c 3049     		ldr	r1, .L39
 285              	.LVL34:
 328:../Core/FreeRTOS-Kernel/event_groups.c ****         configASSERT( uxBitsToWaitFor != 0 );
 286              		.loc 1 328 9 discriminator 1 view .LVU81
 287 003e 3148     		ldr	r0, .L39+4
 288              	.LVL35:
 328:../Core/FreeRTOS-Kernel/event_groups.c ****         configASSERT( uxBitsToWaitFor != 0 );
 289              		.loc 1 328 9 discriminator 1 view .LVU82
 290 0040 FFF7FEFF 		bl	HAL_UART_Transmit
 291              	.LVL36:
 292              	.L19:
 328:../Core/FreeRTOS-Kernel/event_groups.c ****         configASSERT( uxBitsToWaitFor != 0 );
 293              		.loc 1 328 9 is_stmt 1 discriminator 2 view .LVU83
 328:../Core/FreeRTOS-Kernel/event_groups.c ****         configASSERT( uxBitsToWaitFor != 0 );
 294              		.loc 1 328 9 discriminator 2 view .LVU84
 328:../Core/FreeRTOS-Kernel/event_groups.c ****         configASSERT( uxBitsToWaitFor != 0 );
 295              		.loc 1 328 9 discriminator 2 view .LVU85
 296 0044 FEE7     		b	.L19
 297              	.LVL37:
 298              	.L20:
 329:../Core/FreeRTOS-Kernel/event_groups.c ****         #if ( ( INCLUDE_xTaskGetSchedulerState == 1 ) || ( configUSE_TIMERS == 1 ) )
 299              		.loc 1 329 45 discriminator 2 view .LVU86
 332:../Core/FreeRTOS-Kernel/event_groups.c ****         }
 300              		.loc 1 332 13 discriminator 2 view .LVU87
 301 0046 FFF7FEFF 		bl	xTaskGetSchedulerState
 302              	.LVL38:
 332:../Core/FreeRTOS-Kernel/event_groups.c ****         }
 303              		.loc 1 332 13 is_stmt 0 discriminator 2 view .LVU88
 304 004a 08B9     		cbnz	r0, .L22
 305 004c 089B     		ldr	r3, [sp, #32]
 306 004e 43BB     		cbnz	r3, .L37
 307              	.L22:
 332:../Core/FreeRTOS-Kernel/event_groups.c ****         }
 308              		.loc 1 332 114 is_stmt 1 discriminator 8 view .LVU89
 336:../Core/FreeRTOS-Kernel/event_groups.c ****         {
 309              		.loc 1 336 9 discriminator 8 view .LVU90
 310 0050 FFF7FEFF 		bl	vTaskSuspendAll
 311              	.LVL39:
 312              	.LBB8:
 338:../Core/FreeRTOS-Kernel/event_groups.c **** 
ARM GAS  /tmp/ccZFpcdw.s 			page 22


 313              		.loc 1 338 13 discriminator 8 view .LVU91
 338:../Core/FreeRTOS-Kernel/event_groups.c **** 
 314              		.loc 1 338 31 is_stmt 0 discriminator 8 view .LVU92
 315 0054 D7F80080 		ldr	r8, [r7]
 316              	.LVL40:
 341:../Core/FreeRTOS-Kernel/event_groups.c **** 
 317              		.loc 1 341 13 is_stmt 1 discriminator 8 view .LVU93
 341:../Core/FreeRTOS-Kernel/event_groups.c **** 
 318              		.loc 1 341 33 is_stmt 0 discriminator 8 view .LVU94
 319 0058 2A46     		mov	r2, r5
 320 005a 2146     		mov	r1, r4
 321 005c 4046     		mov	r0, r8
 322 005e FFF7FEFF 		bl	prvTestWaitCondition
 323              	.LVL41:
 343:../Core/FreeRTOS-Kernel/event_groups.c ****             {
 324              		.loc 1 343 13 is_stmt 1 discriminator 8 view .LVU95
 343:../Core/FreeRTOS-Kernel/event_groups.c ****             {
 325              		.loc 1 343 15 is_stmt 0 discriminator 8 view .LVU96
 326 0062 30B3     		cbz	r0, .L24
 347:../Core/FreeRTOS-Kernel/event_groups.c ****                 xTicksToWait = ( TickType_t ) 0;
 327              		.loc 1 347 17 is_stmt 1 view .LVU97
 328              	.LVL42:
 348:../Core/FreeRTOS-Kernel/event_groups.c **** 
 329              		.loc 1 348 17 view .LVU98
 351:../Core/FreeRTOS-Kernel/event_groups.c ****                 {
 330              		.loc 1 351 17 view .LVU99
 351:../Core/FreeRTOS-Kernel/event_groups.c ****                 {
 331              		.loc 1 351 19 is_stmt 0 view .LVU100
 332 0064 16B1     		cbz	r6, .L25
 353:../Core/FreeRTOS-Kernel/event_groups.c ****                 }
 333              		.loc 1 353 21 is_stmt 1 view .LVU101
 353:../Core/FreeRTOS-Kernel/event_groups.c ****                 }
 334              		.loc 1 353 46 is_stmt 0 view .LVU102
 335 0066 28EA0403 		bic	r3, r8, r4
 336 006a 3B60     		str	r3, [r7]
 337              	.LVL43:
 338              	.L25:
 401:../Core/FreeRTOS-Kernel/event_groups.c ****             }
 339              		.loc 1 401 81 is_stmt 1 view .LVU103
 340              	.LBE8:
 404:../Core/FreeRTOS-Kernel/event_groups.c **** 
 341              		.loc 1 404 9 view .LVU104
 404:../Core/FreeRTOS-Kernel/event_groups.c **** 
 342              		.loc 1 404 27 is_stmt 0 view .LVU105
 343 006c FFF7FEFF 		bl	xTaskResumeAll
 344              	.LVL44:
 406:../Core/FreeRTOS-Kernel/event_groups.c ****         {
 345              		.loc 1 406 9 is_stmt 1 view .LVU106
 406:../Core/FreeRTOS-Kernel/event_groups.c ****         {
 346              		.loc 1 406 11 is_stmt 0 view .LVU107
 347 0070 B9F1000F 		cmp	r9, #0
 348 0074 12D0     		beq	.L15
 408:../Core/FreeRTOS-Kernel/event_groups.c ****             {
 349              		.loc 1 408 13 is_stmt 1 view .LVU108
 408:../Core/FreeRTOS-Kernel/event_groups.c ****             {
 350              		.loc 1 408 15 is_stmt 0 view .LVU109
 351 0076 48B9     		cbnz	r0, .L29
ARM GAS  /tmp/ccZFpcdw.s 			page 23


 410:../Core/FreeRTOS-Kernel/event_groups.c ****             }
 352              		.loc 1 410 17 is_stmt 1 view .LVU110
 353 0078 4FF0E023 		mov	r3, #-536813568
 354 007c 4FF08052 		mov	r2, #268435456
 355 0080 C3F8042D 		str	r2, [r3, #3332]
 410:../Core/FreeRTOS-Kernel/event_groups.c ****             }
 356              		.loc 1 410 17 view .LVU111
 357              		.syntax unified
 358              	@ 410 "../Core/FreeRTOS-Kernel/event_groups.c" 1
 359 0084 BFF34F8F 		dsb
 360              	@ 0 "" 2
 410:../Core/FreeRTOS-Kernel/event_groups.c ****             }
 361              		.loc 1 410 17 view .LVU112
 362              	@ 410 "../Core/FreeRTOS-Kernel/event_groups.c" 1
 363 0088 BFF36F8F 		isb
 364              	@ 0 "" 2
 410:../Core/FreeRTOS-Kernel/event_groups.c ****             }
 365              		.loc 1 410 39 view .LVU113
 366              		.thumb
 367              		.syntax unified
 368              	.L29:
 414:../Core/FreeRTOS-Kernel/event_groups.c ****             }
 369              		.loc 1 414 41 view .LVU114
 421:../Core/FreeRTOS-Kernel/event_groups.c **** 
 370              		.loc 1 421 13 view .LVU115
 421:../Core/FreeRTOS-Kernel/event_groups.c **** 
 371              		.loc 1 421 24 is_stmt 0 view .LVU116
 372 008c FFF7FEFF 		bl	uxTaskResetEventItemValue
 373              	.LVL45:
 421:../Core/FreeRTOS-Kernel/event_groups.c **** 
 374              		.loc 1 421 24 view .LVU117
 375 0090 8046     		mov	r8, r0
 376              	.LVL46:
 423:../Core/FreeRTOS-Kernel/event_groups.c ****             {
 377              		.loc 1 423 13 is_stmt 1 view .LVU118
 423:../Core/FreeRTOS-Kernel/event_groups.c ****             {
 378              		.loc 1 423 15 is_stmt 0 view .LVU119
 379 0092 10F0007F 		tst	r0, #33554432
 380 0096 22D0     		beq	.L38
 381              	.LVL47:
 382              	.L30:
 455:../Core/FreeRTOS-Kernel/event_groups.c **** 
 383              		.loc 1 455 13 is_stmt 1 view .LVU120
 458:../Core/FreeRTOS-Kernel/event_groups.c ****         }
 384              		.loc 1 458 13 view .LVU121
 458:../Core/FreeRTOS-Kernel/event_groups.c ****         }
 385              		.loc 1 458 22 is_stmt 0 view .LVU122
 386 0098 28F07F48 		bic	r8, r8, #-16777216
 387              	.LVL48:
 461:../Core/FreeRTOS-Kernel/event_groups.c **** 
 388              		.loc 1 461 9 is_stmt 1 view .LVU123
 464:../Core/FreeRTOS-Kernel/event_groups.c **** 
 389              		.loc 1 464 9 view .LVU124
 466:../Core/FreeRTOS-Kernel/event_groups.c **** 
 390              		.loc 1 466 52 view .LVU125
 468:../Core/FreeRTOS-Kernel/event_groups.c ****     }
 391              		.loc 1 468 9 view .LVU126
ARM GAS  /tmp/ccZFpcdw.s 			page 24


 392              	.L15:
 469:../Core/FreeRTOS-Kernel/event_groups.c **** /*-----------------------------------------------------------*/
 393              		.loc 1 469 5 is_stmt 0 view .LVU127
 394 009c 4046     		mov	r0, r8
 395 009e BDE8F883 		pop	{r3, r4, r5, r6, r7, r8, r9, pc}
 396              	.LVL49:
 397              	.L37:
 332:../Core/FreeRTOS-Kernel/event_groups.c ****         }
 398              		.loc 1 332 13 is_stmt 1 view .LVU128
 399 00a2 4FF0FF33 		mov	r3, #-1
 400 00a6 0822     		movs	r2, #8
 401 00a8 1549     		ldr	r1, .L39
 402 00aa 1648     		ldr	r0, .L39+4
 403 00ac FFF7FEFF 		bl	HAL_UART_Transmit
 404              	.LVL50:
 405              	.L23:
 332:../Core/FreeRTOS-Kernel/event_groups.c ****         }
 406              		.loc 1 332 13 discriminator 4 view .LVU129
 332:../Core/FreeRTOS-Kernel/event_groups.c ****         }
 407              		.loc 1 332 13 discriminator 4 view .LVU130
 332:../Core/FreeRTOS-Kernel/event_groups.c ****         }
 408              		.loc 1 332 13 discriminator 4 view .LVU131
 409 00b0 FEE7     		b	.L23
 410              	.LVL51:
 411              	.L24:
 412              	.LBB9:
 360:../Core/FreeRTOS-Kernel/event_groups.c ****             {
 413              		.loc 1 360 18 view .LVU132
 360:../Core/FreeRTOS-Kernel/event_groups.c ****             {
 414              		.loc 1 360 20 is_stmt 0 view .LVU133
 415 00b2 089B     		ldr	r3, [sp, #32]
 416 00b4 83B1     		cbz	r3, .L32
 373:../Core/FreeRTOS-Kernel/event_groups.c ****                 {
 417              		.loc 1 373 17 is_stmt 1 view .LVU134
 373:../Core/FreeRTOS-Kernel/event_groups.c ****                 {
 418              		.loc 1 373 19 is_stmt 0 view .LVU135
 419 00b6 66B9     		cbnz	r6, .L33
 420              	.LBE9:
 319:../Core/FreeRTOS-Kernel/event_groups.c ****         BaseType_t xWaitConditionMet, xAlreadyYielded;
 421              		.loc 1 319 31 view .LVU136
 422 00b8 4946     		mov	r1, r9
 423              	.L26:
 424              	.LVL52:
 425              	.LBB10:
 379:../Core/FreeRTOS-Kernel/event_groups.c ****                 }
 426              		.loc 1 379 45 is_stmt 1 view .LVU137
 382:../Core/FreeRTOS-Kernel/event_groups.c ****                 {
 427              		.loc 1 382 17 view .LVU138
 382:../Core/FreeRTOS-Kernel/event_groups.c ****                 {
 428              		.loc 1 382 19 is_stmt 0 view .LVU139
 429 00ba 0DB1     		cbz	r5, .L27
 384:../Core/FreeRTOS-Kernel/event_groups.c ****                 }
 430              		.loc 1 384 21 is_stmt 1 view .LVU140
 384:../Core/FreeRTOS-Kernel/event_groups.c ****                 }
 431              		.loc 1 384 35 is_stmt 0 view .LVU141
 432 00bc 41F08061 		orr	r1, r1, #67108864
 433              	.LVL53:
ARM GAS  /tmp/ccZFpcdw.s 			page 25


 434              	.L27:
 388:../Core/FreeRTOS-Kernel/event_groups.c ****                 }
 435              		.loc 1 388 45 is_stmt 1 view .LVU142
 394:../Core/FreeRTOS-Kernel/event_groups.c **** 
 436              		.loc 1 394 17 view .LVU143
 437 00c0 089A     		ldr	r2, [sp, #32]
 438 00c2 2143     		orrs	r1, r1, r4
 439              	.LVL54:
 394:../Core/FreeRTOS-Kernel/event_groups.c **** 
 440              		.loc 1 394 17 is_stmt 0 view .LVU144
 441 00c4 381D     		adds	r0, r7, #4
 442              	.LVL55:
 394:../Core/FreeRTOS-Kernel/event_groups.c **** 
 443              		.loc 1 394 17 view .LVU145
 444 00c6 FFF7FEFF 		bl	vTaskPlaceOnUnorderedEventList
 445              	.LVL56:
 399:../Core/FreeRTOS-Kernel/event_groups.c **** 
 446              		.loc 1 399 17 is_stmt 1 view .LVU146
 399:../Core/FreeRTOS-Kernel/event_groups.c **** 
 447              		.loc 1 399 26 is_stmt 0 view .LVU147
 448 00ca C846     		mov	r8, r9
 449              	.LVL57:
 394:../Core/FreeRTOS-Kernel/event_groups.c **** 
 450              		.loc 1 394 17 view .LVU148
 451 00cc DDF82090 		ldr	r9, [sp, #32]
 452 00d0 CCE7     		b	.L25
 453              	.LVL58:
 454              	.L33:
 375:../Core/FreeRTOS-Kernel/event_groups.c ****                 }
 455              		.loc 1 375 35 view .LVU149
 456 00d2 4FF08071 		mov	r1, #16777216
 457 00d6 F0E7     		b	.L26
 458              	.L32:
 459 00d8 DDF82090 		ldr	r9, [sp, #32]
 460 00dc C6E7     		b	.L25
 461              	.LVL59:
 462              	.L38:
 375:../Core/FreeRTOS-Kernel/event_groups.c ****                 }
 463              		.loc 1 375 35 view .LVU150
 464              	.LBE10:
 425:../Core/FreeRTOS-Kernel/event_groups.c ****                 {
 465              		.loc 1 425 17 is_stmt 1 view .LVU151
 466 00de FFF7FEFF 		bl	vPortEnterCritical
 467              	.LVL60:
 428:../Core/FreeRTOS-Kernel/event_groups.c **** 
 468              		.loc 1 428 21 view .LVU152
 428:../Core/FreeRTOS-Kernel/event_groups.c **** 
 469              		.loc 1 428 30 is_stmt 0 view .LVU153
 470 00e2 D7F80080 		ldr	r8, [r7]
 471              	.LVL61:
 432:../Core/FreeRTOS-Kernel/event_groups.c ****                     {
 472              		.loc 1 432 21 is_stmt 1 view .LVU154
 432:../Core/FreeRTOS-Kernel/event_groups.c ****                     {
 473              		.loc 1 432 25 is_stmt 0 view .LVU155
 474 00e6 2A46     		mov	r2, r5
 475 00e8 2146     		mov	r1, r4
 476 00ea 4046     		mov	r0, r8
ARM GAS  /tmp/ccZFpcdw.s 			page 26


 477 00ec FFF7FEFF 		bl	prvTestWaitCondition
 478              	.LVL62:
 432:../Core/FreeRTOS-Kernel/event_groups.c ****                     {
 479              		.loc 1 432 23 view .LVU156
 480 00f0 18B1     		cbz	r0, .L31
 434:../Core/FreeRTOS-Kernel/event_groups.c ****                         {
 481              		.loc 1 434 25 is_stmt 1 view .LVU157
 434:../Core/FreeRTOS-Kernel/event_groups.c ****                         {
 482              		.loc 1 434 27 is_stmt 0 view .LVU158
 483 00f2 16B1     		cbz	r6, .L31
 436:../Core/FreeRTOS-Kernel/event_groups.c ****                         }
 484              		.loc 1 436 29 is_stmt 1 view .LVU159
 436:../Core/FreeRTOS-Kernel/event_groups.c ****                         }
 485              		.loc 1 436 54 is_stmt 0 view .LVU160
 486 00f4 28EA0404 		bic	r4, r8, r4
 487              	.LVL63:
 436:../Core/FreeRTOS-Kernel/event_groups.c ****                         }
 488              		.loc 1 436 54 view .LVU161
 489 00f8 3C60     		str	r4, [r7]
 490              	.L31:
 445:../Core/FreeRTOS-Kernel/event_groups.c ****                     }
 491              		.loc 1 445 49 is_stmt 1 view .LVU162
 448:../Core/FreeRTOS-Kernel/event_groups.c ****                 }
 492              		.loc 1 448 21 view .LVU163
 493              	.LVL64:
 450:../Core/FreeRTOS-Kernel/event_groups.c ****             }
 494              		.loc 1 450 17 view .LVU164
 495 00fa FFF7FEFF 		bl	vPortExitCritical
 496              	.LVL65:
 497 00fe CBE7     		b	.L30
 498              	.L40:
 499              		.align	2
 500              	.L39:
 501 0100 00000000 		.word	.LC0
 502 0104 00000000 		.word	huart2
 503              		.cfi_endproc
 504              	.LFE150:
 506              		.section	.text.xEventGroupClearBits,"ax",%progbits
 507              		.align	1
 508              		.global	xEventGroupClearBits
 509              		.syntax unified
 510              		.thumb
 511              		.thumb_func
 512              		.fpu fpv5-d16
 514              	xEventGroupClearBits:
 515              	.LVL66:
 516              	.LFB151:
 474:../Core/FreeRTOS-Kernel/event_groups.c ****         EventGroup_t * pxEventBits = xEventGroup;
 517              		.loc 1 474 5 view -0
 518              		.cfi_startproc
 519              		@ args = 0, pretend = 0, frame = 0
 520              		@ frame_needed = 0, uses_anonymous_args = 0
 474:../Core/FreeRTOS-Kernel/event_groups.c ****         EventGroup_t * pxEventBits = xEventGroup;
 521              		.loc 1 474 5 is_stmt 0 view .LVU166
 522 0000 70B5     		push	{r4, r5, r6, lr}
 523              	.LCFI4:
 524              		.cfi_def_cfa_offset 16
ARM GAS  /tmp/ccZFpcdw.s 			page 27


 525              		.cfi_offset 4, -16
 526              		.cfi_offset 5, -12
 527              		.cfi_offset 6, -8
 528              		.cfi_offset 14, -4
 475:../Core/FreeRTOS-Kernel/event_groups.c ****         EventBits_t uxReturn;
 529              		.loc 1 475 9 is_stmt 1 view .LVU167
 530              	.LVL67:
 476:../Core/FreeRTOS-Kernel/event_groups.c **** 
 531              		.loc 1 476 9 view .LVU168
 478:../Core/FreeRTOS-Kernel/event_groups.c **** 
 532              		.loc 1 478 70 view .LVU169
 482:../Core/FreeRTOS-Kernel/event_groups.c ****         configASSERT( ( uxBitsToClear & eventEVENT_BITS_CONTROL_BYTES ) == 0 );
 533              		.loc 1 482 9 view .LVU170
 534 0002 60B1     		cbz	r0, .L47
 535 0004 0C46     		mov	r4, r1
 536 0006 0546     		mov	r5, r0
 482:../Core/FreeRTOS-Kernel/event_groups.c ****         configASSERT( ( uxBitsToClear & eventEVENT_BITS_CONTROL_BYTES ) == 0 );
 537              		.loc 1 482 36 discriminator 2 view .LVU171
 483:../Core/FreeRTOS-Kernel/event_groups.c **** 
 538              		.loc 1 483 9 discriminator 2 view .LVU172
 539 0008 11F07F4F 		tst	r1, #-16777216
 540 000c 0FD0     		beq	.L44
 483:../Core/FreeRTOS-Kernel/event_groups.c **** 
 541              		.loc 1 483 9 discriminator 1 view .LVU173
 542 000e 4FF0FF33 		mov	r3, #-1
 543 0012 0822     		movs	r2, #8
 544 0014 0B49     		ldr	r1, .L48
 545              	.LVL68:
 483:../Core/FreeRTOS-Kernel/event_groups.c **** 
 546              		.loc 1 483 9 is_stmt 0 discriminator 1 view .LVU174
 547 0016 0C48     		ldr	r0, .L48+4
 548              	.LVL69:
 483:../Core/FreeRTOS-Kernel/event_groups.c **** 
 549              		.loc 1 483 9 discriminator 1 view .LVU175
 550 0018 FFF7FEFF 		bl	HAL_UART_Transmit
 551              	.LVL70:
 552              	.L45:
 483:../Core/FreeRTOS-Kernel/event_groups.c **** 
 553              		.loc 1 483 9 is_stmt 1 discriminator 2 view .LVU176
 483:../Core/FreeRTOS-Kernel/event_groups.c **** 
 554              		.loc 1 483 9 discriminator 2 view .LVU177
 483:../Core/FreeRTOS-Kernel/event_groups.c **** 
 555              		.loc 1 483 9 discriminator 2 view .LVU178
 556 001c FEE7     		b	.L45
 557              	.LVL71:
 558              	.L47:
 482:../Core/FreeRTOS-Kernel/event_groups.c ****         configASSERT( ( uxBitsToClear & eventEVENT_BITS_CONTROL_BYTES ) == 0 );
 559              		.loc 1 482 9 discriminator 1 view .LVU179
 560 001e 4FF0FF33 		mov	r3, #-1
 561 0022 0822     		movs	r2, #8
 562 0024 0749     		ldr	r1, .L48
 563              	.LVL72:
 482:../Core/FreeRTOS-Kernel/event_groups.c ****         configASSERT( ( uxBitsToClear & eventEVENT_BITS_CONTROL_BYTES ) == 0 );
 564              		.loc 1 482 9 is_stmt 0 discriminator 1 view .LVU180
 565 0026 0848     		ldr	r0, .L48+4
 566              	.LVL73:
 482:../Core/FreeRTOS-Kernel/event_groups.c ****         configASSERT( ( uxBitsToClear & eventEVENT_BITS_CONTROL_BYTES ) == 0 );
ARM GAS  /tmp/ccZFpcdw.s 			page 28


 567              		.loc 1 482 9 discriminator 1 view .LVU181
 568 0028 FFF7FEFF 		bl	HAL_UART_Transmit
 569              	.LVL74:
 570              	.L43:
 482:../Core/FreeRTOS-Kernel/event_groups.c ****         configASSERT( ( uxBitsToClear & eventEVENT_BITS_CONTROL_BYTES ) == 0 );
 571              		.loc 1 482 9 is_stmt 1 discriminator 1 view .LVU182
 482:../Core/FreeRTOS-Kernel/event_groups.c ****         configASSERT( ( uxBitsToClear & eventEVENT_BITS_CONTROL_BYTES ) == 0 );
 572              		.loc 1 482 9 discriminator 1 view .LVU183
 482:../Core/FreeRTOS-Kernel/event_groups.c ****         configASSERT( ( uxBitsToClear & eventEVENT_BITS_CONTROL_BYTES ) == 0 );
 573              		.loc 1 482 9 discriminator 1 view .LVU184
 574 002c FEE7     		b	.L43
 575              	.LVL75:
 576              	.L44:
 483:../Core/FreeRTOS-Kernel/event_groups.c **** 
 577              		.loc 1 483 79 discriminator 2 view .LVU185
 485:../Core/FreeRTOS-Kernel/event_groups.c ****         {
 578              		.loc 1 485 9 discriminator 2 view .LVU186
 579 002e FFF7FEFF 		bl	vPortEnterCritical
 580              	.LVL76:
 487:../Core/FreeRTOS-Kernel/event_groups.c **** 
 581              		.loc 1 487 70 discriminator 2 view .LVU187
 491:../Core/FreeRTOS-Kernel/event_groups.c **** 
 582              		.loc 1 491 13 discriminator 2 view .LVU188
 491:../Core/FreeRTOS-Kernel/event_groups.c **** 
 583              		.loc 1 491 22 is_stmt 0 discriminator 2 view .LVU189
 584 0032 2E68     		ldr	r6, [r5]
 585              	.LVL77:
 494:../Core/FreeRTOS-Kernel/event_groups.c ****         }
 586              		.loc 1 494 13 is_stmt 1 discriminator 2 view .LVU190
 494:../Core/FreeRTOS-Kernel/event_groups.c ****         }
 587              		.loc 1 494 38 is_stmt 0 discriminator 2 view .LVU191
 588 0034 26EA0404 		bic	r4, r6, r4
 589              	.LVL78:
 494:../Core/FreeRTOS-Kernel/event_groups.c ****         }
 590              		.loc 1 494 38 discriminator 2 view .LVU192
 591 0038 2C60     		str	r4, [r5]
 496:../Core/FreeRTOS-Kernel/event_groups.c **** 
 592              		.loc 1 496 9 is_stmt 1 discriminator 2 view .LVU193
 593 003a FFF7FEFF 		bl	vPortExitCritical
 594              	.LVL79:
 498:../Core/FreeRTOS-Kernel/event_groups.c **** 
 595              		.loc 1 498 53 discriminator 2 view .LVU194
 500:../Core/FreeRTOS-Kernel/event_groups.c ****     }
 596              		.loc 1 500 9 discriminator 2 view .LVU195
 501:../Core/FreeRTOS-Kernel/event_groups.c **** /*-----------------------------------------------------------*/
 597              		.loc 1 501 5 is_stmt 0 discriminator 2 view .LVU196
 598 003e 3046     		mov	r0, r6
 599 0040 70BD     		pop	{r4, r5, r6, pc}
 600              	.LVL80:
 601              	.L49:
 501:../Core/FreeRTOS-Kernel/event_groups.c **** /*-----------------------------------------------------------*/
 602              		.loc 1 501 5 discriminator 2 view .LVU197
 603 0042 00BF     		.align	2
 604              	.L48:
 605 0044 00000000 		.word	.LC0
 606 0048 00000000 		.word	huart2
 607              		.cfi_endproc
ARM GAS  /tmp/ccZFpcdw.s 			page 29


 608              	.LFE151:
 610              		.section	.text.vEventGroupClearBitsCallback,"ax",%progbits
 611              		.align	1
 612              		.global	vEventGroupClearBitsCallback
 613              		.syntax unified
 614              		.thumb
 615              		.thumb_func
 616              		.fpu fpv5-d16
 618              	vEventGroupClearBitsCallback:
 619              	.LVL81:
 620              	.LFB158:
 763:../Core/FreeRTOS-Kernel/event_groups.c ****         traceENTER_vEventGroupClearBitsCallback( pvEventGroup, ulBitsToClear );
 621              		.loc 1 763 5 is_stmt 1 view -0
 622              		.cfi_startproc
 623              		@ args = 0, pretend = 0, frame = 0
 624              		@ frame_needed = 0, uses_anonymous_args = 0
 763:../Core/FreeRTOS-Kernel/event_groups.c ****         traceENTER_vEventGroupClearBitsCallback( pvEventGroup, ulBitsToClear );
 625              		.loc 1 763 5 is_stmt 0 view .LVU199
 626 0000 08B5     		push	{r3, lr}
 627              	.LCFI5:
 628              		.cfi_def_cfa_offset 8
 629              		.cfi_offset 3, -8
 630              		.cfi_offset 14, -4
 764:../Core/FreeRTOS-Kernel/event_groups.c **** 
 631              		.loc 1 764 79 is_stmt 1 view .LVU200
 769:../Core/FreeRTOS-Kernel/event_groups.c **** 
 632              		.loc 1 769 9 view .LVU201
 769:../Core/FreeRTOS-Kernel/event_groups.c **** 
 633              		.loc 1 769 18 is_stmt 0 view .LVU202
 634 0002 FFF7FEFF 		bl	xEventGroupClearBits
 635              	.LVL82:
 771:../Core/FreeRTOS-Kernel/event_groups.c ****     }
 636              		.loc 1 771 51 is_stmt 1 view .LVU203
 772:../Core/FreeRTOS-Kernel/event_groups.c **** /*-----------------------------------------------------------*/
 637              		.loc 1 772 5 is_stmt 0 view .LVU204
 638 0006 08BD     		pop	{r3, pc}
 639              		.cfi_endproc
 640              	.LFE158:
 642              		.section	.text.xEventGroupClearBitsFromISR,"ax",%progbits
 643              		.align	1
 644              		.global	xEventGroupClearBitsFromISR
 645              		.syntax unified
 646              		.thumb
 647              		.thumb_func
 648              		.fpu fpv5-d16
 650              	xEventGroupClearBitsFromISR:
 651              	.LVL83:
 652              	.LFB152:
 508:../Core/FreeRTOS-Kernel/event_groups.c ****             BaseType_t xReturn;
 653              		.loc 1 508 9 is_stmt 1 view -0
 654              		.cfi_startproc
 655              		@ args = 0, pretend = 0, frame = 0
 656              		@ frame_needed = 0, uses_anonymous_args = 0
 508:../Core/FreeRTOS-Kernel/event_groups.c ****             BaseType_t xReturn;
 657              		.loc 1 508 9 is_stmt 0 view .LVU206
 658 0000 08B5     		push	{r3, lr}
 659              	.LCFI6:
ARM GAS  /tmp/ccZFpcdw.s 			page 30


 660              		.cfi_def_cfa_offset 8
 661              		.cfi_offset 3, -8
 662              		.cfi_offset 14, -4
 663 0002 0A46     		mov	r2, r1
 509:../Core/FreeRTOS-Kernel/event_groups.c **** 
 664              		.loc 1 509 13 is_stmt 1 view .LVU207
 511:../Core/FreeRTOS-Kernel/event_groups.c **** 
 665              		.loc 1 511 81 view .LVU208
 513:../Core/FreeRTOS-Kernel/event_groups.c ****             xReturn = xTimerPendFunctionCallFromISR( vEventGroupClearBitsCallback, ( void * ) xEven
 666              		.loc 1 513 79 view .LVU209
 514:../Core/FreeRTOS-Kernel/event_groups.c **** 
 667              		.loc 1 514 13 view .LVU210
 514:../Core/FreeRTOS-Kernel/event_groups.c **** 
 668              		.loc 1 514 23 is_stmt 0 view .LVU211
 669 0004 0023     		movs	r3, #0
 670 0006 0146     		mov	r1, r0
 671              	.LVL84:
 514:../Core/FreeRTOS-Kernel/event_groups.c **** 
 672              		.loc 1 514 23 view .LVU212
 673 0008 0148     		ldr	r0, .L54
 674              	.LVL85:
 514:../Core/FreeRTOS-Kernel/event_groups.c **** 
 675              		.loc 1 514 23 view .LVU213
 676 000a FFF7FEFF 		bl	xTimerPendFunctionCallFromISR
 677              	.LVL86:
 516:../Core/FreeRTOS-Kernel/event_groups.c **** 
 678              		.loc 1 516 63 is_stmt 1 view .LVU214
 518:../Core/FreeRTOS-Kernel/event_groups.c ****         }
 679              		.loc 1 518 13 view .LVU215
 519:../Core/FreeRTOS-Kernel/event_groups.c **** 
 680              		.loc 1 519 9 is_stmt 0 view .LVU216
 681 000e 08BD     		pop	{r3, pc}
 682              	.L55:
 683              		.align	2
 684              	.L54:
 685 0010 00000000 		.word	vEventGroupClearBitsCallback
 686              		.cfi_endproc
 687              	.LFE152:
 689              		.section	.text.xEventGroupGetBitsFromISR,"ax",%progbits
 690              		.align	1
 691              		.global	xEventGroupGetBitsFromISR
 692              		.syntax unified
 693              		.thumb
 694              		.thumb_func
 695              		.fpu fpv5-d16
 697              	xEventGroupGetBitsFromISR:
 698              	.LVL87:
 699              	.LFB153:
 525:../Core/FreeRTOS-Kernel/event_groups.c ****         UBaseType_t uxSavedInterruptStatus;
 700              		.loc 1 525 5 is_stmt 1 view -0
 701              		.cfi_startproc
 702              		@ args = 0, pretend = 0, frame = 0
 703              		@ frame_needed = 0, uses_anonymous_args = 0
 704              		@ link register save eliminated.
 526:../Core/FreeRTOS-Kernel/event_groups.c ****         EventGroup_t const * const pxEventBits = xEventGroup;
 705              		.loc 1 526 9 view .LVU218
 527:../Core/FreeRTOS-Kernel/event_groups.c ****         EventBits_t uxReturn;
ARM GAS  /tmp/ccZFpcdw.s 			page 31


 706              		.loc 1 527 9 view .LVU219
 528:../Core/FreeRTOS-Kernel/event_groups.c **** 
 707              		.loc 1 528 9 view .LVU220
 530:../Core/FreeRTOS-Kernel/event_groups.c **** 
 708              		.loc 1 530 60 view .LVU221
 535:../Core/FreeRTOS-Kernel/event_groups.c ****         {
 709              		.loc 1 535 9 view .LVU222
 710              	.LBB11:
 711              	.LBI11:
 712              		.file 2 "Core/Inc/portmacro.h"
   1:Core/Inc/portmacro.h **** /*
   2:Core/Inc/portmacro.h ****  * FreeRTOS Kernel V11.1.0
   3:Core/Inc/portmacro.h ****  * Copyright (C) 2021 Amazon.com, Inc. or its affiliates. All Rights Reserved.
   4:Core/Inc/portmacro.h ****  *
   5:Core/Inc/portmacro.h ****  * SPDX-License-Identifier: MIT
   6:Core/Inc/portmacro.h ****  *
   7:Core/Inc/portmacro.h ****  * Permission is hereby granted, free of charge, to any person obtaining a copy of
   8:Core/Inc/portmacro.h ****  * this software and associated documentation files (the "Software"), to deal in
   9:Core/Inc/portmacro.h ****  * the Software without restriction, including without limitation the rights to
  10:Core/Inc/portmacro.h ****  * use, copy, modify, merge, publish, distribute, sublicense, and/or sell copies of
  11:Core/Inc/portmacro.h ****  * the Software, and to permit persons to whom the Software is furnished to do so,
  12:Core/Inc/portmacro.h ****  * subject to the following conditions:
  13:Core/Inc/portmacro.h ****  *
  14:Core/Inc/portmacro.h ****  * The above copyright notice and this permission notice shall be included in all
  15:Core/Inc/portmacro.h ****  * copies or substantial portions of the Software.
  16:Core/Inc/portmacro.h ****  *
  17:Core/Inc/portmacro.h ****  * THE SOFTWARE IS PROVIDED "AS IS", WITHOUT WARRANTY OF ANY KIND, EXPRESS OR
  18:Core/Inc/portmacro.h ****  * IMPLIED, INCLUDING BUT NOT LIMITED TO THE WARRANTIES OF MERCHANTABILITY, FITNESS
  19:Core/Inc/portmacro.h ****  * FOR A PARTICULAR PURPOSE AND NONINFRINGEMENT. IN NO EVENT SHALL THE AUTHORS OR
  20:Core/Inc/portmacro.h ****  * COPYRIGHT HOLDERS BE LIABLE FOR ANY CLAIM, DAMAGES OR OTHER LIABILITY, WHETHER
  21:Core/Inc/portmacro.h ****  * IN AN ACTION OF CONTRACT, TORT OR OTHERWISE, ARISING FROM, OUT OF OR IN
  22:Core/Inc/portmacro.h ****  * CONNECTION WITH THE SOFTWARE OR THE USE OR OTHER DEALINGS IN THE SOFTWARE.
  23:Core/Inc/portmacro.h ****  *
  24:Core/Inc/portmacro.h ****  * https://www.FreeRTOS.org
  25:Core/Inc/portmacro.h ****  * https://github.com/FreeRTOS
  26:Core/Inc/portmacro.h ****  *
  27:Core/Inc/portmacro.h ****  */
  28:Core/Inc/portmacro.h **** 
  29:Core/Inc/portmacro.h **** 
  30:Core/Inc/portmacro.h **** #ifndef PORTMACRO_H
  31:Core/Inc/portmacro.h **** #define PORTMACRO_H
  32:Core/Inc/portmacro.h **** 
  33:Core/Inc/portmacro.h **** /* *INDENT-OFF* */
  34:Core/Inc/portmacro.h **** #ifdef __cplusplus
  35:Core/Inc/portmacro.h ****     extern "C" {
  36:Core/Inc/portmacro.h **** #endif
  37:Core/Inc/portmacro.h **** /* *INDENT-ON* */
  38:Core/Inc/portmacro.h **** 
  39:Core/Inc/portmacro.h **** /*-----------------------------------------------------------
  40:Core/Inc/portmacro.h ****  * Port specific definitions.
  41:Core/Inc/portmacro.h ****  *
  42:Core/Inc/portmacro.h ****  * The settings in this file configure FreeRTOS correctly for the
  43:Core/Inc/portmacro.h ****  * given hardware and compiler.
  44:Core/Inc/portmacro.h ****  *
  45:Core/Inc/portmacro.h ****  * These settings should not be altered.
  46:Core/Inc/portmacro.h ****  *-----------------------------------------------------------
  47:Core/Inc/portmacro.h ****  */
ARM GAS  /tmp/ccZFpcdw.s 			page 32


  48:Core/Inc/portmacro.h **** 
  49:Core/Inc/portmacro.h **** /* Type definitions. */
  50:Core/Inc/portmacro.h **** #define portCHAR          char
  51:Core/Inc/portmacro.h **** #define portFLOAT         float
  52:Core/Inc/portmacro.h **** #define portDOUBLE        double
  53:Core/Inc/portmacro.h **** #define portLONG          long
  54:Core/Inc/portmacro.h **** #define portSHORT         short
  55:Core/Inc/portmacro.h **** #define portSTACK_TYPE    uint32_t
  56:Core/Inc/portmacro.h **** #define portBASE_TYPE     long
  57:Core/Inc/portmacro.h **** 
  58:Core/Inc/portmacro.h **** typedef portSTACK_TYPE   StackType_t;
  59:Core/Inc/portmacro.h **** typedef long             BaseType_t;
  60:Core/Inc/portmacro.h **** typedef unsigned long    UBaseType_t;
  61:Core/Inc/portmacro.h **** 
  62:Core/Inc/portmacro.h **** #if ( configTICK_TYPE_WIDTH_IN_BITS == TICK_TYPE_WIDTH_16_BITS )
  63:Core/Inc/portmacro.h ****     typedef uint16_t     TickType_t;
  64:Core/Inc/portmacro.h ****     #define portMAX_DELAY              ( TickType_t ) 0xffff
  65:Core/Inc/portmacro.h **** #elif ( configTICK_TYPE_WIDTH_IN_BITS == TICK_TYPE_WIDTH_32_BITS )
  66:Core/Inc/portmacro.h ****     typedef uint32_t     TickType_t;
  67:Core/Inc/portmacro.h ****     #define portMAX_DELAY              ( TickType_t ) 0xffffffffUL
  68:Core/Inc/portmacro.h **** 
  69:Core/Inc/portmacro.h **** /* 32-bit tick type on a 32-bit architecture, so reads of the tick count do
  70:Core/Inc/portmacro.h ****  * not need to be guarded with a critical section. */
  71:Core/Inc/portmacro.h ****     #define portTICK_TYPE_IS_ATOMIC    1
  72:Core/Inc/portmacro.h **** #else
  73:Core/Inc/portmacro.h ****     #error configTICK_TYPE_WIDTH_IN_BITS set to unsupported tick type width.
  74:Core/Inc/portmacro.h **** #endif
  75:Core/Inc/portmacro.h **** /*-----------------------------------------------------------*/
  76:Core/Inc/portmacro.h **** 
  77:Core/Inc/portmacro.h **** /* Architecture specifics. */
  78:Core/Inc/portmacro.h **** #define portSTACK_GROWTH      ( -1 )
  79:Core/Inc/portmacro.h **** #define portTICK_PERIOD_MS    ( ( TickType_t ) 1000 / configTICK_RATE_HZ )
  80:Core/Inc/portmacro.h **** #define portBYTE_ALIGNMENT    8
  81:Core/Inc/portmacro.h **** #define portDONT_DISCARD      __attribute__( ( used ) )
  82:Core/Inc/portmacro.h **** /*-----------------------------------------------------------*/
  83:Core/Inc/portmacro.h **** 
  84:Core/Inc/portmacro.h **** /* Scheduler utilities. */
  85:Core/Inc/portmacro.h **** #define portYIELD()                                     \
  86:Core/Inc/portmacro.h ****     {                                                   \
  87:Core/Inc/portmacro.h ****         /* Set a PendSV to request a context switch. */ \
  88:Core/Inc/portmacro.h ****         portNVIC_INT_CTRL_REG = portNVIC_PENDSVSET_BIT; \
  89:Core/Inc/portmacro.h ****                                                         \
  90:Core/Inc/portmacro.h ****         /* Barriers are normally not required but do ensure the code is completely \
  91:Core/Inc/portmacro.h ****          * within the specified behaviour for the architecture. */ \
  92:Core/Inc/portmacro.h ****         __asm volatile ( "dsb" ::: "memory" );                     \
  93:Core/Inc/portmacro.h ****         __asm volatile ( "isb" );                                  \
  94:Core/Inc/portmacro.h ****     }
  95:Core/Inc/portmacro.h **** 
  96:Core/Inc/portmacro.h **** #define portNVIC_INT_CTRL_REG     ( *( ( volatile uint32_t * ) 0xe000ed04 ) )
  97:Core/Inc/portmacro.h **** #define portNVIC_PENDSVSET_BIT    ( 1UL << 28UL )
  98:Core/Inc/portmacro.h **** #define portEND_SWITCHING_ISR( xSwitchRequired ) \
  99:Core/Inc/portmacro.h ****     do                                           \
 100:Core/Inc/portmacro.h ****     {                                            \
 101:Core/Inc/portmacro.h ****         if( xSwitchRequired != pdFALSE )         \
 102:Core/Inc/portmacro.h ****         {                                        \
 103:Core/Inc/portmacro.h ****             traceISR_EXIT_TO_SCHEDULER();        \
 104:Core/Inc/portmacro.h ****             portYIELD();                         \
ARM GAS  /tmp/ccZFpcdw.s 			page 33


 105:Core/Inc/portmacro.h ****         }                                        \
 106:Core/Inc/portmacro.h ****         else                                     \
 107:Core/Inc/portmacro.h ****         {                                        \
 108:Core/Inc/portmacro.h ****             traceISR_EXIT();                     \
 109:Core/Inc/portmacro.h ****         }                                        \
 110:Core/Inc/portmacro.h ****     } while( 0 )
 111:Core/Inc/portmacro.h **** #define portYIELD_FROM_ISR( x )    portEND_SWITCHING_ISR( x )
 112:Core/Inc/portmacro.h **** /*-----------------------------------------------------------*/
 113:Core/Inc/portmacro.h **** 
 114:Core/Inc/portmacro.h **** /* Critical section management. */
 115:Core/Inc/portmacro.h **** extern void vPortEnterCritical( void );
 116:Core/Inc/portmacro.h **** extern void vPortExitCritical( void );
 117:Core/Inc/portmacro.h **** #define portSET_INTERRUPT_MASK_FROM_ISR()         ulPortRaiseBASEPRI()
 118:Core/Inc/portmacro.h **** #define portCLEAR_INTERRUPT_MASK_FROM_ISR( x )    vPortSetBASEPRI( x )
 119:Core/Inc/portmacro.h **** #define portDISABLE_INTERRUPTS()                  vPortRaiseBASEPRI()
 120:Core/Inc/portmacro.h **** #define portENABLE_INTERRUPTS()                   vPortSetBASEPRI( 0 )
 121:Core/Inc/portmacro.h **** #define portENTER_CRITICAL()                      vPortEnterCritical()
 122:Core/Inc/portmacro.h **** #define portEXIT_CRITICAL()                       vPortExitCritical()
 123:Core/Inc/portmacro.h **** 
 124:Core/Inc/portmacro.h **** /*-----------------------------------------------------------*/
 125:Core/Inc/portmacro.h **** 
 126:Core/Inc/portmacro.h **** /* Task function macros as described on the FreeRTOS.org WEB site.  These are
 127:Core/Inc/portmacro.h ****  * not necessary for to use this port.  They are defined so the common demo files
 128:Core/Inc/portmacro.h ****  * (which build with all the ports) will build. */
 129:Core/Inc/portmacro.h **** #define portTASK_FUNCTION_PROTO( vFunction, pvParameters )    void vFunction( void * pvParameters )
 130:Core/Inc/portmacro.h **** #define portTASK_FUNCTION( vFunction, pvParameters )          void vFunction( void * pvParameters )
 131:Core/Inc/portmacro.h **** /*-----------------------------------------------------------*/
 132:Core/Inc/portmacro.h **** 
 133:Core/Inc/portmacro.h **** /* Tickless idle/low power functionality. */
 134:Core/Inc/portmacro.h **** #ifndef portSUPPRESS_TICKS_AND_SLEEP
 135:Core/Inc/portmacro.h ****     extern void vPortSuppressTicksAndSleep( TickType_t xExpectedIdleTime );
 136:Core/Inc/portmacro.h ****     #define portSUPPRESS_TICKS_AND_SLEEP( xExpectedIdleTime )    vPortSuppressTicksAndSleep( xExpec
 137:Core/Inc/portmacro.h **** #endif
 138:Core/Inc/portmacro.h **** /*-----------------------------------------------------------*/
 139:Core/Inc/portmacro.h **** 
 140:Core/Inc/portmacro.h **** /* Architecture specific optimisations. */
 141:Core/Inc/portmacro.h **** #ifndef configUSE_PORT_OPTIMISED_TASK_SELECTION
 142:Core/Inc/portmacro.h ****     #define configUSE_PORT_OPTIMISED_TASK_SELECTION    1
 143:Core/Inc/portmacro.h **** #endif
 144:Core/Inc/portmacro.h **** 
 145:Core/Inc/portmacro.h **** #if configUSE_PORT_OPTIMISED_TASK_SELECTION == 1
 146:Core/Inc/portmacro.h **** 
 147:Core/Inc/portmacro.h **** /* Generic helper function. */
 148:Core/Inc/portmacro.h ****     __attribute__( ( always_inline ) ) static inline uint8_t ucPortCountLeadingZeros( uint32_t ulBi
 149:Core/Inc/portmacro.h ****     {
 150:Core/Inc/portmacro.h ****         uint8_t ucReturn;
 151:Core/Inc/portmacro.h **** 
 152:Core/Inc/portmacro.h ****         __asm volatile ( "clz %0, %1" : "=r" ( ucReturn ) : "r" ( ulBitmap ) : "memory" );
 153:Core/Inc/portmacro.h **** 
 154:Core/Inc/portmacro.h ****         return ucReturn;
 155:Core/Inc/portmacro.h ****     }
 156:Core/Inc/portmacro.h **** 
 157:Core/Inc/portmacro.h **** /* Check the configuration. */
 158:Core/Inc/portmacro.h ****     #if ( configMAX_PRIORITIES > 32 )
 159:Core/Inc/portmacro.h ****         #error configUSE_PORT_OPTIMISED_TASK_SELECTION can only be set to 1 when configMAX_PRIORITI
 160:Core/Inc/portmacro.h ****     #endif
 161:Core/Inc/portmacro.h **** 
ARM GAS  /tmp/ccZFpcdw.s 			page 34


 162:Core/Inc/portmacro.h **** /* Store/clear the ready priorities in a bit map. */
 163:Core/Inc/portmacro.h ****     #define portRECORD_READY_PRIORITY( uxPriority, uxReadyPriorities )    ( uxReadyPriorities ) |= 
 164:Core/Inc/portmacro.h ****     #define portRESET_READY_PRIORITY( uxPriority, uxReadyPriorities )     ( uxReadyPriorities ) &= 
 165:Core/Inc/portmacro.h **** 
 166:Core/Inc/portmacro.h **** /*-----------------------------------------------------------*/
 167:Core/Inc/portmacro.h **** 
 168:Core/Inc/portmacro.h ****     #define portGET_HIGHEST_PRIORITY( uxTopPriority, uxReadyPriorities )    uxTopPriority = ( 31UL 
 169:Core/Inc/portmacro.h **** 
 170:Core/Inc/portmacro.h **** #endif /* configUSE_PORT_OPTIMISED_TASK_SELECTION */
 171:Core/Inc/portmacro.h **** 
 172:Core/Inc/portmacro.h **** /*-----------------------------------------------------------*/
 173:Core/Inc/portmacro.h **** 
 174:Core/Inc/portmacro.h **** #ifdef configASSERT
 175:Core/Inc/portmacro.h ****     void vPortValidateInterruptPriority( void );
 176:Core/Inc/portmacro.h ****     #define portASSERT_IF_INTERRUPT_PRIORITY_INVALID()    vPortValidateInterruptPriority()
 177:Core/Inc/portmacro.h **** #endif
 178:Core/Inc/portmacro.h **** 
 179:Core/Inc/portmacro.h **** /* portNOP() is not required by this port. */
 180:Core/Inc/portmacro.h **** #define portNOP()
 181:Core/Inc/portmacro.h **** 
 182:Core/Inc/portmacro.h **** #define portINLINE              __inline
 183:Core/Inc/portmacro.h **** 
 184:Core/Inc/portmacro.h **** #ifndef portFORCE_INLINE
 185:Core/Inc/portmacro.h ****     #define portFORCE_INLINE    inline __attribute__( ( always_inline ) )
 186:Core/Inc/portmacro.h **** #endif
 187:Core/Inc/portmacro.h **** 
 188:Core/Inc/portmacro.h **** portFORCE_INLINE static BaseType_t xPortIsInsideInterrupt( void )
 189:Core/Inc/portmacro.h **** {
 190:Core/Inc/portmacro.h ****     uint32_t ulCurrentInterrupt;
 191:Core/Inc/portmacro.h ****     BaseType_t xReturn;
 192:Core/Inc/portmacro.h **** 
 193:Core/Inc/portmacro.h ****     /* Obtain the number of the currently executing interrupt. */
 194:Core/Inc/portmacro.h ****     __asm volatile ( "mrs %0, ipsr" : "=r" ( ulCurrentInterrupt )::"memory" );
 195:Core/Inc/portmacro.h **** 
 196:Core/Inc/portmacro.h ****     if( ulCurrentInterrupt == 0 )
 197:Core/Inc/portmacro.h ****     {
 198:Core/Inc/portmacro.h ****         xReturn = pdFALSE;
 199:Core/Inc/portmacro.h ****     }
 200:Core/Inc/portmacro.h ****     else
 201:Core/Inc/portmacro.h ****     {
 202:Core/Inc/portmacro.h ****         xReturn = pdTRUE;
 203:Core/Inc/portmacro.h ****     }
 204:Core/Inc/portmacro.h **** 
 205:Core/Inc/portmacro.h ****     return xReturn;
 206:Core/Inc/portmacro.h **** }
 207:Core/Inc/portmacro.h **** 
 208:Core/Inc/portmacro.h **** /*-----------------------------------------------------------*/
 209:Core/Inc/portmacro.h **** 
 210:Core/Inc/portmacro.h **** portFORCE_INLINE static void vPortRaiseBASEPRI( void )
 211:Core/Inc/portmacro.h **** {
 212:Core/Inc/portmacro.h ****     uint32_t ulNewBASEPRI;
 213:Core/Inc/portmacro.h **** 
 214:Core/Inc/portmacro.h ****     __asm volatile
 215:Core/Inc/portmacro.h ****     (
 216:Core/Inc/portmacro.h ****         "   mov %0, %1                                              \n" \
 217:Core/Inc/portmacro.h ****         "   cpsid i                                                 \n" \
 218:Core/Inc/portmacro.h ****         "   msr basepri, %0                                         \n" \
ARM GAS  /tmp/ccZFpcdw.s 			page 35


 219:Core/Inc/portmacro.h ****         "   isb                                                     \n" \
 220:Core/Inc/portmacro.h ****         "   dsb                                                     \n" \
 221:Core/Inc/portmacro.h ****         "   cpsie i                                                 \n" \
 222:Core/Inc/portmacro.h ****         : "=r" ( ulNewBASEPRI ) : "i" ( configMAX_SYSCALL_INTERRUPT_PRIORITY ) : "memory"
 223:Core/Inc/portmacro.h ****     );
 224:Core/Inc/portmacro.h **** }
 225:Core/Inc/portmacro.h **** 
 226:Core/Inc/portmacro.h **** /*-----------------------------------------------------------*/
 227:Core/Inc/portmacro.h **** 
 228:Core/Inc/portmacro.h **** portFORCE_INLINE static uint32_t ulPortRaiseBASEPRI( void )
 713              		.loc 2 228 34 view .LVU223
 714              	.LBB12:
 229:Core/Inc/portmacro.h **** {
 230:Core/Inc/portmacro.h ****     uint32_t ulOriginalBASEPRI, ulNewBASEPRI;
 715              		.loc 2 230 5 view .LVU224
 231:Core/Inc/portmacro.h **** 
 232:Core/Inc/portmacro.h ****     __asm volatile
 716              		.loc 2 232 5 view .LVU225
 717              		.syntax unified
 718              	@ 232 "Core/Inc/portmacro.h" 1
 719 0000 EFF31183 		   mrs r3, basepri                                         
 720 0004 4FF05002 	   mov r2, #80                                              
 721 0008 72B6     	   cpsid i                                                 
 722 000a 82F31188 	   msr basepri, r2                                         
 723 000e BFF36F8F 	   isb                                                     
 724 0012 BFF34F8F 	   dsb                                                     
 725 0016 62B6     	   cpsie i                                                 
 726              	
 727              	@ 0 "" 2
 728              	.LVL88:
 233:Core/Inc/portmacro.h ****     (
 234:Core/Inc/portmacro.h ****         "   mrs %0, basepri                                         \n" \
 235:Core/Inc/portmacro.h ****         "   mov %1, %2                                              \n" \
 236:Core/Inc/portmacro.h ****         "   cpsid i                                                 \n" \
 237:Core/Inc/portmacro.h ****         "   msr basepri, %1                                         \n" \
 238:Core/Inc/portmacro.h ****         "   isb                                                     \n" \
 239:Core/Inc/portmacro.h ****         "   dsb                                                     \n" \
 240:Core/Inc/portmacro.h ****         "   cpsie i                                                 \n" \
 241:Core/Inc/portmacro.h ****         : "=r" ( ulOriginalBASEPRI ), "=r" ( ulNewBASEPRI ) : "i" ( configMAX_SYSCALL_INTERRUPT_PRI
 242:Core/Inc/portmacro.h ****     );
 243:Core/Inc/portmacro.h **** 
 244:Core/Inc/portmacro.h ****     /* This return will not be reached but is necessary to prevent compiler
 245:Core/Inc/portmacro.h ****      * warnings. */
 246:Core/Inc/portmacro.h ****     return ulOriginalBASEPRI;
 729              		.loc 2 246 5 view .LVU226
 730              		.loc 2 246 5 is_stmt 0 view .LVU227
 731              		.thumb
 732              		.syntax unified
 733              	.LBE12:
 734              	.LBE11:
 537:../Core/FreeRTOS-Kernel/event_groups.c ****         }
 735              		.loc 1 537 13 is_stmt 1 view .LVU228
 537:../Core/FreeRTOS-Kernel/event_groups.c ****         }
 736              		.loc 1 537 22 is_stmt 0 view .LVU229
 737 0018 0068     		ldr	r0, [r0]
 738              	.LVL89:
 539:../Core/FreeRTOS-Kernel/event_groups.c **** 
ARM GAS  /tmp/ccZFpcdw.s 			page 36


 739              		.loc 1 539 9 is_stmt 1 view .LVU230
 740              	.LBB13:
 741              	.LBI13:
 247:Core/Inc/portmacro.h **** }
 248:Core/Inc/portmacro.h **** /*-----------------------------------------------------------*/
 249:Core/Inc/portmacro.h **** 
 250:Core/Inc/portmacro.h **** portFORCE_INLINE static void vPortSetBASEPRI( uint32_t ulNewMaskValue )
 742              		.loc 2 250 30 view .LVU231
 743              	.LBB14:
 251:Core/Inc/portmacro.h **** {
 252:Core/Inc/portmacro.h ****     __asm volatile
 744              		.loc 2 252 5 view .LVU232
 745              		.syntax unified
 746              	@ 252 "Core/Inc/portmacro.h" 1
 747 001a 83F31188 		   msr basepri, r3 
 748              	@ 0 "" 2
 749              	.LVL90:
 750              		.loc 2 252 5 is_stmt 0 view .LVU233
 751              		.thumb
 752              		.syntax unified
 753              	.LBE14:
 754              	.LBE13:
 541:../Core/FreeRTOS-Kernel/event_groups.c **** 
 755              		.loc 1 541 58 is_stmt 1 view .LVU234
 543:../Core/FreeRTOS-Kernel/event_groups.c ****     }
 756              		.loc 1 543 9 view .LVU235
 544:../Core/FreeRTOS-Kernel/event_groups.c **** /*-----------------------------------------------------------*/
 757              		.loc 1 544 5 is_stmt 0 view .LVU236
 758 001e 7047     		bx	lr
 759              		.cfi_endproc
 760              	.LFE153:
 762              		.section	.text.xEventGroupSetBits,"ax",%progbits
 763              		.align	1
 764              		.global	xEventGroupSetBits
 765              		.syntax unified
 766              		.thumb
 767              		.thumb_func
 768              		.fpu fpv5-d16
 770              	xEventGroupSetBits:
 771              	.LVL91:
 772              	.LFB154:
 549:../Core/FreeRTOS-Kernel/event_groups.c ****         ListItem_t * pxListItem;
 773              		.loc 1 549 5 is_stmt 1 view -0
 774              		.cfi_startproc
 775              		@ args = 0, pretend = 0, frame = 0
 776              		@ frame_needed = 0, uses_anonymous_args = 0
 549:../Core/FreeRTOS-Kernel/event_groups.c ****         ListItem_t * pxListItem;
 777              		.loc 1 549 5 is_stmt 0 view .LVU238
 778 0000 F8B5     		push	{r3, r4, r5, r6, r7, lr}
 779              	.LCFI7:
 780              		.cfi_def_cfa_offset 24
 781              		.cfi_offset 3, -24
 782              		.cfi_offset 4, -20
 783              		.cfi_offset 5, -16
 784              		.cfi_offset 6, -12
 785              		.cfi_offset 7, -8
 786              		.cfi_offset 14, -4
ARM GAS  /tmp/ccZFpcdw.s 			page 37


 550:../Core/FreeRTOS-Kernel/event_groups.c ****         ListItem_t * pxNext;
 787              		.loc 1 550 9 is_stmt 1 view .LVU239
 551:../Core/FreeRTOS-Kernel/event_groups.c ****         ListItem_t const * pxListEnd;
 788              		.loc 1 551 9 view .LVU240
 552:../Core/FreeRTOS-Kernel/event_groups.c ****         List_t const * pxList;
 789              		.loc 1 552 9 view .LVU241
 553:../Core/FreeRTOS-Kernel/event_groups.c ****         EventBits_t uxBitsToClear = 0, uxBitsWaitedFor, uxControlBits;
 790              		.loc 1 553 9 view .LVU242
 554:../Core/FreeRTOS-Kernel/event_groups.c ****         EventGroup_t * pxEventBits = xEventGroup;
 791              		.loc 1 554 9 view .LVU243
 792              	.LVL92:
 555:../Core/FreeRTOS-Kernel/event_groups.c ****         BaseType_t xMatchFound = pdFALSE;
 793              		.loc 1 555 9 view .LVU244
 556:../Core/FreeRTOS-Kernel/event_groups.c **** 
 794              		.loc 1 556 9 view .LVU245
 558:../Core/FreeRTOS-Kernel/event_groups.c **** 
 795              		.loc 1 558 66 view .LVU246
 562:../Core/FreeRTOS-Kernel/event_groups.c ****         configASSERT( ( uxBitsToSet & eventEVENT_BITS_CONTROL_BYTES ) == 0 );
 796              		.loc 1 562 9 view .LVU247
 797 0002 60B1     		cbz	r0, .L69
 798 0004 0D46     		mov	r5, r1
 799 0006 0446     		mov	r4, r0
 562:../Core/FreeRTOS-Kernel/event_groups.c ****         configASSERT( ( uxBitsToSet & eventEVENT_BITS_CONTROL_BYTES ) == 0 );
 800              		.loc 1 562 36 discriminator 2 view .LVU248
 563:../Core/FreeRTOS-Kernel/event_groups.c **** 
 801              		.loc 1 563 9 discriminator 2 view .LVU249
 802 0008 11F07F47 		ands	r7, r1, #-16777216
 803 000c 0FD0     		beq	.L60
 563:../Core/FreeRTOS-Kernel/event_groups.c **** 
 804              		.loc 1 563 9 discriminator 1 view .LVU250
 805 000e 4FF0FF33 		mov	r3, #-1
 806 0012 0822     		movs	r2, #8
 807 0014 1C49     		ldr	r1, .L71
 808              	.LVL93:
 563:../Core/FreeRTOS-Kernel/event_groups.c **** 
 809              		.loc 1 563 9 is_stmt 0 discriminator 1 view .LVU251
 810 0016 1D48     		ldr	r0, .L71+4
 811              	.LVL94:
 563:../Core/FreeRTOS-Kernel/event_groups.c **** 
 812              		.loc 1 563 9 discriminator 1 view .LVU252
 813 0018 FFF7FEFF 		bl	HAL_UART_Transmit
 814              	.LVL95:
 815              	.L61:
 563:../Core/FreeRTOS-Kernel/event_groups.c **** 
 816              		.loc 1 563 9 is_stmt 1 discriminator 2 view .LVU253
 563:../Core/FreeRTOS-Kernel/event_groups.c **** 
 817              		.loc 1 563 9 discriminator 2 view .LVU254
 563:../Core/FreeRTOS-Kernel/event_groups.c **** 
 818              		.loc 1 563 9 discriminator 2 view .LVU255
 819 001c FEE7     		b	.L61
 820              	.LVL96:
 821              	.L69:
 562:../Core/FreeRTOS-Kernel/event_groups.c ****         configASSERT( ( uxBitsToSet & eventEVENT_BITS_CONTROL_BYTES ) == 0 );
 822              		.loc 1 562 9 discriminator 1 view .LVU256
 823 001e 4FF0FF33 		mov	r3, #-1
 824 0022 0822     		movs	r2, #8
 825 0024 1849     		ldr	r1, .L71
ARM GAS  /tmp/ccZFpcdw.s 			page 38


 826              	.LVL97:
 562:../Core/FreeRTOS-Kernel/event_groups.c ****         configASSERT( ( uxBitsToSet & eventEVENT_BITS_CONTROL_BYTES ) == 0 );
 827              		.loc 1 562 9 is_stmt 0 discriminator 1 view .LVU257
 828 0026 1948     		ldr	r0, .L71+4
 829              	.LVL98:
 562:../Core/FreeRTOS-Kernel/event_groups.c ****         configASSERT( ( uxBitsToSet & eventEVENT_BITS_CONTROL_BYTES ) == 0 );
 830              		.loc 1 562 9 discriminator 1 view .LVU258
 831 0028 FFF7FEFF 		bl	HAL_UART_Transmit
 832              	.LVL99:
 833              	.L59:
 562:../Core/FreeRTOS-Kernel/event_groups.c ****         configASSERT( ( uxBitsToSet & eventEVENT_BITS_CONTROL_BYTES ) == 0 );
 834              		.loc 1 562 9 is_stmt 1 discriminator 1 view .LVU259
 562:../Core/FreeRTOS-Kernel/event_groups.c ****         configASSERT( ( uxBitsToSet & eventEVENT_BITS_CONTROL_BYTES ) == 0 );
 835              		.loc 1 562 9 discriminator 1 view .LVU260
 562:../Core/FreeRTOS-Kernel/event_groups.c ****         configASSERT( ( uxBitsToSet & eventEVENT_BITS_CONTROL_BYTES ) == 0 );
 836              		.loc 1 562 9 discriminator 1 view .LVU261
 837 002c FEE7     		b	.L59
 838              	.LVL100:
 839              	.L60:
 563:../Core/FreeRTOS-Kernel/event_groups.c **** 
 840              		.loc 1 563 77 discriminator 2 view .LVU262
 565:../Core/FreeRTOS-Kernel/event_groups.c ****         pxListEnd = listGET_END_MARKER( pxList );
 841              		.loc 1 565 9 discriminator 2 view .LVU263
 566:../Core/FreeRTOS-Kernel/event_groups.c ****         vTaskSuspendAll();
 842              		.loc 1 566 9 discriminator 2 view .LVU264
 566:../Core/FreeRTOS-Kernel/event_groups.c ****         vTaskSuspendAll();
 843              		.loc 1 566 19 is_stmt 0 discriminator 2 view .LVU265
 844 002e 00F10C06 		add	r6, r0, #12
 845              	.LVL101:
 567:../Core/FreeRTOS-Kernel/event_groups.c ****         {
 846              		.loc 1 567 9 is_stmt 1 discriminator 2 view .LVU266
 847 0032 FFF7FEFF 		bl	vTaskSuspendAll
 848              	.LVL102:
 569:../Core/FreeRTOS-Kernel/event_groups.c **** 
 849              		.loc 1 569 66 discriminator 2 view .LVU267
 571:../Core/FreeRTOS-Kernel/event_groups.c **** 
 850              		.loc 1 571 13 discriminator 2 view .LVU268
 571:../Core/FreeRTOS-Kernel/event_groups.c **** 
 851              		.loc 1 571 24 is_stmt 0 discriminator 2 view .LVU269
 852 0036 2069     		ldr	r0, [r4, #16]
 853              	.LVL103:
 574:../Core/FreeRTOS-Kernel/event_groups.c **** 
 854              		.loc 1 574 13 is_stmt 1 discriminator 2 view .LVU270
 574:../Core/FreeRTOS-Kernel/event_groups.c **** 
 855              		.loc 1 574 38 is_stmt 0 discriminator 2 view .LVU271
 856 0038 2368     		ldr	r3, [r4]
 857 003a 2B43     		orrs	r3, r3, r5
 858 003c 2360     		str	r3, [r4]
 577:../Core/FreeRTOS-Kernel/event_groups.c ****             {
 859              		.loc 1 577 13 is_stmt 1 discriminator 2 view .LVU272
 577:../Core/FreeRTOS-Kernel/event_groups.c ****             {
 860              		.loc 1 577 18 is_stmt 0 discriminator 2 view .LVU273
 861 003e 0AE0     		b	.L62
 862              	.LVL104:
 863              	.L63:
 599:../Core/FreeRTOS-Kernel/event_groups.c ****                 {
 864              		.loc 1 599 22 is_stmt 1 view .LVU274
ARM GAS  /tmp/ccZFpcdw.s 			page 39


 599:../Core/FreeRTOS-Kernel/event_groups.c ****                 {
 865              		.loc 1 599 57 is_stmt 0 view .LVU275
 866 0040 2168     		ldr	r1, [r4]
 599:../Core/FreeRTOS-Kernel/event_groups.c ****                 {
 867              		.loc 1 599 24 view .LVU276
 868 0042 32EA0101 		bics	r1, r2, r1
 869 0046 05D1     		bne	.L65
 599:../Core/FreeRTOS-Kernel/event_groups.c ****                 {
 870              		.loc 1 599 24 view .LVU277
 871 0048 11E0     		b	.L64
 872              	.LVL105:
 873              	.L66:
 618:../Core/FreeRTOS-Kernel/event_groups.c ****                     }
 874              		.loc 1 618 49 is_stmt 1 view .LVU278
 626:../Core/FreeRTOS-Kernel/event_groups.c ****                 }
 875              		.loc 1 626 21 view .LVU279
 626:../Core/FreeRTOS-Kernel/event_groups.c ****                 }
 876              		.loc 1 626 79 is_stmt 0 view .LVU280
 877 004a 2168     		ldr	r1, [r4]
 626:../Core/FreeRTOS-Kernel/event_groups.c ****                 }
 878              		.loc 1 626 21 view .LVU281
 879 004c 41F00071 		orr	r1, r1, #33554432
 880 0050 FFF7FEFF 		bl	vTaskRemoveFromUnorderedEventList
 881              	.LVL106:
 882              	.L65:
 549:../Core/FreeRTOS-Kernel/event_groups.c ****         ListItem_t * pxListItem;
 883              		.loc 1 549 5 view .LVU282
 884 0054 2846     		mov	r0, r5
 885              	.LVL107:
 886              	.L62:
 577:../Core/FreeRTOS-Kernel/event_groups.c ****             {
 887              		.loc 1 577 18 is_stmt 1 view .LVU283
 888 0056 B042     		cmp	r0, r6
 889 0058 0ED0     		beq	.L70
 579:../Core/FreeRTOS-Kernel/event_groups.c ****                 uxBitsWaitedFor = listGET_LIST_ITEM_VALUE( pxListItem );
 890              		.loc 1 579 17 view .LVU284
 579:../Core/FreeRTOS-Kernel/event_groups.c ****                 uxBitsWaitedFor = listGET_LIST_ITEM_VALUE( pxListItem );
 891              		.loc 1 579 24 is_stmt 0 view .LVU285
 892 005a 4568     		ldr	r5, [r0, #4]
 893              	.LVL108:
 580:../Core/FreeRTOS-Kernel/event_groups.c ****                 xMatchFound = pdFALSE;
 894              		.loc 1 580 17 is_stmt 1 view .LVU286
 580:../Core/FreeRTOS-Kernel/event_groups.c ****                 xMatchFound = pdFALSE;
 895              		.loc 1 580 33 is_stmt 0 view .LVU287
 896 005c 0368     		ldr	r3, [r0]
 897              	.LVL109:
 581:../Core/FreeRTOS-Kernel/event_groups.c **** 
 898              		.loc 1 581 17 is_stmt 1 view .LVU288
 584:../Core/FreeRTOS-Kernel/event_groups.c ****                 uxBitsWaitedFor &= ~eventEVENT_BITS_CONTROL_BYTES;
 899              		.loc 1 584 17 view .LVU289
 585:../Core/FreeRTOS-Kernel/event_groups.c **** 
 900              		.loc 1 585 17 view .LVU290
 585:../Core/FreeRTOS-Kernel/event_groups.c **** 
 901              		.loc 1 585 33 is_stmt 0 view .LVU291
 902 005e 23F07F42 		bic	r2, r3, #-16777216
 903              	.LVL110:
 587:../Core/FreeRTOS-Kernel/event_groups.c ****                 {
ARM GAS  /tmp/ccZFpcdw.s 			page 40


 904              		.loc 1 587 17 is_stmt 1 view .LVU292
 587:../Core/FreeRTOS-Kernel/event_groups.c ****                 {
 905              		.loc 1 587 19 is_stmt 0 view .LVU293
 906 0062 13F0806F 		tst	r3, #67108864
 907 0066 EBD1     		bne	.L63
 590:../Core/FreeRTOS-Kernel/event_groups.c ****                     {
 908              		.loc 1 590 21 is_stmt 1 view .LVU294
 590:../Core/FreeRTOS-Kernel/event_groups.c ****                     {
 909              		.loc 1 590 56 is_stmt 0 view .LVU295
 910 0068 2168     		ldr	r1, [r4]
 590:../Core/FreeRTOS-Kernel/event_groups.c ****                     {
 911              		.loc 1 590 23 view .LVU296
 912 006a 1142     		tst	r1, r2
 913 006c F2D0     		beq	.L65
 914              	.L64:
 915              	.LVL111:
 612:../Core/FreeRTOS-Kernel/event_groups.c ****                     {
 916              		.loc 1 612 21 is_stmt 1 view .LVU297
 612:../Core/FreeRTOS-Kernel/event_groups.c ****                     {
 917              		.loc 1 612 23 is_stmt 0 view .LVU298
 918 006e 13F0807F 		tst	r3, #16777216
 919 0072 EAD0     		beq	.L66
 614:../Core/FreeRTOS-Kernel/event_groups.c ****                     }
 920              		.loc 1 614 25 is_stmt 1 view .LVU299
 614:../Core/FreeRTOS-Kernel/event_groups.c ****                     }
 921              		.loc 1 614 39 is_stmt 0 view .LVU300
 922 0074 1743     		orrs	r7, r7, r2
 923              	.LVL112:
 614:../Core/FreeRTOS-Kernel/event_groups.c ****                     }
 924              		.loc 1 614 39 view .LVU301
 925 0076 E8E7     		b	.L66
 926              	.LVL113:
 927              	.L70:
 637:../Core/FreeRTOS-Kernel/event_groups.c ****         }
 928              		.loc 1 637 13 is_stmt 1 view .LVU302
 637:../Core/FreeRTOS-Kernel/event_groups.c ****         }
 929              		.loc 1 637 38 is_stmt 0 view .LVU303
 930 0078 2368     		ldr	r3, [r4]
 931 007a 23EA0703 		bic	r3, r3, r7
 932 007e 2360     		str	r3, [r4]
 639:../Core/FreeRTOS-Kernel/event_groups.c **** 
 933              		.loc 1 639 9 is_stmt 1 view .LVU304
 639:../Core/FreeRTOS-Kernel/event_groups.c **** 
 934              		.loc 1 639 18 is_stmt 0 view .LVU305
 935 0080 FFF7FEFF 		bl	xTaskResumeAll
 936              	.LVL114:
 641:../Core/FreeRTOS-Kernel/event_groups.c **** 
 937              		.loc 1 641 67 is_stmt 1 view .LVU306
 643:../Core/FreeRTOS-Kernel/event_groups.c ****     }
 938              		.loc 1 643 9 view .LVU307
 644:../Core/FreeRTOS-Kernel/event_groups.c **** /*-----------------------------------------------------------*/
 939              		.loc 1 644 5 is_stmt 0 view .LVU308
 940 0084 2068     		ldr	r0, [r4]
 941 0086 F8BD     		pop	{r3, r4, r5, r6, r7, pc}
 942              	.LVL115:
 943              	.L72:
 644:../Core/FreeRTOS-Kernel/event_groups.c **** /*-----------------------------------------------------------*/
ARM GAS  /tmp/ccZFpcdw.s 			page 41


 944              		.loc 1 644 5 view .LVU309
 945              		.align	2
 946              	.L71:
 947 0088 00000000 		.word	.LC0
 948 008c 00000000 		.word	huart2
 949              		.cfi_endproc
 950              	.LFE154:
 952              		.section	.text.xEventGroupSync,"ax",%progbits
 953              		.align	1
 954              		.global	xEventGroupSync
 955              		.syntax unified
 956              		.thumb
 957              		.thumb_func
 958              		.fpu fpv5-d16
 960              	xEventGroupSync:
 961              	.LVL116:
 962              	.LFB149:
 189:../Core/FreeRTOS-Kernel/event_groups.c ****         EventBits_t uxOriginalBitValue, uxReturn;
 963              		.loc 1 189 5 is_stmt 1 view -0
 964              		.cfi_startproc
 965              		@ args = 0, pretend = 0, frame = 0
 966              		@ frame_needed = 0, uses_anonymous_args = 0
 189:../Core/FreeRTOS-Kernel/event_groups.c ****         EventBits_t uxOriginalBitValue, uxReturn;
 967              		.loc 1 189 5 is_stmt 0 view .LVU311
 968 0000 2DE9F843 		push	{r3, r4, r5, r6, r7, r8, r9, lr}
 969              	.LCFI8:
 970              		.cfi_def_cfa_offset 32
 971              		.cfi_offset 3, -32
 972              		.cfi_offset 4, -28
 973              		.cfi_offset 5, -24
 974              		.cfi_offset 6, -20
 975              		.cfi_offset 7, -16
 976              		.cfi_offset 8, -12
 977              		.cfi_offset 9, -8
 978              		.cfi_offset 14, -4
 190:../Core/FreeRTOS-Kernel/event_groups.c ****         EventGroup_t * pxEventBits = xEventGroup;
 979              		.loc 1 190 9 is_stmt 1 view .LVU312
 191:../Core/FreeRTOS-Kernel/event_groups.c ****         BaseType_t xAlreadyYielded;
 980              		.loc 1 191 9 view .LVU313
 981              	.LVL117:
 192:../Core/FreeRTOS-Kernel/event_groups.c ****         BaseType_t xTimeoutOccurred = pdFALSE;
 982              		.loc 1 192 9 view .LVU314
 193:../Core/FreeRTOS-Kernel/event_groups.c **** 
 983              		.loc 1 193 9 view .LVU315
 195:../Core/FreeRTOS-Kernel/event_groups.c **** 
 984              		.loc 1 195 94 view .LVU316
 197:../Core/FreeRTOS-Kernel/event_groups.c ****         configASSERT( uxBitsToWaitFor != 0 );
 985              		.loc 1 197 9 view .LVU317
 986 0004 12F07F49 		ands	r9, r2, #-16777216
 987 0008 0CD1     		bne	.L88
 988 000a 0746     		mov	r7, r0
 989 000c 0D46     		mov	r5, r1
 990 000e 1446     		mov	r4, r2
 991 0010 1E46     		mov	r6, r3
 197:../Core/FreeRTOS-Kernel/event_groups.c ****         configASSERT( uxBitsToWaitFor != 0 );
 992              		.loc 1 197 81 discriminator 2 view .LVU318
 198:../Core/FreeRTOS-Kernel/event_groups.c ****         #if ( ( INCLUDE_xTaskGetSchedulerState == 1 ) || ( configUSE_TIMERS == 1 ) )
ARM GAS  /tmp/ccZFpcdw.s 			page 42


 993              		.loc 1 198 9 discriminator 2 view .LVU319
 994 0012 7AB9     		cbnz	r2, .L76
 198:../Core/FreeRTOS-Kernel/event_groups.c ****         #if ( ( INCLUDE_xTaskGetSchedulerState == 1 ) || ( configUSE_TIMERS == 1 ) )
 995              		.loc 1 198 9 discriminator 1 view .LVU320
 996 0014 4FF0FF33 		mov	r3, #-1
 997              	.LVL118:
 198:../Core/FreeRTOS-Kernel/event_groups.c ****         #if ( ( INCLUDE_xTaskGetSchedulerState == 1 ) || ( configUSE_TIMERS == 1 ) )
 998              		.loc 1 198 9 is_stmt 0 discriminator 1 view .LVU321
 999 0018 0822     		movs	r2, #8
 1000              	.LVL119:
 198:../Core/FreeRTOS-Kernel/event_groups.c ****         #if ( ( INCLUDE_xTaskGetSchedulerState == 1 ) || ( configUSE_TIMERS == 1 ) )
 1001              		.loc 1 198 9 discriminator 1 view .LVU322
 1002 001a 2E49     		ldr	r1, .L94
 1003              	.LVL120:
 198:../Core/FreeRTOS-Kernel/event_groups.c ****         #if ( ( INCLUDE_xTaskGetSchedulerState == 1 ) || ( configUSE_TIMERS == 1 ) )
 1004              		.loc 1 198 9 discriminator 1 view .LVU323
 1005 001c 2E48     		ldr	r0, .L94+4
 1006              	.LVL121:
 198:../Core/FreeRTOS-Kernel/event_groups.c ****         #if ( ( INCLUDE_xTaskGetSchedulerState == 1 ) || ( configUSE_TIMERS == 1 ) )
 1007              		.loc 1 198 9 discriminator 1 view .LVU324
 1008 001e FFF7FEFF 		bl	HAL_UART_Transmit
 1009              	.LVL122:
 1010              	.L77:
 198:../Core/FreeRTOS-Kernel/event_groups.c ****         #if ( ( INCLUDE_xTaskGetSchedulerState == 1 ) || ( configUSE_TIMERS == 1 ) )
 1011              		.loc 1 198 9 is_stmt 1 discriminator 2 view .LVU325
 198:../Core/FreeRTOS-Kernel/event_groups.c ****         #if ( ( INCLUDE_xTaskGetSchedulerState == 1 ) || ( configUSE_TIMERS == 1 ) )
 1012              		.loc 1 198 9 discriminator 2 view .LVU326
 198:../Core/FreeRTOS-Kernel/event_groups.c ****         #if ( ( INCLUDE_xTaskGetSchedulerState == 1 ) || ( configUSE_TIMERS == 1 ) )
 1013              		.loc 1 198 9 discriminator 2 view .LVU327
 1014 0022 FEE7     		b	.L77
 1015              	.LVL123:
 1016              	.L88:
 197:../Core/FreeRTOS-Kernel/event_groups.c ****         configASSERT( uxBitsToWaitFor != 0 );
 1017              		.loc 1 197 9 discriminator 1 view .LVU328
 1018 0024 4FF0FF33 		mov	r3, #-1
 1019              	.LVL124:
 197:../Core/FreeRTOS-Kernel/event_groups.c ****         configASSERT( uxBitsToWaitFor != 0 );
 1020              		.loc 1 197 9 is_stmt 0 discriminator 1 view .LVU329
 1021 0028 0822     		movs	r2, #8
 1022              	.LVL125:
 197:../Core/FreeRTOS-Kernel/event_groups.c ****         configASSERT( uxBitsToWaitFor != 0 );
 1023              		.loc 1 197 9 discriminator 1 view .LVU330
 1024 002a 2A49     		ldr	r1, .L94
 1025              	.LVL126:
 197:../Core/FreeRTOS-Kernel/event_groups.c ****         configASSERT( uxBitsToWaitFor != 0 );
 1026              		.loc 1 197 9 discriminator 1 view .LVU331
 1027 002c 2A48     		ldr	r0, .L94+4
 1028              	.LVL127:
 197:../Core/FreeRTOS-Kernel/event_groups.c ****         configASSERT( uxBitsToWaitFor != 0 );
 1029              		.loc 1 197 9 discriminator 1 view .LVU332
 1030 002e FFF7FEFF 		bl	HAL_UART_Transmit
 1031              	.LVL128:
 1032              	.L75:
 197:../Core/FreeRTOS-Kernel/event_groups.c ****         configASSERT( uxBitsToWaitFor != 0 );
 1033              		.loc 1 197 9 is_stmt 1 discriminator 1 view .LVU333
 197:../Core/FreeRTOS-Kernel/event_groups.c ****         configASSERT( uxBitsToWaitFor != 0 );
 1034              		.loc 1 197 9 discriminator 1 view .LVU334
ARM GAS  /tmp/ccZFpcdw.s 			page 43


 197:../Core/FreeRTOS-Kernel/event_groups.c ****         configASSERT( uxBitsToWaitFor != 0 );
 1035              		.loc 1 197 9 discriminator 1 view .LVU335
 1036 0032 FEE7     		b	.L75
 1037              	.LVL129:
 1038              	.L76:
 198:../Core/FreeRTOS-Kernel/event_groups.c ****         #if ( ( INCLUDE_xTaskGetSchedulerState == 1 ) || ( configUSE_TIMERS == 1 ) )
 1039              		.loc 1 198 45 discriminator 2 view .LVU336
 201:../Core/FreeRTOS-Kernel/event_groups.c ****         }
 1040              		.loc 1 201 13 discriminator 2 view .LVU337
 1041 0034 FFF7FEFF 		bl	xTaskGetSchedulerState
 1042              	.LVL130:
 201:../Core/FreeRTOS-Kernel/event_groups.c ****         }
 1043              		.loc 1 201 13 is_stmt 0 discriminator 2 view .LVU338
 1044 0038 00B9     		cbnz	r0, .L78
 1045 003a 3EBB     		cbnz	r6, .L89
 1046              	.L78:
 201:../Core/FreeRTOS-Kernel/event_groups.c ****         }
 1047              		.loc 1 201 114 is_stmt 1 discriminator 8 view .LVU339
 205:../Core/FreeRTOS-Kernel/event_groups.c ****         {
 1048              		.loc 1 205 9 discriminator 8 view .LVU340
 1049 003c FFF7FEFF 		bl	vTaskSuspendAll
 1050              	.LVL131:
 207:../Core/FreeRTOS-Kernel/event_groups.c **** 
 1051              		.loc 1 207 13 discriminator 8 view .LVU341
 207:../Core/FreeRTOS-Kernel/event_groups.c **** 
 1052              		.loc 1 207 32 is_stmt 0 discriminator 8 view .LVU342
 1053 0040 D7F80080 		ldr	r8, [r7]
 1054              	.LVL132:
 209:../Core/FreeRTOS-Kernel/event_groups.c **** 
 1055              		.loc 1 209 13 is_stmt 1 discriminator 8 view .LVU343
 209:../Core/FreeRTOS-Kernel/event_groups.c **** 
 1056              		.loc 1 209 22 is_stmt 0 discriminator 8 view .LVU344
 1057 0044 2946     		mov	r1, r5
 1058 0046 3846     		mov	r0, r7
 1059 0048 FFF7FEFF 		bl	xEventGroupSetBits
 1060              	.LVL133:
 211:../Core/FreeRTOS-Kernel/event_groups.c ****             {
 1061              		.loc 1 211 13 is_stmt 1 discriminator 8 view .LVU345
 211:../Core/FreeRTOS-Kernel/event_groups.c ****             {
 1062              		.loc 1 211 40 is_stmt 0 discriminator 8 view .LVU346
 1063 004c 48EA0505 		orr	r5, r8, r5
 1064              	.LVL134:
 211:../Core/FreeRTOS-Kernel/event_groups.c ****             {
 1065              		.loc 1 211 15 discriminator 8 view .LVU347
 1066 0050 34EA0503 		bics	r3, r4, r5
 1067 0054 22D0     		beq	.L90
 224:../Core/FreeRTOS-Kernel/event_groups.c ****                 {
 1068              		.loc 1 224 17 is_stmt 1 view .LVU348
 224:../Core/FreeRTOS-Kernel/event_groups.c ****                 {
 1069              		.loc 1 224 19 is_stmt 0 view .LVU349
 1070 0056 3EBB     		cbnz	r6, .L91
 243:../Core/FreeRTOS-Kernel/event_groups.c ****                     xTimeoutOccurred = pdTRUE;
 1071              		.loc 1 243 21 is_stmt 1 view .LVU350
 243:../Core/FreeRTOS-Kernel/event_groups.c ****                     xTimeoutOccurred = pdTRUE;
 1072              		.loc 1 243 30 is_stmt 0 view .LVU351
 1073 0058 3D68     		ldr	r5, [r7]
 1074              	.LVL135:
ARM GAS  /tmp/ccZFpcdw.s 			page 44


 244:../Core/FreeRTOS-Kernel/event_groups.c ****                 }
 1075              		.loc 1 244 21 is_stmt 1 view .LVU352
 1076              	.L81:
 248:../Core/FreeRTOS-Kernel/event_groups.c **** 
 1077              		.loc 1 248 9 view .LVU353
 248:../Core/FreeRTOS-Kernel/event_groups.c **** 
 1078              		.loc 1 248 27 is_stmt 0 view .LVU354
 1079 005a FFF7FEFF 		bl	xTaskResumeAll
 1080              	.LVL136:
 250:../Core/FreeRTOS-Kernel/event_groups.c ****         {
 1081              		.loc 1 250 9 is_stmt 1 view .LVU355
 250:../Core/FreeRTOS-Kernel/event_groups.c ****         {
 1082              		.loc 1 250 11 is_stmt 0 view .LVU356
 1083 005e 96B1     		cbz	r6, .L73
 252:../Core/FreeRTOS-Kernel/event_groups.c ****             {
 1084              		.loc 1 252 13 is_stmt 1 view .LVU357
 252:../Core/FreeRTOS-Kernel/event_groups.c ****             {
 1085              		.loc 1 252 15 is_stmt 0 view .LVU358
 1086 0060 48B9     		cbnz	r0, .L84
 254:../Core/FreeRTOS-Kernel/event_groups.c ****             }
 1087              		.loc 1 254 17 is_stmt 1 view .LVU359
 1088 0062 4FF0E023 		mov	r3, #-536813568
 1089 0066 4FF08052 		mov	r2, #268435456
 1090 006a C3F8042D 		str	r2, [r3, #3332]
 254:../Core/FreeRTOS-Kernel/event_groups.c ****             }
 1091              		.loc 1 254 17 view .LVU360
 1092              		.syntax unified
 1093              	@ 254 "../Core/FreeRTOS-Kernel/event_groups.c" 1
 1094 006e BFF34F8F 		dsb
 1095              	@ 0 "" 2
 254:../Core/FreeRTOS-Kernel/event_groups.c ****             }
 1096              		.loc 1 254 17 view .LVU361
 1097              	@ 254 "../Core/FreeRTOS-Kernel/event_groups.c" 1
 1098 0072 BFF36F8F 		isb
 1099              	@ 0 "" 2
 254:../Core/FreeRTOS-Kernel/event_groups.c ****             }
 1100              		.loc 1 254 39 view .LVU362
 1101              		.thumb
 1102              		.syntax unified
 1103              	.L84:
 258:../Core/FreeRTOS-Kernel/event_groups.c ****             }
 1104              		.loc 1 258 41 view .LVU363
 265:../Core/FreeRTOS-Kernel/event_groups.c **** 
 1105              		.loc 1 265 13 view .LVU364
 265:../Core/FreeRTOS-Kernel/event_groups.c **** 
 1106              		.loc 1 265 24 is_stmt 0 view .LVU365
 1107 0076 FFF7FEFF 		bl	uxTaskResetEventItemValue
 1108              	.LVL137:
 265:../Core/FreeRTOS-Kernel/event_groups.c **** 
 1109              		.loc 1 265 24 view .LVU366
 1110 007a 0546     		mov	r5, r0
 1111              	.LVL138:
 267:../Core/FreeRTOS-Kernel/event_groups.c ****             {
 1112              		.loc 1 267 13 is_stmt 1 view .LVU367
 267:../Core/FreeRTOS-Kernel/event_groups.c ****             {
 1113              		.loc 1 267 15 is_stmt 0 view .LVU368
 1114 007c 10F0007F 		tst	r0, #33554432
ARM GAS  /tmp/ccZFpcdw.s 			page 45


 1115 0080 1AD0     		beq	.L92
 1116              	.LVL139:
 1117              	.L85:
 294:../Core/FreeRTOS-Kernel/event_groups.c **** 
 1118              		.loc 1 294 13 is_stmt 1 view .LVU369
 298:../Core/FreeRTOS-Kernel/event_groups.c ****         }
 1119              		.loc 1 298 13 view .LVU370
 298:../Core/FreeRTOS-Kernel/event_groups.c ****         }
 1120              		.loc 1 298 22 is_stmt 0 view .LVU371
 1121 0082 25F07F45 		bic	r5, r5, #-16777216
 1122              	.LVL140:
 301:../Core/FreeRTOS-Kernel/event_groups.c **** 
 1123              		.loc 1 301 9 is_stmt 1 view .LVU372
 304:../Core/FreeRTOS-Kernel/event_groups.c **** 
 1124              		.loc 1 304 9 view .LVU373
 306:../Core/FreeRTOS-Kernel/event_groups.c **** 
 1125              		.loc 1 306 48 view .LVU374
 308:../Core/FreeRTOS-Kernel/event_groups.c ****     }
 1126              		.loc 1 308 9 view .LVU375
 1127              	.L73:
 309:../Core/FreeRTOS-Kernel/event_groups.c **** /*-----------------------------------------------------------*/
 1128              		.loc 1 309 5 is_stmt 0 view .LVU376
 1129 0086 2846     		mov	r0, r5
 1130 0088 BDE8F883 		pop	{r3, r4, r5, r6, r7, r8, r9, pc}
 1131              	.LVL141:
 1132              	.L89:
 201:../Core/FreeRTOS-Kernel/event_groups.c ****         }
 1133              		.loc 1 201 13 is_stmt 1 view .LVU377
 1134 008c 4FF0FF33 		mov	r3, #-1
 1135 0090 0822     		movs	r2, #8
 1136 0092 1049     		ldr	r1, .L94
 1137 0094 1048     		ldr	r0, .L94+4
 1138 0096 FFF7FEFF 		bl	HAL_UART_Transmit
 1139              	.LVL142:
 1140              	.L79:
 201:../Core/FreeRTOS-Kernel/event_groups.c ****         }
 1141              		.loc 1 201 13 discriminator 3 view .LVU378
 201:../Core/FreeRTOS-Kernel/event_groups.c ****         }
 1142              		.loc 1 201 13 discriminator 3 view .LVU379
 201:../Core/FreeRTOS-Kernel/event_groups.c ****         }
 1143              		.loc 1 201 13 discriminator 3 view .LVU380
 1144 009a FEE7     		b	.L79
 1145              	.LVL143:
 1146              	.L90:
 214:../Core/FreeRTOS-Kernel/event_groups.c **** 
 1147              		.loc 1 214 17 view .LVU381
 218:../Core/FreeRTOS-Kernel/event_groups.c **** 
 1148              		.loc 1 218 17 view .LVU382
 218:../Core/FreeRTOS-Kernel/event_groups.c **** 
 1149              		.loc 1 218 42 is_stmt 0 view .LVU383
 1150 009c 3B68     		ldr	r3, [r7]
 1151 009e 23EA0403 		bic	r3, r3, r4
 1152 00a2 3B60     		str	r3, [r7]
 220:../Core/FreeRTOS-Kernel/event_groups.c ****             }
 1153              		.loc 1 220 17 is_stmt 1 view .LVU384
 1154              	.LVL144:
 220:../Core/FreeRTOS-Kernel/event_groups.c ****             }
ARM GAS  /tmp/ccZFpcdw.s 			page 46


 1155              		.loc 1 220 30 is_stmt 0 view .LVU385
 1156 00a4 4E46     		mov	r6, r9
 1157 00a6 D8E7     		b	.L81
 1158              	.LVL145:
 1159              	.L91:
 226:../Core/FreeRTOS-Kernel/event_groups.c **** 
 1160              		.loc 1 226 93 is_stmt 1 view .LVU386
 231:../Core/FreeRTOS-Kernel/event_groups.c **** 
 1161              		.loc 1 231 21 view .LVU387
 1162 00a8 3246     		mov	r2, r6
 1163 00aa 44F0A061 		orr	r1, r4, #83886080
 1164 00ae 381D     		adds	r0, r7, #4
 1165 00b0 FFF7FEFF 		bl	vTaskPlaceOnUnorderedEventList
 1166              	.LVL146:
 237:../Core/FreeRTOS-Kernel/event_groups.c ****                 }
 1167              		.loc 1 237 21 view .LVU388
 237:../Core/FreeRTOS-Kernel/event_groups.c ****                 }
 1168              		.loc 1 237 30 is_stmt 0 view .LVU389
 1169 00b4 4D46     		mov	r5, r9
 1170 00b6 D0E7     		b	.L81
 1171              	.LVL147:
 1172              	.L92:
 270:../Core/FreeRTOS-Kernel/event_groups.c ****                 {
 1173              		.loc 1 270 17 is_stmt 1 view .LVU390
 1174 00b8 FFF7FEFF 		bl	vPortEnterCritical
 1175              	.LVL148:
 272:../Core/FreeRTOS-Kernel/event_groups.c **** 
 1176              		.loc 1 272 21 view .LVU391
 272:../Core/FreeRTOS-Kernel/event_groups.c **** 
 1177              		.loc 1 272 30 is_stmt 0 view .LVU392
 1178 00bc 3D68     		ldr	r5, [r7]
 1179              	.LVL149:
 278:../Core/FreeRTOS-Kernel/event_groups.c ****                     {
 1180              		.loc 1 278 21 is_stmt 1 view .LVU393
 278:../Core/FreeRTOS-Kernel/event_groups.c ****                     {
 1181              		.loc 1 278 23 is_stmt 0 view .LVU394
 1182 00be 34EA0503 		bics	r3, r4, r5
 1183 00c2 02D0     		beq	.L93
 1184              	.LVL150:
 1185              	.L86:
 284:../Core/FreeRTOS-Kernel/event_groups.c ****                     }
 1186              		.loc 1 284 49 is_stmt 1 view .LVU395
 287:../Core/FreeRTOS-Kernel/event_groups.c **** 
 1187              		.loc 1 287 17 view .LVU396
 1188 00c4 FFF7FEFF 		bl	vPortExitCritical
 1189              	.LVL151:
 289:../Core/FreeRTOS-Kernel/event_groups.c ****             }
 1190              		.loc 1 289 17 view .LVU397
 289:../Core/FreeRTOS-Kernel/event_groups.c ****             }
 1191              		.loc 1 289 17 is_stmt 0 view .LVU398
 1192 00c8 DBE7     		b	.L85
 1193              	.LVL152:
 1194              	.L93:
 280:../Core/FreeRTOS-Kernel/event_groups.c ****                     }
 1195              		.loc 1 280 25 is_stmt 1 view .LVU399
 280:../Core/FreeRTOS-Kernel/event_groups.c ****                     }
 1196              		.loc 1 280 50 is_stmt 0 view .LVU400
ARM GAS  /tmp/ccZFpcdw.s 			page 47


 1197 00ca 25EA0404 		bic	r4, r5, r4
 1198              	.LVL153:
 280:../Core/FreeRTOS-Kernel/event_groups.c ****                     }
 1199              		.loc 1 280 50 view .LVU401
 1200 00ce 3C60     		str	r4, [r7]
 1201 00d0 F8E7     		b	.L86
 1202              	.L95:
 1203 00d2 00BF     		.align	2
 1204              	.L94:
 1205 00d4 00000000 		.word	.LC0
 1206 00d8 00000000 		.word	huart2
 1207              		.cfi_endproc
 1208              	.LFE149:
 1210              		.section	.text.vEventGroupSetBitsCallback,"ax",%progbits
 1211              		.align	1
 1212              		.global	vEventGroupSetBitsCallback
 1213              		.syntax unified
 1214              		.thumb
 1215              		.thumb_func
 1216              		.fpu fpv5-d16
 1218              	vEventGroupSetBitsCallback:
 1219              	.LVL154:
 1220              	.LFB157:
 747:../Core/FreeRTOS-Kernel/event_groups.c ****         traceENTER_vEventGroupSetBitsCallback( pvEventGroup, ulBitsToSet );
 1221              		.loc 1 747 5 is_stmt 1 view -0
 1222              		.cfi_startproc
 1223              		@ args = 0, pretend = 0, frame = 0
 1224              		@ frame_needed = 0, uses_anonymous_args = 0
 747:../Core/FreeRTOS-Kernel/event_groups.c ****         traceENTER_vEventGroupSetBitsCallback( pvEventGroup, ulBitsToSet );
 1225              		.loc 1 747 5 is_stmt 0 view .LVU403
 1226 0000 08B5     		push	{r3, lr}
 1227              	.LCFI9:
 1228              		.cfi_def_cfa_offset 8
 1229              		.cfi_offset 3, -8
 1230              		.cfi_offset 14, -4
 748:../Core/FreeRTOS-Kernel/event_groups.c **** 
 1231              		.loc 1 748 75 is_stmt 1 view .LVU404
 753:../Core/FreeRTOS-Kernel/event_groups.c **** 
 1232              		.loc 1 753 9 view .LVU405
 753:../Core/FreeRTOS-Kernel/event_groups.c **** 
 1233              		.loc 1 753 18 is_stmt 0 view .LVU406
 1234 0002 FFF7FEFF 		bl	xEventGroupSetBits
 1235              	.LVL155:
 755:../Core/FreeRTOS-Kernel/event_groups.c ****     }
 1236              		.loc 1 755 49 is_stmt 1 view .LVU407
 756:../Core/FreeRTOS-Kernel/event_groups.c **** /*-----------------------------------------------------------*/
 1237              		.loc 1 756 5 is_stmt 0 view .LVU408
 1238 0006 08BD     		pop	{r3, pc}
 1239              		.cfi_endproc
 1240              	.LFE157:
 1242              		.section	.text.vEventGroupDelete,"ax",%progbits
 1243              		.align	1
 1244              		.global	vEventGroupDelete
 1245              		.syntax unified
 1246              		.thumb
 1247              		.thumb_func
 1248              		.fpu fpv5-d16
ARM GAS  /tmp/ccZFpcdw.s 			page 48


 1250              	vEventGroupDelete:
 1251              	.LVL156:
 1252              	.LFB155:
 648:../Core/FreeRTOS-Kernel/event_groups.c ****         EventGroup_t * pxEventBits = xEventGroup;
 1253              		.loc 1 648 5 is_stmt 1 view -0
 1254              		.cfi_startproc
 1255              		@ args = 0, pretend = 0, frame = 0
 1256              		@ frame_needed = 0, uses_anonymous_args = 0
 648:../Core/FreeRTOS-Kernel/event_groups.c ****         EventGroup_t * pxEventBits = xEventGroup;
 1257              		.loc 1 648 5 is_stmt 0 view .LVU410
 1258 0000 10B5     		push	{r4, lr}
 1259              	.LCFI10:
 1260              		.cfi_def_cfa_offset 8
 1261              		.cfi_offset 4, -8
 1262              		.cfi_offset 14, -4
 649:../Core/FreeRTOS-Kernel/event_groups.c ****         const List_t * pxTasksWaitingForBits;
 1263              		.loc 1 649 9 is_stmt 1 view .LVU411
 1264              	.LVL157:
 650:../Core/FreeRTOS-Kernel/event_groups.c **** 
 1265              		.loc 1 650 9 view .LVU412
 652:../Core/FreeRTOS-Kernel/event_groups.c **** 
 1266              		.loc 1 652 52 view .LVU413
 654:../Core/FreeRTOS-Kernel/event_groups.c **** 
 1267              		.loc 1 654 9 view .LVU414
 1268 0002 70B1     		cbz	r0, .L106
 1269 0004 0446     		mov	r4, r0
 654:../Core/FreeRTOS-Kernel/event_groups.c **** 
 1270              		.loc 1 654 36 discriminator 2 view .LVU415
 656:../Core/FreeRTOS-Kernel/event_groups.c **** 
 1271              		.loc 1 656 9 discriminator 2 view .LVU416
 1272              	.LVL158:
 658:../Core/FreeRTOS-Kernel/event_groups.c ****         {
 1273              		.loc 1 658 9 discriminator 2 view .LVU417
 1274 0006 FFF7FEFF 		bl	vTaskSuspendAll
 1275              	.LVL159:
 660:../Core/FreeRTOS-Kernel/event_groups.c **** 
 1276              		.loc 1 660 51 discriminator 2 view .LVU418
 662:../Core/FreeRTOS-Kernel/event_groups.c ****             {
 1277              		.loc 1 662 13 discriminator 2 view .LVU419
 1278              	.L101:
 662:../Core/FreeRTOS-Kernel/event_groups.c ****             {
 1279              		.loc 1 662 18 view .LVU420
 662:../Core/FreeRTOS-Kernel/event_groups.c ****             {
 1280              		.loc 1 662 20 is_stmt 0 view .LVU421
 1281 000a 6368     		ldr	r3, [r4, #4]
 662:../Core/FreeRTOS-Kernel/event_groups.c ****             {
 1282              		.loc 1 662 18 view .LVU422
 1283 000c CBB1     		cbz	r3, .L107
 666:../Core/FreeRTOS-Kernel/event_groups.c ****                 vTaskRemoveFromUnorderedEventList( pxTasksWaitingForBits->xListEnd.pxNext, eventUNB
 1284              		.loc 1 666 17 is_stmt 1 view .LVU423
 1285 000e 2069     		ldr	r0, [r4, #16]
 1286 0010 04F10C03 		add	r3, r4, #12
 1287 0014 9842     		cmp	r0, r3
 1288 0016 0CD0     		beq	.L108
 666:../Core/FreeRTOS-Kernel/event_groups.c ****                 vTaskRemoveFromUnorderedEventList( pxTasksWaitingForBits->xListEnd.pxNext, eventUNB
 1289              		.loc 1 666 134 discriminator 2 view .LVU424
 667:../Core/FreeRTOS-Kernel/event_groups.c ****             }
ARM GAS  /tmp/ccZFpcdw.s 			page 49


 1290              		.loc 1 667 17 discriminator 2 view .LVU425
 1291 0018 4FF00071 		mov	r1, #33554432
 1292 001c FFF7FEFF 		bl	vTaskRemoveFromUnorderedEventList
 1293              	.LVL160:
 1294 0020 F3E7     		b	.L101
 1295              	.LVL161:
 1296              	.L106:
 654:../Core/FreeRTOS-Kernel/event_groups.c **** 
 1297              		.loc 1 654 9 discriminator 1 view .LVU426
 1298 0022 4FF0FF33 		mov	r3, #-1
 1299 0026 0822     		movs	r2, #8
 1300 0028 0749     		ldr	r1, .L109
 1301 002a 0848     		ldr	r0, .L109+4
 1302              	.LVL162:
 654:../Core/FreeRTOS-Kernel/event_groups.c **** 
 1303              		.loc 1 654 9 is_stmt 0 discriminator 1 view .LVU427
 1304 002c FFF7FEFF 		bl	HAL_UART_Transmit
 1305              	.LVL163:
 1306              	.L100:
 654:../Core/FreeRTOS-Kernel/event_groups.c **** 
 1307              		.loc 1 654 9 is_stmt 1 discriminator 1 view .LVU428
 654:../Core/FreeRTOS-Kernel/event_groups.c **** 
 1308              		.loc 1 654 9 discriminator 1 view .LVU429
 654:../Core/FreeRTOS-Kernel/event_groups.c **** 
 1309              		.loc 1 654 9 discriminator 1 view .LVU430
 1310 0030 FEE7     		b	.L100
 1311              	.LVL164:
 1312              	.L108:
 666:../Core/FreeRTOS-Kernel/event_groups.c ****                 vTaskRemoveFromUnorderedEventList( pxTasksWaitingForBits->xListEnd.pxNext, eventUNB
 1313              		.loc 1 666 17 discriminator 1 view .LVU431
 1314 0032 4FF0FF33 		mov	r3, #-1
 1315 0036 0822     		movs	r2, #8
 1316 0038 0349     		ldr	r1, .L109
 1317 003a 0448     		ldr	r0, .L109+4
 1318 003c FFF7FEFF 		bl	HAL_UART_Transmit
 1319              	.LVL165:
 1320              	.L103:
 666:../Core/FreeRTOS-Kernel/event_groups.c ****                 vTaskRemoveFromUnorderedEventList( pxTasksWaitingForBits->xListEnd.pxNext, eventUNB
 1321              		.loc 1 666 17 discriminator 2 view .LVU432
 666:../Core/FreeRTOS-Kernel/event_groups.c ****                 vTaskRemoveFromUnorderedEventList( pxTasksWaitingForBits->xListEnd.pxNext, eventUNB
 1322              		.loc 1 666 17 discriminator 2 view .LVU433
 666:../Core/FreeRTOS-Kernel/event_groups.c ****                 vTaskRemoveFromUnorderedEventList( pxTasksWaitingForBits->xListEnd.pxNext, eventUNB
 1323              		.loc 1 666 17 discriminator 2 view .LVU434
 1324 0040 FEE7     		b	.L103
 1325              	.L107:
 670:../Core/FreeRTOS-Kernel/event_groups.c **** 
 1326              		.loc 1 670 9 view .LVU435
 670:../Core/FreeRTOS-Kernel/event_groups.c **** 
 1327              		.loc 1 670 18 is_stmt 0 view .LVU436
 1328 0042 FFF7FEFF 		bl	xTaskResumeAll
 1329              	.LVL166:
 693:../Core/FreeRTOS-Kernel/event_groups.c ****     }
 1330              		.loc 1 693 40 is_stmt 1 view .LVU437
 694:../Core/FreeRTOS-Kernel/event_groups.c **** /*-----------------------------------------------------------*/
 1331              		.loc 1 694 5 is_stmt 0 view .LVU438
 1332 0046 10BD     		pop	{r4, pc}
 1333              	.LVL167:
ARM GAS  /tmp/ccZFpcdw.s 			page 50


 1334              	.L110:
 694:../Core/FreeRTOS-Kernel/event_groups.c **** /*-----------------------------------------------------------*/
 1335              		.loc 1 694 5 view .LVU439
 1336              		.align	2
 1337              	.L109:
 1338 0048 00000000 		.word	.LC0
 1339 004c 00000000 		.word	huart2
 1340              		.cfi_endproc
 1341              	.LFE155:
 1343              		.section	.text.xEventGroupGetStaticBuffer,"ax",%progbits
 1344              		.align	1
 1345              		.global	xEventGroupGetStaticBuffer
 1346              		.syntax unified
 1347              		.thumb
 1348              		.thumb_func
 1349              		.fpu fpv5-d16
 1351              	xEventGroupGetStaticBuffer:
 1352              	.LVL168:
 1353              	.LFB156:
 700:../Core/FreeRTOS-Kernel/event_groups.c ****             BaseType_t xReturn;
 1354              		.loc 1 700 9 is_stmt 1 view -0
 1355              		.cfi_startproc
 1356              		@ args = 0, pretend = 0, frame = 0
 1357              		@ frame_needed = 0, uses_anonymous_args = 0
 700:../Core/FreeRTOS-Kernel/event_groups.c ****             BaseType_t xReturn;
 1358              		.loc 1 700 9 is_stmt 0 view .LVU441
 1359 0000 08B5     		push	{r3, lr}
 1360              	.LCFI11:
 1361              		.cfi_def_cfa_offset 8
 1362              		.cfi_offset 3, -8
 1363              		.cfi_offset 14, -4
 701:../Core/FreeRTOS-Kernel/event_groups.c ****             EventGroup_t * pxEventBits = xEventGroup;
 1364              		.loc 1 701 13 is_stmt 1 view .LVU442
 702:../Core/FreeRTOS-Kernel/event_groups.c **** 
 1365              		.loc 1 702 13 view .LVU443
 1366              	.LVL169:
 704:../Core/FreeRTOS-Kernel/event_groups.c **** 
 1367              		.loc 1 704 86 view .LVU444
 706:../Core/FreeRTOS-Kernel/event_groups.c ****             configASSERT( ppxEventGroupBuffer );
 1368              		.loc 1 706 13 view .LVU445
 1369 0002 18B1     		cbz	r0, .L117
 706:../Core/FreeRTOS-Kernel/event_groups.c ****             configASSERT( ppxEventGroupBuffer );
 1370              		.loc 1 706 40 discriminator 2 view .LVU446
 707:../Core/FreeRTOS-Kernel/event_groups.c **** 
 1371              		.loc 1 707 13 discriminator 2 view .LVU447
 1372 0004 51B1     		cbz	r1, .L118
 707:../Core/FreeRTOS-Kernel/event_groups.c **** 
 1373              		.loc 1 707 48 discriminator 2 view .LVU448
 731:../Core/FreeRTOS-Kernel/event_groups.c ****                 xReturn = pdTRUE;
 1374              		.loc 1 731 17 discriminator 2 view .LVU449
 731:../Core/FreeRTOS-Kernel/event_groups.c ****                 xReturn = pdTRUE;
 1375              		.loc 1 731 38 is_stmt 0 discriminator 2 view .LVU450
 1376 0006 0860     		str	r0, [r1]
 732:../Core/FreeRTOS-Kernel/event_groups.c ****             }
 1377              		.loc 1 732 17 is_stmt 1 discriminator 2 view .LVU451
 1378              	.LVL170:
 736:../Core/FreeRTOS-Kernel/event_groups.c **** 
ARM GAS  /tmp/ccZFpcdw.s 			page 51


 1379              		.loc 1 736 62 discriminator 2 view .LVU452
 738:../Core/FreeRTOS-Kernel/event_groups.c ****         }
 1380              		.loc 1 738 13 discriminator 2 view .LVU453
 739:../Core/FreeRTOS-Kernel/event_groups.c ****     #endif /* configSUPPORT_STATIC_ALLOCATION */
 1381              		.loc 1 739 9 is_stmt 0 discriminator 2 view .LVU454
 1382 0008 0120     		movs	r0, #1
 1383              	.LVL171:
 739:../Core/FreeRTOS-Kernel/event_groups.c ****     #endif /* configSUPPORT_STATIC_ALLOCATION */
 1384              		.loc 1 739 9 discriminator 2 view .LVU455
 1385 000a 08BD     		pop	{r3, pc}
 1386              	.LVL172:
 1387              	.L117:
 706:../Core/FreeRTOS-Kernel/event_groups.c ****             configASSERT( ppxEventGroupBuffer );
 1388              		.loc 1 706 13 is_stmt 1 discriminator 1 view .LVU456
 1389 000c 4FF0FF33 		mov	r3, #-1
 1390 0010 0822     		movs	r2, #8
 1391 0012 0649     		ldr	r1, .L119
 1392              	.LVL173:
 706:../Core/FreeRTOS-Kernel/event_groups.c ****             configASSERT( ppxEventGroupBuffer );
 1393              		.loc 1 706 13 is_stmt 0 discriminator 1 view .LVU457
 1394 0014 0648     		ldr	r0, .L119+4
 1395              	.LVL174:
 706:../Core/FreeRTOS-Kernel/event_groups.c ****             configASSERT( ppxEventGroupBuffer );
 1396              		.loc 1 706 13 discriminator 1 view .LVU458
 1397 0016 FFF7FEFF 		bl	HAL_UART_Transmit
 1398              	.LVL175:
 1399              	.L113:
 706:../Core/FreeRTOS-Kernel/event_groups.c ****             configASSERT( ppxEventGroupBuffer );
 1400              		.loc 1 706 13 is_stmt 1 discriminator 1 view .LVU459
 706:../Core/FreeRTOS-Kernel/event_groups.c ****             configASSERT( ppxEventGroupBuffer );
 1401              		.loc 1 706 13 discriminator 1 view .LVU460
 706:../Core/FreeRTOS-Kernel/event_groups.c ****             configASSERT( ppxEventGroupBuffer );
 1402              		.loc 1 706 13 discriminator 1 view .LVU461
 1403 001a FEE7     		b	.L113
 1404              	.LVL176:
 1405              	.L118:
 707:../Core/FreeRTOS-Kernel/event_groups.c **** 
 1406              		.loc 1 707 13 discriminator 1 view .LVU462
 1407 001c 4FF0FF33 		mov	r3, #-1
 1408 0020 0822     		movs	r2, #8
 1409 0022 0249     		ldr	r1, .L119
 1410              	.LVL177:
 707:../Core/FreeRTOS-Kernel/event_groups.c **** 
 1411              		.loc 1 707 13 is_stmt 0 discriminator 1 view .LVU463
 1412 0024 0248     		ldr	r0, .L119+4
 1413              	.LVL178:
 707:../Core/FreeRTOS-Kernel/event_groups.c **** 
 1414              		.loc 1 707 13 discriminator 1 view .LVU464
 1415 0026 FFF7FEFF 		bl	HAL_UART_Transmit
 1416              	.LVL179:
 1417              	.L115:
 707:../Core/FreeRTOS-Kernel/event_groups.c **** 
 1418              		.loc 1 707 13 is_stmt 1 discriminator 2 view .LVU465
 707:../Core/FreeRTOS-Kernel/event_groups.c **** 
 1419              		.loc 1 707 13 discriminator 2 view .LVU466
 707:../Core/FreeRTOS-Kernel/event_groups.c **** 
 1420              		.loc 1 707 13 discriminator 2 view .LVU467
ARM GAS  /tmp/ccZFpcdw.s 			page 52


 1421 002a FEE7     		b	.L115
 1422              	.L120:
 1423              		.align	2
 1424              	.L119:
 1425 002c 00000000 		.word	.LC0
 1426 0030 00000000 		.word	huart2
 1427              		.cfi_endproc
 1428              	.LFE156:
 1430              		.section	.text.xEventGroupSetBitsFromISR,"ax",%progbits
 1431              		.align	1
 1432              		.global	xEventGroupSetBitsFromISR
 1433              		.syntax unified
 1434              		.thumb
 1435              		.thumb_func
 1436              		.fpu fpv5-d16
 1438              	xEventGroupSetBitsFromISR:
 1439              	.LVL180:
 1440              	.LFB160:
 810:../Core/FreeRTOS-Kernel/event_groups.c **** /*-----------------------------------------------------------*/
 811:../Core/FreeRTOS-Kernel/event_groups.c **** 
 812:../Core/FreeRTOS-Kernel/event_groups.c ****     #if ( ( configUSE_TRACE_FACILITY == 1 ) && ( INCLUDE_xTimerPendFunctionCall == 1 ) && ( configU
 813:../Core/FreeRTOS-Kernel/event_groups.c **** 
 814:../Core/FreeRTOS-Kernel/event_groups.c ****         BaseType_t xEventGroupSetBitsFromISR( EventGroupHandle_t xEventGroup,
 815:../Core/FreeRTOS-Kernel/event_groups.c ****                                               const EventBits_t uxBitsToSet,
 816:../Core/FreeRTOS-Kernel/event_groups.c ****                                               BaseType_t * pxHigherPriorityTaskWoken )
 817:../Core/FreeRTOS-Kernel/event_groups.c ****         {
 1441              		.loc 1 817 9 view -0
 1442              		.cfi_startproc
 1443              		@ args = 0, pretend = 0, frame = 0
 1444              		@ frame_needed = 0, uses_anonymous_args = 0
 1445              		.loc 1 817 9 is_stmt 0 view .LVU469
 1446 0000 08B5     		push	{r3, lr}
 1447              	.LCFI12:
 1448              		.cfi_def_cfa_offset 8
 1449              		.cfi_offset 3, -8
 1450              		.cfi_offset 14, -4
 1451 0002 1346     		mov	r3, r2
 818:../Core/FreeRTOS-Kernel/event_groups.c ****             BaseType_t xReturn;
 1452              		.loc 1 818 13 is_stmt 1 view .LVU470
 819:../Core/FreeRTOS-Kernel/event_groups.c **** 
 820:../Core/FreeRTOS-Kernel/event_groups.c ****             traceENTER_xEventGroupSetBitsFromISR( xEventGroup, uxBitsToSet, pxHigherPriorityTaskWok
 1453              		.loc 1 820 104 view .LVU471
 821:../Core/FreeRTOS-Kernel/event_groups.c **** 
 822:../Core/FreeRTOS-Kernel/event_groups.c ****             traceEVENT_GROUP_SET_BITS_FROM_ISR( xEventGroup, uxBitsToSet );
 1454              		.loc 1 822 75 view .LVU472
 823:../Core/FreeRTOS-Kernel/event_groups.c ****             xReturn = xTimerPendFunctionCallFromISR( vEventGroupSetBitsCallback, ( void * ) xEventG
 1455              		.loc 1 823 13 view .LVU473
 1456              		.loc 1 823 23 is_stmt 0 view .LVU474
 1457 0004 0A46     		mov	r2, r1
 1458              	.LVL181:
 1459              		.loc 1 823 23 view .LVU475
 1460 0006 0146     		mov	r1, r0
 1461              	.LVL182:
 1462              		.loc 1 823 23 view .LVU476
 1463 0008 0148     		ldr	r0, .L123
 1464              	.LVL183:
 1465              		.loc 1 823 23 view .LVU477
ARM GAS  /tmp/ccZFpcdw.s 			page 53


 1466 000a FFF7FEFF 		bl	xTimerPendFunctionCallFromISR
 1467              	.LVL184:
 824:../Core/FreeRTOS-Kernel/event_groups.c **** 
 825:../Core/FreeRTOS-Kernel/event_groups.c ****             traceRETURN_xEventGroupSetBitsFromISR( xReturn );
 1468              		.loc 1 825 61 is_stmt 1 view .LVU478
 826:../Core/FreeRTOS-Kernel/event_groups.c **** 
 827:../Core/FreeRTOS-Kernel/event_groups.c ****             return xReturn;
 1469              		.loc 1 827 13 view .LVU479
 828:../Core/FreeRTOS-Kernel/event_groups.c ****         }
 1470              		.loc 1 828 9 is_stmt 0 view .LVU480
 1471 000e 08BD     		pop	{r3, pc}
 1472              	.L124:
 1473              		.align	2
 1474              	.L123:
 1475 0010 00000000 		.word	vEventGroupSetBitsCallback
 1476              		.cfi_endproc
 1477              	.LFE160:
 1479              		.section	.text.uxEventGroupGetNumber,"ax",%progbits
 1480              		.align	1
 1481              		.global	uxEventGroupGetNumber
 1482              		.syntax unified
 1483              		.thumb
 1484              		.thumb_func
 1485              		.fpu fpv5-d16
 1487              	uxEventGroupGetNumber:
 1488              	.LVL185:
 1489              	.LFB161:
 829:../Core/FreeRTOS-Kernel/event_groups.c **** 
 830:../Core/FreeRTOS-Kernel/event_groups.c ****     #endif /* if ( ( configUSE_TRACE_FACILITY == 1 ) && ( INCLUDE_xTimerPendFunctionCall == 1 ) && 
 831:../Core/FreeRTOS-Kernel/event_groups.c **** /*-----------------------------------------------------------*/
 832:../Core/FreeRTOS-Kernel/event_groups.c **** 
 833:../Core/FreeRTOS-Kernel/event_groups.c ****     #if ( configUSE_TRACE_FACILITY == 1 )
 834:../Core/FreeRTOS-Kernel/event_groups.c **** 
 835:../Core/FreeRTOS-Kernel/event_groups.c ****         UBaseType_t uxEventGroupGetNumber( void * xEventGroup )
 836:../Core/FreeRTOS-Kernel/event_groups.c ****         {
 1490              		.loc 1 836 9 is_stmt 1 view -0
 1491              		.cfi_startproc
 1492              		@ args = 0, pretend = 0, frame = 0
 1493              		@ frame_needed = 0, uses_anonymous_args = 0
 1494              		@ link register save eliminated.
 837:../Core/FreeRTOS-Kernel/event_groups.c ****             UBaseType_t xReturn;
 1495              		.loc 1 837 13 view .LVU482
 838:../Core/FreeRTOS-Kernel/event_groups.c **** 
 839:../Core/FreeRTOS-Kernel/event_groups.c ****             /* MISRA Ref 11.5.2 [Opaque pointer] */
 840:../Core/FreeRTOS-Kernel/event_groups.c ****             /* More details at: https://github.com/FreeRTOS/FreeRTOS-Kernel/blob/main/MISRA.md#rule
 841:../Core/FreeRTOS-Kernel/event_groups.c ****             /* coverity[misra_c_2012_rule_11_5_violation] */
 842:../Core/FreeRTOS-Kernel/event_groups.c ****             EventGroup_t const * pxEventBits = ( EventGroup_t * ) xEventGroup;
 1496              		.loc 1 842 13 view .LVU483
 843:../Core/FreeRTOS-Kernel/event_groups.c **** 
 844:../Core/FreeRTOS-Kernel/event_groups.c ****             traceENTER_uxEventGroupGetNumber( xEventGroup );
 1497              		.loc 1 844 60 view .LVU484
 845:../Core/FreeRTOS-Kernel/event_groups.c **** 
 846:../Core/FreeRTOS-Kernel/event_groups.c ****             if( xEventGroup == NULL )
 1498              		.loc 1 846 13 view .LVU485
 1499              		.loc 1 846 15 is_stmt 0 view .LVU486
 1500 0000 08B1     		cbz	r0, .L127
 847:../Core/FreeRTOS-Kernel/event_groups.c ****             {
ARM GAS  /tmp/ccZFpcdw.s 			page 54


 848:../Core/FreeRTOS-Kernel/event_groups.c ****                 xReturn = 0;
 849:../Core/FreeRTOS-Kernel/event_groups.c ****             }
 850:../Core/FreeRTOS-Kernel/event_groups.c ****             else
 851:../Core/FreeRTOS-Kernel/event_groups.c ****             {
 852:../Core/FreeRTOS-Kernel/event_groups.c ****                 xReturn = pxEventBits->uxEventGroupNumber;
 1501              		.loc 1 852 17 is_stmt 1 view .LVU487
 1502              		.loc 1 852 25 is_stmt 0 view .LVU488
 1503 0002 8069     		ldr	r0, [r0, #24]
 1504              	.LVL186:
 1505              		.loc 1 852 25 view .LVU489
 1506 0004 7047     		bx	lr
 1507              	.LVL187:
 1508              	.L127:
 848:../Core/FreeRTOS-Kernel/event_groups.c ****             }
 1509              		.loc 1 848 25 view .LVU490
 1510 0006 0020     		movs	r0, #0
 1511              	.LVL188:
 853:../Core/FreeRTOS-Kernel/event_groups.c ****             }
 854:../Core/FreeRTOS-Kernel/event_groups.c **** 
 855:../Core/FreeRTOS-Kernel/event_groups.c ****             traceRETURN_uxEventGroupGetNumber( xReturn );
 1512              		.loc 1 855 57 is_stmt 1 view .LVU491
 856:../Core/FreeRTOS-Kernel/event_groups.c **** 
 857:../Core/FreeRTOS-Kernel/event_groups.c ****             return xReturn;
 1513              		.loc 1 857 13 view .LVU492
 858:../Core/FreeRTOS-Kernel/event_groups.c ****         }
 1514              		.loc 1 858 9 is_stmt 0 view .LVU493
 1515 0008 7047     		bx	lr
 1516              		.cfi_endproc
 1517              	.LFE161:
 1519              		.section	.text.vEventGroupSetNumber,"ax",%progbits
 1520              		.align	1
 1521              		.global	vEventGroupSetNumber
 1522              		.syntax unified
 1523              		.thumb
 1524              		.thumb_func
 1525              		.fpu fpv5-d16
 1527              	vEventGroupSetNumber:
 1528              	.LVL189:
 1529              	.LFB162:
 859:../Core/FreeRTOS-Kernel/event_groups.c **** 
 860:../Core/FreeRTOS-Kernel/event_groups.c ****     #endif /* configUSE_TRACE_FACILITY */
 861:../Core/FreeRTOS-Kernel/event_groups.c **** /*-----------------------------------------------------------*/
 862:../Core/FreeRTOS-Kernel/event_groups.c **** 
 863:../Core/FreeRTOS-Kernel/event_groups.c ****     #if ( configUSE_TRACE_FACILITY == 1 )
 864:../Core/FreeRTOS-Kernel/event_groups.c **** 
 865:../Core/FreeRTOS-Kernel/event_groups.c ****         void vEventGroupSetNumber( void * xEventGroup,
 866:../Core/FreeRTOS-Kernel/event_groups.c ****                                    UBaseType_t uxEventGroupNumber )
 867:../Core/FreeRTOS-Kernel/event_groups.c ****         {
 1530              		.loc 1 867 9 is_stmt 1 view -0
 1531              		.cfi_startproc
 1532              		@ args = 0, pretend = 0, frame = 0
 1533              		@ frame_needed = 0, uses_anonymous_args = 0
 1534              		@ link register save eliminated.
 868:../Core/FreeRTOS-Kernel/event_groups.c ****             traceENTER_vEventGroupSetNumber( xEventGroup, uxEventGroupNumber );
 1535              		.loc 1 868 79 view .LVU495
 869:../Core/FreeRTOS-Kernel/event_groups.c **** 
 870:../Core/FreeRTOS-Kernel/event_groups.c ****             /* MISRA Ref 11.5.2 [Opaque pointer] */
ARM GAS  /tmp/ccZFpcdw.s 			page 55


 871:../Core/FreeRTOS-Kernel/event_groups.c ****             /* More details at: https://github.com/FreeRTOS/FreeRTOS-Kernel/blob/main/MISRA.md#rule
 872:../Core/FreeRTOS-Kernel/event_groups.c ****             /* coverity[misra_c_2012_rule_11_5_violation] */
 873:../Core/FreeRTOS-Kernel/event_groups.c ****             ( ( EventGroup_t * ) xEventGroup )->uxEventGroupNumber = uxEventGroupNumber;
 1536              		.loc 1 873 13 view .LVU496
 1537              		.loc 1 873 68 is_stmt 0 view .LVU497
 1538 0000 8161     		str	r1, [r0, #24]
 874:../Core/FreeRTOS-Kernel/event_groups.c **** 
 875:../Core/FreeRTOS-Kernel/event_groups.c ****             traceRETURN_vEventGroupSetNumber();
 1539              		.loc 1 875 47 is_stmt 1 view .LVU498
 876:../Core/FreeRTOS-Kernel/event_groups.c ****         }
 1540              		.loc 1 876 9 is_stmt 0 view .LVU499
 1541 0002 7047     		bx	lr
 1542              		.cfi_endproc
 1543              	.LFE162:
 1545              		.text
 1546              	.Letext0:
 1547              		.file 3 "/usr/lib/gcc/arm-none-eabi/10.3.1/include/stddef.h"
 1548              		.file 4 "/usr/lib/gcc/arm-none-eabi/10.3.1/include/stdint.h"
 1549              		.file 5 "Drivers/CMSIS/Device/ST/STM32H7xx/Include/stm32h725xx.h"
 1550              		.file 6 "Drivers/STM32H7xx_HAL_Driver/Inc/stm32h7xx_hal_def.h"
 1551              		.file 7 "Drivers/STM32H7xx_HAL_Driver/Inc/stm32h7xx_hal_dma.h"
 1552              		.file 8 "Drivers/STM32H7xx_HAL_Driver/Inc/stm32h7xx_hal_uart.h"
 1553              		.file 9 "../Core/FreeRTOS-Kernel/include/FreeRTOS.h"
 1554              		.file 10 "../Core/FreeRTOS-Kernel/include/list.h"
 1555              		.file 11 "../Core/FreeRTOS-Kernel/include/event_groups.h"
 1556              		.file 12 "../Core/Include/FreeRTOSConfig.h"
 1557              		.file 13 "../Core/FreeRTOS-Kernel/include/timers.h"
 1558              		.file 14 "../Core/FreeRTOS-Kernel/include/task.h"
ARM GAS  /tmp/ccZFpcdw.s 			page 56

