ARM GAS  /tmp/ccs584qG.s 			page 1


   1              		.cpu cortex-m7
   2              		.eabi_attribute 28, 1
   3              		.eabi_attribute 20, 1
   4              		.eabi_attribute 21, 1
   5              		.eabi_attribute 23, 3
   6              		.eabi_attribute 24, 1
   7              		.eabi_attribute 25, 1
   8              		.eabi_attribute 26, 1
   9              		.eabi_attribute 30, 1
  10              		.eabi_attribute 34, 1
  11              		.eabi_attribute 18, 4
  12              		.file	"main.c"
  13              		.text
  14              	.Ltext0:
  15              		.cfi_sections	.debug_frame
  16              		.section	.text.MX_GPIO_Init,"ax",%progbits
  17              		.align	1
  18              		.arch armv7e-m
  19              		.syntax unified
  20              		.thumb
  21              		.thumb_func
  22              		.fpu fpv5-d16
  24              	MX_GPIO_Init:
  25              	.LFB159:
  26              		.file 1 "Core/Src/main.c"
   1:Core/Src/main.c **** /* USER CODE BEGIN Header */
   2:Core/Src/main.c **** /**
   3:Core/Src/main.c ****   ******************************************************************************
   4:Core/Src/main.c ****   * @file           : main.c
   5:Core/Src/main.c ****   * @brief          : Main program body
   6:Core/Src/main.c ****   ******************************************************************************
   7:Core/Src/main.c ****   * @attention
   8:Core/Src/main.c ****   *
   9:Core/Src/main.c ****   * Copyright (c) 2024 STMicroelectronics.
  10:Core/Src/main.c ****   * All rights reserved.
  11:Core/Src/main.c ****   *
  12:Core/Src/main.c ****   * This software is licensed under terms that can be found in the LICENSE file
  13:Core/Src/main.c ****   * in the root directory of this software component.
  14:Core/Src/main.c ****   * If no LICENSE file comes with this software, it is provided AS-IS.
  15:Core/Src/main.c ****   *
  16:Core/Src/main.c ****   ******************************************************************************
  17:Core/Src/main.c ****   */
  18:Core/Src/main.c **** /* USER CODE END Header */
  19:Core/Src/main.c **** /* Includes ------------------------------------------------------------------*/
  20:Core/Src/main.c **** #include "main.h"
  21:Core/Src/main.c **** #include "fatfs.h"
  22:Core/Src/main.c **** 
  23:Core/Src/main.c **** /* Private includes ----------------------------------------------------------*/
  24:Core/Src/main.c **** /* USER CODE BEGIN Includes */
  25:Core/Src/main.c **** #include "packet_encode.h"
  26:Core/Src/main.c **** #include "protocol.h"
  27:Core/Src/main.c **** #include "port_layer.h"
  28:Core/Src/main.c **** #include "string.h"
  29:Core/Src/main.c **** #include "stdio.h"
  30:Core/Src/main.c **** /* USER CODE END Includes */
  31:Core/Src/main.c **** 
  32:Core/Src/main.c **** /* Private typedef -----------------------------------------------------------*/
ARM GAS  /tmp/ccs584qG.s 			page 2


  33:Core/Src/main.c **** /* USER CODE BEGIN PTD */
  34:Core/Src/main.c **** 
  35:Core/Src/main.c **** /* USER CODE END PTD */
  36:Core/Src/main.c **** 
  37:Core/Src/main.c **** /* Private define ------------------------------------------------------------*/
  38:Core/Src/main.c **** /* USER CODE BEGIN PD */
  39:Core/Src/main.c **** #define MESSAGE_MAX_SIZE 32
  40:Core/Src/main.c **** /* USER CODE END PD */
  41:Core/Src/main.c **** 
  42:Core/Src/main.c **** /* Private macro -------------------------------------------------------------*/
  43:Core/Src/main.c **** /* USER CODE BEGIN PM */
  44:Core/Src/main.c **** 
  45:Core/Src/main.c **** /* USER CODE END PM */
  46:Core/Src/main.c **** 
  47:Core/Src/main.c **** /* Private variables ---------------------------------------------------------*/
  48:Core/Src/main.c **** 
  49:Core/Src/main.c **** OSPI_HandleTypeDef hospi1;
  50:Core/Src/main.c **** 
  51:Core/Src/main.c **** SPI_HandleTypeDef hspi1;
  52:Core/Src/main.c **** 
  53:Core/Src/main.c **** UART_HandleTypeDef huart4;
  54:Core/Src/main.c **** UART_HandleTypeDef huart5;
  55:Core/Src/main.c **** UART_HandleTypeDef huart2;
  56:Core/Src/main.c **** DMA_HandleTypeDef hdma_uart4_tx;
  57:Core/Src/main.c **** 
  58:Core/Src/main.c **** /* USER CODE BEGIN PV */
  59:Core/Src/main.c **** uint8_t messages_recieved = 0;
  60:Core/Src/main.c **** uint8_t message_buffer[MESSAGE_MAX_SIZE];
  61:Core/Src/main.c **** uint16_t message_buffer_size = 0;
  62:Core/Src/main.c **** uint8_t rx_buffer[MESSAGE_MAX_SIZE];
  63:Core/Src/main.c **** uint8_t ack_packet_buffer[MESSAGE_MAX_SIZE];
  64:Core/Src/main.c **** uint16_t ack_packet_size = 0;
  65:Core/Src/main.c **** uint16_t prev_size = 0;
  66:Core/Src/main.c **** uint16_t n_bytes_received = 0;
  67:Core/Src/main.c **** uint16_t n_times_recieved = 0;
  68:Core/Src/main.c **** /* USER CODE END PV */
  69:Core/Src/main.c **** 
  70:Core/Src/main.c **** /* Private function prototypes -----------------------------------------------*/
  71:Core/Src/main.c **** void SystemClock_Config(void);
  72:Core/Src/main.c **** static void MX_GPIO_Init(void);
  73:Core/Src/main.c **** static void MX_DMA_Init(void);
  74:Core/Src/main.c **** static void MX_SPI1_Init(void);
  75:Core/Src/main.c **** static void MX_UART4_Init(void);
  76:Core/Src/main.c **** static void MX_UART5_Init(void);
  77:Core/Src/main.c **** static void MX_USART2_UART_Init(void);
  78:Core/Src/main.c **** static void MX_OCTOSPI1_Init(void);
  79:Core/Src/main.c **** /* USER CODE BEGIN PFP */
  80:Core/Src/main.c **** 
  81:Core/Src/main.c **** /* USER CODE END PFP */
  82:Core/Src/main.c **** 
  83:Core/Src/main.c **** /* Private user code ---------------------------------------------------------*/
  84:Core/Src/main.c **** /* USER CODE BEGIN 0 */
  85:Core/Src/main.c **** 
  86:Core/Src/main.c **** /* USER CODE END 0 */
  87:Core/Src/main.c **** 
  88:Core/Src/main.c **** /**
  89:Core/Src/main.c ****   * @brief  The application entry point.
ARM GAS  /tmp/ccs584qG.s 			page 3


  90:Core/Src/main.c ****   * @retval int
  91:Core/Src/main.c ****   */
  92:Core/Src/main.c **** 
  93:Core/Src/main.c **** int main(void)
  94:Core/Src/main.c **** {
  95:Core/Src/main.c **** 
  96:Core/Src/main.c ****   /* USER CODE BEGIN 1 */
  97:Core/Src/main.c **** 
  98:Core/Src/main.c ****   /* USER CODE END 1 */
  99:Core/Src/main.c **** 
 100:Core/Src/main.c ****   /* MCU Configuration--------------------------------------------------------*/
 101:Core/Src/main.c **** 
 102:Core/Src/main.c ****   /* Reset of all peripherals, Initializes the Flash interface and the Systick. */
 103:Core/Src/main.c ****   HAL_Init();
 104:Core/Src/main.c **** 
 105:Core/Src/main.c ****   /* USER CODE BEGIN Init */
 106:Core/Src/main.c **** 
 107:Core/Src/main.c ****   /* USER CODE END Init */
 108:Core/Src/main.c **** 
 109:Core/Src/main.c ****   /* Configure the system clock */
 110:Core/Src/main.c ****   SystemClock_Config();
 111:Core/Src/main.c **** 
 112:Core/Src/main.c ****   /* USER CODE BEGIN SysInit */
 113:Core/Src/main.c **** 
 114:Core/Src/main.c ****   /* USER CODE END SysInit */
 115:Core/Src/main.c **** 
 116:Core/Src/main.c ****   /* Initialize all configured peripherals */
 117:Core/Src/main.c ****   MX_GPIO_Init();
 118:Core/Src/main.c ****   MX_DMA_Init();
 119:Core/Src/main.c ****   MX_SPI1_Init();
 120:Core/Src/main.c ****   MX_UART4_Init();
 121:Core/Src/main.c ****   MX_UART5_Init();
 122:Core/Src/main.c ****   MX_USART2_UART_Init();
 123:Core/Src/main.c ****   MX_FATFS_Init();
 124:Core/Src/main.c ****   MX_OCTOSPI1_Init();
 125:Core/Src/main.c ****   /* USER CODE BEGIN 2 */
 126:Core/Src/main.c ****   if (port_init()) {
 127:Core/Src/main.c ****     HAL_UART_Transmit(&debug_uart, "Port init success\r\n", 19, HAL_MAX_DELAY);
 128:Core/Src/main.c ****   } else {
 129:Core/Src/main.c ****     HAL_UART_Transmit(&debug_uart, "Port init failed\r\n", 18, HAL_MAX_DELAY);
 130:Core/Src/main.c ****   }
 131:Core/Src/main.c ****   port_start();
 132:Core/Src/main.c ****   //HAL_UARTEx_ReceiveToIdle_IT(&huart4, rx_buffer, MESSAGE_MAX_SIZE);
 133:Core/Src/main.c **** 
 134:Core/Src/main.c ****   /*
 135:Core/Src/main.c ****   struct RocketStateVector state = {
 136:Core/Src/main.c ****     .velocity_x = 1.0,
 137:Core/Src/main.c ****     .velocity_y = 2.0,
 138:Core/Src/main.c ****     .velocity_z = 3.0,
 139:Core/Src/main.c ****     .attitude_w = 4.0,
 140:Core/Src/main.c ****     .attitude_x = 5.0,
 141:Core/Src/main.c ****     .attitude_y = 6.0,
 142:Core/Src/main.c ****     .attitude_z = 7.0,
 143:Core/Src/main.c ****     .position_x = 8.0,
 144:Core/Src/main.c ****     .position_y = 9.0,
 145:Core/Src/main.c ****     .position_z = 10.0,
 146:Core/Src/main.c ****     .timestamp = 12345
ARM GAS  /tmp/ccs584qG.s 			page 4


 147:Core/Src/main.c ****   };
 148:Core/Src/main.c **** 
 149:Core/Src/main.c ****   uint8_t encoded[48];
 150:Core/Src/main.c ****   RocketStateVector_encode(&state, encoded);
 151:Core/Src/main.c **** 
 152:Core/Src/main.c ****   uint8_t packetized[48+5];
 153:Core/Src/main.c ****   generate_packet(encoded, 48, packetized, ROCKETSTATEVECTOR_MSG_ID);
 154:Core/Src/main.c **** 
 155:Core/Src/main.c ****   HAL_UART_Transmit_IT(&huart4, packetized, 48+5);
 156:Core/Src/main.c ****   */
 157:Core/Src/main.c ****   /* USER CODE END 2 */
 158:Core/Src/main.c **** 
 159:Core/Src/main.c ****   /* Infinite loop */
 160:Core/Src/main.c ****   /* USER CODE BEGIN WHILE */
 161:Core/Src/main.c ****   while (1)
 162:Core/Src/main.c ****   {
 163:Core/Src/main.c ****     /* USER CODE END WHILE */
 164:Core/Src/main.c **** 
 165:Core/Src/main.c ****     /* USER CODE BEGIN 3 */
 166:Core/Src/main.c ****     
 167:Core/Src/main.c ****     char buf[40];
 168:Core/Src/main.c ****     sprintf(buf, "Received: %d %d %d\r\n", n_bytes_received, n_times_recieved, messages_recieved);
 169:Core/Src/main.c ****     HAL_UART_Transmit(&debug_uart, buf, strlen(buf), HAL_MAX_DELAY);
 170:Core/Src/main.c ****     HAL_Delay(100);
 171:Core/Src/main.c **** 
 172:Core/Src/main.c ****     if (ack_packet_size != 0) {
 173:Core/Src/main.c ****       HAL_UART_Transmit_IT(&huart4, ack_packet_buffer, ack_packet_size);
 174:Core/Src/main.c ****       ack_packet_size = 0;
 175:Core/Src/main.c ****     }
 176:Core/Src/main.c ****     
 177:Core/Src/main.c ****   }
 178:Core/Src/main.c ****   /* USER CODE END 3 */
 179:Core/Src/main.c **** }
 180:Core/Src/main.c **** 
 181:Core/Src/main.c **** /**
 182:Core/Src/main.c ****   * @brief System Clock Configuration
 183:Core/Src/main.c ****   * @retval None
 184:Core/Src/main.c ****   */
 185:Core/Src/main.c **** void SystemClock_Config(void)
 186:Core/Src/main.c **** {
 187:Core/Src/main.c ****   RCC_OscInitTypeDef RCC_OscInitStruct = {0};
 188:Core/Src/main.c ****   RCC_ClkInitTypeDef RCC_ClkInitStruct = {0};
 189:Core/Src/main.c **** 
 190:Core/Src/main.c ****   /** Supply configuration update enable
 191:Core/Src/main.c ****   */
 192:Core/Src/main.c ****   HAL_PWREx_ConfigSupply(PWR_LDO_SUPPLY);
 193:Core/Src/main.c **** 
 194:Core/Src/main.c ****   /** Configure the main internal regulator output voltage
 195:Core/Src/main.c ****   */
 196:Core/Src/main.c ****   __HAL_PWR_VOLTAGESCALING_CONFIG(PWR_REGULATOR_VOLTAGE_SCALE2);
 197:Core/Src/main.c **** 
 198:Core/Src/main.c ****   while(!__HAL_PWR_GET_FLAG(PWR_FLAG_VOSRDY)) {}
 199:Core/Src/main.c **** 
 200:Core/Src/main.c ****   /** Initializes the RCC Oscillators according to the specified parameters
 201:Core/Src/main.c ****   * in the RCC_OscInitTypeDef structure.
 202:Core/Src/main.c ****   */
 203:Core/Src/main.c ****   RCC_OscInitStruct.OscillatorType = RCC_OSCILLATORTYPE_HSE;
ARM GAS  /tmp/ccs584qG.s 			page 5


 204:Core/Src/main.c ****   RCC_OscInitStruct.HSEState = RCC_HSE_ON;
 205:Core/Src/main.c ****   RCC_OscInitStruct.PLL.PLLState = RCC_PLL_ON;
 206:Core/Src/main.c ****   RCC_OscInitStruct.PLL.PLLSource = RCC_PLLSOURCE_HSE;
 207:Core/Src/main.c ****   RCC_OscInitStruct.PLL.PLLM = 1;
 208:Core/Src/main.c ****   RCC_OscInitStruct.PLL.PLLN = 24;
 209:Core/Src/main.c ****   RCC_OscInitStruct.PLL.PLLP = 1;
 210:Core/Src/main.c ****   RCC_OscInitStruct.PLL.PLLQ = 2;
 211:Core/Src/main.c ****   RCC_OscInitStruct.PLL.PLLR = 2;
 212:Core/Src/main.c ****   RCC_OscInitStruct.PLL.PLLRGE = RCC_PLL1VCIRANGE_3;
 213:Core/Src/main.c ****   RCC_OscInitStruct.PLL.PLLVCOSEL = RCC_PLL1VCOWIDE;
 214:Core/Src/main.c ****   RCC_OscInitStruct.PLL.PLLFRACN = 0;
 215:Core/Src/main.c ****   if (HAL_RCC_OscConfig(&RCC_OscInitStruct) != HAL_OK)
 216:Core/Src/main.c ****   {
 217:Core/Src/main.c ****     Error_Handler();
 218:Core/Src/main.c ****   }
 219:Core/Src/main.c **** 
 220:Core/Src/main.c ****   /** Initializes the CPU, AHB and APB buses clocks
 221:Core/Src/main.c ****   */
 222:Core/Src/main.c ****   RCC_ClkInitStruct.ClockType = RCC_CLOCKTYPE_HCLK|RCC_CLOCKTYPE_SYSCLK
 223:Core/Src/main.c ****                               |RCC_CLOCKTYPE_PCLK1|RCC_CLOCKTYPE_PCLK2
 224:Core/Src/main.c ****                               |RCC_CLOCKTYPE_D3PCLK1|RCC_CLOCKTYPE_D1PCLK1;
 225:Core/Src/main.c ****   RCC_ClkInitStruct.SYSCLKSource = RCC_SYSCLKSOURCE_PLLCLK;
 226:Core/Src/main.c ****   RCC_ClkInitStruct.SYSCLKDivider = RCC_SYSCLK_DIV1;
 227:Core/Src/main.c ****   RCC_ClkInitStruct.AHBCLKDivider = RCC_HCLK_DIV2;
 228:Core/Src/main.c ****   RCC_ClkInitStruct.APB3CLKDivider = RCC_APB3_DIV1;
 229:Core/Src/main.c ****   RCC_ClkInitStruct.APB1CLKDivider = RCC_APB1_DIV2;
 230:Core/Src/main.c ****   RCC_ClkInitStruct.APB2CLKDivider = RCC_APB2_DIV1;
 231:Core/Src/main.c ****   RCC_ClkInitStruct.APB4CLKDivider = RCC_APB4_DIV1;
 232:Core/Src/main.c **** 
 233:Core/Src/main.c ****   if (HAL_RCC_ClockConfig(&RCC_ClkInitStruct, FLASH_LATENCY_1) != HAL_OK)
 234:Core/Src/main.c ****   {
 235:Core/Src/main.c ****     Error_Handler();
 236:Core/Src/main.c ****   }
 237:Core/Src/main.c **** }
 238:Core/Src/main.c **** 
 239:Core/Src/main.c **** /**
 240:Core/Src/main.c ****   * @brief OCTOSPI1 Initialization Function
 241:Core/Src/main.c ****   * @param None
 242:Core/Src/main.c ****   * @retval None
 243:Core/Src/main.c ****   */
 244:Core/Src/main.c **** static void MX_OCTOSPI1_Init(void)
 245:Core/Src/main.c **** {
 246:Core/Src/main.c **** 
 247:Core/Src/main.c ****   /* USER CODE BEGIN OCTOSPI1_Init 0 */
 248:Core/Src/main.c **** 
 249:Core/Src/main.c ****   /* USER CODE END OCTOSPI1_Init 0 */
 250:Core/Src/main.c **** 
 251:Core/Src/main.c ****   OSPIM_CfgTypeDef sOspiManagerCfg = {0};
 252:Core/Src/main.c **** 
 253:Core/Src/main.c ****   /* USER CODE BEGIN OCTOSPI1_Init 1 */
 254:Core/Src/main.c **** 
 255:Core/Src/main.c ****   /* USER CODE END OCTOSPI1_Init 1 */
 256:Core/Src/main.c ****   /* OCTOSPI1 parameter configuration*/
 257:Core/Src/main.c ****   hospi1.Instance = OCTOSPI1;
 258:Core/Src/main.c ****   hospi1.Init.FifoThreshold = 1;
 259:Core/Src/main.c ****   hospi1.Init.DualQuad = HAL_OSPI_DUALQUAD_DISABLE;
 260:Core/Src/main.c ****   hospi1.Init.MemoryType = HAL_OSPI_MEMTYPE_MICRON;
ARM GAS  /tmp/ccs584qG.s 			page 6


 261:Core/Src/main.c ****   hospi1.Init.DeviceSize = 24;
 262:Core/Src/main.c ****   hospi1.Init.ChipSelectHighTime = 1;
 263:Core/Src/main.c ****   hospi1.Init.FreeRunningClock = HAL_OSPI_FREERUNCLK_DISABLE;
 264:Core/Src/main.c ****   hospi1.Init.ClockMode = HAL_OSPI_CLOCK_MODE_0;
 265:Core/Src/main.c ****   hospi1.Init.WrapSize = HAL_OSPI_WRAP_NOT_SUPPORTED;
 266:Core/Src/main.c ****   hospi1.Init.ClockPrescaler = 2;
 267:Core/Src/main.c ****   hospi1.Init.SampleShifting = HAL_OSPI_SAMPLE_SHIFTING_NONE;
 268:Core/Src/main.c ****   hospi1.Init.DelayHoldQuarterCycle = HAL_OSPI_DHQC_DISABLE;
 269:Core/Src/main.c ****   hospi1.Init.ChipSelectBoundary = 0;
 270:Core/Src/main.c ****   hospi1.Init.DelayBlockBypass = HAL_OSPI_DELAY_BLOCK_BYPASSED;
 271:Core/Src/main.c ****   hospi1.Init.MaxTran = 0;
 272:Core/Src/main.c ****   hospi1.Init.Refresh = 0;
 273:Core/Src/main.c ****   if (HAL_OSPI_Init(&hospi1) != HAL_OK)
 274:Core/Src/main.c ****   {
 275:Core/Src/main.c ****     Error_Handler();
 276:Core/Src/main.c ****   }
 277:Core/Src/main.c ****   sOspiManagerCfg.ClkPort = 1;
 278:Core/Src/main.c ****   sOspiManagerCfg.IOLowPort = HAL_OSPIM_IOPORT_1_LOW;
 279:Core/Src/main.c ****   if (HAL_OSPIM_Config(&hospi1, &sOspiManagerCfg, HAL_OSPI_TIMEOUT_DEFAULT_VALUE) != HAL_OK)
 280:Core/Src/main.c ****   {
 281:Core/Src/main.c ****     Error_Handler();
 282:Core/Src/main.c ****   }
 283:Core/Src/main.c ****   /* USER CODE BEGIN OCTOSPI1_Init 2 */
 284:Core/Src/main.c **** 
 285:Core/Src/main.c ****   /* USER CODE END OCTOSPI1_Init 2 */
 286:Core/Src/main.c **** 
 287:Core/Src/main.c **** }
 288:Core/Src/main.c **** 
 289:Core/Src/main.c **** /**
 290:Core/Src/main.c ****   * @brief SPI1 Initialization Function
 291:Core/Src/main.c ****   * @param None
 292:Core/Src/main.c ****   * @retval None
 293:Core/Src/main.c ****   */
 294:Core/Src/main.c **** static void MX_SPI1_Init(void)
 295:Core/Src/main.c **** {
 296:Core/Src/main.c **** 
 297:Core/Src/main.c ****   /* USER CODE BEGIN SPI1_Init 0 */
 298:Core/Src/main.c **** 
 299:Core/Src/main.c ****   /* USER CODE END SPI1_Init 0 */
 300:Core/Src/main.c **** 
 301:Core/Src/main.c ****   /* USER CODE BEGIN SPI1_Init 1 */
 302:Core/Src/main.c **** 
 303:Core/Src/main.c ****   /* USER CODE END SPI1_Init 1 */
 304:Core/Src/main.c ****   /* SPI1 parameter configuration*/
 305:Core/Src/main.c ****   hspi1.Instance = SPI1;
 306:Core/Src/main.c ****   hspi1.Init.Mode = SPI_MODE_MASTER;
 307:Core/Src/main.c ****   hspi1.Init.Direction = SPI_DIRECTION_2LINES;
 308:Core/Src/main.c ****   hspi1.Init.DataSize = SPI_DATASIZE_8BIT;
 309:Core/Src/main.c ****   hspi1.Init.CLKPolarity = SPI_POLARITY_LOW;
 310:Core/Src/main.c ****   hspi1.Init.CLKPhase = SPI_PHASE_1EDGE;
 311:Core/Src/main.c ****   hspi1.Init.NSS = SPI_NSS_SOFT;
 312:Core/Src/main.c ****   hspi1.Init.BaudRatePrescaler = SPI_BAUDRATEPRESCALER_16;
 313:Core/Src/main.c ****   hspi1.Init.FirstBit = SPI_FIRSTBIT_MSB;
 314:Core/Src/main.c ****   hspi1.Init.TIMode = SPI_TIMODE_DISABLE;
 315:Core/Src/main.c ****   hspi1.Init.CRCCalculation = SPI_CRCCALCULATION_DISABLE;
 316:Core/Src/main.c ****   hspi1.Init.CRCPolynomial = 0x0;
 317:Core/Src/main.c ****   hspi1.Init.NSSPMode = SPI_NSS_PULSE_ENABLE;
ARM GAS  /tmp/ccs584qG.s 			page 7


 318:Core/Src/main.c ****   hspi1.Init.NSSPolarity = SPI_NSS_POLARITY_LOW;
 319:Core/Src/main.c ****   hspi1.Init.FifoThreshold = SPI_FIFO_THRESHOLD_01DATA;
 320:Core/Src/main.c ****   hspi1.Init.TxCRCInitializationPattern = SPI_CRC_INITIALIZATION_ALL_ZERO_PATTERN;
 321:Core/Src/main.c ****   hspi1.Init.RxCRCInitializationPattern = SPI_CRC_INITIALIZATION_ALL_ZERO_PATTERN;
 322:Core/Src/main.c ****   hspi1.Init.MasterSSIdleness = SPI_MASTER_SS_IDLENESS_00CYCLE;
 323:Core/Src/main.c ****   hspi1.Init.MasterInterDataIdleness = SPI_MASTER_INTERDATA_IDLENESS_00CYCLE;
 324:Core/Src/main.c ****   hspi1.Init.MasterReceiverAutoSusp = SPI_MASTER_RX_AUTOSUSP_DISABLE;
 325:Core/Src/main.c ****   hspi1.Init.MasterKeepIOState = SPI_MASTER_KEEP_IO_STATE_DISABLE;
 326:Core/Src/main.c ****   hspi1.Init.IOSwap = SPI_IO_SWAP_DISABLE;
 327:Core/Src/main.c ****   if (HAL_SPI_Init(&hspi1) != HAL_OK)
 328:Core/Src/main.c ****   {
 329:Core/Src/main.c ****     Error_Handler();
 330:Core/Src/main.c ****   }
 331:Core/Src/main.c ****   /* USER CODE BEGIN SPI1_Init 2 */
 332:Core/Src/main.c **** 
 333:Core/Src/main.c ****   /* USER CODE END SPI1_Init 2 */
 334:Core/Src/main.c **** 
 335:Core/Src/main.c **** }
 336:Core/Src/main.c **** 
 337:Core/Src/main.c **** /**
 338:Core/Src/main.c ****   * @brief UART4 Initialization Function
 339:Core/Src/main.c ****   * @param None
 340:Core/Src/main.c ****   * @retval None
 341:Core/Src/main.c ****   */
 342:Core/Src/main.c **** static void MX_UART4_Init(void)
 343:Core/Src/main.c **** {
 344:Core/Src/main.c **** 
 345:Core/Src/main.c ****   /* USER CODE BEGIN UART4_Init 0 */
 346:Core/Src/main.c **** 
 347:Core/Src/main.c ****   /* USER CODE END UART4_Init 0 */
 348:Core/Src/main.c **** 
 349:Core/Src/main.c ****   /* USER CODE BEGIN UART4_Init 1 */
 350:Core/Src/main.c **** 
 351:Core/Src/main.c ****   /* USER CODE END UART4_Init 1 */
 352:Core/Src/main.c ****   huart4.Instance = UART4;
 353:Core/Src/main.c ****   huart4.Init.BaudRate = 38400;
 354:Core/Src/main.c ****   huart4.Init.WordLength = UART_WORDLENGTH_8B;
 355:Core/Src/main.c ****   huart4.Init.StopBits = UART_STOPBITS_1;
 356:Core/Src/main.c ****   huart4.Init.Parity = UART_PARITY_NONE;
 357:Core/Src/main.c ****   huart4.Init.Mode = UART_MODE_TX_RX;
 358:Core/Src/main.c ****   huart4.Init.HwFlowCtl = UART_HWCONTROL_NONE;
 359:Core/Src/main.c ****   huart4.Init.OverSampling = UART_OVERSAMPLING_16;
 360:Core/Src/main.c ****   huart4.Init.OneBitSampling = UART_ONE_BIT_SAMPLE_DISABLE;
 361:Core/Src/main.c ****   huart4.Init.ClockPrescaler = UART_PRESCALER_DIV1;
 362:Core/Src/main.c ****   huart4.AdvancedInit.AdvFeatureInit = UART_ADVFEATURE_NO_INIT;
 363:Core/Src/main.c ****   if (HAL_UART_Init(&huart4) != HAL_OK)
 364:Core/Src/main.c ****   {
 365:Core/Src/main.c ****     Error_Handler();
 366:Core/Src/main.c ****   }
 367:Core/Src/main.c ****   if (HAL_UARTEx_SetTxFifoThreshold(&huart4, UART_TXFIFO_THRESHOLD_1_8) != HAL_OK)
 368:Core/Src/main.c ****   {
 369:Core/Src/main.c ****     Error_Handler();
 370:Core/Src/main.c ****   }
 371:Core/Src/main.c ****   if (HAL_UARTEx_SetRxFifoThreshold(&huart4, UART_RXFIFO_THRESHOLD_1_8) != HAL_OK)
 372:Core/Src/main.c ****   {
 373:Core/Src/main.c ****     Error_Handler();
 374:Core/Src/main.c ****   }
ARM GAS  /tmp/ccs584qG.s 			page 8


 375:Core/Src/main.c ****   if (HAL_UARTEx_DisableFifoMode(&huart4) != HAL_OK)
 376:Core/Src/main.c ****   {
 377:Core/Src/main.c ****     Error_Handler();
 378:Core/Src/main.c ****   }
 379:Core/Src/main.c ****   /* USER CODE BEGIN UART4_Init 2 */
 380:Core/Src/main.c **** 
 381:Core/Src/main.c ****   /* USER CODE END UART4_Init 2 */
 382:Core/Src/main.c **** 
 383:Core/Src/main.c **** }
 384:Core/Src/main.c **** 
 385:Core/Src/main.c **** /**
 386:Core/Src/main.c ****   * @brief UART5 Initialization Function
 387:Core/Src/main.c ****   * @param None
 388:Core/Src/main.c ****   * @retval None
 389:Core/Src/main.c ****   */
 390:Core/Src/main.c **** static void MX_UART5_Init(void)
 391:Core/Src/main.c **** {
 392:Core/Src/main.c **** 
 393:Core/Src/main.c ****   /* USER CODE BEGIN UART5_Init 0 */
 394:Core/Src/main.c **** 
 395:Core/Src/main.c ****   /* USER CODE END UART5_Init 0 */
 396:Core/Src/main.c **** 
 397:Core/Src/main.c ****   /* USER CODE BEGIN UART5_Init 1 */
 398:Core/Src/main.c **** 
 399:Core/Src/main.c ****   /* USER CODE END UART5_Init 1 */
 400:Core/Src/main.c ****   huart5.Instance = UART5;
 401:Core/Src/main.c ****   huart5.Init.BaudRate = 115200;
 402:Core/Src/main.c ****   huart5.Init.WordLength = UART_WORDLENGTH_8B;
 403:Core/Src/main.c ****   huart5.Init.StopBits = UART_STOPBITS_1;
 404:Core/Src/main.c ****   huart5.Init.Parity = UART_PARITY_NONE;
 405:Core/Src/main.c ****   huart5.Init.Mode = UART_MODE_TX_RX;
 406:Core/Src/main.c ****   huart5.Init.HwFlowCtl = UART_HWCONTROL_NONE;
 407:Core/Src/main.c ****   huart5.Init.OverSampling = UART_OVERSAMPLING_16;
 408:Core/Src/main.c ****   huart5.Init.OneBitSampling = UART_ONE_BIT_SAMPLE_DISABLE;
 409:Core/Src/main.c ****   huart5.Init.ClockPrescaler = UART_PRESCALER_DIV1;
 410:Core/Src/main.c ****   huart5.AdvancedInit.AdvFeatureInit = UART_ADVFEATURE_NO_INIT;
 411:Core/Src/main.c ****   if (HAL_UART_Init(&huart5) != HAL_OK)
 412:Core/Src/main.c ****   {
 413:Core/Src/main.c ****     Error_Handler();
 414:Core/Src/main.c ****   }
 415:Core/Src/main.c ****   if (HAL_UARTEx_SetTxFifoThreshold(&huart5, UART_TXFIFO_THRESHOLD_1_8) != HAL_OK)
 416:Core/Src/main.c ****   {
 417:Core/Src/main.c ****     Error_Handler();
 418:Core/Src/main.c ****   }
 419:Core/Src/main.c ****   if (HAL_UARTEx_SetRxFifoThreshold(&huart5, UART_RXFIFO_THRESHOLD_1_8) != HAL_OK)
 420:Core/Src/main.c ****   {
 421:Core/Src/main.c ****     Error_Handler();
 422:Core/Src/main.c ****   }
 423:Core/Src/main.c ****   if (HAL_UARTEx_DisableFifoMode(&huart5) != HAL_OK)
 424:Core/Src/main.c ****   {
 425:Core/Src/main.c ****     Error_Handler();
 426:Core/Src/main.c ****   }
 427:Core/Src/main.c ****   /* USER CODE BEGIN UART5_Init 2 */
 428:Core/Src/main.c **** 
 429:Core/Src/main.c ****   /* USER CODE END UART5_Init 2 */
 430:Core/Src/main.c **** 
 431:Core/Src/main.c **** }
ARM GAS  /tmp/ccs584qG.s 			page 9


 432:Core/Src/main.c **** 
 433:Core/Src/main.c **** /**
 434:Core/Src/main.c ****   * @brief USART2 Initialization Function
 435:Core/Src/main.c ****   * @param None
 436:Core/Src/main.c ****   * @retval None
 437:Core/Src/main.c ****   */
 438:Core/Src/main.c **** static void MX_USART2_UART_Init(void)
 439:Core/Src/main.c **** {
 440:Core/Src/main.c **** 
 441:Core/Src/main.c ****   /* USER CODE BEGIN USART2_Init 0 */
 442:Core/Src/main.c **** 
 443:Core/Src/main.c ****   /* USER CODE END USART2_Init 0 */
 444:Core/Src/main.c **** 
 445:Core/Src/main.c ****   /* USER CODE BEGIN USART2_Init 1 */
 446:Core/Src/main.c **** 
 447:Core/Src/main.c ****   /* USER CODE END USART2_Init 1 */
 448:Core/Src/main.c ****   huart2.Instance = USART2;
 449:Core/Src/main.c ****   huart2.Init.BaudRate = 115200;
 450:Core/Src/main.c ****   huart2.Init.WordLength = UART_WORDLENGTH_8B;
 451:Core/Src/main.c ****   huart2.Init.StopBits = UART_STOPBITS_1;
 452:Core/Src/main.c ****   huart2.Init.Parity = UART_PARITY_NONE;
 453:Core/Src/main.c ****   huart2.Init.Mode = UART_MODE_TX_RX;
 454:Core/Src/main.c ****   huart2.Init.HwFlowCtl = UART_HWCONTROL_NONE;
 455:Core/Src/main.c ****   huart2.Init.OverSampling = UART_OVERSAMPLING_16;
 456:Core/Src/main.c ****   huart2.Init.OneBitSampling = UART_ONE_BIT_SAMPLE_DISABLE;
 457:Core/Src/main.c ****   huart2.Init.ClockPrescaler = UART_PRESCALER_DIV1;
 458:Core/Src/main.c ****   huart2.AdvancedInit.AdvFeatureInit = UART_ADVFEATURE_NO_INIT;
 459:Core/Src/main.c ****   if (HAL_UART_Init(&huart2) != HAL_OK)
 460:Core/Src/main.c ****   {
 461:Core/Src/main.c ****     Error_Handler();
 462:Core/Src/main.c ****   }
 463:Core/Src/main.c ****   if (HAL_UARTEx_SetTxFifoThreshold(&huart2, UART_TXFIFO_THRESHOLD_1_8) != HAL_OK)
 464:Core/Src/main.c ****   {
 465:Core/Src/main.c ****     Error_Handler();
 466:Core/Src/main.c ****   }
 467:Core/Src/main.c ****   if (HAL_UARTEx_SetRxFifoThreshold(&huart2, UART_RXFIFO_THRESHOLD_1_8) != HAL_OK)
 468:Core/Src/main.c ****   {
 469:Core/Src/main.c ****     Error_Handler();
 470:Core/Src/main.c ****   }
 471:Core/Src/main.c ****   if (HAL_UARTEx_DisableFifoMode(&huart2) != HAL_OK)
 472:Core/Src/main.c ****   {
 473:Core/Src/main.c ****     Error_Handler();
 474:Core/Src/main.c ****   }
 475:Core/Src/main.c ****   /* USER CODE BEGIN USART2_Init 2 */
 476:Core/Src/main.c **** 
 477:Core/Src/main.c ****   /* USER CODE END USART2_Init 2 */
 478:Core/Src/main.c **** 
 479:Core/Src/main.c **** }
 480:Core/Src/main.c **** 
 481:Core/Src/main.c **** /**
 482:Core/Src/main.c ****   * Enable DMA controller clock
 483:Core/Src/main.c ****   */
 484:Core/Src/main.c **** static void MX_DMA_Init(void)
 485:Core/Src/main.c **** {
 486:Core/Src/main.c **** 
 487:Core/Src/main.c ****   /* DMA controller clock enable */
 488:Core/Src/main.c ****   __HAL_RCC_DMA1_CLK_ENABLE();
ARM GAS  /tmp/ccs584qG.s 			page 10


 489:Core/Src/main.c **** 
 490:Core/Src/main.c ****   /* DMA interrupt init */
 491:Core/Src/main.c ****   /* DMA1_Stream0_IRQn interrupt configuration */
 492:Core/Src/main.c ****   HAL_NVIC_SetPriority(DMA1_Stream0_IRQn, 0, 0);
 493:Core/Src/main.c ****   HAL_NVIC_EnableIRQ(DMA1_Stream0_IRQn);
 494:Core/Src/main.c **** 
 495:Core/Src/main.c **** }
 496:Core/Src/main.c **** 
 497:Core/Src/main.c **** /**
 498:Core/Src/main.c ****   * @brief GPIO Initialization Function
 499:Core/Src/main.c ****   * @param None
 500:Core/Src/main.c ****   * @retval None
 501:Core/Src/main.c ****   */
 502:Core/Src/main.c **** static void MX_GPIO_Init(void)
 503:Core/Src/main.c **** {
  27              		.loc 1 503 1 view -0
  28              		.cfi_startproc
  29              		@ args = 0, pretend = 0, frame = 48
  30              		@ frame_needed = 0, uses_anonymous_args = 0
  31 0000 30B5     		push	{r4, r5, lr}
  32              	.LCFI0:
  33              		.cfi_def_cfa_offset 12
  34              		.cfi_offset 4, -12
  35              		.cfi_offset 5, -8
  36              		.cfi_offset 14, -4
  37 0002 8DB0     		sub	sp, sp, #52
  38              	.LCFI1:
  39              		.cfi_def_cfa_offset 64
 504:Core/Src/main.c ****   GPIO_InitTypeDef GPIO_InitStruct = {0};
  40              		.loc 1 504 3 view .LVU1
  41              		.loc 1 504 20 is_stmt 0 view .LVU2
  42 0004 0024     		movs	r4, #0
  43 0006 0794     		str	r4, [sp, #28]
  44 0008 0894     		str	r4, [sp, #32]
  45 000a 0994     		str	r4, [sp, #36]
  46 000c 0A94     		str	r4, [sp, #40]
  47 000e 0B94     		str	r4, [sp, #44]
 505:Core/Src/main.c **** /* USER CODE BEGIN MX_GPIO_Init_1 */
 506:Core/Src/main.c **** /* USER CODE END MX_GPIO_Init_1 */
 507:Core/Src/main.c **** 
 508:Core/Src/main.c ****   /* GPIO Ports Clock Enable */
 509:Core/Src/main.c ****   __HAL_RCC_GPIOE_CLK_ENABLE();
  48              		.loc 1 509 3 is_stmt 1 view .LVU3
  49              	.LBB4:
  50              		.loc 1 509 3 view .LVU4
  51              		.loc 1 509 3 view .LVU5
  52 0010 344B     		ldr	r3, .L3
  53 0012 D3F8E020 		ldr	r2, [r3, #224]
  54 0016 42F01002 		orr	r2, r2, #16
  55 001a C3F8E020 		str	r2, [r3, #224]
  56              		.loc 1 509 3 view .LVU6
  57 001e D3F8E020 		ldr	r2, [r3, #224]
  58 0022 02F01002 		and	r2, r2, #16
  59 0026 0092     		str	r2, [sp]
  60              		.loc 1 509 3 view .LVU7
  61 0028 009A     		ldr	r2, [sp]
  62              	.LBE4:
ARM GAS  /tmp/ccs584qG.s 			page 11


  63              		.loc 1 509 3 view .LVU8
 510:Core/Src/main.c ****   __HAL_RCC_GPIOH_CLK_ENABLE();
  64              		.loc 1 510 3 view .LVU9
  65              	.LBB5:
  66              		.loc 1 510 3 view .LVU10
  67              		.loc 1 510 3 view .LVU11
  68 002a D3F8E020 		ldr	r2, [r3, #224]
  69 002e 42F08002 		orr	r2, r2, #128
  70 0032 C3F8E020 		str	r2, [r3, #224]
  71              		.loc 1 510 3 view .LVU12
  72 0036 D3F8E020 		ldr	r2, [r3, #224]
  73 003a 02F08002 		and	r2, r2, #128
  74 003e 0192     		str	r2, [sp, #4]
  75              		.loc 1 510 3 view .LVU13
  76 0040 019A     		ldr	r2, [sp, #4]
  77              	.LBE5:
  78              		.loc 1 510 3 view .LVU14
 511:Core/Src/main.c ****   __HAL_RCC_GPIOB_CLK_ENABLE();
  79              		.loc 1 511 3 view .LVU15
  80              	.LBB6:
  81              		.loc 1 511 3 view .LVU16
  82              		.loc 1 511 3 view .LVU17
  83 0042 D3F8E020 		ldr	r2, [r3, #224]
  84 0046 42F00202 		orr	r2, r2, #2
  85 004a C3F8E020 		str	r2, [r3, #224]
  86              		.loc 1 511 3 view .LVU18
  87 004e D3F8E020 		ldr	r2, [r3, #224]
  88 0052 02F00202 		and	r2, r2, #2
  89 0056 0292     		str	r2, [sp, #8]
  90              		.loc 1 511 3 view .LVU19
  91 0058 029A     		ldr	r2, [sp, #8]
  92              	.LBE6:
  93              		.loc 1 511 3 view .LVU20
 512:Core/Src/main.c ****   __HAL_RCC_GPIOD_CLK_ENABLE();
  94              		.loc 1 512 3 view .LVU21
  95              	.LBB7:
  96              		.loc 1 512 3 view .LVU22
  97              		.loc 1 512 3 view .LVU23
  98 005a D3F8E020 		ldr	r2, [r3, #224]
  99 005e 42F00802 		orr	r2, r2, #8
 100 0062 C3F8E020 		str	r2, [r3, #224]
 101              		.loc 1 512 3 view .LVU24
 102 0066 D3F8E020 		ldr	r2, [r3, #224]
 103 006a 02F00802 		and	r2, r2, #8
 104 006e 0392     		str	r2, [sp, #12]
 105              		.loc 1 512 3 view .LVU25
 106 0070 039A     		ldr	r2, [sp, #12]
 107              	.LBE7:
 108              		.loc 1 512 3 view .LVU26
 513:Core/Src/main.c ****   __HAL_RCC_GPIOG_CLK_ENABLE();
 109              		.loc 1 513 3 view .LVU27
 110              	.LBB8:
 111              		.loc 1 513 3 view .LVU28
 112              		.loc 1 513 3 view .LVU29
 113 0072 D3F8E020 		ldr	r2, [r3, #224]
 114 0076 42F04002 		orr	r2, r2, #64
 115 007a C3F8E020 		str	r2, [r3, #224]
ARM GAS  /tmp/ccs584qG.s 			page 12


 116              		.loc 1 513 3 view .LVU30
 117 007e D3F8E020 		ldr	r2, [r3, #224]
 118 0082 02F04002 		and	r2, r2, #64
 119 0086 0492     		str	r2, [sp, #16]
 120              		.loc 1 513 3 view .LVU31
 121 0088 049A     		ldr	r2, [sp, #16]
 122              	.LBE8:
 123              		.loc 1 513 3 view .LVU32
 514:Core/Src/main.c ****   __HAL_RCC_GPIOA_CLK_ENABLE();
 124              		.loc 1 514 3 view .LVU33
 125              	.LBB9:
 126              		.loc 1 514 3 view .LVU34
 127              		.loc 1 514 3 view .LVU35
 128 008a D3F8E020 		ldr	r2, [r3, #224]
 129 008e 42F00102 		orr	r2, r2, #1
 130 0092 C3F8E020 		str	r2, [r3, #224]
 131              		.loc 1 514 3 view .LVU36
 132 0096 D3F8E020 		ldr	r2, [r3, #224]
 133 009a 02F00102 		and	r2, r2, #1
 134 009e 0592     		str	r2, [sp, #20]
 135              		.loc 1 514 3 view .LVU37
 136 00a0 059A     		ldr	r2, [sp, #20]
 137              	.LBE9:
 138              		.loc 1 514 3 view .LVU38
 515:Core/Src/main.c ****   __HAL_RCC_GPIOC_CLK_ENABLE();
 139              		.loc 1 515 3 view .LVU39
 140              	.LBB10:
 141              		.loc 1 515 3 view .LVU40
 142              		.loc 1 515 3 view .LVU41
 143 00a2 D3F8E020 		ldr	r2, [r3, #224]
 144 00a6 42F00402 		orr	r2, r2, #4
 145 00aa C3F8E020 		str	r2, [r3, #224]
 146              		.loc 1 515 3 view .LVU42
 147 00ae D3F8E030 		ldr	r3, [r3, #224]
 148 00b2 03F00403 		and	r3, r3, #4
 149 00b6 0693     		str	r3, [sp, #24]
 150              		.loc 1 515 3 view .LVU43
 151 00b8 069B     		ldr	r3, [sp, #24]
 152              	.LBE10:
 153              		.loc 1 515 3 view .LVU44
 516:Core/Src/main.c **** 
 517:Core/Src/main.c ****   /*Configure GPIO pin Output Level */
 518:Core/Src/main.c ****   HAL_GPIO_WritePin(GPIOG, FLASH_CS_Pin|SD_CS_Pin, GPIO_PIN_SET);
 154              		.loc 1 518 3 view .LVU45
 155 00ba 0B4D     		ldr	r5, .L3+4
 156 00bc 0122     		movs	r2, #1
 157 00be 4FF48861 		mov	r1, #1088
 158 00c2 2846     		mov	r0, r5
 159 00c4 FFF7FEFF 		bl	HAL_GPIO_WritePin
 160              	.LVL0:
 519:Core/Src/main.c **** 
 520:Core/Src/main.c ****   /*Configure GPIO pins : FLASH_CS_Pin SD_CS_Pin */
 521:Core/Src/main.c ****   GPIO_InitStruct.Pin = FLASH_CS_Pin|SD_CS_Pin;
 161              		.loc 1 521 3 view .LVU46
 162              		.loc 1 521 23 is_stmt 0 view .LVU47
 163 00c8 4FF48863 		mov	r3, #1088
 164 00cc 0793     		str	r3, [sp, #28]
ARM GAS  /tmp/ccs584qG.s 			page 13


 522:Core/Src/main.c ****   GPIO_InitStruct.Mode = GPIO_MODE_OUTPUT_PP;
 165              		.loc 1 522 3 is_stmt 1 view .LVU48
 166              		.loc 1 522 24 is_stmt 0 view .LVU49
 167 00ce 0123     		movs	r3, #1
 168 00d0 0893     		str	r3, [sp, #32]
 523:Core/Src/main.c ****   GPIO_InitStruct.Pull = GPIO_NOPULL;
 169              		.loc 1 523 3 is_stmt 1 view .LVU50
 170              		.loc 1 523 24 is_stmt 0 view .LVU51
 171 00d2 0994     		str	r4, [sp, #36]
 524:Core/Src/main.c ****   GPIO_InitStruct.Speed = GPIO_SPEED_FREQ_LOW;
 172              		.loc 1 524 3 is_stmt 1 view .LVU52
 173              		.loc 1 524 25 is_stmt 0 view .LVU53
 174 00d4 0A94     		str	r4, [sp, #40]
 525:Core/Src/main.c ****   HAL_GPIO_Init(GPIOG, &GPIO_InitStruct);
 175              		.loc 1 525 3 is_stmt 1 view .LVU54
 176 00d6 07A9     		add	r1, sp, #28
 177 00d8 2846     		mov	r0, r5
 178 00da FFF7FEFF 		bl	HAL_GPIO_Init
 179              	.LVL1:
 526:Core/Src/main.c **** 
 527:Core/Src/main.c **** /* USER CODE BEGIN MX_GPIO_Init_2 */
 528:Core/Src/main.c **** /* USER CODE END MX_GPIO_Init_2 */
 529:Core/Src/main.c **** }
 180              		.loc 1 529 1 is_stmt 0 view .LVU55
 181 00de 0DB0     		add	sp, sp, #52
 182              	.LCFI2:
 183              		.cfi_def_cfa_offset 12
 184              		@ sp needed
 185 00e0 30BD     		pop	{r4, r5, pc}
 186              	.L4:
 187 00e2 00BF     		.align	2
 188              	.L3:
 189 00e4 00440258 		.word	1476543488
 190 00e8 00180258 		.word	1476532224
 191              		.cfi_endproc
 192              	.LFE159:
 194              		.section	.text.MX_DMA_Init,"ax",%progbits
 195              		.align	1
 196              		.syntax unified
 197              		.thumb
 198              		.thumb_func
 199              		.fpu fpv5-d16
 201              	MX_DMA_Init:
 202              	.LFB158:
 485:Core/Src/main.c **** 
 203              		.loc 1 485 1 is_stmt 1 view -0
 204              		.cfi_startproc
 205              		@ args = 0, pretend = 0, frame = 8
 206              		@ frame_needed = 0, uses_anonymous_args = 0
 207 0000 00B5     		push	{lr}
 208              	.LCFI3:
 209              		.cfi_def_cfa_offset 4
 210              		.cfi_offset 14, -4
 211 0002 83B0     		sub	sp, sp, #12
 212              	.LCFI4:
 213              		.cfi_def_cfa_offset 16
 488:Core/Src/main.c **** 
ARM GAS  /tmp/ccs584qG.s 			page 14


 214              		.loc 1 488 3 view .LVU57
 215              	.LBB11:
 488:Core/Src/main.c **** 
 216              		.loc 1 488 3 view .LVU58
 488:Core/Src/main.c **** 
 217              		.loc 1 488 3 view .LVU59
 218 0004 0B4B     		ldr	r3, .L7
 219 0006 D3F8D820 		ldr	r2, [r3, #216]
 220 000a 42F00102 		orr	r2, r2, #1
 221 000e C3F8D820 		str	r2, [r3, #216]
 488:Core/Src/main.c **** 
 222              		.loc 1 488 3 view .LVU60
 223 0012 D3F8D830 		ldr	r3, [r3, #216]
 224 0016 03F00103 		and	r3, r3, #1
 225 001a 0193     		str	r3, [sp, #4]
 488:Core/Src/main.c **** 
 226              		.loc 1 488 3 view .LVU61
 227 001c 019B     		ldr	r3, [sp, #4]
 228              	.LBE11:
 488:Core/Src/main.c **** 
 229              		.loc 1 488 3 view .LVU62
 492:Core/Src/main.c ****   HAL_NVIC_EnableIRQ(DMA1_Stream0_IRQn);
 230              		.loc 1 492 3 view .LVU63
 231 001e 0022     		movs	r2, #0
 232 0020 1146     		mov	r1, r2
 233 0022 0B20     		movs	r0, #11
 234 0024 FFF7FEFF 		bl	HAL_NVIC_SetPriority
 235              	.LVL2:
 493:Core/Src/main.c **** 
 236              		.loc 1 493 3 view .LVU64
 237 0028 0B20     		movs	r0, #11
 238 002a FFF7FEFF 		bl	HAL_NVIC_EnableIRQ
 239              	.LVL3:
 495:Core/Src/main.c **** 
 240              		.loc 1 495 1 is_stmt 0 view .LVU65
 241 002e 03B0     		add	sp, sp, #12
 242              	.LCFI5:
 243              		.cfi_def_cfa_offset 4
 244              		@ sp needed
 245 0030 5DF804FB 		ldr	pc, [sp], #4
 246              	.L8:
 247              		.align	2
 248              	.L7:
 249 0034 00440258 		.word	1476543488
 250              		.cfi_endproc
 251              	.LFE158:
 253              		.section	.text.HAL_UART_RxCpltCallback,"ax",%progbits
 254              		.align	1
 255              		.global	HAL_UART_RxCpltCallback
 256              		.syntax unified
 257              		.thumb
 258              		.thumb_func
 259              		.fpu fpv5-d16
 261              	HAL_UART_RxCpltCallback:
 262              	.LVL4:
 263              	.LFB160:
 530:Core/Src/main.c **** 
ARM GAS  /tmp/ccs584qG.s 			page 15


 531:Core/Src/main.c **** /* USER CODE BEGIN 4 */
 532:Core/Src/main.c **** void HAL_UART_RxCpltCallback(UART_HandleTypeDef *huart) {
 264              		.loc 1 532 57 is_stmt 1 view -0
 265              		.cfi_startproc
 266              		@ args = 0, pretend = 0, frame = 0
 267              		@ frame_needed = 0, uses_anonymous_args = 0
 268              		@ link register save eliminated.
 533:Core/Src/main.c ****   //HAL_UART_Transmit(&debug_uart, "Received bytes\r\n", 16, HAL_MAX_DELAY);
 534:Core/Src/main.c **** }
 269              		.loc 1 534 1 view .LVU67
 270 0000 7047     		bx	lr
 271              		.cfi_endproc
 272              	.LFE160:
 274              		.section	.text.HAL_TIM_PeriodElapsedCallback,"ax",%progbits
 275              		.align	1
 276              		.global	HAL_TIM_PeriodElapsedCallback
 277              		.syntax unified
 278              		.thumb
 279              		.thumb_func
 280              		.fpu fpv5-d16
 282              	HAL_TIM_PeriodElapsedCallback:
 283              	.LVL5:
 284              	.LFB161:
 535:Core/Src/main.c **** 
 536:Core/Src/main.c **** /*
 537:Core/Src/main.c **** void HAL_UARTEx_RxEventCallback(UART_HandleTypeDef *huart, uint16_t size) {
 538:Core/Src/main.c ****   //char buf2[100];
 539:Core/Src/main.c ****   //sprintf(buf2, "Current size: %d, Prev size: %d\r\n", size, prev_size);
 540:Core/Src/main.c **** 
 541:Core/Src/main.c ****   //HAL_UART_Transmit(&debug_uart, buf2, strlen(buf2), HAL_MAX_DELAY);
 542:Core/Src/main.c **** 
 543:Core/Src/main.c ****   n_times_recieved ++;
 544:Core/Src/main.c ****   n_bytes_received += size;
 545:Core/Src/main.c ****   
 546:Core/Src/main.c ****   for (int i = 0; i < size; i ++) {
 547:Core/Src/main.c ****     char msg[100];
 548:Core/Src/main.c **** 
 549:Core/Src/main.c ****     int16_t next_buffer_size = process_incoming_byte(rx_buffer[i], message_buffer, message_buffer_s
 550:Core/Src/main.c **** 
 551:Core/Src/main.c ****     sprintf(msg, "Next buf size: %d, Cur buf size: %d\r\n", next_buffer_size, message_buffer_size);
 552:Core/Src/main.c ****     HAL_UART_Transmit(&debug_uart, msg, strlen(msg), HAL_MAX_DELAY);
 553:Core/Src/main.c **** 
 554:Core/Src/main.c ****     if (next_buffer_size < 0) {
 555:Core/Src/main.c **** 
 556:Core/Src/main.c ****       message_buffer_size = 0;
 557:Core/Src/main.c **** 
 558:Core/Src/main.c ****       if (verify_packet(message_buffer, -next_buffer_size)) {
 559:Core/Src/main.c ****         uint8_t command_id = is_command_packet(message_buffer, -next_buffer_size);
 560:Core/Src/main.c **** 
 561:Core/Src/main.c ****         uint8_t rawData[2];
 562:Core/Src/main.c ****         rawData[0] = command_id; // command id
 563:Core/Src/main.c ****         rawData[1] = get_command_uuid(message_buffer); // command uuid
 564:Core/Src/main.c ****         generate_packet(rawData, 2, ack_packet_buffer, COMMAND_ACK_MSG_ID);
 565:Core/Src/main.c ****         // reformat_as_command_ack_packet(message_buffer);
 566:Core/Src/main.c ****         // memcpy(ack_packet_buffer, message_buffer, -next_buffer_size);
 567:Core/Src/main.c ****         ack_packet_size = -next_buffer_size;
 568:Core/Src/main.c **** 
ARM GAS  /tmp/ccs584qG.s 			page 16


 569:Core/Src/main.c ****         messages_recieved ++;
 570:Core/Src/main.c ****       }
 571:Core/Src/main.c ****     } else if (next_buffer_size < MESSAGE_MAX_SIZE) {
 572:Core/Src/main.c ****       //avoid buffer overflow
 573:Core/Src/main.c ****       message_buffer_size = next_buffer_size;
 574:Core/Src/main.c ****     } else {
 575:Core/Src/main.c ****       message_buffer_size = 0;
 576:Core/Src/main.c ****     }
 577:Core/Src/main.c ****   }
 578:Core/Src/main.c **** 
 579:Core/Src/main.c ****   HAL_UARTEx_ReceiveToIdle_IT(&huart4, rx_buffer, MESSAGE_MAX_SIZE);
 580:Core/Src/main.c **** }
 581:Core/Src/main.c **** */
 582:Core/Src/main.c **** 
 583:Core/Src/main.c **** /* USER CODE END 4 */
 584:Core/Src/main.c **** 
 585:Core/Src/main.c **** /**
 586:Core/Src/main.c ****   * @brief  Period elapsed callback in non blocking mode
 587:Core/Src/main.c ****   * @note   This function is called  when TIM1 interrupt took place, inside
 588:Core/Src/main.c ****   * HAL_TIM_IRQHandler(). It makes a direct call to HAL_IncTick() to increment
 589:Core/Src/main.c ****   * a global variable "uwTick" used as application time base.
 590:Core/Src/main.c ****   * @param  htim : TIM handle
 591:Core/Src/main.c ****   * @retval None
 592:Core/Src/main.c ****   */
 593:Core/Src/main.c **** void HAL_TIM_PeriodElapsedCallback(TIM_HandleTypeDef *htim)
 594:Core/Src/main.c **** {
 285              		.loc 1 594 1 view -0
 286              		.cfi_startproc
 287              		@ args = 0, pretend = 0, frame = 0
 288              		@ frame_needed = 0, uses_anonymous_args = 0
 289              		.loc 1 594 1 is_stmt 0 view .LVU69
 290 0000 08B5     		push	{r3, lr}
 291              	.LCFI6:
 292              		.cfi_def_cfa_offset 8
 293              		.cfi_offset 3, -8
 294              		.cfi_offset 14, -4
 595:Core/Src/main.c ****   /* USER CODE BEGIN Callback 0 */
 596:Core/Src/main.c **** 
 597:Core/Src/main.c ****   /* USER CODE END Callback 0 */
 598:Core/Src/main.c ****   if (htim->Instance == TIM1) {
 295              		.loc 1 598 3 is_stmt 1 view .LVU70
 296              		.loc 1 598 11 is_stmt 0 view .LVU71
 297 0002 0268     		ldr	r2, [r0]
 298              		.loc 1 598 6 view .LVU72
 299 0004 034B     		ldr	r3, .L14
 300 0006 9A42     		cmp	r2, r3
 301 0008 00D0     		beq	.L13
 302              	.LVL6:
 303              	.L10:
 599:Core/Src/main.c ****     HAL_IncTick();
 600:Core/Src/main.c ****   }
 601:Core/Src/main.c ****   /* USER CODE BEGIN Callback 1 */
 602:Core/Src/main.c **** 
 603:Core/Src/main.c ****   /* USER CODE END Callback 1 */
 604:Core/Src/main.c **** }
 304              		.loc 1 604 1 view .LVU73
 305 000a 08BD     		pop	{r3, pc}
ARM GAS  /tmp/ccs584qG.s 			page 17


 306              	.LVL7:
 307              	.L13:
 599:Core/Src/main.c ****     HAL_IncTick();
 308              		.loc 1 599 5 is_stmt 1 view .LVU74
 309 000c FFF7FEFF 		bl	HAL_IncTick
 310              	.LVL8:
 311              		.loc 1 604 1 is_stmt 0 view .LVU75
 312 0010 FBE7     		b	.L10
 313              	.L15:
 314 0012 00BF     		.align	2
 315              	.L14:
 316 0014 00000140 		.word	1073807360
 317              		.cfi_endproc
 318              	.LFE161:
 320              		.section	.text.Error_Handler,"ax",%progbits
 321              		.align	1
 322              		.global	Error_Handler
 323              		.syntax unified
 324              		.thumb
 325              		.thumb_func
 326              		.fpu fpv5-d16
 328              	Error_Handler:
 329              	.LFB162:
 605:Core/Src/main.c **** 
 606:Core/Src/main.c **** /**
 607:Core/Src/main.c ****   * @brief  This function is executed in case of error occurrence.
 608:Core/Src/main.c ****   * @retval None
 609:Core/Src/main.c ****   */
 610:Core/Src/main.c **** void Error_Handler(void)
 611:Core/Src/main.c **** {
 330              		.loc 1 611 1 is_stmt 1 view -0
 331              		.cfi_startproc
 332              		@ Volatile: function does not return.
 333              		@ args = 0, pretend = 0, frame = 0
 334              		@ frame_needed = 0, uses_anonymous_args = 0
 335              		@ link register save eliminated.
 612:Core/Src/main.c ****   /* USER CODE BEGIN Error_Handler_Debug */
 613:Core/Src/main.c ****   /* User can add his own implementation to report the HAL error return state */
 614:Core/Src/main.c ****   __disable_irq();
 336              		.loc 1 614 3 view .LVU77
 337              	.LBB12:
 338              	.LBI12:
 339              		.file 2 "Drivers/CMSIS/Include/cmsis_gcc.h"
   1:Drivers/CMSIS/Include/cmsis_gcc.h **** /**************************************************************************//**
   2:Drivers/CMSIS/Include/cmsis_gcc.h ****  * @file     cmsis_gcc.h
   3:Drivers/CMSIS/Include/cmsis_gcc.h ****  * @brief    CMSIS compiler GCC header file
   4:Drivers/CMSIS/Include/cmsis_gcc.h ****  * @version  V5.2.0
   5:Drivers/CMSIS/Include/cmsis_gcc.h ****  * @date     08. May 2019
   6:Drivers/CMSIS/Include/cmsis_gcc.h ****  ******************************************************************************/
   7:Drivers/CMSIS/Include/cmsis_gcc.h **** /*
   8:Drivers/CMSIS/Include/cmsis_gcc.h ****  * Copyright (c) 2009-2019 Arm Limited. All rights reserved.
   9:Drivers/CMSIS/Include/cmsis_gcc.h ****  *
  10:Drivers/CMSIS/Include/cmsis_gcc.h ****  * SPDX-License-Identifier: Apache-2.0
  11:Drivers/CMSIS/Include/cmsis_gcc.h ****  *
  12:Drivers/CMSIS/Include/cmsis_gcc.h ****  * Licensed under the Apache License, Version 2.0 (the License); you may
  13:Drivers/CMSIS/Include/cmsis_gcc.h ****  * not use this file except in compliance with the License.
  14:Drivers/CMSIS/Include/cmsis_gcc.h ****  * You may obtain a copy of the License at
ARM GAS  /tmp/ccs584qG.s 			page 18


  15:Drivers/CMSIS/Include/cmsis_gcc.h ****  *
  16:Drivers/CMSIS/Include/cmsis_gcc.h ****  * www.apache.org/licenses/LICENSE-2.0
  17:Drivers/CMSIS/Include/cmsis_gcc.h ****  *
  18:Drivers/CMSIS/Include/cmsis_gcc.h ****  * Unless required by applicable law or agreed to in writing, software
  19:Drivers/CMSIS/Include/cmsis_gcc.h ****  * distributed under the License is distributed on an AS IS BASIS, WITHOUT
  20:Drivers/CMSIS/Include/cmsis_gcc.h ****  * WARRANTIES OR CONDITIONS OF ANY KIND, either express or implied.
  21:Drivers/CMSIS/Include/cmsis_gcc.h ****  * See the License for the specific language governing permissions and
  22:Drivers/CMSIS/Include/cmsis_gcc.h ****  * limitations under the License.
  23:Drivers/CMSIS/Include/cmsis_gcc.h ****  */
  24:Drivers/CMSIS/Include/cmsis_gcc.h **** 
  25:Drivers/CMSIS/Include/cmsis_gcc.h **** #ifndef __CMSIS_GCC_H
  26:Drivers/CMSIS/Include/cmsis_gcc.h **** #define __CMSIS_GCC_H
  27:Drivers/CMSIS/Include/cmsis_gcc.h **** 
  28:Drivers/CMSIS/Include/cmsis_gcc.h **** /* ignore some GCC warnings */
  29:Drivers/CMSIS/Include/cmsis_gcc.h **** #pragma GCC diagnostic push
  30:Drivers/CMSIS/Include/cmsis_gcc.h **** #pragma GCC diagnostic ignored "-Wsign-conversion"
  31:Drivers/CMSIS/Include/cmsis_gcc.h **** #pragma GCC diagnostic ignored "-Wconversion"
  32:Drivers/CMSIS/Include/cmsis_gcc.h **** #pragma GCC diagnostic ignored "-Wunused-parameter"
  33:Drivers/CMSIS/Include/cmsis_gcc.h **** 
  34:Drivers/CMSIS/Include/cmsis_gcc.h **** /* Fallback for __has_builtin */
  35:Drivers/CMSIS/Include/cmsis_gcc.h **** #ifndef __has_builtin
  36:Drivers/CMSIS/Include/cmsis_gcc.h ****   #define __has_builtin(x) (0)
  37:Drivers/CMSIS/Include/cmsis_gcc.h **** #endif
  38:Drivers/CMSIS/Include/cmsis_gcc.h **** 
  39:Drivers/CMSIS/Include/cmsis_gcc.h **** /* CMSIS compiler specific defines */
  40:Drivers/CMSIS/Include/cmsis_gcc.h **** #ifndef   __ASM
  41:Drivers/CMSIS/Include/cmsis_gcc.h ****   #define __ASM                                  __asm
  42:Drivers/CMSIS/Include/cmsis_gcc.h **** #endif
  43:Drivers/CMSIS/Include/cmsis_gcc.h **** #ifndef   __INLINE
  44:Drivers/CMSIS/Include/cmsis_gcc.h ****   #define __INLINE                               inline
  45:Drivers/CMSIS/Include/cmsis_gcc.h **** #endif
  46:Drivers/CMSIS/Include/cmsis_gcc.h **** #ifndef   __STATIC_INLINE
  47:Drivers/CMSIS/Include/cmsis_gcc.h ****   #define __STATIC_INLINE                        static inline
  48:Drivers/CMSIS/Include/cmsis_gcc.h **** #endif
  49:Drivers/CMSIS/Include/cmsis_gcc.h **** #ifndef   __STATIC_FORCEINLINE                 
  50:Drivers/CMSIS/Include/cmsis_gcc.h ****   #define __STATIC_FORCEINLINE                   __attribute__((always_inline)) static inline
  51:Drivers/CMSIS/Include/cmsis_gcc.h **** #endif                                           
  52:Drivers/CMSIS/Include/cmsis_gcc.h **** #ifndef   __NO_RETURN
  53:Drivers/CMSIS/Include/cmsis_gcc.h ****   #define __NO_RETURN                            __attribute__((__noreturn__))
  54:Drivers/CMSIS/Include/cmsis_gcc.h **** #endif
  55:Drivers/CMSIS/Include/cmsis_gcc.h **** #ifndef   __USED
  56:Drivers/CMSIS/Include/cmsis_gcc.h ****   #define __USED                                 __attribute__((used))
  57:Drivers/CMSIS/Include/cmsis_gcc.h **** #endif
  58:Drivers/CMSIS/Include/cmsis_gcc.h **** #ifndef   __WEAK
  59:Drivers/CMSIS/Include/cmsis_gcc.h ****   #define __WEAK                                 __attribute__((weak))
  60:Drivers/CMSIS/Include/cmsis_gcc.h **** #endif
  61:Drivers/CMSIS/Include/cmsis_gcc.h **** #ifndef   __PACKED
  62:Drivers/CMSIS/Include/cmsis_gcc.h ****   #define __PACKED                               __attribute__((packed, aligned(1)))
  63:Drivers/CMSIS/Include/cmsis_gcc.h **** #endif
  64:Drivers/CMSIS/Include/cmsis_gcc.h **** #ifndef   __PACKED_STRUCT
  65:Drivers/CMSIS/Include/cmsis_gcc.h ****   #define __PACKED_STRUCT                        struct __attribute__((packed, aligned(1)))
  66:Drivers/CMSIS/Include/cmsis_gcc.h **** #endif
  67:Drivers/CMSIS/Include/cmsis_gcc.h **** #ifndef   __PACKED_UNION
  68:Drivers/CMSIS/Include/cmsis_gcc.h ****   #define __PACKED_UNION                         union __attribute__((packed, aligned(1)))
  69:Drivers/CMSIS/Include/cmsis_gcc.h **** #endif
  70:Drivers/CMSIS/Include/cmsis_gcc.h **** #ifndef   __UNALIGNED_UINT32        /* deprecated */
  71:Drivers/CMSIS/Include/cmsis_gcc.h ****   #pragma GCC diagnostic push
ARM GAS  /tmp/ccs584qG.s 			page 19


  72:Drivers/CMSIS/Include/cmsis_gcc.h ****   #pragma GCC diagnostic ignored "-Wpacked"
  73:Drivers/CMSIS/Include/cmsis_gcc.h ****   #pragma GCC diagnostic ignored "-Wattributes"
  74:Drivers/CMSIS/Include/cmsis_gcc.h ****   struct __attribute__((packed)) T_UINT32 { uint32_t v; };
  75:Drivers/CMSIS/Include/cmsis_gcc.h ****   #pragma GCC diagnostic pop
  76:Drivers/CMSIS/Include/cmsis_gcc.h ****   #define __UNALIGNED_UINT32(x)                  (((struct T_UINT32 *)(x))->v)
  77:Drivers/CMSIS/Include/cmsis_gcc.h **** #endif
  78:Drivers/CMSIS/Include/cmsis_gcc.h **** #ifndef   __UNALIGNED_UINT16_WRITE
  79:Drivers/CMSIS/Include/cmsis_gcc.h ****   #pragma GCC diagnostic push
  80:Drivers/CMSIS/Include/cmsis_gcc.h ****   #pragma GCC diagnostic ignored "-Wpacked"
  81:Drivers/CMSIS/Include/cmsis_gcc.h ****   #pragma GCC diagnostic ignored "-Wattributes"
  82:Drivers/CMSIS/Include/cmsis_gcc.h ****   __PACKED_STRUCT T_UINT16_WRITE { uint16_t v; };
  83:Drivers/CMSIS/Include/cmsis_gcc.h ****   #pragma GCC diagnostic pop
  84:Drivers/CMSIS/Include/cmsis_gcc.h ****   #define __UNALIGNED_UINT16_WRITE(addr, val)    (void)((((struct T_UINT16_WRITE *)(void *)(addr))-
  85:Drivers/CMSIS/Include/cmsis_gcc.h **** #endif
  86:Drivers/CMSIS/Include/cmsis_gcc.h **** #ifndef   __UNALIGNED_UINT16_READ
  87:Drivers/CMSIS/Include/cmsis_gcc.h ****   #pragma GCC diagnostic push
  88:Drivers/CMSIS/Include/cmsis_gcc.h ****   #pragma GCC diagnostic ignored "-Wpacked"
  89:Drivers/CMSIS/Include/cmsis_gcc.h ****   #pragma GCC diagnostic ignored "-Wattributes"
  90:Drivers/CMSIS/Include/cmsis_gcc.h ****   __PACKED_STRUCT T_UINT16_READ { uint16_t v; };
  91:Drivers/CMSIS/Include/cmsis_gcc.h ****   #pragma GCC diagnostic pop
  92:Drivers/CMSIS/Include/cmsis_gcc.h ****   #define __UNALIGNED_UINT16_READ(addr)          (((const struct T_UINT16_READ *)(const void *)(add
  93:Drivers/CMSIS/Include/cmsis_gcc.h **** #endif
  94:Drivers/CMSIS/Include/cmsis_gcc.h **** #ifndef   __UNALIGNED_UINT32_WRITE
  95:Drivers/CMSIS/Include/cmsis_gcc.h ****   #pragma GCC diagnostic push
  96:Drivers/CMSIS/Include/cmsis_gcc.h ****   #pragma GCC diagnostic ignored "-Wpacked"
  97:Drivers/CMSIS/Include/cmsis_gcc.h ****   #pragma GCC diagnostic ignored "-Wattributes"
  98:Drivers/CMSIS/Include/cmsis_gcc.h ****   __PACKED_STRUCT T_UINT32_WRITE { uint32_t v; };
  99:Drivers/CMSIS/Include/cmsis_gcc.h ****   #pragma GCC diagnostic pop
 100:Drivers/CMSIS/Include/cmsis_gcc.h ****   #define __UNALIGNED_UINT32_WRITE(addr, val)    (void)((((struct T_UINT32_WRITE *)(void *)(addr))-
 101:Drivers/CMSIS/Include/cmsis_gcc.h **** #endif
 102:Drivers/CMSIS/Include/cmsis_gcc.h **** #ifndef   __UNALIGNED_UINT32_READ
 103:Drivers/CMSIS/Include/cmsis_gcc.h ****   #pragma GCC diagnostic push
 104:Drivers/CMSIS/Include/cmsis_gcc.h ****   #pragma GCC diagnostic ignored "-Wpacked"
 105:Drivers/CMSIS/Include/cmsis_gcc.h ****   #pragma GCC diagnostic ignored "-Wattributes"
 106:Drivers/CMSIS/Include/cmsis_gcc.h ****   __PACKED_STRUCT T_UINT32_READ { uint32_t v; };
 107:Drivers/CMSIS/Include/cmsis_gcc.h ****   #pragma GCC diagnostic pop
 108:Drivers/CMSIS/Include/cmsis_gcc.h ****   #define __UNALIGNED_UINT32_READ(addr)          (((const struct T_UINT32_READ *)(const void *)(add
 109:Drivers/CMSIS/Include/cmsis_gcc.h **** #endif
 110:Drivers/CMSIS/Include/cmsis_gcc.h **** #ifndef   __ALIGNED
 111:Drivers/CMSIS/Include/cmsis_gcc.h ****   #define __ALIGNED(x)                           __attribute__((aligned(x)))
 112:Drivers/CMSIS/Include/cmsis_gcc.h **** #endif
 113:Drivers/CMSIS/Include/cmsis_gcc.h **** #ifndef   __RESTRICT
 114:Drivers/CMSIS/Include/cmsis_gcc.h ****   #define __RESTRICT                             __restrict
 115:Drivers/CMSIS/Include/cmsis_gcc.h **** #endif
 116:Drivers/CMSIS/Include/cmsis_gcc.h **** #ifndef   __COMPILER_BARRIER
 117:Drivers/CMSIS/Include/cmsis_gcc.h ****   #define __COMPILER_BARRIER()                   __ASM volatile("":::"memory")
 118:Drivers/CMSIS/Include/cmsis_gcc.h **** #endif
 119:Drivers/CMSIS/Include/cmsis_gcc.h **** 
 120:Drivers/CMSIS/Include/cmsis_gcc.h **** /* #########################  Startup and Lowlevel Init  ######################## */
 121:Drivers/CMSIS/Include/cmsis_gcc.h **** 
 122:Drivers/CMSIS/Include/cmsis_gcc.h **** #ifndef __PROGRAM_START
 123:Drivers/CMSIS/Include/cmsis_gcc.h **** 
 124:Drivers/CMSIS/Include/cmsis_gcc.h **** /**
 125:Drivers/CMSIS/Include/cmsis_gcc.h ****   \brief   Initializes data and bss sections
 126:Drivers/CMSIS/Include/cmsis_gcc.h ****   \details This default implementations initialized all data and additional bss
 127:Drivers/CMSIS/Include/cmsis_gcc.h ****            sections relying on .copy.table and .zero.table specified properly
 128:Drivers/CMSIS/Include/cmsis_gcc.h ****            in the used linker script.
ARM GAS  /tmp/ccs584qG.s 			page 20


 129:Drivers/CMSIS/Include/cmsis_gcc.h ****   
 130:Drivers/CMSIS/Include/cmsis_gcc.h ****  */
 131:Drivers/CMSIS/Include/cmsis_gcc.h **** __STATIC_FORCEINLINE __NO_RETURN void __cmsis_start(void)
 132:Drivers/CMSIS/Include/cmsis_gcc.h **** {
 133:Drivers/CMSIS/Include/cmsis_gcc.h ****   extern void _start(void) __NO_RETURN;
 134:Drivers/CMSIS/Include/cmsis_gcc.h ****   
 135:Drivers/CMSIS/Include/cmsis_gcc.h ****   typedef struct {
 136:Drivers/CMSIS/Include/cmsis_gcc.h ****     uint32_t const* src;
 137:Drivers/CMSIS/Include/cmsis_gcc.h ****     uint32_t* dest;
 138:Drivers/CMSIS/Include/cmsis_gcc.h ****     uint32_t  wlen;
 139:Drivers/CMSIS/Include/cmsis_gcc.h ****   } __copy_table_t;
 140:Drivers/CMSIS/Include/cmsis_gcc.h ****   
 141:Drivers/CMSIS/Include/cmsis_gcc.h ****   typedef struct {
 142:Drivers/CMSIS/Include/cmsis_gcc.h ****     uint32_t* dest;
 143:Drivers/CMSIS/Include/cmsis_gcc.h ****     uint32_t  wlen;
 144:Drivers/CMSIS/Include/cmsis_gcc.h ****   } __zero_table_t;
 145:Drivers/CMSIS/Include/cmsis_gcc.h ****   
 146:Drivers/CMSIS/Include/cmsis_gcc.h ****   extern const __copy_table_t __copy_table_start__;
 147:Drivers/CMSIS/Include/cmsis_gcc.h ****   extern const __copy_table_t __copy_table_end__;
 148:Drivers/CMSIS/Include/cmsis_gcc.h ****   extern const __zero_table_t __zero_table_start__;
 149:Drivers/CMSIS/Include/cmsis_gcc.h ****   extern const __zero_table_t __zero_table_end__;
 150:Drivers/CMSIS/Include/cmsis_gcc.h **** 
 151:Drivers/CMSIS/Include/cmsis_gcc.h ****   for (__copy_table_t const* pTable = &__copy_table_start__; pTable < &__copy_table_end__; ++pTable
 152:Drivers/CMSIS/Include/cmsis_gcc.h ****     for(uint32_t i=0u; i<pTable->wlen; ++i) {
 153:Drivers/CMSIS/Include/cmsis_gcc.h ****       pTable->dest[i] = pTable->src[i];
 154:Drivers/CMSIS/Include/cmsis_gcc.h ****     }
 155:Drivers/CMSIS/Include/cmsis_gcc.h ****   }
 156:Drivers/CMSIS/Include/cmsis_gcc.h ****  
 157:Drivers/CMSIS/Include/cmsis_gcc.h ****   for (__zero_table_t const* pTable = &__zero_table_start__; pTable < &__zero_table_end__; ++pTable
 158:Drivers/CMSIS/Include/cmsis_gcc.h ****     for(uint32_t i=0u; i<pTable->wlen; ++i) {
 159:Drivers/CMSIS/Include/cmsis_gcc.h ****       pTable->dest[i] = 0u;
 160:Drivers/CMSIS/Include/cmsis_gcc.h ****     }
 161:Drivers/CMSIS/Include/cmsis_gcc.h ****   }
 162:Drivers/CMSIS/Include/cmsis_gcc.h ****  
 163:Drivers/CMSIS/Include/cmsis_gcc.h ****   _start();
 164:Drivers/CMSIS/Include/cmsis_gcc.h **** }
 165:Drivers/CMSIS/Include/cmsis_gcc.h ****   
 166:Drivers/CMSIS/Include/cmsis_gcc.h **** #define __PROGRAM_START           __cmsis_start
 167:Drivers/CMSIS/Include/cmsis_gcc.h **** #endif
 168:Drivers/CMSIS/Include/cmsis_gcc.h **** 
 169:Drivers/CMSIS/Include/cmsis_gcc.h **** #ifndef __INITIAL_SP
 170:Drivers/CMSIS/Include/cmsis_gcc.h **** #define __INITIAL_SP              __StackTop
 171:Drivers/CMSIS/Include/cmsis_gcc.h **** #endif
 172:Drivers/CMSIS/Include/cmsis_gcc.h **** 
 173:Drivers/CMSIS/Include/cmsis_gcc.h **** #ifndef __STACK_LIMIT
 174:Drivers/CMSIS/Include/cmsis_gcc.h **** #define __STACK_LIMIT             __StackLimit
 175:Drivers/CMSIS/Include/cmsis_gcc.h **** #endif
 176:Drivers/CMSIS/Include/cmsis_gcc.h **** 
 177:Drivers/CMSIS/Include/cmsis_gcc.h **** #ifndef __VECTOR_TABLE
 178:Drivers/CMSIS/Include/cmsis_gcc.h **** #define __VECTOR_TABLE            __Vectors
 179:Drivers/CMSIS/Include/cmsis_gcc.h **** #endif
 180:Drivers/CMSIS/Include/cmsis_gcc.h **** 
 181:Drivers/CMSIS/Include/cmsis_gcc.h **** #ifndef __VECTOR_TABLE_ATTRIBUTE
 182:Drivers/CMSIS/Include/cmsis_gcc.h **** #define __VECTOR_TABLE_ATTRIBUTE  __attribute((used, section(".vectors")))
 183:Drivers/CMSIS/Include/cmsis_gcc.h **** #endif
 184:Drivers/CMSIS/Include/cmsis_gcc.h **** 
 185:Drivers/CMSIS/Include/cmsis_gcc.h **** /* ###########################  Core Function Access  ########################### */
ARM GAS  /tmp/ccs584qG.s 			page 21


 186:Drivers/CMSIS/Include/cmsis_gcc.h **** /** \ingroup  CMSIS_Core_FunctionInterface
 187:Drivers/CMSIS/Include/cmsis_gcc.h ****     \defgroup CMSIS_Core_RegAccFunctions CMSIS Core Register Access Functions
 188:Drivers/CMSIS/Include/cmsis_gcc.h ****   @{
 189:Drivers/CMSIS/Include/cmsis_gcc.h ****  */
 190:Drivers/CMSIS/Include/cmsis_gcc.h **** 
 191:Drivers/CMSIS/Include/cmsis_gcc.h **** /**
 192:Drivers/CMSIS/Include/cmsis_gcc.h ****   \brief   Enable IRQ Interrupts
 193:Drivers/CMSIS/Include/cmsis_gcc.h ****   \details Enables IRQ interrupts by clearing the I-bit in the CPSR.
 194:Drivers/CMSIS/Include/cmsis_gcc.h ****            Can only be executed in Privileged modes.
 195:Drivers/CMSIS/Include/cmsis_gcc.h ****  */
 196:Drivers/CMSIS/Include/cmsis_gcc.h **** __STATIC_FORCEINLINE void __enable_irq(void)
 197:Drivers/CMSIS/Include/cmsis_gcc.h **** {
 198:Drivers/CMSIS/Include/cmsis_gcc.h ****   __ASM volatile ("cpsie i" : : : "memory");
 199:Drivers/CMSIS/Include/cmsis_gcc.h **** }
 200:Drivers/CMSIS/Include/cmsis_gcc.h **** 
 201:Drivers/CMSIS/Include/cmsis_gcc.h **** 
 202:Drivers/CMSIS/Include/cmsis_gcc.h **** /**
 203:Drivers/CMSIS/Include/cmsis_gcc.h ****   \brief   Disable IRQ Interrupts
 204:Drivers/CMSIS/Include/cmsis_gcc.h ****   \details Disables IRQ interrupts by setting the I-bit in the CPSR.
 205:Drivers/CMSIS/Include/cmsis_gcc.h ****            Can only be executed in Privileged modes.
 206:Drivers/CMSIS/Include/cmsis_gcc.h ****  */
 207:Drivers/CMSIS/Include/cmsis_gcc.h **** __STATIC_FORCEINLINE void __disable_irq(void)
 340              		.loc 2 207 27 view .LVU78
 341              	.LBB13:
 208:Drivers/CMSIS/Include/cmsis_gcc.h **** {
 209:Drivers/CMSIS/Include/cmsis_gcc.h ****   __ASM volatile ("cpsid i" : : : "memory");
 342              		.loc 2 209 3 view .LVU79
 343              		.syntax unified
 344              	@ 209 "Drivers/CMSIS/Include/cmsis_gcc.h" 1
 345 0000 72B6     		cpsid i
 346              	@ 0 "" 2
 347              		.thumb
 348              		.syntax unified
 349              	.L17:
 350              	.LBE13:
 351              	.LBE12:
 615:Core/Src/main.c ****   while (1)
 352              		.loc 1 615 3 discriminator 1 view .LVU80
 616:Core/Src/main.c ****   {
 617:Core/Src/main.c ****   }
 353              		.loc 1 617 3 discriminator 1 view .LVU81
 615:Core/Src/main.c ****   while (1)
 354              		.loc 1 615 9 discriminator 1 view .LVU82
 355 0002 FEE7     		b	.L17
 356              		.cfi_endproc
 357              	.LFE162:
 359              		.section	.text.MX_SPI1_Init,"ax",%progbits
 360              		.align	1
 361              		.syntax unified
 362              		.thumb
 363              		.thumb_func
 364              		.fpu fpv5-d16
 366              	MX_SPI1_Init:
 367              	.LFB154:
 295:Core/Src/main.c **** 
 368              		.loc 1 295 1 view -0
 369              		.cfi_startproc
ARM GAS  /tmp/ccs584qG.s 			page 22


 370              		@ args = 0, pretend = 0, frame = 0
 371              		@ frame_needed = 0, uses_anonymous_args = 0
 372 0000 08B5     		push	{r3, lr}
 373              	.LCFI7:
 374              		.cfi_def_cfa_offset 8
 375              		.cfi_offset 3, -8
 376              		.cfi_offset 14, -4
 305:Core/Src/main.c ****   hspi1.Init.Mode = SPI_MODE_MASTER;
 377              		.loc 1 305 3 view .LVU84
 305:Core/Src/main.c ****   hspi1.Init.Mode = SPI_MODE_MASTER;
 378              		.loc 1 305 18 is_stmt 0 view .LVU85
 379 0002 1448     		ldr	r0, .L22
 380 0004 144B     		ldr	r3, .L22+4
 381 0006 0360     		str	r3, [r0]
 306:Core/Src/main.c ****   hspi1.Init.Direction = SPI_DIRECTION_2LINES;
 382              		.loc 1 306 3 is_stmt 1 view .LVU86
 306:Core/Src/main.c ****   hspi1.Init.Direction = SPI_DIRECTION_2LINES;
 383              		.loc 1 306 19 is_stmt 0 view .LVU87
 384 0008 4FF48003 		mov	r3, #4194304
 385 000c 4360     		str	r3, [r0, #4]
 307:Core/Src/main.c ****   hspi1.Init.DataSize = SPI_DATASIZE_8BIT;
 386              		.loc 1 307 3 is_stmt 1 view .LVU88
 307:Core/Src/main.c ****   hspi1.Init.DataSize = SPI_DATASIZE_8BIT;
 387              		.loc 1 307 24 is_stmt 0 view .LVU89
 388 000e 0023     		movs	r3, #0
 389 0010 8360     		str	r3, [r0, #8]
 308:Core/Src/main.c ****   hspi1.Init.CLKPolarity = SPI_POLARITY_LOW;
 390              		.loc 1 308 3 is_stmt 1 view .LVU90
 308:Core/Src/main.c ****   hspi1.Init.CLKPolarity = SPI_POLARITY_LOW;
 391              		.loc 1 308 23 is_stmt 0 view .LVU91
 392 0012 0722     		movs	r2, #7
 393 0014 C260     		str	r2, [r0, #12]
 309:Core/Src/main.c ****   hspi1.Init.CLKPhase = SPI_PHASE_1EDGE;
 394              		.loc 1 309 3 is_stmt 1 view .LVU92
 309:Core/Src/main.c ****   hspi1.Init.CLKPhase = SPI_PHASE_1EDGE;
 395              		.loc 1 309 26 is_stmt 0 view .LVU93
 396 0016 0361     		str	r3, [r0, #16]
 310:Core/Src/main.c ****   hspi1.Init.NSS = SPI_NSS_SOFT;
 397              		.loc 1 310 3 is_stmt 1 view .LVU94
 310:Core/Src/main.c ****   hspi1.Init.NSS = SPI_NSS_SOFT;
 398              		.loc 1 310 23 is_stmt 0 view .LVU95
 399 0018 4361     		str	r3, [r0, #20]
 311:Core/Src/main.c ****   hspi1.Init.BaudRatePrescaler = SPI_BAUDRATEPRESCALER_16;
 400              		.loc 1 311 3 is_stmt 1 view .LVU96
 311:Core/Src/main.c ****   hspi1.Init.BaudRatePrescaler = SPI_BAUDRATEPRESCALER_16;
 401              		.loc 1 311 18 is_stmt 0 view .LVU97
 402 001a 4FF08062 		mov	r2, #67108864
 403 001e 8261     		str	r2, [r0, #24]
 312:Core/Src/main.c ****   hspi1.Init.FirstBit = SPI_FIRSTBIT_MSB;
 404              		.loc 1 312 3 is_stmt 1 view .LVU98
 312:Core/Src/main.c ****   hspi1.Init.FirstBit = SPI_FIRSTBIT_MSB;
 405              		.loc 1 312 32 is_stmt 0 view .LVU99
 406 0020 4FF04052 		mov	r2, #805306368
 407 0024 C261     		str	r2, [r0, #28]
 313:Core/Src/main.c ****   hspi1.Init.TIMode = SPI_TIMODE_DISABLE;
 408              		.loc 1 313 3 is_stmt 1 view .LVU100
 313:Core/Src/main.c ****   hspi1.Init.TIMode = SPI_TIMODE_DISABLE;
ARM GAS  /tmp/ccs584qG.s 			page 23


 409              		.loc 1 313 23 is_stmt 0 view .LVU101
 410 0026 0362     		str	r3, [r0, #32]
 314:Core/Src/main.c ****   hspi1.Init.CRCCalculation = SPI_CRCCALCULATION_DISABLE;
 411              		.loc 1 314 3 is_stmt 1 view .LVU102
 314:Core/Src/main.c ****   hspi1.Init.CRCCalculation = SPI_CRCCALCULATION_DISABLE;
 412              		.loc 1 314 21 is_stmt 0 view .LVU103
 413 0028 4362     		str	r3, [r0, #36]
 315:Core/Src/main.c ****   hspi1.Init.CRCPolynomial = 0x0;
 414              		.loc 1 315 3 is_stmt 1 view .LVU104
 315:Core/Src/main.c ****   hspi1.Init.CRCPolynomial = 0x0;
 415              		.loc 1 315 29 is_stmt 0 view .LVU105
 416 002a 8362     		str	r3, [r0, #40]
 316:Core/Src/main.c ****   hspi1.Init.NSSPMode = SPI_NSS_PULSE_ENABLE;
 417              		.loc 1 316 3 is_stmt 1 view .LVU106
 316:Core/Src/main.c ****   hspi1.Init.NSSPMode = SPI_NSS_PULSE_ENABLE;
 418              		.loc 1 316 28 is_stmt 0 view .LVU107
 419 002c C362     		str	r3, [r0, #44]
 317:Core/Src/main.c ****   hspi1.Init.NSSPolarity = SPI_NSS_POLARITY_LOW;
 420              		.loc 1 317 3 is_stmt 1 view .LVU108
 317:Core/Src/main.c ****   hspi1.Init.NSSPolarity = SPI_NSS_POLARITY_LOW;
 421              		.loc 1 317 23 is_stmt 0 view .LVU109
 422 002e 4FF08042 		mov	r2, #1073741824
 423 0032 4263     		str	r2, [r0, #52]
 318:Core/Src/main.c ****   hspi1.Init.FifoThreshold = SPI_FIFO_THRESHOLD_01DATA;
 424              		.loc 1 318 3 is_stmt 1 view .LVU110
 318:Core/Src/main.c ****   hspi1.Init.FifoThreshold = SPI_FIFO_THRESHOLD_01DATA;
 425              		.loc 1 318 26 is_stmt 0 view .LVU111
 426 0034 8363     		str	r3, [r0, #56]
 319:Core/Src/main.c ****   hspi1.Init.TxCRCInitializationPattern = SPI_CRC_INITIALIZATION_ALL_ZERO_PATTERN;
 427              		.loc 1 319 3 is_stmt 1 view .LVU112
 319:Core/Src/main.c ****   hspi1.Init.TxCRCInitializationPattern = SPI_CRC_INITIALIZATION_ALL_ZERO_PATTERN;
 428              		.loc 1 319 28 is_stmt 0 view .LVU113
 429 0036 C363     		str	r3, [r0, #60]
 320:Core/Src/main.c ****   hspi1.Init.RxCRCInitializationPattern = SPI_CRC_INITIALIZATION_ALL_ZERO_PATTERN;
 430              		.loc 1 320 3 is_stmt 1 view .LVU114
 320:Core/Src/main.c ****   hspi1.Init.RxCRCInitializationPattern = SPI_CRC_INITIALIZATION_ALL_ZERO_PATTERN;
 431              		.loc 1 320 41 is_stmt 0 view .LVU115
 432 0038 0364     		str	r3, [r0, #64]
 321:Core/Src/main.c ****   hspi1.Init.MasterSSIdleness = SPI_MASTER_SS_IDLENESS_00CYCLE;
 433              		.loc 1 321 3 is_stmt 1 view .LVU116
 321:Core/Src/main.c ****   hspi1.Init.MasterSSIdleness = SPI_MASTER_SS_IDLENESS_00CYCLE;
 434              		.loc 1 321 41 is_stmt 0 view .LVU117
 435 003a 4364     		str	r3, [r0, #68]
 322:Core/Src/main.c ****   hspi1.Init.MasterInterDataIdleness = SPI_MASTER_INTERDATA_IDLENESS_00CYCLE;
 436              		.loc 1 322 3 is_stmt 1 view .LVU118
 322:Core/Src/main.c ****   hspi1.Init.MasterInterDataIdleness = SPI_MASTER_INTERDATA_IDLENESS_00CYCLE;
 437              		.loc 1 322 31 is_stmt 0 view .LVU119
 438 003c 8364     		str	r3, [r0, #72]
 323:Core/Src/main.c ****   hspi1.Init.MasterReceiverAutoSusp = SPI_MASTER_RX_AUTOSUSP_DISABLE;
 439              		.loc 1 323 3 is_stmt 1 view .LVU120
 323:Core/Src/main.c ****   hspi1.Init.MasterReceiverAutoSusp = SPI_MASTER_RX_AUTOSUSP_DISABLE;
 440              		.loc 1 323 38 is_stmt 0 view .LVU121
 441 003e C364     		str	r3, [r0, #76]
 324:Core/Src/main.c ****   hspi1.Init.MasterKeepIOState = SPI_MASTER_KEEP_IO_STATE_DISABLE;
 442              		.loc 1 324 3 is_stmt 1 view .LVU122
 324:Core/Src/main.c ****   hspi1.Init.MasterKeepIOState = SPI_MASTER_KEEP_IO_STATE_DISABLE;
 443              		.loc 1 324 37 is_stmt 0 view .LVU123
ARM GAS  /tmp/ccs584qG.s 			page 24


 444 0040 0365     		str	r3, [r0, #80]
 325:Core/Src/main.c ****   hspi1.Init.IOSwap = SPI_IO_SWAP_DISABLE;
 445              		.loc 1 325 3 is_stmt 1 view .LVU124
 325:Core/Src/main.c ****   hspi1.Init.IOSwap = SPI_IO_SWAP_DISABLE;
 446              		.loc 1 325 32 is_stmt 0 view .LVU125
 447 0042 4365     		str	r3, [r0, #84]
 326:Core/Src/main.c ****   if (HAL_SPI_Init(&hspi1) != HAL_OK)
 448              		.loc 1 326 3 is_stmt 1 view .LVU126
 326:Core/Src/main.c ****   if (HAL_SPI_Init(&hspi1) != HAL_OK)
 449              		.loc 1 326 21 is_stmt 0 view .LVU127
 450 0044 8365     		str	r3, [r0, #88]
 327:Core/Src/main.c ****   {
 451              		.loc 1 327 3 is_stmt 1 view .LVU128
 327:Core/Src/main.c ****   {
 452              		.loc 1 327 7 is_stmt 0 view .LVU129
 453 0046 FFF7FEFF 		bl	HAL_SPI_Init
 454              	.LVL9:
 327:Core/Src/main.c ****   {
 455              		.loc 1 327 6 view .LVU130
 456 004a 00B9     		cbnz	r0, .L21
 335:Core/Src/main.c **** 
 457              		.loc 1 335 1 view .LVU131
 458 004c 08BD     		pop	{r3, pc}
 459              	.L21:
 329:Core/Src/main.c ****   }
 460              		.loc 1 329 5 is_stmt 1 view .LVU132
 461 004e FFF7FEFF 		bl	Error_Handler
 462              	.LVL10:
 463              	.L23:
 464 0052 00BF     		.align	2
 465              	.L22:
 466 0054 00000000 		.word	.LANCHOR0
 467 0058 00300140 		.word	1073819648
 468              		.cfi_endproc
 469              	.LFE154:
 471              		.section	.text.MX_UART4_Init,"ax",%progbits
 472              		.align	1
 473              		.syntax unified
 474              		.thumb
 475              		.thumb_func
 476              		.fpu fpv5-d16
 478              	MX_UART4_Init:
 479              	.LFB155:
 343:Core/Src/main.c **** 
 480              		.loc 1 343 1 view -0
 481              		.cfi_startproc
 482              		@ args = 0, pretend = 0, frame = 0
 483              		@ frame_needed = 0, uses_anonymous_args = 0
 484 0000 08B5     		push	{r3, lr}
 485              	.LCFI8:
 486              		.cfi_def_cfa_offset 8
 487              		.cfi_offset 3, -8
 488              		.cfi_offset 14, -4
 352:Core/Src/main.c ****   huart4.Init.BaudRate = 38400;
 489              		.loc 1 352 3 view .LVU134
 352:Core/Src/main.c ****   huart4.Init.BaudRate = 38400;
 490              		.loc 1 352 19 is_stmt 0 view .LVU135
ARM GAS  /tmp/ccs584qG.s 			page 25


 491 0002 1548     		ldr	r0, .L34
 492 0004 154B     		ldr	r3, .L34+4
 493 0006 0360     		str	r3, [r0]
 353:Core/Src/main.c ****   huart4.Init.WordLength = UART_WORDLENGTH_8B;
 494              		.loc 1 353 3 is_stmt 1 view .LVU136
 353:Core/Src/main.c ****   huart4.Init.WordLength = UART_WORDLENGTH_8B;
 495              		.loc 1 353 24 is_stmt 0 view .LVU137
 496 0008 4FF41643 		mov	r3, #38400
 497 000c 4360     		str	r3, [r0, #4]
 354:Core/Src/main.c ****   huart4.Init.StopBits = UART_STOPBITS_1;
 498              		.loc 1 354 3 is_stmt 1 view .LVU138
 354:Core/Src/main.c ****   huart4.Init.StopBits = UART_STOPBITS_1;
 499              		.loc 1 354 26 is_stmt 0 view .LVU139
 500 000e 0023     		movs	r3, #0
 501 0010 8360     		str	r3, [r0, #8]
 355:Core/Src/main.c ****   huart4.Init.Parity = UART_PARITY_NONE;
 502              		.loc 1 355 3 is_stmt 1 view .LVU140
 355:Core/Src/main.c ****   huart4.Init.Parity = UART_PARITY_NONE;
 503              		.loc 1 355 24 is_stmt 0 view .LVU141
 504 0012 C360     		str	r3, [r0, #12]
 356:Core/Src/main.c ****   huart4.Init.Mode = UART_MODE_TX_RX;
 505              		.loc 1 356 3 is_stmt 1 view .LVU142
 356:Core/Src/main.c ****   huart4.Init.Mode = UART_MODE_TX_RX;
 506              		.loc 1 356 22 is_stmt 0 view .LVU143
 507 0014 0361     		str	r3, [r0, #16]
 357:Core/Src/main.c ****   huart4.Init.HwFlowCtl = UART_HWCONTROL_NONE;
 508              		.loc 1 357 3 is_stmt 1 view .LVU144
 357:Core/Src/main.c ****   huart4.Init.HwFlowCtl = UART_HWCONTROL_NONE;
 509              		.loc 1 357 20 is_stmt 0 view .LVU145
 510 0016 0C22     		movs	r2, #12
 511 0018 4261     		str	r2, [r0, #20]
 358:Core/Src/main.c ****   huart4.Init.OverSampling = UART_OVERSAMPLING_16;
 512              		.loc 1 358 3 is_stmt 1 view .LVU146
 358:Core/Src/main.c ****   huart4.Init.OverSampling = UART_OVERSAMPLING_16;
 513              		.loc 1 358 25 is_stmt 0 view .LVU147
 514 001a 8361     		str	r3, [r0, #24]
 359:Core/Src/main.c ****   huart4.Init.OneBitSampling = UART_ONE_BIT_SAMPLE_DISABLE;
 515              		.loc 1 359 3 is_stmt 1 view .LVU148
 359:Core/Src/main.c ****   huart4.Init.OneBitSampling = UART_ONE_BIT_SAMPLE_DISABLE;
 516              		.loc 1 359 28 is_stmt 0 view .LVU149
 517 001c C361     		str	r3, [r0, #28]
 360:Core/Src/main.c ****   huart4.Init.ClockPrescaler = UART_PRESCALER_DIV1;
 518              		.loc 1 360 3 is_stmt 1 view .LVU150
 360:Core/Src/main.c ****   huart4.Init.ClockPrescaler = UART_PRESCALER_DIV1;
 519              		.loc 1 360 30 is_stmt 0 view .LVU151
 520 001e 0362     		str	r3, [r0, #32]
 361:Core/Src/main.c ****   huart4.AdvancedInit.AdvFeatureInit = UART_ADVFEATURE_NO_INIT;
 521              		.loc 1 361 3 is_stmt 1 view .LVU152
 361:Core/Src/main.c ****   huart4.AdvancedInit.AdvFeatureInit = UART_ADVFEATURE_NO_INIT;
 522              		.loc 1 361 30 is_stmt 0 view .LVU153
 523 0020 4362     		str	r3, [r0, #36]
 362:Core/Src/main.c ****   if (HAL_UART_Init(&huart4) != HAL_OK)
 524              		.loc 1 362 3 is_stmt 1 view .LVU154
 362:Core/Src/main.c ****   if (HAL_UART_Init(&huart4) != HAL_OK)
 525              		.loc 1 362 38 is_stmt 0 view .LVU155
 526 0022 8362     		str	r3, [r0, #40]
 363:Core/Src/main.c ****   {
ARM GAS  /tmp/ccs584qG.s 			page 26


 527              		.loc 1 363 3 is_stmt 1 view .LVU156
 363:Core/Src/main.c ****   {
 528              		.loc 1 363 7 is_stmt 0 view .LVU157
 529 0024 FFF7FEFF 		bl	HAL_UART_Init
 530              	.LVL11:
 363:Core/Src/main.c ****   {
 531              		.loc 1 363 6 view .LVU158
 532 0028 70B9     		cbnz	r0, .L30
 367:Core/Src/main.c ****   {
 533              		.loc 1 367 3 is_stmt 1 view .LVU159
 367:Core/Src/main.c ****   {
 534              		.loc 1 367 7 is_stmt 0 view .LVU160
 535 002a 0021     		movs	r1, #0
 536 002c 0A48     		ldr	r0, .L34
 537 002e FFF7FEFF 		bl	HAL_UARTEx_SetTxFifoThreshold
 538              	.LVL12:
 367:Core/Src/main.c ****   {
 539              		.loc 1 367 6 view .LVU161
 540 0032 58B9     		cbnz	r0, .L31
 371:Core/Src/main.c ****   {
 541              		.loc 1 371 3 is_stmt 1 view .LVU162
 371:Core/Src/main.c ****   {
 542              		.loc 1 371 7 is_stmt 0 view .LVU163
 543 0034 0021     		movs	r1, #0
 544 0036 0848     		ldr	r0, .L34
 545 0038 FFF7FEFF 		bl	HAL_UARTEx_SetRxFifoThreshold
 546              	.LVL13:
 371:Core/Src/main.c ****   {
 547              		.loc 1 371 6 view .LVU164
 548 003c 40B9     		cbnz	r0, .L32
 375:Core/Src/main.c ****   {
 549              		.loc 1 375 3 is_stmt 1 view .LVU165
 375:Core/Src/main.c ****   {
 550              		.loc 1 375 7 is_stmt 0 view .LVU166
 551 003e 0648     		ldr	r0, .L34
 552 0040 FFF7FEFF 		bl	HAL_UARTEx_DisableFifoMode
 553              	.LVL14:
 375:Core/Src/main.c ****   {
 554              		.loc 1 375 6 view .LVU167
 555 0044 30B9     		cbnz	r0, .L33
 383:Core/Src/main.c **** 
 556              		.loc 1 383 1 view .LVU168
 557 0046 08BD     		pop	{r3, pc}
 558              	.L30:
 365:Core/Src/main.c ****   }
 559              		.loc 1 365 5 is_stmt 1 view .LVU169
 560 0048 FFF7FEFF 		bl	Error_Handler
 561              	.LVL15:
 562              	.L31:
 369:Core/Src/main.c ****   }
 563              		.loc 1 369 5 view .LVU170
 564 004c FFF7FEFF 		bl	Error_Handler
 565              	.LVL16:
 566              	.L32:
 373:Core/Src/main.c ****   }
 567              		.loc 1 373 5 view .LVU171
 568 0050 FFF7FEFF 		bl	Error_Handler
ARM GAS  /tmp/ccs584qG.s 			page 27


 569              	.LVL17:
 570              	.L33:
 377:Core/Src/main.c ****   }
 571              		.loc 1 377 5 view .LVU172
 572 0054 FFF7FEFF 		bl	Error_Handler
 573              	.LVL18:
 574              	.L35:
 575              		.align	2
 576              	.L34:
 577 0058 00000000 		.word	.LANCHOR1
 578 005c 004C0040 		.word	1073761280
 579              		.cfi_endproc
 580              	.LFE155:
 582              		.section	.text.MX_UART5_Init,"ax",%progbits
 583              		.align	1
 584              		.syntax unified
 585              		.thumb
 586              		.thumb_func
 587              		.fpu fpv5-d16
 589              	MX_UART5_Init:
 590              	.LFB156:
 391:Core/Src/main.c **** 
 591              		.loc 1 391 1 view -0
 592              		.cfi_startproc
 593              		@ args = 0, pretend = 0, frame = 0
 594              		@ frame_needed = 0, uses_anonymous_args = 0
 595 0000 08B5     		push	{r3, lr}
 596              	.LCFI9:
 597              		.cfi_def_cfa_offset 8
 598              		.cfi_offset 3, -8
 599              		.cfi_offset 14, -4
 400:Core/Src/main.c ****   huart5.Init.BaudRate = 115200;
 600              		.loc 1 400 3 view .LVU174
 400:Core/Src/main.c ****   huart5.Init.BaudRate = 115200;
 601              		.loc 1 400 19 is_stmt 0 view .LVU175
 602 0002 1548     		ldr	r0, .L46
 603 0004 154B     		ldr	r3, .L46+4
 604 0006 0360     		str	r3, [r0]
 401:Core/Src/main.c ****   huart5.Init.WordLength = UART_WORDLENGTH_8B;
 605              		.loc 1 401 3 is_stmt 1 view .LVU176
 401:Core/Src/main.c ****   huart5.Init.WordLength = UART_WORDLENGTH_8B;
 606              		.loc 1 401 24 is_stmt 0 view .LVU177
 607 0008 4FF4E133 		mov	r3, #115200
 608 000c 4360     		str	r3, [r0, #4]
 402:Core/Src/main.c ****   huart5.Init.StopBits = UART_STOPBITS_1;
 609              		.loc 1 402 3 is_stmt 1 view .LVU178
 402:Core/Src/main.c ****   huart5.Init.StopBits = UART_STOPBITS_1;
 610              		.loc 1 402 26 is_stmt 0 view .LVU179
 611 000e 0023     		movs	r3, #0
 612 0010 8360     		str	r3, [r0, #8]
 403:Core/Src/main.c ****   huart5.Init.Parity = UART_PARITY_NONE;
 613              		.loc 1 403 3 is_stmt 1 view .LVU180
 403:Core/Src/main.c ****   huart5.Init.Parity = UART_PARITY_NONE;
 614              		.loc 1 403 24 is_stmt 0 view .LVU181
 615 0012 C360     		str	r3, [r0, #12]
 404:Core/Src/main.c ****   huart5.Init.Mode = UART_MODE_TX_RX;
 616              		.loc 1 404 3 is_stmt 1 view .LVU182
ARM GAS  /tmp/ccs584qG.s 			page 28


 404:Core/Src/main.c ****   huart5.Init.Mode = UART_MODE_TX_RX;
 617              		.loc 1 404 22 is_stmt 0 view .LVU183
 618 0014 0361     		str	r3, [r0, #16]
 405:Core/Src/main.c ****   huart5.Init.HwFlowCtl = UART_HWCONTROL_NONE;
 619              		.loc 1 405 3 is_stmt 1 view .LVU184
 405:Core/Src/main.c ****   huart5.Init.HwFlowCtl = UART_HWCONTROL_NONE;
 620              		.loc 1 405 20 is_stmt 0 view .LVU185
 621 0016 0C22     		movs	r2, #12
 622 0018 4261     		str	r2, [r0, #20]
 406:Core/Src/main.c ****   huart5.Init.OverSampling = UART_OVERSAMPLING_16;
 623              		.loc 1 406 3 is_stmt 1 view .LVU186
 406:Core/Src/main.c ****   huart5.Init.OverSampling = UART_OVERSAMPLING_16;
 624              		.loc 1 406 25 is_stmt 0 view .LVU187
 625 001a 8361     		str	r3, [r0, #24]
 407:Core/Src/main.c ****   huart5.Init.OneBitSampling = UART_ONE_BIT_SAMPLE_DISABLE;
 626              		.loc 1 407 3 is_stmt 1 view .LVU188
 407:Core/Src/main.c ****   huart5.Init.OneBitSampling = UART_ONE_BIT_SAMPLE_DISABLE;
 627              		.loc 1 407 28 is_stmt 0 view .LVU189
 628 001c C361     		str	r3, [r0, #28]
 408:Core/Src/main.c ****   huart5.Init.ClockPrescaler = UART_PRESCALER_DIV1;
 629              		.loc 1 408 3 is_stmt 1 view .LVU190
 408:Core/Src/main.c ****   huart5.Init.ClockPrescaler = UART_PRESCALER_DIV1;
 630              		.loc 1 408 30 is_stmt 0 view .LVU191
 631 001e 0362     		str	r3, [r0, #32]
 409:Core/Src/main.c ****   huart5.AdvancedInit.AdvFeatureInit = UART_ADVFEATURE_NO_INIT;
 632              		.loc 1 409 3 is_stmt 1 view .LVU192
 409:Core/Src/main.c ****   huart5.AdvancedInit.AdvFeatureInit = UART_ADVFEATURE_NO_INIT;
 633              		.loc 1 409 30 is_stmt 0 view .LVU193
 634 0020 4362     		str	r3, [r0, #36]
 410:Core/Src/main.c ****   if (HAL_UART_Init(&huart5) != HAL_OK)
 635              		.loc 1 410 3 is_stmt 1 view .LVU194
 410:Core/Src/main.c ****   if (HAL_UART_Init(&huart5) != HAL_OK)
 636              		.loc 1 410 38 is_stmt 0 view .LVU195
 637 0022 8362     		str	r3, [r0, #40]
 411:Core/Src/main.c ****   {
 638              		.loc 1 411 3 is_stmt 1 view .LVU196
 411:Core/Src/main.c ****   {
 639              		.loc 1 411 7 is_stmt 0 view .LVU197
 640 0024 FFF7FEFF 		bl	HAL_UART_Init
 641              	.LVL19:
 411:Core/Src/main.c ****   {
 642              		.loc 1 411 6 view .LVU198
 643 0028 70B9     		cbnz	r0, .L42
 415:Core/Src/main.c ****   {
 644              		.loc 1 415 3 is_stmt 1 view .LVU199
 415:Core/Src/main.c ****   {
 645              		.loc 1 415 7 is_stmt 0 view .LVU200
 646 002a 0021     		movs	r1, #0
 647 002c 0A48     		ldr	r0, .L46
 648 002e FFF7FEFF 		bl	HAL_UARTEx_SetTxFifoThreshold
 649              	.LVL20:
 415:Core/Src/main.c ****   {
 650              		.loc 1 415 6 view .LVU201
 651 0032 58B9     		cbnz	r0, .L43
 419:Core/Src/main.c ****   {
 652              		.loc 1 419 3 is_stmt 1 view .LVU202
 419:Core/Src/main.c ****   {
ARM GAS  /tmp/ccs584qG.s 			page 29


 653              		.loc 1 419 7 is_stmt 0 view .LVU203
 654 0034 0021     		movs	r1, #0
 655 0036 0848     		ldr	r0, .L46
 656 0038 FFF7FEFF 		bl	HAL_UARTEx_SetRxFifoThreshold
 657              	.LVL21:
 419:Core/Src/main.c ****   {
 658              		.loc 1 419 6 view .LVU204
 659 003c 40B9     		cbnz	r0, .L44
 423:Core/Src/main.c ****   {
 660              		.loc 1 423 3 is_stmt 1 view .LVU205
 423:Core/Src/main.c ****   {
 661              		.loc 1 423 7 is_stmt 0 view .LVU206
 662 003e 0648     		ldr	r0, .L46
 663 0040 FFF7FEFF 		bl	HAL_UARTEx_DisableFifoMode
 664              	.LVL22:
 423:Core/Src/main.c ****   {
 665              		.loc 1 423 6 view .LVU207
 666 0044 30B9     		cbnz	r0, .L45
 431:Core/Src/main.c **** 
 667              		.loc 1 431 1 view .LVU208
 668 0046 08BD     		pop	{r3, pc}
 669              	.L42:
 413:Core/Src/main.c ****   }
 670              		.loc 1 413 5 is_stmt 1 view .LVU209
 671 0048 FFF7FEFF 		bl	Error_Handler
 672              	.LVL23:
 673              	.L43:
 417:Core/Src/main.c ****   }
 674              		.loc 1 417 5 view .LVU210
 675 004c FFF7FEFF 		bl	Error_Handler
 676              	.LVL24:
 677              	.L44:
 421:Core/Src/main.c ****   }
 678              		.loc 1 421 5 view .LVU211
 679 0050 FFF7FEFF 		bl	Error_Handler
 680              	.LVL25:
 681              	.L45:
 425:Core/Src/main.c ****   }
 682              		.loc 1 425 5 view .LVU212
 683 0054 FFF7FEFF 		bl	Error_Handler
 684              	.LVL26:
 685              	.L47:
 686              		.align	2
 687              	.L46:
 688 0058 00000000 		.word	.LANCHOR2
 689 005c 00500040 		.word	1073762304
 690              		.cfi_endproc
 691              	.LFE156:
 693              		.section	.text.MX_USART2_UART_Init,"ax",%progbits
 694              		.align	1
 695              		.syntax unified
 696              		.thumb
 697              		.thumb_func
 698              		.fpu fpv5-d16
 700              	MX_USART2_UART_Init:
 701              	.LFB157:
 439:Core/Src/main.c **** 
ARM GAS  /tmp/ccs584qG.s 			page 30


 702              		.loc 1 439 1 view -0
 703              		.cfi_startproc
 704              		@ args = 0, pretend = 0, frame = 0
 705              		@ frame_needed = 0, uses_anonymous_args = 0
 706 0000 08B5     		push	{r3, lr}
 707              	.LCFI10:
 708              		.cfi_def_cfa_offset 8
 709              		.cfi_offset 3, -8
 710              		.cfi_offset 14, -4
 448:Core/Src/main.c ****   huart2.Init.BaudRate = 115200;
 711              		.loc 1 448 3 view .LVU214
 448:Core/Src/main.c ****   huart2.Init.BaudRate = 115200;
 712              		.loc 1 448 19 is_stmt 0 view .LVU215
 713 0002 1548     		ldr	r0, .L58
 714 0004 154B     		ldr	r3, .L58+4
 715 0006 0360     		str	r3, [r0]
 449:Core/Src/main.c ****   huart2.Init.WordLength = UART_WORDLENGTH_8B;
 716              		.loc 1 449 3 is_stmt 1 view .LVU216
 449:Core/Src/main.c ****   huart2.Init.WordLength = UART_WORDLENGTH_8B;
 717              		.loc 1 449 24 is_stmt 0 view .LVU217
 718 0008 4FF4E133 		mov	r3, #115200
 719 000c 4360     		str	r3, [r0, #4]
 450:Core/Src/main.c ****   huart2.Init.StopBits = UART_STOPBITS_1;
 720              		.loc 1 450 3 is_stmt 1 view .LVU218
 450:Core/Src/main.c ****   huart2.Init.StopBits = UART_STOPBITS_1;
 721              		.loc 1 450 26 is_stmt 0 view .LVU219
 722 000e 0023     		movs	r3, #0
 723 0010 8360     		str	r3, [r0, #8]
 451:Core/Src/main.c ****   huart2.Init.Parity = UART_PARITY_NONE;
 724              		.loc 1 451 3 is_stmt 1 view .LVU220
 451:Core/Src/main.c ****   huart2.Init.Parity = UART_PARITY_NONE;
 725              		.loc 1 451 24 is_stmt 0 view .LVU221
 726 0012 C360     		str	r3, [r0, #12]
 452:Core/Src/main.c ****   huart2.Init.Mode = UART_MODE_TX_RX;
 727              		.loc 1 452 3 is_stmt 1 view .LVU222
 452:Core/Src/main.c ****   huart2.Init.Mode = UART_MODE_TX_RX;
 728              		.loc 1 452 22 is_stmt 0 view .LVU223
 729 0014 0361     		str	r3, [r0, #16]
 453:Core/Src/main.c ****   huart2.Init.HwFlowCtl = UART_HWCONTROL_NONE;
 730              		.loc 1 453 3 is_stmt 1 view .LVU224
 453:Core/Src/main.c ****   huart2.Init.HwFlowCtl = UART_HWCONTROL_NONE;
 731              		.loc 1 453 20 is_stmt 0 view .LVU225
 732 0016 0C22     		movs	r2, #12
 733 0018 4261     		str	r2, [r0, #20]
 454:Core/Src/main.c ****   huart2.Init.OverSampling = UART_OVERSAMPLING_16;
 734              		.loc 1 454 3 is_stmt 1 view .LVU226
 454:Core/Src/main.c ****   huart2.Init.OverSampling = UART_OVERSAMPLING_16;
 735              		.loc 1 454 25 is_stmt 0 view .LVU227
 736 001a 8361     		str	r3, [r0, #24]
 455:Core/Src/main.c ****   huart2.Init.OneBitSampling = UART_ONE_BIT_SAMPLE_DISABLE;
 737              		.loc 1 455 3 is_stmt 1 view .LVU228
 455:Core/Src/main.c ****   huart2.Init.OneBitSampling = UART_ONE_BIT_SAMPLE_DISABLE;
 738              		.loc 1 455 28 is_stmt 0 view .LVU229
 739 001c C361     		str	r3, [r0, #28]
 456:Core/Src/main.c ****   huart2.Init.ClockPrescaler = UART_PRESCALER_DIV1;
 740              		.loc 1 456 3 is_stmt 1 view .LVU230
 456:Core/Src/main.c ****   huart2.Init.ClockPrescaler = UART_PRESCALER_DIV1;
ARM GAS  /tmp/ccs584qG.s 			page 31


 741              		.loc 1 456 30 is_stmt 0 view .LVU231
 742 001e 0362     		str	r3, [r0, #32]
 457:Core/Src/main.c ****   huart2.AdvancedInit.AdvFeatureInit = UART_ADVFEATURE_NO_INIT;
 743              		.loc 1 457 3 is_stmt 1 view .LVU232
 457:Core/Src/main.c ****   huart2.AdvancedInit.AdvFeatureInit = UART_ADVFEATURE_NO_INIT;
 744              		.loc 1 457 30 is_stmt 0 view .LVU233
 745 0020 4362     		str	r3, [r0, #36]
 458:Core/Src/main.c ****   if (HAL_UART_Init(&huart2) != HAL_OK)
 746              		.loc 1 458 3 is_stmt 1 view .LVU234
 458:Core/Src/main.c ****   if (HAL_UART_Init(&huart2) != HAL_OK)
 747              		.loc 1 458 38 is_stmt 0 view .LVU235
 748 0022 8362     		str	r3, [r0, #40]
 459:Core/Src/main.c ****   {
 749              		.loc 1 459 3 is_stmt 1 view .LVU236
 459:Core/Src/main.c ****   {
 750              		.loc 1 459 7 is_stmt 0 view .LVU237
 751 0024 FFF7FEFF 		bl	HAL_UART_Init
 752              	.LVL27:
 459:Core/Src/main.c ****   {
 753              		.loc 1 459 6 view .LVU238
 754 0028 70B9     		cbnz	r0, .L54
 463:Core/Src/main.c ****   {
 755              		.loc 1 463 3 is_stmt 1 view .LVU239
 463:Core/Src/main.c ****   {
 756              		.loc 1 463 7 is_stmt 0 view .LVU240
 757 002a 0021     		movs	r1, #0
 758 002c 0A48     		ldr	r0, .L58
 759 002e FFF7FEFF 		bl	HAL_UARTEx_SetTxFifoThreshold
 760              	.LVL28:
 463:Core/Src/main.c ****   {
 761              		.loc 1 463 6 view .LVU241
 762 0032 58B9     		cbnz	r0, .L55
 467:Core/Src/main.c ****   {
 763              		.loc 1 467 3 is_stmt 1 view .LVU242
 467:Core/Src/main.c ****   {
 764              		.loc 1 467 7 is_stmt 0 view .LVU243
 765 0034 0021     		movs	r1, #0
 766 0036 0848     		ldr	r0, .L58
 767 0038 FFF7FEFF 		bl	HAL_UARTEx_SetRxFifoThreshold
 768              	.LVL29:
 467:Core/Src/main.c ****   {
 769              		.loc 1 467 6 view .LVU244
 770 003c 40B9     		cbnz	r0, .L56
 471:Core/Src/main.c ****   {
 771              		.loc 1 471 3 is_stmt 1 view .LVU245
 471:Core/Src/main.c ****   {
 772              		.loc 1 471 7 is_stmt 0 view .LVU246
 773 003e 0648     		ldr	r0, .L58
 774 0040 FFF7FEFF 		bl	HAL_UARTEx_DisableFifoMode
 775              	.LVL30:
 471:Core/Src/main.c ****   {
 776              		.loc 1 471 6 view .LVU247
 777 0044 30B9     		cbnz	r0, .L57
 479:Core/Src/main.c **** 
 778              		.loc 1 479 1 view .LVU248
 779 0046 08BD     		pop	{r3, pc}
 780              	.L54:
ARM GAS  /tmp/ccs584qG.s 			page 32


 461:Core/Src/main.c ****   }
 781              		.loc 1 461 5 is_stmt 1 view .LVU249
 782 0048 FFF7FEFF 		bl	Error_Handler
 783              	.LVL31:
 784              	.L55:
 465:Core/Src/main.c ****   }
 785              		.loc 1 465 5 view .LVU250
 786 004c FFF7FEFF 		bl	Error_Handler
 787              	.LVL32:
 788              	.L56:
 469:Core/Src/main.c ****   }
 789              		.loc 1 469 5 view .LVU251
 790 0050 FFF7FEFF 		bl	Error_Handler
 791              	.LVL33:
 792              	.L57:
 473:Core/Src/main.c ****   }
 793              		.loc 1 473 5 view .LVU252
 794 0054 FFF7FEFF 		bl	Error_Handler
 795              	.LVL34:
 796              	.L59:
 797              		.align	2
 798              	.L58:
 799 0058 00000000 		.word	.LANCHOR3
 800 005c 00440040 		.word	1073759232
 801              		.cfi_endproc
 802              	.LFE157:
 804              		.section	.text.MX_OCTOSPI1_Init,"ax",%progbits
 805              		.align	1
 806              		.syntax unified
 807              		.thumb
 808              		.thumb_func
 809              		.fpu fpv5-d16
 811              	MX_OCTOSPI1_Init:
 812              	.LFB153:
 245:Core/Src/main.c **** 
 813              		.loc 1 245 1 view -0
 814              		.cfi_startproc
 815              		@ args = 0, pretend = 0, frame = 24
 816              		@ frame_needed = 0, uses_anonymous_args = 0
 817 0000 00B5     		push	{lr}
 818              	.LCFI11:
 819              		.cfi_def_cfa_offset 4
 820              		.cfi_offset 14, -4
 821 0002 87B0     		sub	sp, sp, #28
 822              	.LCFI12:
 823              		.cfi_def_cfa_offset 32
 251:Core/Src/main.c **** 
 824              		.loc 1 251 3 view .LVU254
 251:Core/Src/main.c **** 
 825              		.loc 1 251 20 is_stmt 0 view .LVU255
 826 0004 0023     		movs	r3, #0
 827 0006 0093     		str	r3, [sp]
 828 0008 0193     		str	r3, [sp, #4]
 829 000a 0293     		str	r3, [sp, #8]
 830 000c 0393     		str	r3, [sp, #12]
 831 000e 0493     		str	r3, [sp, #16]
 832 0010 0593     		str	r3, [sp, #20]
ARM GAS  /tmp/ccs584qG.s 			page 33


 257:Core/Src/main.c ****   hospi1.Init.FifoThreshold = 1;
 833              		.loc 1 257 3 is_stmt 1 view .LVU256
 257:Core/Src/main.c ****   hospi1.Init.FifoThreshold = 1;
 834              		.loc 1 257 19 is_stmt 0 view .LVU257
 835 0012 1648     		ldr	r0, .L66
 836 0014 164A     		ldr	r2, .L66+4
 837 0016 0260     		str	r2, [r0]
 258:Core/Src/main.c ****   hospi1.Init.DualQuad = HAL_OSPI_DUALQUAD_DISABLE;
 838              		.loc 1 258 3 is_stmt 1 view .LVU258
 258:Core/Src/main.c ****   hospi1.Init.DualQuad = HAL_OSPI_DUALQUAD_DISABLE;
 839              		.loc 1 258 29 is_stmt 0 view .LVU259
 840 0018 0122     		movs	r2, #1
 841 001a 4260     		str	r2, [r0, #4]
 259:Core/Src/main.c ****   hospi1.Init.MemoryType = HAL_OSPI_MEMTYPE_MICRON;
 842              		.loc 1 259 3 is_stmt 1 view .LVU260
 259:Core/Src/main.c ****   hospi1.Init.MemoryType = HAL_OSPI_MEMTYPE_MICRON;
 843              		.loc 1 259 24 is_stmt 0 view .LVU261
 844 001c 8360     		str	r3, [r0, #8]
 260:Core/Src/main.c ****   hospi1.Init.DeviceSize = 24;
 845              		.loc 1 260 3 is_stmt 1 view .LVU262
 260:Core/Src/main.c ****   hospi1.Init.DeviceSize = 24;
 846              		.loc 1 260 26 is_stmt 0 view .LVU263
 847 001e C360     		str	r3, [r0, #12]
 261:Core/Src/main.c ****   hospi1.Init.ChipSelectHighTime = 1;
 848              		.loc 1 261 3 is_stmt 1 view .LVU264
 261:Core/Src/main.c ****   hospi1.Init.ChipSelectHighTime = 1;
 849              		.loc 1 261 26 is_stmt 0 view .LVU265
 850 0020 1821     		movs	r1, #24
 851 0022 0161     		str	r1, [r0, #16]
 262:Core/Src/main.c ****   hospi1.Init.FreeRunningClock = HAL_OSPI_FREERUNCLK_DISABLE;
 852              		.loc 1 262 3 is_stmt 1 view .LVU266
 262:Core/Src/main.c ****   hospi1.Init.FreeRunningClock = HAL_OSPI_FREERUNCLK_DISABLE;
 853              		.loc 1 262 34 is_stmt 0 view .LVU267
 854 0024 4261     		str	r2, [r0, #20]
 263:Core/Src/main.c ****   hospi1.Init.ClockMode = HAL_OSPI_CLOCK_MODE_0;
 855              		.loc 1 263 3 is_stmt 1 view .LVU268
 263:Core/Src/main.c ****   hospi1.Init.ClockMode = HAL_OSPI_CLOCK_MODE_0;
 856              		.loc 1 263 32 is_stmt 0 view .LVU269
 857 0026 8361     		str	r3, [r0, #24]
 264:Core/Src/main.c ****   hospi1.Init.WrapSize = HAL_OSPI_WRAP_NOT_SUPPORTED;
 858              		.loc 1 264 3 is_stmt 1 view .LVU270
 264:Core/Src/main.c ****   hospi1.Init.WrapSize = HAL_OSPI_WRAP_NOT_SUPPORTED;
 859              		.loc 1 264 25 is_stmt 0 view .LVU271
 860 0028 C361     		str	r3, [r0, #28]
 265:Core/Src/main.c ****   hospi1.Init.ClockPrescaler = 2;
 861              		.loc 1 265 3 is_stmt 1 view .LVU272
 265:Core/Src/main.c ****   hospi1.Init.ClockPrescaler = 2;
 862              		.loc 1 265 24 is_stmt 0 view .LVU273
 863 002a 0362     		str	r3, [r0, #32]
 266:Core/Src/main.c ****   hospi1.Init.SampleShifting = HAL_OSPI_SAMPLE_SHIFTING_NONE;
 864              		.loc 1 266 3 is_stmt 1 view .LVU274
 266:Core/Src/main.c ****   hospi1.Init.SampleShifting = HAL_OSPI_SAMPLE_SHIFTING_NONE;
 865              		.loc 1 266 30 is_stmt 0 view .LVU275
 866 002c 0222     		movs	r2, #2
 867 002e 4262     		str	r2, [r0, #36]
 267:Core/Src/main.c ****   hospi1.Init.DelayHoldQuarterCycle = HAL_OSPI_DHQC_DISABLE;
 868              		.loc 1 267 3 is_stmt 1 view .LVU276
ARM GAS  /tmp/ccs584qG.s 			page 34


 267:Core/Src/main.c ****   hospi1.Init.DelayHoldQuarterCycle = HAL_OSPI_DHQC_DISABLE;
 869              		.loc 1 267 30 is_stmt 0 view .LVU277
 870 0030 8362     		str	r3, [r0, #40]
 268:Core/Src/main.c ****   hospi1.Init.ChipSelectBoundary = 0;
 871              		.loc 1 268 3 is_stmt 1 view .LVU278
 268:Core/Src/main.c ****   hospi1.Init.ChipSelectBoundary = 0;
 872              		.loc 1 268 37 is_stmt 0 view .LVU279
 873 0032 C362     		str	r3, [r0, #44]
 269:Core/Src/main.c ****   hospi1.Init.DelayBlockBypass = HAL_OSPI_DELAY_BLOCK_BYPASSED;
 874              		.loc 1 269 3 is_stmt 1 view .LVU280
 269:Core/Src/main.c ****   hospi1.Init.DelayBlockBypass = HAL_OSPI_DELAY_BLOCK_BYPASSED;
 875              		.loc 1 269 34 is_stmt 0 view .LVU281
 876 0034 0363     		str	r3, [r0, #48]
 270:Core/Src/main.c ****   hospi1.Init.MaxTran = 0;
 877              		.loc 1 270 3 is_stmt 1 view .LVU282
 270:Core/Src/main.c ****   hospi1.Init.MaxTran = 0;
 878              		.loc 1 270 32 is_stmt 0 view .LVU283
 879 0036 0822     		movs	r2, #8
 880 0038 4263     		str	r2, [r0, #52]
 271:Core/Src/main.c ****   hospi1.Init.Refresh = 0;
 881              		.loc 1 271 3 is_stmt 1 view .LVU284
 271:Core/Src/main.c ****   hospi1.Init.Refresh = 0;
 882              		.loc 1 271 23 is_stmt 0 view .LVU285
 883 003a 8363     		str	r3, [r0, #56]
 272:Core/Src/main.c ****   if (HAL_OSPI_Init(&hospi1) != HAL_OK)
 884              		.loc 1 272 3 is_stmt 1 view .LVU286
 272:Core/Src/main.c ****   if (HAL_OSPI_Init(&hospi1) != HAL_OK)
 885              		.loc 1 272 23 is_stmt 0 view .LVU287
 886 003c C363     		str	r3, [r0, #60]
 273:Core/Src/main.c ****   {
 887              		.loc 1 273 3 is_stmt 1 view .LVU288
 273:Core/Src/main.c ****   {
 888              		.loc 1 273 7 is_stmt 0 view .LVU289
 889 003e FFF7FEFF 		bl	HAL_OSPI_Init
 890              	.LVL35:
 273:Core/Src/main.c ****   {
 891              		.loc 1 273 6 view .LVU290
 892 0042 70B9     		cbnz	r0, .L64
 277:Core/Src/main.c ****   sOspiManagerCfg.IOLowPort = HAL_OSPIM_IOPORT_1_LOW;
 893              		.loc 1 277 3 is_stmt 1 view .LVU291
 277:Core/Src/main.c ****   sOspiManagerCfg.IOLowPort = HAL_OSPIM_IOPORT_1_LOW;
 894              		.loc 1 277 27 is_stmt 0 view .LVU292
 895 0044 0123     		movs	r3, #1
 896 0046 0093     		str	r3, [sp]
 278:Core/Src/main.c ****   if (HAL_OSPIM_Config(&hospi1, &sOspiManagerCfg, HAL_OSPI_TIMEOUT_DEFAULT_VALUE) != HAL_OK)
 897              		.loc 1 278 3 is_stmt 1 view .LVU293
 278:Core/Src/main.c ****   if (HAL_OSPIM_Config(&hospi1, &sOspiManagerCfg, HAL_OSPI_TIMEOUT_DEFAULT_VALUE) != HAL_OK)
 898              		.loc 1 278 29 is_stmt 0 view .LVU294
 899 0048 4FF00113 		mov	r3, #65537
 900 004c 0393     		str	r3, [sp, #12]
 279:Core/Src/main.c ****   {
 901              		.loc 1 279 3 is_stmt 1 view .LVU295
 279:Core/Src/main.c ****   {
 902              		.loc 1 279 7 is_stmt 0 view .LVU296
 903 004e 41F28832 		movw	r2, #5000
 904 0052 6946     		mov	r1, sp
 905 0054 0548     		ldr	r0, .L66
ARM GAS  /tmp/ccs584qG.s 			page 35


 906 0056 FFF7FEFF 		bl	HAL_OSPIM_Config
 907              	.LVL36:
 279:Core/Src/main.c ****   {
 908              		.loc 1 279 6 view .LVU297
 909 005a 20B9     		cbnz	r0, .L65
 287:Core/Src/main.c **** 
 910              		.loc 1 287 1 view .LVU298
 911 005c 07B0     		add	sp, sp, #28
 912              	.LCFI13:
 913              		.cfi_remember_state
 914              		.cfi_def_cfa_offset 4
 915              		@ sp needed
 916 005e 5DF804FB 		ldr	pc, [sp], #4
 917              	.L64:
 918              	.LCFI14:
 919              		.cfi_restore_state
 275:Core/Src/main.c ****   }
 920              		.loc 1 275 5 is_stmt 1 view .LVU299
 921 0062 FFF7FEFF 		bl	Error_Handler
 922              	.LVL37:
 923              	.L65:
 281:Core/Src/main.c ****   }
 924              		.loc 1 281 5 view .LVU300
 925 0066 FFF7FEFF 		bl	Error_Handler
 926              	.LVL38:
 927              	.L67:
 928 006a 00BF     		.align	2
 929              	.L66:
 930 006c 00000000 		.word	.LANCHOR4
 931 0070 00500052 		.word	1375752192
 932              		.cfi_endproc
 933              	.LFE153:
 935              		.section	.text.SystemClock_Config,"ax",%progbits
 936              		.align	1
 937              		.global	SystemClock_Config
 938              		.syntax unified
 939              		.thumb
 940              		.thumb_func
 941              		.fpu fpv5-d16
 943              	SystemClock_Config:
 944              	.LFB152:
 186:Core/Src/main.c ****   RCC_OscInitTypeDef RCC_OscInitStruct = {0};
 945              		.loc 1 186 1 view -0
 946              		.cfi_startproc
 947              		@ args = 0, pretend = 0, frame = 112
 948              		@ frame_needed = 0, uses_anonymous_args = 0
 949 0000 00B5     		push	{lr}
 950              	.LCFI15:
 951              		.cfi_def_cfa_offset 4
 952              		.cfi_offset 14, -4
 953 0002 9DB0     		sub	sp, sp, #116
 954              	.LCFI16:
 955              		.cfi_def_cfa_offset 120
 187:Core/Src/main.c ****   RCC_ClkInitTypeDef RCC_ClkInitStruct = {0};
 956              		.loc 1 187 3 view .LVU302
 187:Core/Src/main.c ****   RCC_ClkInitTypeDef RCC_ClkInitStruct = {0};
 957              		.loc 1 187 22 is_stmt 0 view .LVU303
ARM GAS  /tmp/ccs584qG.s 			page 36


 958 0004 4C22     		movs	r2, #76
 959 0006 0021     		movs	r1, #0
 960 0008 09A8     		add	r0, sp, #36
 961 000a FFF7FEFF 		bl	memset
 962              	.LVL39:
 188:Core/Src/main.c **** 
 963              		.loc 1 188 3 is_stmt 1 view .LVU304
 188:Core/Src/main.c **** 
 964              		.loc 1 188 22 is_stmt 0 view .LVU305
 965 000e 2022     		movs	r2, #32
 966 0010 0021     		movs	r1, #0
 967 0012 01A8     		add	r0, sp, #4
 968 0014 FFF7FEFF 		bl	memset
 969              	.LVL40:
 192:Core/Src/main.c **** 
 970              		.loc 1 192 3 is_stmt 1 view .LVU306
 971 0018 0220     		movs	r0, #2
 972 001a FFF7FEFF 		bl	HAL_PWREx_ConfigSupply
 973              	.LVL41:
 196:Core/Src/main.c **** 
 974              		.loc 1 196 3 view .LVU307
 975              	.LBB14:
 196:Core/Src/main.c **** 
 976              		.loc 1 196 3 view .LVU308
 977 001e 0023     		movs	r3, #0
 978 0020 0093     		str	r3, [sp]
 196:Core/Src/main.c **** 
 979              		.loc 1 196 3 view .LVU309
 980 0022 204A     		ldr	r2, .L75
 981 0024 9369     		ldr	r3, [r2, #24]
 982 0026 23F44043 		bic	r3, r3, #49152
 983 002a 43F40043 		orr	r3, r3, #32768
 984 002e 9361     		str	r3, [r2, #24]
 196:Core/Src/main.c **** 
 985              		.loc 1 196 3 view .LVU310
 986 0030 9369     		ldr	r3, [r2, #24]
 987 0032 03F44043 		and	r3, r3, #49152
 988 0036 0093     		str	r3, [sp]
 196:Core/Src/main.c **** 
 989              		.loc 1 196 3 view .LVU311
 990 0038 009B     		ldr	r3, [sp]
 991              	.LBE14:
 196:Core/Src/main.c **** 
 992              		.loc 1 196 3 view .LVU312
 198:Core/Src/main.c **** 
 993              		.loc 1 198 3 view .LVU313
 994              	.L69:
 198:Core/Src/main.c **** 
 995              		.loc 1 198 48 discriminator 1 view .LVU314
 198:Core/Src/main.c **** 
 996              		.loc 1 198 8 discriminator 1 view .LVU315
 198:Core/Src/main.c **** 
 997              		.loc 1 198 10 is_stmt 0 discriminator 1 view .LVU316
 998 003a 1A4B     		ldr	r3, .L75
 999 003c 9B69     		ldr	r3, [r3, #24]
 198:Core/Src/main.c **** 
 1000              		.loc 1 198 8 discriminator 1 view .LVU317
ARM GAS  /tmp/ccs584qG.s 			page 37


 1001 003e 13F4005F 		tst	r3, #8192
 1002 0042 FAD0     		beq	.L69
 203:Core/Src/main.c ****   RCC_OscInitStruct.HSEState = RCC_HSE_ON;
 1003              		.loc 1 203 3 is_stmt 1 view .LVU318
 203:Core/Src/main.c ****   RCC_OscInitStruct.HSEState = RCC_HSE_ON;
 1004              		.loc 1 203 36 is_stmt 0 view .LVU319
 1005 0044 0122     		movs	r2, #1
 1006 0046 0992     		str	r2, [sp, #36]
 204:Core/Src/main.c ****   RCC_OscInitStruct.PLL.PLLState = RCC_PLL_ON;
 1007              		.loc 1 204 3 is_stmt 1 view .LVU320
 204:Core/Src/main.c ****   RCC_OscInitStruct.PLL.PLLState = RCC_PLL_ON;
 1008              		.loc 1 204 30 is_stmt 0 view .LVU321
 1009 0048 4FF48033 		mov	r3, #65536
 1010 004c 0A93     		str	r3, [sp, #40]
 205:Core/Src/main.c ****   RCC_OscInitStruct.PLL.PLLSource = RCC_PLLSOURCE_HSE;
 1011              		.loc 1 205 3 is_stmt 1 view .LVU322
 205:Core/Src/main.c ****   RCC_OscInitStruct.PLL.PLLSource = RCC_PLLSOURCE_HSE;
 1012              		.loc 1 205 34 is_stmt 0 view .LVU323
 1013 004e 0223     		movs	r3, #2
 1014 0050 1293     		str	r3, [sp, #72]
 206:Core/Src/main.c ****   RCC_OscInitStruct.PLL.PLLM = 1;
 1015              		.loc 1 206 3 is_stmt 1 view .LVU324
 206:Core/Src/main.c ****   RCC_OscInitStruct.PLL.PLLM = 1;
 1016              		.loc 1 206 35 is_stmt 0 view .LVU325
 1017 0052 1393     		str	r3, [sp, #76]
 207:Core/Src/main.c ****   RCC_OscInitStruct.PLL.PLLN = 24;
 1018              		.loc 1 207 3 is_stmt 1 view .LVU326
 207:Core/Src/main.c ****   RCC_OscInitStruct.PLL.PLLN = 24;
 1019              		.loc 1 207 30 is_stmt 0 view .LVU327
 1020 0054 1492     		str	r2, [sp, #80]
 208:Core/Src/main.c ****   RCC_OscInitStruct.PLL.PLLP = 1;
 1021              		.loc 1 208 3 is_stmt 1 view .LVU328
 208:Core/Src/main.c ****   RCC_OscInitStruct.PLL.PLLP = 1;
 1022              		.loc 1 208 30 is_stmt 0 view .LVU329
 1023 0056 1821     		movs	r1, #24
 1024 0058 1591     		str	r1, [sp, #84]
 209:Core/Src/main.c ****   RCC_OscInitStruct.PLL.PLLQ = 2;
 1025              		.loc 1 209 3 is_stmt 1 view .LVU330
 209:Core/Src/main.c ****   RCC_OscInitStruct.PLL.PLLQ = 2;
 1026              		.loc 1 209 30 is_stmt 0 view .LVU331
 1027 005a 1692     		str	r2, [sp, #88]
 210:Core/Src/main.c ****   RCC_OscInitStruct.PLL.PLLR = 2;
 1028              		.loc 1 210 3 is_stmt 1 view .LVU332
 210:Core/Src/main.c ****   RCC_OscInitStruct.PLL.PLLR = 2;
 1029              		.loc 1 210 30 is_stmt 0 view .LVU333
 1030 005c 1793     		str	r3, [sp, #92]
 211:Core/Src/main.c ****   RCC_OscInitStruct.PLL.PLLRGE = RCC_PLL1VCIRANGE_3;
 1031              		.loc 1 211 3 is_stmt 1 view .LVU334
 211:Core/Src/main.c ****   RCC_OscInitStruct.PLL.PLLRGE = RCC_PLL1VCIRANGE_3;
 1032              		.loc 1 211 30 is_stmt 0 view .LVU335
 1033 005e 1893     		str	r3, [sp, #96]
 212:Core/Src/main.c ****   RCC_OscInitStruct.PLL.PLLVCOSEL = RCC_PLL1VCOWIDE;
 1034              		.loc 1 212 3 is_stmt 1 view .LVU336
 212:Core/Src/main.c ****   RCC_OscInitStruct.PLL.PLLVCOSEL = RCC_PLL1VCOWIDE;
 1035              		.loc 1 212 32 is_stmt 0 view .LVU337
 1036 0060 0C23     		movs	r3, #12
 1037 0062 1993     		str	r3, [sp, #100]
ARM GAS  /tmp/ccs584qG.s 			page 38


 213:Core/Src/main.c ****   RCC_OscInitStruct.PLL.PLLFRACN = 0;
 1038              		.loc 1 213 3 is_stmt 1 view .LVU338
 213:Core/Src/main.c ****   RCC_OscInitStruct.PLL.PLLFRACN = 0;
 1039              		.loc 1 213 35 is_stmt 0 view .LVU339
 1040 0064 0023     		movs	r3, #0
 1041 0066 1A93     		str	r3, [sp, #104]
 214:Core/Src/main.c ****   if (HAL_RCC_OscConfig(&RCC_OscInitStruct) != HAL_OK)
 1042              		.loc 1 214 3 is_stmt 1 view .LVU340
 214:Core/Src/main.c ****   if (HAL_RCC_OscConfig(&RCC_OscInitStruct) != HAL_OK)
 1043              		.loc 1 214 34 is_stmt 0 view .LVU341
 1044 0068 1B93     		str	r3, [sp, #108]
 215:Core/Src/main.c ****   {
 1045              		.loc 1 215 3 is_stmt 1 view .LVU342
 215:Core/Src/main.c ****   {
 1046              		.loc 1 215 7 is_stmt 0 view .LVU343
 1047 006a 09A8     		add	r0, sp, #36
 1048 006c FFF7FEFF 		bl	HAL_RCC_OscConfig
 1049              	.LVL42:
 215:Core/Src/main.c ****   {
 1050              		.loc 1 215 6 view .LVU344
 1051 0070 A0B9     		cbnz	r0, .L73
 222:Core/Src/main.c ****                               |RCC_CLOCKTYPE_PCLK1|RCC_CLOCKTYPE_PCLK2
 1052              		.loc 1 222 3 is_stmt 1 view .LVU345
 222:Core/Src/main.c ****                               |RCC_CLOCKTYPE_PCLK1|RCC_CLOCKTYPE_PCLK2
 1053              		.loc 1 222 31 is_stmt 0 view .LVU346
 1054 0072 3F23     		movs	r3, #63
 1055 0074 0193     		str	r3, [sp, #4]
 225:Core/Src/main.c ****   RCC_ClkInitStruct.SYSCLKDivider = RCC_SYSCLK_DIV1;
 1056              		.loc 1 225 3 is_stmt 1 view .LVU347
 225:Core/Src/main.c ****   RCC_ClkInitStruct.SYSCLKDivider = RCC_SYSCLK_DIV1;
 1057              		.loc 1 225 34 is_stmt 0 view .LVU348
 1058 0076 0323     		movs	r3, #3
 1059 0078 0293     		str	r3, [sp, #8]
 226:Core/Src/main.c ****   RCC_ClkInitStruct.AHBCLKDivider = RCC_HCLK_DIV2;
 1060              		.loc 1 226 3 is_stmt 1 view .LVU349
 226:Core/Src/main.c ****   RCC_ClkInitStruct.AHBCLKDivider = RCC_HCLK_DIV2;
 1061              		.loc 1 226 35 is_stmt 0 view .LVU350
 1062 007a 0023     		movs	r3, #0
 1063 007c 0393     		str	r3, [sp, #12]
 227:Core/Src/main.c ****   RCC_ClkInitStruct.APB3CLKDivider = RCC_APB3_DIV1;
 1064              		.loc 1 227 3 is_stmt 1 view .LVU351
 227:Core/Src/main.c ****   RCC_ClkInitStruct.APB3CLKDivider = RCC_APB3_DIV1;
 1065              		.loc 1 227 35 is_stmt 0 view .LVU352
 1066 007e 0822     		movs	r2, #8
 1067 0080 0492     		str	r2, [sp, #16]
 228:Core/Src/main.c ****   RCC_ClkInitStruct.APB1CLKDivider = RCC_APB1_DIV2;
 1068              		.loc 1 228 3 is_stmt 1 view .LVU353
 228:Core/Src/main.c ****   RCC_ClkInitStruct.APB1CLKDivider = RCC_APB1_DIV2;
 1069              		.loc 1 228 36 is_stmt 0 view .LVU354
 1070 0082 0593     		str	r3, [sp, #20]
 229:Core/Src/main.c ****   RCC_ClkInitStruct.APB2CLKDivider = RCC_APB2_DIV1;
 1071              		.loc 1 229 3 is_stmt 1 view .LVU355
 229:Core/Src/main.c ****   RCC_ClkInitStruct.APB2CLKDivider = RCC_APB2_DIV1;
 1072              		.loc 1 229 36 is_stmt 0 view .LVU356
 1073 0084 4022     		movs	r2, #64
 1074 0086 0692     		str	r2, [sp, #24]
 230:Core/Src/main.c ****   RCC_ClkInitStruct.APB4CLKDivider = RCC_APB4_DIV1;
ARM GAS  /tmp/ccs584qG.s 			page 39


 1075              		.loc 1 230 3 is_stmt 1 view .LVU357
 230:Core/Src/main.c ****   RCC_ClkInitStruct.APB4CLKDivider = RCC_APB4_DIV1;
 1076              		.loc 1 230 36 is_stmt 0 view .LVU358
 1077 0088 0793     		str	r3, [sp, #28]
 231:Core/Src/main.c **** 
 1078              		.loc 1 231 3 is_stmt 1 view .LVU359
 231:Core/Src/main.c **** 
 1079              		.loc 1 231 36 is_stmt 0 view .LVU360
 1080 008a 0893     		str	r3, [sp, #32]
 233:Core/Src/main.c ****   {
 1081              		.loc 1 233 3 is_stmt 1 view .LVU361
 233:Core/Src/main.c ****   {
 1082              		.loc 1 233 7 is_stmt 0 view .LVU362
 1083 008c 0121     		movs	r1, #1
 1084 008e 01A8     		add	r0, sp, #4
 1085 0090 FFF7FEFF 		bl	HAL_RCC_ClockConfig
 1086              	.LVL43:
 233:Core/Src/main.c ****   {
 1087              		.loc 1 233 6 view .LVU363
 1088 0094 20B9     		cbnz	r0, .L74
 237:Core/Src/main.c **** 
 1089              		.loc 1 237 1 view .LVU364
 1090 0096 1DB0     		add	sp, sp, #116
 1091              	.LCFI17:
 1092              		.cfi_remember_state
 1093              		.cfi_def_cfa_offset 4
 1094              		@ sp needed
 1095 0098 5DF804FB 		ldr	pc, [sp], #4
 1096              	.L73:
 1097              	.LCFI18:
 1098              		.cfi_restore_state
 217:Core/Src/main.c ****   }
 1099              		.loc 1 217 5 is_stmt 1 view .LVU365
 1100 009c FFF7FEFF 		bl	Error_Handler
 1101              	.LVL44:
 1102              	.L74:
 235:Core/Src/main.c ****   }
 1103              		.loc 1 235 5 view .LVU366
 1104 00a0 FFF7FEFF 		bl	Error_Handler
 1105              	.LVL45:
 1106              	.L76:
 1107              		.align	2
 1108              	.L75:
 1109 00a4 00480258 		.word	1476544512
 1110              		.cfi_endproc
 1111              	.LFE152:
 1113              		.section	.rodata.main.str1.4,"aMS",%progbits,1
 1114              		.align	2
 1115              	.LC0:
 1116 0000 506F7274 		.ascii	"Port init success\015\012\000"
 1116      20696E69 
 1116      74207375 
 1116      63636573 
 1116      730D0A00 
 1117              		.align	2
 1118              	.LC1:
 1119 0014 506F7274 		.ascii	"Port init failed\015\012\000"
ARM GAS  /tmp/ccs584qG.s 			page 40


 1119      20696E69 
 1119      74206661 
 1119      696C6564 
 1119      0D0A00
 1120 0027 00       		.align	2
 1121              	.LC2:
 1122 0028 52656365 		.ascii	"Received: %d %d %d\015\012\000"
 1122      69766564 
 1122      3A202564 
 1122      20256420 
 1122      25640D0A 
 1123              		.section	.text.main,"ax",%progbits
 1124              		.align	1
 1125              		.global	main
 1126              		.syntax unified
 1127              		.thumb
 1128              		.thumb_func
 1129              		.fpu fpv5-d16
 1131              	main:
 1132              	.LFB151:
  94:Core/Src/main.c **** 
 1133              		.loc 1 94 1 view -0
 1134              		.cfi_startproc
 1135              		@ Volatile: function does not return.
 1136              		@ args = 0, pretend = 0, frame = 40
 1137              		@ frame_needed = 0, uses_anonymous_args = 0
 1138 0000 00B5     		push	{lr}
 1139              	.LCFI19:
 1140              		.cfi_def_cfa_offset 4
 1141              		.cfi_offset 14, -4
 1142 0002 8DB0     		sub	sp, sp, #52
 1143              	.LCFI20:
 1144              		.cfi_def_cfa_offset 56
 103:Core/Src/main.c **** 
 1145              		.loc 1 103 3 view .LVU368
 1146 0004 FFF7FEFF 		bl	HAL_Init
 1147              	.LVL46:
 110:Core/Src/main.c **** 
 1148              		.loc 1 110 3 view .LVU369
 1149 0008 FFF7FEFF 		bl	SystemClock_Config
 1150              	.LVL47:
 117:Core/Src/main.c ****   MX_DMA_Init();
 1151              		.loc 1 117 3 view .LVU370
 1152 000c FFF7FEFF 		bl	MX_GPIO_Init
 1153              	.LVL48:
 118:Core/Src/main.c ****   MX_SPI1_Init();
 1154              		.loc 1 118 3 view .LVU371
 1155 0010 FFF7FEFF 		bl	MX_DMA_Init
 1156              	.LVL49:
 119:Core/Src/main.c ****   MX_UART4_Init();
 1157              		.loc 1 119 3 view .LVU372
 1158 0014 FFF7FEFF 		bl	MX_SPI1_Init
 1159              	.LVL50:
 120:Core/Src/main.c ****   MX_UART5_Init();
 1160              		.loc 1 120 3 view .LVU373
 1161 0018 FFF7FEFF 		bl	MX_UART4_Init
 1162              	.LVL51:
ARM GAS  /tmp/ccs584qG.s 			page 41


 121:Core/Src/main.c ****   MX_USART2_UART_Init();
 1163              		.loc 1 121 3 view .LVU374
 1164 001c FFF7FEFF 		bl	MX_UART5_Init
 1165              	.LVL52:
 122:Core/Src/main.c ****   MX_FATFS_Init();
 1166              		.loc 1 122 3 view .LVU375
 1167 0020 FFF7FEFF 		bl	MX_USART2_UART_Init
 1168              	.LVL53:
 123:Core/Src/main.c ****   MX_OCTOSPI1_Init();
 1169              		.loc 1 123 3 view .LVU376
 1170 0024 FFF7FEFF 		bl	MX_FATFS_Init
 1171              	.LVL54:
 124:Core/Src/main.c ****   /* USER CODE BEGIN 2 */
 1172              		.loc 1 124 3 view .LVU377
 1173 0028 FFF7FEFF 		bl	MX_OCTOSPI1_Init
 1174              	.LVL55:
 126:Core/Src/main.c ****     HAL_UART_Transmit(&debug_uart, "Port init success\r\n", 19, HAL_MAX_DELAY);
 1175              		.loc 1 126 3 view .LVU378
 126:Core/Src/main.c ****     HAL_UART_Transmit(&debug_uart, "Port init success\r\n", 19, HAL_MAX_DELAY);
 1176              		.loc 1 126 7 is_stmt 0 view .LVU379
 1177 002c FFF7FEFF 		bl	port_init
 1178              	.LVL56:
 126:Core/Src/main.c ****     HAL_UART_Transmit(&debug_uart, "Port init success\r\n", 19, HAL_MAX_DELAY);
 1179              		.loc 1 126 6 view .LVU380
 1180 0030 48B1     		cbz	r0, .L78
 127:Core/Src/main.c ****   } else {
 1181              		.loc 1 127 5 is_stmt 1 view .LVU381
 1182 0032 4FF0FF33 		mov	r3, #-1
 1183 0036 1322     		movs	r2, #19
 1184 0038 1949     		ldr	r1, .L84
 1185 003a 1A48     		ldr	r0, .L84+4
 1186 003c FFF7FEFF 		bl	HAL_UART_Transmit
 1187              	.LVL57:
 1188              	.L79:
 131:Core/Src/main.c ****   //HAL_UARTEx_ReceiveToIdle_IT(&huart4, rx_buffer, MESSAGE_MAX_SIZE);
 1189              		.loc 1 131 3 view .LVU382
 1190 0040 FFF7FEFF 		bl	port_start
 1191              	.LVL58:
 1192 0044 0EE0     		b	.L81
 1193              	.L78:
 129:Core/Src/main.c ****   }
 1194              		.loc 1 129 5 view .LVU383
 1195 0046 4FF0FF33 		mov	r3, #-1
 1196 004a 1222     		movs	r2, #18
 1197 004c 1649     		ldr	r1, .L84+8
 1198 004e 1548     		ldr	r0, .L84+4
 1199 0050 FFF7FEFF 		bl	HAL_UART_Transmit
 1200              	.LVL59:
 1201 0054 F4E7     		b	.L79
 1202              	.L83:
 1203              	.LBB15:
 173:Core/Src/main.c ****       ack_packet_size = 0;
 1204              		.loc 1 173 7 view .LVU384
 1205 0056 1549     		ldr	r1, .L84+12
 1206 0058 1548     		ldr	r0, .L84+16
 1207 005a FFF7FEFF 		bl	HAL_UART_Transmit_IT
 1208              	.LVL60:
ARM GAS  /tmp/ccs584qG.s 			page 42


 174:Core/Src/main.c ****     }
 1209              		.loc 1 174 7 view .LVU385
 174:Core/Src/main.c ****     }
 1210              		.loc 1 174 23 is_stmt 0 view .LVU386
 1211 005e 154B     		ldr	r3, .L84+20
 1212 0060 0022     		movs	r2, #0
 1213 0062 1A80     		strh	r2, [r3]	@ movhi
 1214              	.LBE15:
 161:Core/Src/main.c ****   {
 1215              		.loc 1 161 9 is_stmt 1 view .LVU387
 1216              	.L81:
 161:Core/Src/main.c ****   {
 1217              		.loc 1 161 3 view .LVU388
 1218              	.LBB16:
 167:Core/Src/main.c ****     sprintf(buf, "Received: %d %d %d\r\n", n_bytes_received, n_times_recieved, messages_recieved);
 1219              		.loc 1 167 5 view .LVU389
 168:Core/Src/main.c ****     HAL_UART_Transmit(&debug_uart, buf, strlen(buf), HAL_MAX_DELAY);
 1220              		.loc 1 168 5 view .LVU390
 1221 0064 144B     		ldr	r3, .L84+24
 1222 0066 1B78     		ldrb	r3, [r3]	@ zero_extendqisi2
 1223 0068 0093     		str	r3, [sp]
 1224 006a 144B     		ldr	r3, .L84+28
 1225 006c 1B88     		ldrh	r3, [r3]
 1226 006e 144A     		ldr	r2, .L84+32
 1227 0070 1288     		ldrh	r2, [r2]
 1228 0072 1449     		ldr	r1, .L84+36
 1229 0074 02A8     		add	r0, sp, #8
 1230 0076 FFF7FEFF 		bl	sprintf
 1231              	.LVL61:
 169:Core/Src/main.c ****     HAL_Delay(100);
 1232              		.loc 1 169 5 view .LVU391
 169:Core/Src/main.c ****     HAL_Delay(100);
 1233              		.loc 1 169 41 is_stmt 0 view .LVU392
 1234 007a 02A8     		add	r0, sp, #8
 1235 007c FFF7FEFF 		bl	strlen
 1236              	.LVL62:
 169:Core/Src/main.c ****     HAL_Delay(100);
 1237              		.loc 1 169 5 view .LVU393
 1238 0080 4FF0FF33 		mov	r3, #-1
 1239 0084 82B2     		uxth	r2, r0
 1240 0086 02A9     		add	r1, sp, #8
 1241 0088 0648     		ldr	r0, .L84+4
 1242 008a FFF7FEFF 		bl	HAL_UART_Transmit
 1243              	.LVL63:
 170:Core/Src/main.c **** 
 1244              		.loc 1 170 5 is_stmt 1 view .LVU394
 1245 008e 6420     		movs	r0, #100
 1246 0090 FFF7FEFF 		bl	HAL_Delay
 1247              	.LVL64:
 172:Core/Src/main.c ****       HAL_UART_Transmit_IT(&huart4, ack_packet_buffer, ack_packet_size);
 1248              		.loc 1 172 5 view .LVU395
 172:Core/Src/main.c ****       HAL_UART_Transmit_IT(&huart4, ack_packet_buffer, ack_packet_size);
 1249              		.loc 1 172 25 is_stmt 0 view .LVU396
 1250 0094 074B     		ldr	r3, .L84+20
 1251 0096 1A88     		ldrh	r2, [r3]
 172:Core/Src/main.c ****       HAL_UART_Transmit_IT(&huart4, ack_packet_buffer, ack_packet_size);
 1252              		.loc 1 172 8 view .LVU397
ARM GAS  /tmp/ccs584qG.s 			page 43


 1253 0098 002A     		cmp	r2, #0
 1254 009a E3D0     		beq	.L81
 1255 009c DBE7     		b	.L83
 1256              	.L85:
 1257 009e 00BF     		.align	2
 1258              	.L84:
 1259 00a0 00000000 		.word	.LC0
 1260 00a4 00000000 		.word	.LANCHOR3
 1261 00a8 14000000 		.word	.LC1
 1262 00ac 00000000 		.word	.LANCHOR9
 1263 00b0 00000000 		.word	.LANCHOR1
 1264 00b4 00000000 		.word	.LANCHOR8
 1265 00b8 00000000 		.word	.LANCHOR7
 1266 00bc 00000000 		.word	.LANCHOR5
 1267 00c0 00000000 		.word	.LANCHOR6
 1268 00c4 28000000 		.word	.LC2
 1269              	.LBE16:
 1270              		.cfi_endproc
 1271              	.LFE151:
 1273              		.global	n_times_recieved
 1274              		.global	n_bytes_received
 1275              		.global	prev_size
 1276              		.global	ack_packet_size
 1277              		.global	ack_packet_buffer
 1278              		.global	rx_buffer
 1279              		.global	message_buffer_size
 1280              		.global	message_buffer
 1281              		.global	messages_recieved
 1282              		.global	hdma_uart4_tx
 1283              		.global	huart2
 1284              		.global	huart5
 1285              		.global	huart4
 1286              		.global	hspi1
 1287              		.global	hospi1
 1288              		.section	.bss.ack_packet_buffer,"aw",%nobits
 1289              		.align	2
 1290              		.set	.LANCHOR9,. + 0
 1293              	ack_packet_buffer:
 1294 0000 00000000 		.space	32
 1294      00000000 
 1294      00000000 
 1294      00000000 
 1294      00000000 
 1295              		.section	.bss.ack_packet_size,"aw",%nobits
 1296              		.align	1
 1297              		.set	.LANCHOR8,. + 0
 1300              	ack_packet_size:
 1301 0000 0000     		.space	2
 1302              		.section	.bss.hdma_uart4_tx,"aw",%nobits
 1303              		.align	2
 1306              	hdma_uart4_tx:
 1307 0000 00000000 		.space	120
 1307      00000000 
 1307      00000000 
 1307      00000000 
 1307      00000000 
 1308              		.section	.bss.hospi1,"aw",%nobits
ARM GAS  /tmp/ccs584qG.s 			page 44


 1309              		.align	2
 1310              		.set	.LANCHOR4,. + 0
 1313              	hospi1:
 1314 0000 00000000 		.space	92
 1314      00000000 
 1314      00000000 
 1314      00000000 
 1314      00000000 
 1315              		.section	.bss.hspi1,"aw",%nobits
 1316              		.align	2
 1317              		.set	.LANCHOR0,. + 0
 1320              	hspi1:
 1321 0000 00000000 		.space	136
 1321      00000000 
 1321      00000000 
 1321      00000000 
 1321      00000000 
 1322              		.section	.bss.huart2,"aw",%nobits
 1323              		.align	2
 1324              		.set	.LANCHOR3,. + 0
 1327              	huart2:
 1328 0000 00000000 		.space	148
 1328      00000000 
 1328      00000000 
 1328      00000000 
 1328      00000000 
 1329              		.section	.bss.huart4,"aw",%nobits
 1330              		.align	2
 1331              		.set	.LANCHOR1,. + 0
 1334              	huart4:
 1335 0000 00000000 		.space	148
 1335      00000000 
 1335      00000000 
 1335      00000000 
 1335      00000000 
 1336              		.section	.bss.huart5,"aw",%nobits
 1337              		.align	2
 1338              		.set	.LANCHOR2,. + 0
 1341              	huart5:
 1342 0000 00000000 		.space	148
 1342      00000000 
 1342      00000000 
 1342      00000000 
 1342      00000000 
 1343              		.section	.bss.message_buffer,"aw",%nobits
 1344              		.align	2
 1347              	message_buffer:
 1348 0000 00000000 		.space	32
 1348      00000000 
 1348      00000000 
 1348      00000000 
 1348      00000000 
 1349              		.section	.bss.message_buffer_size,"aw",%nobits
 1350              		.align	1
 1353              	message_buffer_size:
 1354 0000 0000     		.space	2
 1355              		.section	.bss.messages_recieved,"aw",%nobits
ARM GAS  /tmp/ccs584qG.s 			page 45


 1356              		.set	.LANCHOR7,. + 0
 1359              	messages_recieved:
 1360 0000 00       		.space	1
 1361              		.section	.bss.n_bytes_received,"aw",%nobits
 1362              		.align	1
 1363              		.set	.LANCHOR6,. + 0
 1366              	n_bytes_received:
 1367 0000 0000     		.space	2
 1368              		.section	.bss.n_times_recieved,"aw",%nobits
 1369              		.align	1
 1370              		.set	.LANCHOR5,. + 0
 1373              	n_times_recieved:
 1374 0000 0000     		.space	2
 1375              		.section	.bss.prev_size,"aw",%nobits
 1376              		.align	1
 1379              	prev_size:
 1380 0000 0000     		.space	2
 1381              		.section	.bss.rx_buffer,"aw",%nobits
 1382              		.align	2
 1385              	rx_buffer:
 1386 0000 00000000 		.space	32
 1386      00000000 
 1386      00000000 
 1386      00000000 
 1386      00000000 
 1387              		.text
 1388              	.Letext0:
 1389              		.file 3 "/usr/lib/gcc/arm-none-eabi/10.3.1/include/stdint.h"
 1390              		.file 4 "Drivers/CMSIS/Device/ST/STM32H7xx/Include/stm32h725xx.h"
 1391              		.file 5 "Drivers/STM32H7xx_HAL_Driver/Inc/stm32h7xx_hal_def.h"
 1392              		.file 6 "Drivers/STM32H7xx_HAL_Driver/Inc/stm32h7xx_hal_rcc.h"
 1393              		.file 7 "Drivers/STM32H7xx_HAL_Driver/Inc/stm32h7xx_hal_gpio.h"
 1394              		.file 8 "Drivers/STM32H7xx_HAL_Driver/Inc/stm32h7xx_hal_dma.h"
 1395              		.file 9 "Drivers/STM32H7xx_HAL_Driver/Inc/stm32h7xx_hal_mdma.h"
 1396              		.file 10 "Drivers/STM32H7xx_HAL_Driver/Inc/stm32h7xx_hal_ospi.h"
 1397              		.file 11 "Drivers/STM32H7xx_HAL_Driver/Inc/stm32h7xx_hal_spi.h"
 1398              		.file 12 "Drivers/STM32H7xx_HAL_Driver/Inc/stm32h7xx_hal_tim.h"
 1399              		.file 13 "Drivers/STM32H7xx_HAL_Driver/Inc/stm32h7xx_hal_uart.h"
 1400              		.file 14 "../Core/Include/FreeRTOSConfig.h"
 1401              		.file 15 "../Core/Include/globals.h"
 1402              		.file 16 "Drivers/STM32H7xx_HAL_Driver/Inc/stm32h7xx_hal.h"
 1403              		.file 17 "Drivers/STM32H7xx_HAL_Driver/Inc/stm32h7xx_hal_cortex.h"
 1404              		.file 18 "Drivers/STM32H7xx_HAL_Driver/Inc/stm32h7xx_hal_uart_ex.h"
 1405              		.file 19 "Drivers/STM32H7xx_HAL_Driver/Inc/stm32h7xx_hal_pwr_ex.h"
 1406              		.file 20 "/usr/include/newlib/stdio.h"
 1407              		.file 21 "/usr/include/newlib/string.h"
 1408              		.file 22 "FATFS/App/fatfs.h"
 1409              		.file 23 "../Core/Include/port_layer.h"
 1410              		.file 24 "<built-in>"
ARM GAS  /tmp/ccs584qG.s 			page 46

