ARM GAS  /tmp/cctnoRdP.s 			page 1


   1              		.cpu cortex-m7
   2              		.eabi_attribute 28, 1
   3              		.eabi_attribute 20, 1
   4              		.eabi_attribute 21, 1
   5              		.eabi_attribute 23, 3
   6              		.eabi_attribute 24, 1
   7              		.eabi_attribute 25, 1
   8              		.eabi_attribute 26, 1
   9              		.eabi_attribute 30, 1
  10              		.eabi_attribute 34, 1
  11              		.eabi_attribute 18, 4
  12              		.file	"main.c"
  13              		.text
  14              	.Ltext0:
  15              		.cfi_sections	.debug_frame
  16              		.section	.text.MX_GPIO_Init,"ax",%progbits
  17              		.align	1
  18              		.arch armv7e-m
  19              		.syntax unified
  20              		.thumb
  21              		.thumb_func
  22              		.fpu fpv5-d16
  24              	MX_GPIO_Init:
  25              	.LFB158:
  26              		.file 1 "Core/Src/main.c"
   1:Core/Src/main.c **** /* USER CODE BEGIN Header */
   2:Core/Src/main.c **** /**
   3:Core/Src/main.c ****   ******************************************************************************
   4:Core/Src/main.c ****   * @file           : main.c
   5:Core/Src/main.c ****   * @brief          : Main program body
   6:Core/Src/main.c ****   ******************************************************************************
   7:Core/Src/main.c ****   * @attention
   8:Core/Src/main.c ****   *
   9:Core/Src/main.c ****   * Copyright (c) 2024 STMicroelectronics.
  10:Core/Src/main.c ****   * All rights reserved.
  11:Core/Src/main.c ****   *
  12:Core/Src/main.c ****   * This software is licensed under terms that can be found in the LICENSE file
  13:Core/Src/main.c ****   * in the root directory of this software component.
  14:Core/Src/main.c ****   * If no LICENSE file comes with this software, it is provided AS-IS.
  15:Core/Src/main.c ****   *
  16:Core/Src/main.c ****   ******************************************************************************
  17:Core/Src/main.c ****   */
  18:Core/Src/main.c **** /* USER CODE END Header */
  19:Core/Src/main.c **** /* Includes ------------------------------------------------------------------*/
  20:Core/Src/main.c **** #include "main.h"
  21:Core/Src/main.c **** #include "fatfs.h"
  22:Core/Src/main.c **** 
  23:Core/Src/main.c **** /* Private includes ----------------------------------------------------------*/
  24:Core/Src/main.c **** /* USER CODE BEGIN Includes */
  25:Core/Src/main.c **** #include "packet_encode.h"
  26:Core/Src/main.c **** #include "protocol.h"
  27:Core/Src/main.c **** #include "port_layer.h"
  28:Core/Src/main.c **** #include "string.h"
  29:Core/Src/main.c **** #include "stdio.h"
  30:Core/Src/main.c **** /* USER CODE END Includes */
  31:Core/Src/main.c **** 
  32:Core/Src/main.c **** /* Private typedef -----------------------------------------------------------*/
ARM GAS  /tmp/cctnoRdP.s 			page 2


  33:Core/Src/main.c **** /* USER CODE BEGIN PTD */
  34:Core/Src/main.c **** 
  35:Core/Src/main.c **** /* USER CODE END PTD */
  36:Core/Src/main.c **** 
  37:Core/Src/main.c **** /* Private define ------------------------------------------------------------*/
  38:Core/Src/main.c **** /* USER CODE BEGIN PD */
  39:Core/Src/main.c **** #define MESSAGE_MAX_SIZE 32
  40:Core/Src/main.c **** /* USER CODE END PD */
  41:Core/Src/main.c **** 
  42:Core/Src/main.c **** /* Private macro -------------------------------------------------------------*/
  43:Core/Src/main.c **** /* USER CODE BEGIN PM */
  44:Core/Src/main.c **** 
  45:Core/Src/main.c **** /* USER CODE END PM */
  46:Core/Src/main.c **** 
  47:Core/Src/main.c **** /* Private variables ---------------------------------------------------------*/
  48:Core/Src/main.c **** 
  49:Core/Src/main.c **** OSPI_HandleTypeDef hospi1;
  50:Core/Src/main.c **** 
  51:Core/Src/main.c **** SPI_HandleTypeDef hspi1;
  52:Core/Src/main.c **** 
  53:Core/Src/main.c **** UART_HandleTypeDef huart4;
  54:Core/Src/main.c **** UART_HandleTypeDef huart5;
  55:Core/Src/main.c **** UART_HandleTypeDef huart2;
  56:Core/Src/main.c **** 
  57:Core/Src/main.c **** /* USER CODE BEGIN PV */
  58:Core/Src/main.c **** uint8_t messages_recieved = 0;
  59:Core/Src/main.c **** uint8_t message_buffer[MESSAGE_MAX_SIZE];
  60:Core/Src/main.c **** uint16_t message_buffer_size = 0;
  61:Core/Src/main.c **** uint8_t rx_buffer[MESSAGE_MAX_SIZE];
  62:Core/Src/main.c **** uint16_t prev_size = 0;
  63:Core/Src/main.c **** /* USER CODE END PV */
  64:Core/Src/main.c **** 
  65:Core/Src/main.c **** /* Private function prototypes -----------------------------------------------*/
  66:Core/Src/main.c **** void SystemClock_Config(void);
  67:Core/Src/main.c **** static void MX_GPIO_Init(void);
  68:Core/Src/main.c **** static void MX_SPI1_Init(void);
  69:Core/Src/main.c **** static void MX_UART4_Init(void);
  70:Core/Src/main.c **** static void MX_UART5_Init(void);
  71:Core/Src/main.c **** static void MX_USART2_UART_Init(void);
  72:Core/Src/main.c **** static void MX_OCTOSPI1_Init(void);
  73:Core/Src/main.c **** /* USER CODE BEGIN PFP */
  74:Core/Src/main.c **** 
  75:Core/Src/main.c **** /* USER CODE END PFP */
  76:Core/Src/main.c **** 
  77:Core/Src/main.c **** /* Private user code ---------------------------------------------------------*/
  78:Core/Src/main.c **** /* USER CODE BEGIN 0 */
  79:Core/Src/main.c **** 
  80:Core/Src/main.c **** /* USER CODE END 0 */
  81:Core/Src/main.c **** 
  82:Core/Src/main.c **** /**
  83:Core/Src/main.c ****   * @brief  The application entry point.
  84:Core/Src/main.c ****   * @retval int
  85:Core/Src/main.c ****   */
  86:Core/Src/main.c **** int main(void)
  87:Core/Src/main.c **** {
  88:Core/Src/main.c **** 
  89:Core/Src/main.c ****   /* USER CODE BEGIN 1 */
ARM GAS  /tmp/cctnoRdP.s 			page 3


  90:Core/Src/main.c **** 
  91:Core/Src/main.c ****   /* USER CODE END 1 */
  92:Core/Src/main.c **** 
  93:Core/Src/main.c ****   /* MCU Configuration--------------------------------------------------------*/
  94:Core/Src/main.c **** 
  95:Core/Src/main.c ****   /* Reset of all peripherals, Initializes the Flash interface and the Systick. */
  96:Core/Src/main.c ****   HAL_Init();
  97:Core/Src/main.c **** 
  98:Core/Src/main.c ****   /* USER CODE BEGIN Init */
  99:Core/Src/main.c **** 
 100:Core/Src/main.c ****   /* USER CODE END Init */
 101:Core/Src/main.c **** 
 102:Core/Src/main.c ****   /* Configure the system clock */
 103:Core/Src/main.c ****   SystemClock_Config();
 104:Core/Src/main.c **** 
 105:Core/Src/main.c ****   /* USER CODE BEGIN SysInit */
 106:Core/Src/main.c **** 
 107:Core/Src/main.c ****   /* USER CODE END SysInit */
 108:Core/Src/main.c **** 
 109:Core/Src/main.c ****   /* Initialize all configured peripherals */
 110:Core/Src/main.c ****   MX_GPIO_Init();
 111:Core/Src/main.c ****   MX_SPI1_Init();
 112:Core/Src/main.c ****   MX_UART4_Init();
 113:Core/Src/main.c ****   MX_UART5_Init();
 114:Core/Src/main.c ****   MX_USART2_UART_Init();
 115:Core/Src/main.c ****   MX_FATFS_Init();
 116:Core/Src/main.c ****   MX_OCTOSPI1_Init();
 117:Core/Src/main.c ****   /* USER CODE BEGIN 2 */
 118:Core/Src/main.c ****   //port_init();  HAL_UART_Receive_IT(&telemetry_uart, rx_buffer, MESSAGE_MAX_SIZE);
 119:Core/Src/main.c **** 
 120:Core/Src/main.c ****   //port_start();
 121:Core/Src/main.c ****   HAL_UARTEx_ReceiveToIdle_IT(&huart4, rx_buffer, MESSAGE_MAX_SIZE);
 122:Core/Src/main.c ****   /* USER CODE END 2 */
 123:Core/Src/main.c **** 
 124:Core/Src/main.c ****   /* Infinite loop */
 125:Core/Src/main.c ****   /* USER CODE BEGIN WHILE */
 126:Core/Src/main.c ****   while (1)
 127:Core/Src/main.c ****   {
 128:Core/Src/main.c ****     /* USER CODE END WHILE */
 129:Core/Src/main.c **** 
 130:Core/Src/main.c ****     /* USER CODE BEGIN 3 */
 131:Core/Src/main.c ****     /*
 132:Core/Src/main.c ****     char buf[20];
 133:Core/Src/main.c ****     sprintf(buf, "Received: %d\r\n", messages_recieved);
 134:Core/Src/main.c ****     HAL_UART_Transmit(&debug_uart, buf, strlen(buf), HAL_MAX_DELAY);
 135:Core/Src/main.c ****     HAL_Delay(1000);
 136:Core/Src/main.c ****     */
 137:Core/Src/main.c ****   }
 138:Core/Src/main.c ****   /* USER CODE END 3 */
 139:Core/Src/main.c **** }
 140:Core/Src/main.c **** 
 141:Core/Src/main.c **** /**
 142:Core/Src/main.c ****   * @brief System Clock Configuration
 143:Core/Src/main.c ****   * @retval None
 144:Core/Src/main.c ****   */
 145:Core/Src/main.c **** void SystemClock_Config(void)
 146:Core/Src/main.c **** {
ARM GAS  /tmp/cctnoRdP.s 			page 4


 147:Core/Src/main.c ****   RCC_OscInitTypeDef RCC_OscInitStruct = {0};
 148:Core/Src/main.c ****   RCC_ClkInitTypeDef RCC_ClkInitStruct = {0};
 149:Core/Src/main.c **** 
 150:Core/Src/main.c ****   /** Supply configuration update enable
 151:Core/Src/main.c ****   */
 152:Core/Src/main.c ****   HAL_PWREx_ConfigSupply(PWR_LDO_SUPPLY);
 153:Core/Src/main.c **** 
 154:Core/Src/main.c ****   /** Configure the main internal regulator output voltage
 155:Core/Src/main.c ****   */
 156:Core/Src/main.c ****   __HAL_PWR_VOLTAGESCALING_CONFIG(PWR_REGULATOR_VOLTAGE_SCALE2);
 157:Core/Src/main.c **** 
 158:Core/Src/main.c ****   while(!__HAL_PWR_GET_FLAG(PWR_FLAG_VOSRDY)) {}
 159:Core/Src/main.c **** 
 160:Core/Src/main.c ****   /** Initializes the RCC Oscillators according to the specified parameters
 161:Core/Src/main.c ****   * in the RCC_OscInitTypeDef structure.
 162:Core/Src/main.c ****   */
 163:Core/Src/main.c ****   RCC_OscInitStruct.OscillatorType = RCC_OSCILLATORTYPE_HSE;
 164:Core/Src/main.c ****   RCC_OscInitStruct.HSEState = RCC_HSE_ON;
 165:Core/Src/main.c ****   RCC_OscInitStruct.PLL.PLLState = RCC_PLL_ON;
 166:Core/Src/main.c ****   RCC_OscInitStruct.PLL.PLLSource = RCC_PLLSOURCE_HSE;
 167:Core/Src/main.c ****   RCC_OscInitStruct.PLL.PLLM = 1;
 168:Core/Src/main.c ****   RCC_OscInitStruct.PLL.PLLN = 24;
 169:Core/Src/main.c ****   RCC_OscInitStruct.PLL.PLLP = 1;
 170:Core/Src/main.c ****   RCC_OscInitStruct.PLL.PLLQ = 2;
 171:Core/Src/main.c ****   RCC_OscInitStruct.PLL.PLLR = 2;
 172:Core/Src/main.c ****   RCC_OscInitStruct.PLL.PLLRGE = RCC_PLL1VCIRANGE_3;
 173:Core/Src/main.c ****   RCC_OscInitStruct.PLL.PLLVCOSEL = RCC_PLL1VCOWIDE;
 174:Core/Src/main.c ****   RCC_OscInitStruct.PLL.PLLFRACN = 0;
 175:Core/Src/main.c ****   if (HAL_RCC_OscConfig(&RCC_OscInitStruct) != HAL_OK)
 176:Core/Src/main.c ****   {
 177:Core/Src/main.c ****     Error_Handler();
 178:Core/Src/main.c ****   }
 179:Core/Src/main.c **** 
 180:Core/Src/main.c ****   /** Initializes the CPU, AHB and APB buses clocks
 181:Core/Src/main.c ****   */
 182:Core/Src/main.c ****   RCC_ClkInitStruct.ClockType = RCC_CLOCKTYPE_HCLK|RCC_CLOCKTYPE_SYSCLK
 183:Core/Src/main.c ****                               |RCC_CLOCKTYPE_PCLK1|RCC_CLOCKTYPE_PCLK2
 184:Core/Src/main.c ****                               |RCC_CLOCKTYPE_D3PCLK1|RCC_CLOCKTYPE_D1PCLK1;
 185:Core/Src/main.c ****   RCC_ClkInitStruct.SYSCLKSource = RCC_SYSCLKSOURCE_PLLCLK;
 186:Core/Src/main.c ****   RCC_ClkInitStruct.SYSCLKDivider = RCC_SYSCLK_DIV1;
 187:Core/Src/main.c ****   RCC_ClkInitStruct.AHBCLKDivider = RCC_HCLK_DIV2;
 188:Core/Src/main.c ****   RCC_ClkInitStruct.APB3CLKDivider = RCC_APB3_DIV1;
 189:Core/Src/main.c ****   RCC_ClkInitStruct.APB1CLKDivider = RCC_APB1_DIV2;
 190:Core/Src/main.c ****   RCC_ClkInitStruct.APB2CLKDivider = RCC_APB2_DIV1;
 191:Core/Src/main.c ****   RCC_ClkInitStruct.APB4CLKDivider = RCC_APB4_DIV1;
 192:Core/Src/main.c **** 
 193:Core/Src/main.c ****   if (HAL_RCC_ClockConfig(&RCC_ClkInitStruct, FLASH_LATENCY_1) != HAL_OK)
 194:Core/Src/main.c ****   {
 195:Core/Src/main.c ****     Error_Handler();
 196:Core/Src/main.c ****   }
 197:Core/Src/main.c **** }
 198:Core/Src/main.c **** 
 199:Core/Src/main.c **** /**
 200:Core/Src/main.c ****   * @brief OCTOSPI1 Initialization Function
 201:Core/Src/main.c ****   * @param None
 202:Core/Src/main.c ****   * @retval None
 203:Core/Src/main.c ****   */
ARM GAS  /tmp/cctnoRdP.s 			page 5


 204:Core/Src/main.c **** static void MX_OCTOSPI1_Init(void)
 205:Core/Src/main.c **** {
 206:Core/Src/main.c **** 
 207:Core/Src/main.c ****   /* USER CODE BEGIN OCTOSPI1_Init 0 */
 208:Core/Src/main.c **** 
 209:Core/Src/main.c ****   /* USER CODE END OCTOSPI1_Init 0 */
 210:Core/Src/main.c **** 
 211:Core/Src/main.c ****   OSPIM_CfgTypeDef sOspiManagerCfg = {0};
 212:Core/Src/main.c **** 
 213:Core/Src/main.c ****   /* USER CODE BEGIN OCTOSPI1_Init 1 */
 214:Core/Src/main.c **** 
 215:Core/Src/main.c ****   /* USER CODE END OCTOSPI1_Init 1 */
 216:Core/Src/main.c ****   /* OCTOSPI1 parameter configuration*/
 217:Core/Src/main.c ****   hospi1.Instance = OCTOSPI1;
 218:Core/Src/main.c ****   hospi1.Init.FifoThreshold = 1;
 219:Core/Src/main.c ****   hospi1.Init.DualQuad = HAL_OSPI_DUALQUAD_DISABLE;
 220:Core/Src/main.c ****   hospi1.Init.MemoryType = HAL_OSPI_MEMTYPE_MICRON;
 221:Core/Src/main.c ****   hospi1.Init.DeviceSize = 24;
 222:Core/Src/main.c ****   hospi1.Init.ChipSelectHighTime = 1;
 223:Core/Src/main.c ****   hospi1.Init.FreeRunningClock = HAL_OSPI_FREERUNCLK_DISABLE;
 224:Core/Src/main.c ****   hospi1.Init.ClockMode = HAL_OSPI_CLOCK_MODE_0;
 225:Core/Src/main.c ****   hospi1.Init.WrapSize = HAL_OSPI_WRAP_NOT_SUPPORTED;
 226:Core/Src/main.c ****   hospi1.Init.ClockPrescaler = 2;
 227:Core/Src/main.c ****   hospi1.Init.SampleShifting = HAL_OSPI_SAMPLE_SHIFTING_NONE;
 228:Core/Src/main.c ****   hospi1.Init.DelayHoldQuarterCycle = HAL_OSPI_DHQC_DISABLE;
 229:Core/Src/main.c ****   hospi1.Init.ChipSelectBoundary = 0;
 230:Core/Src/main.c ****   hospi1.Init.DelayBlockBypass = HAL_OSPI_DELAY_BLOCK_BYPASSED;
 231:Core/Src/main.c ****   hospi1.Init.MaxTran = 0;
 232:Core/Src/main.c ****   hospi1.Init.Refresh = 0;
 233:Core/Src/main.c ****   if (HAL_OSPI_Init(&hospi1) != HAL_OK)
 234:Core/Src/main.c ****   {
 235:Core/Src/main.c ****     Error_Handler();
 236:Core/Src/main.c ****   }
 237:Core/Src/main.c ****   sOspiManagerCfg.ClkPort = 1;
 238:Core/Src/main.c ****   sOspiManagerCfg.IOLowPort = HAL_OSPIM_IOPORT_1_LOW;
 239:Core/Src/main.c ****   if (HAL_OSPIM_Config(&hospi1, &sOspiManagerCfg, HAL_OSPI_TIMEOUT_DEFAULT_VALUE) != HAL_OK)
 240:Core/Src/main.c ****   {
 241:Core/Src/main.c ****     Error_Handler();
 242:Core/Src/main.c ****   }
 243:Core/Src/main.c ****   /* USER CODE BEGIN OCTOSPI1_Init 2 */
 244:Core/Src/main.c **** 
 245:Core/Src/main.c ****   /* USER CODE END OCTOSPI1_Init 2 */
 246:Core/Src/main.c **** 
 247:Core/Src/main.c **** }
 248:Core/Src/main.c **** 
 249:Core/Src/main.c **** /**
 250:Core/Src/main.c ****   * @brief SPI1 Initialization Function
 251:Core/Src/main.c ****   * @param None
 252:Core/Src/main.c ****   * @retval None
 253:Core/Src/main.c ****   */
 254:Core/Src/main.c **** static void MX_SPI1_Init(void)
 255:Core/Src/main.c **** {
 256:Core/Src/main.c **** 
 257:Core/Src/main.c ****   /* USER CODE BEGIN SPI1_Init 0 */
 258:Core/Src/main.c **** 
 259:Core/Src/main.c ****   /* USER CODE END SPI1_Init 0 */
 260:Core/Src/main.c **** 
ARM GAS  /tmp/cctnoRdP.s 			page 6


 261:Core/Src/main.c ****   /* USER CODE BEGIN SPI1_Init 1 */
 262:Core/Src/main.c **** 
 263:Core/Src/main.c ****   /* USER CODE END SPI1_Init 1 */
 264:Core/Src/main.c ****   /* SPI1 parameter configuration*/
 265:Core/Src/main.c ****   hspi1.Instance = SPI1;
 266:Core/Src/main.c ****   hspi1.Init.Mode = SPI_MODE_MASTER;
 267:Core/Src/main.c ****   hspi1.Init.Direction = SPI_DIRECTION_2LINES;
 268:Core/Src/main.c ****   hspi1.Init.DataSize = SPI_DATASIZE_8BIT;
 269:Core/Src/main.c ****   hspi1.Init.CLKPolarity = SPI_POLARITY_LOW;
 270:Core/Src/main.c ****   hspi1.Init.CLKPhase = SPI_PHASE_1EDGE;
 271:Core/Src/main.c ****   hspi1.Init.NSS = SPI_NSS_SOFT;
 272:Core/Src/main.c ****   hspi1.Init.BaudRatePrescaler = SPI_BAUDRATEPRESCALER_16;
 273:Core/Src/main.c ****   hspi1.Init.FirstBit = SPI_FIRSTBIT_MSB;
 274:Core/Src/main.c ****   hspi1.Init.TIMode = SPI_TIMODE_DISABLE;
 275:Core/Src/main.c ****   hspi1.Init.CRCCalculation = SPI_CRCCALCULATION_DISABLE;
 276:Core/Src/main.c ****   hspi1.Init.CRCPolynomial = 0x0;
 277:Core/Src/main.c ****   hspi1.Init.NSSPMode = SPI_NSS_PULSE_ENABLE;
 278:Core/Src/main.c ****   hspi1.Init.NSSPolarity = SPI_NSS_POLARITY_LOW;
 279:Core/Src/main.c ****   hspi1.Init.FifoThreshold = SPI_FIFO_THRESHOLD_01DATA;
 280:Core/Src/main.c ****   hspi1.Init.TxCRCInitializationPattern = SPI_CRC_INITIALIZATION_ALL_ZERO_PATTERN;
 281:Core/Src/main.c ****   hspi1.Init.RxCRCInitializationPattern = SPI_CRC_INITIALIZATION_ALL_ZERO_PATTERN;
 282:Core/Src/main.c ****   hspi1.Init.MasterSSIdleness = SPI_MASTER_SS_IDLENESS_00CYCLE;
 283:Core/Src/main.c ****   hspi1.Init.MasterInterDataIdleness = SPI_MASTER_INTERDATA_IDLENESS_00CYCLE;
 284:Core/Src/main.c ****   hspi1.Init.MasterReceiverAutoSusp = SPI_MASTER_RX_AUTOSUSP_DISABLE;
 285:Core/Src/main.c ****   hspi1.Init.MasterKeepIOState = SPI_MASTER_KEEP_IO_STATE_DISABLE;
 286:Core/Src/main.c ****   hspi1.Init.IOSwap = SPI_IO_SWAP_DISABLE;
 287:Core/Src/main.c ****   if (HAL_SPI_Init(&hspi1) != HAL_OK)
 288:Core/Src/main.c ****   {
 289:Core/Src/main.c ****     Error_Handler();
 290:Core/Src/main.c ****   }
 291:Core/Src/main.c ****   /* USER CODE BEGIN SPI1_Init 2 */
 292:Core/Src/main.c **** 
 293:Core/Src/main.c ****   /* USER CODE END SPI1_Init 2 */
 294:Core/Src/main.c **** 
 295:Core/Src/main.c **** }
 296:Core/Src/main.c **** 
 297:Core/Src/main.c **** /**
 298:Core/Src/main.c ****   * @brief UART4 Initialization Function
 299:Core/Src/main.c ****   * @param None
 300:Core/Src/main.c ****   * @retval None
 301:Core/Src/main.c ****   */
 302:Core/Src/main.c **** static void MX_UART4_Init(void)
 303:Core/Src/main.c **** {
 304:Core/Src/main.c **** 
 305:Core/Src/main.c ****   /* USER CODE BEGIN UART4_Init 0 */
 306:Core/Src/main.c **** 
 307:Core/Src/main.c ****   /* USER CODE END UART4_Init 0 */
 308:Core/Src/main.c **** 
 309:Core/Src/main.c ****   /* USER CODE BEGIN UART4_Init 1 */
 310:Core/Src/main.c **** 
 311:Core/Src/main.c ****   /* USER CODE END UART4_Init 1 */
 312:Core/Src/main.c ****   huart4.Instance = UART4;
 313:Core/Src/main.c ****   huart4.Init.BaudRate = 9600;
 314:Core/Src/main.c ****   huart4.Init.WordLength = UART_WORDLENGTH_8B;
 315:Core/Src/main.c ****   huart4.Init.StopBits = UART_STOPBITS_1;
 316:Core/Src/main.c ****   huart4.Init.Parity = UART_PARITY_NONE;
 317:Core/Src/main.c ****   huart4.Init.Mode = UART_MODE_TX_RX;
ARM GAS  /tmp/cctnoRdP.s 			page 7


 318:Core/Src/main.c ****   huart4.Init.HwFlowCtl = UART_HWCONTROL_NONE;
 319:Core/Src/main.c ****   huart4.Init.OverSampling = UART_OVERSAMPLING_16;
 320:Core/Src/main.c ****   huart4.Init.OneBitSampling = UART_ONE_BIT_SAMPLE_DISABLE;
 321:Core/Src/main.c ****   huart4.Init.ClockPrescaler = UART_PRESCALER_DIV1;
 322:Core/Src/main.c ****   huart4.AdvancedInit.AdvFeatureInit = UART_ADVFEATURE_NO_INIT;
 323:Core/Src/main.c ****   if (HAL_UART_Init(&huart4) != HAL_OK)
 324:Core/Src/main.c ****   {
 325:Core/Src/main.c ****     Error_Handler();
 326:Core/Src/main.c ****   }
 327:Core/Src/main.c ****   if (HAL_UARTEx_SetTxFifoThreshold(&huart4, UART_TXFIFO_THRESHOLD_1_8) != HAL_OK)
 328:Core/Src/main.c ****   {
 329:Core/Src/main.c ****     Error_Handler();
 330:Core/Src/main.c ****   }
 331:Core/Src/main.c ****   if (HAL_UARTEx_SetRxFifoThreshold(&huart4, UART_RXFIFO_THRESHOLD_1_8) != HAL_OK)
 332:Core/Src/main.c ****   {
 333:Core/Src/main.c ****     Error_Handler();
 334:Core/Src/main.c ****   }
 335:Core/Src/main.c ****   if (HAL_UARTEx_DisableFifoMode(&huart4) != HAL_OK)
 336:Core/Src/main.c ****   {
 337:Core/Src/main.c ****     Error_Handler();
 338:Core/Src/main.c ****   }
 339:Core/Src/main.c ****   /* USER CODE BEGIN UART4_Init 2 */
 340:Core/Src/main.c **** 
 341:Core/Src/main.c ****   /* USER CODE END UART4_Init 2 */
 342:Core/Src/main.c **** 
 343:Core/Src/main.c **** }
 344:Core/Src/main.c **** 
 345:Core/Src/main.c **** /**
 346:Core/Src/main.c ****   * @brief UART5 Initialization Function
 347:Core/Src/main.c ****   * @param None
 348:Core/Src/main.c ****   * @retval None
 349:Core/Src/main.c ****   */
 350:Core/Src/main.c **** static void MX_UART5_Init(void)
 351:Core/Src/main.c **** {
 352:Core/Src/main.c **** 
 353:Core/Src/main.c ****   /* USER CODE BEGIN UART5_Init 0 */
 354:Core/Src/main.c **** 
 355:Core/Src/main.c ****   /* USER CODE END UART5_Init 0 */
 356:Core/Src/main.c **** 
 357:Core/Src/main.c ****   /* USER CODE BEGIN UART5_Init 1 */
 358:Core/Src/main.c **** 
 359:Core/Src/main.c ****   /* USER CODE END UART5_Init 1 */
 360:Core/Src/main.c ****   huart5.Instance = UART5;
 361:Core/Src/main.c ****   huart5.Init.BaudRate = 115200;
 362:Core/Src/main.c ****   huart5.Init.WordLength = UART_WORDLENGTH_8B;
 363:Core/Src/main.c ****   huart5.Init.StopBits = UART_STOPBITS_1;
 364:Core/Src/main.c ****   huart5.Init.Parity = UART_PARITY_NONE;
 365:Core/Src/main.c ****   huart5.Init.Mode = UART_MODE_TX_RX;
 366:Core/Src/main.c ****   huart5.Init.HwFlowCtl = UART_HWCONTROL_NONE;
 367:Core/Src/main.c ****   huart5.Init.OverSampling = UART_OVERSAMPLING_16;
 368:Core/Src/main.c ****   huart5.Init.OneBitSampling = UART_ONE_BIT_SAMPLE_DISABLE;
 369:Core/Src/main.c ****   huart5.Init.ClockPrescaler = UART_PRESCALER_DIV1;
 370:Core/Src/main.c ****   huart5.AdvancedInit.AdvFeatureInit = UART_ADVFEATURE_NO_INIT;
 371:Core/Src/main.c ****   if (HAL_UART_Init(&huart5) != HAL_OK)
 372:Core/Src/main.c ****   {
 373:Core/Src/main.c ****     Error_Handler();
 374:Core/Src/main.c ****   }
ARM GAS  /tmp/cctnoRdP.s 			page 8


 375:Core/Src/main.c ****   if (HAL_UARTEx_SetTxFifoThreshold(&huart5, UART_TXFIFO_THRESHOLD_1_8) != HAL_OK)
 376:Core/Src/main.c ****   {
 377:Core/Src/main.c ****     Error_Handler();
 378:Core/Src/main.c ****   }
 379:Core/Src/main.c ****   if (HAL_UARTEx_SetRxFifoThreshold(&huart5, UART_RXFIFO_THRESHOLD_1_8) != HAL_OK)
 380:Core/Src/main.c ****   {
 381:Core/Src/main.c ****     Error_Handler();
 382:Core/Src/main.c ****   }
 383:Core/Src/main.c ****   if (HAL_UARTEx_DisableFifoMode(&huart5) != HAL_OK)
 384:Core/Src/main.c ****   {
 385:Core/Src/main.c ****     Error_Handler();
 386:Core/Src/main.c ****   }
 387:Core/Src/main.c ****   /* USER CODE BEGIN UART5_Init 2 */
 388:Core/Src/main.c **** 
 389:Core/Src/main.c ****   /* USER CODE END UART5_Init 2 */
 390:Core/Src/main.c **** 
 391:Core/Src/main.c **** }
 392:Core/Src/main.c **** 
 393:Core/Src/main.c **** /**
 394:Core/Src/main.c ****   * @brief USART2 Initialization Function
 395:Core/Src/main.c ****   * @param None
 396:Core/Src/main.c ****   * @retval None
 397:Core/Src/main.c ****   */
 398:Core/Src/main.c **** static void MX_USART2_UART_Init(void)
 399:Core/Src/main.c **** {
 400:Core/Src/main.c **** 
 401:Core/Src/main.c ****   /* USER CODE BEGIN USART2_Init 0 */
 402:Core/Src/main.c **** 
 403:Core/Src/main.c ****   /* USER CODE END USART2_Init 0 */
 404:Core/Src/main.c **** 
 405:Core/Src/main.c ****   /* USER CODE BEGIN USART2_Init 1 */
 406:Core/Src/main.c **** 
 407:Core/Src/main.c ****   /* USER CODE END USART2_Init 1 */
 408:Core/Src/main.c ****   huart2.Instance = USART2;
 409:Core/Src/main.c ****   huart2.Init.BaudRate = 115200;
 410:Core/Src/main.c ****   huart2.Init.WordLength = UART_WORDLENGTH_8B;
 411:Core/Src/main.c ****   huart2.Init.StopBits = UART_STOPBITS_1;
 412:Core/Src/main.c ****   huart2.Init.Parity = UART_PARITY_NONE;
 413:Core/Src/main.c ****   huart2.Init.Mode = UART_MODE_TX_RX;
 414:Core/Src/main.c ****   huart2.Init.HwFlowCtl = UART_HWCONTROL_NONE;
 415:Core/Src/main.c ****   huart2.Init.OverSampling = UART_OVERSAMPLING_16;
 416:Core/Src/main.c ****   huart2.Init.OneBitSampling = UART_ONE_BIT_SAMPLE_DISABLE;
 417:Core/Src/main.c ****   huart2.Init.ClockPrescaler = UART_PRESCALER_DIV1;
 418:Core/Src/main.c ****   huart2.AdvancedInit.AdvFeatureInit = UART_ADVFEATURE_NO_INIT;
 419:Core/Src/main.c ****   if (HAL_UART_Init(&huart2) != HAL_OK)
 420:Core/Src/main.c ****   {
 421:Core/Src/main.c ****     Error_Handler();
 422:Core/Src/main.c ****   }
 423:Core/Src/main.c ****   if (HAL_UARTEx_SetTxFifoThreshold(&huart2, UART_TXFIFO_THRESHOLD_1_8) != HAL_OK)
 424:Core/Src/main.c ****   {
 425:Core/Src/main.c ****     Error_Handler();
 426:Core/Src/main.c ****   }
 427:Core/Src/main.c ****   if (HAL_UARTEx_SetRxFifoThreshold(&huart2, UART_RXFIFO_THRESHOLD_1_8) != HAL_OK)
 428:Core/Src/main.c ****   {
 429:Core/Src/main.c ****     Error_Handler();
 430:Core/Src/main.c ****   }
 431:Core/Src/main.c ****   if (HAL_UARTEx_DisableFifoMode(&huart2) != HAL_OK)
ARM GAS  /tmp/cctnoRdP.s 			page 9


 432:Core/Src/main.c ****   {
 433:Core/Src/main.c ****     Error_Handler();
 434:Core/Src/main.c ****   }
 435:Core/Src/main.c ****   /* USER CODE BEGIN USART2_Init 2 */
 436:Core/Src/main.c **** 
 437:Core/Src/main.c ****   /* USER CODE END USART2_Init 2 */
 438:Core/Src/main.c **** 
 439:Core/Src/main.c **** }
 440:Core/Src/main.c **** 
 441:Core/Src/main.c **** /**
 442:Core/Src/main.c ****   * @brief GPIO Initialization Function
 443:Core/Src/main.c ****   * @param None
 444:Core/Src/main.c ****   * @retval None
 445:Core/Src/main.c ****   */
 446:Core/Src/main.c **** static void MX_GPIO_Init(void)
 447:Core/Src/main.c **** {
  27              		.loc 1 447 1 view -0
  28              		.cfi_startproc
  29              		@ args = 0, pretend = 0, frame = 48
  30              		@ frame_needed = 0, uses_anonymous_args = 0
  31 0000 30B5     		push	{r4, r5, lr}
  32              	.LCFI0:
  33              		.cfi_def_cfa_offset 12
  34              		.cfi_offset 4, -12
  35              		.cfi_offset 5, -8
  36              		.cfi_offset 14, -4
  37 0002 8DB0     		sub	sp, sp, #52
  38              	.LCFI1:
  39              		.cfi_def_cfa_offset 64
 448:Core/Src/main.c ****   GPIO_InitTypeDef GPIO_InitStruct = {0};
  40              		.loc 1 448 3 view .LVU1
  41              		.loc 1 448 20 is_stmt 0 view .LVU2
  42 0004 0024     		movs	r4, #0
  43 0006 0794     		str	r4, [sp, #28]
  44 0008 0894     		str	r4, [sp, #32]
  45 000a 0994     		str	r4, [sp, #36]
  46 000c 0A94     		str	r4, [sp, #40]
  47 000e 0B94     		str	r4, [sp, #44]
 449:Core/Src/main.c **** /* USER CODE BEGIN MX_GPIO_Init_1 */
 450:Core/Src/main.c **** /* USER CODE END MX_GPIO_Init_1 */
 451:Core/Src/main.c **** 
 452:Core/Src/main.c ****   /* GPIO Ports Clock Enable */
 453:Core/Src/main.c ****   __HAL_RCC_GPIOE_CLK_ENABLE();
  48              		.loc 1 453 3 is_stmt 1 view .LVU3
  49              	.LBB4:
  50              		.loc 1 453 3 view .LVU4
  51              		.loc 1 453 3 view .LVU5
  52 0010 344B     		ldr	r3, .L3
  53 0012 D3F8E020 		ldr	r2, [r3, #224]
  54 0016 42F01002 		orr	r2, r2, #16
  55 001a C3F8E020 		str	r2, [r3, #224]
  56              		.loc 1 453 3 view .LVU6
  57 001e D3F8E020 		ldr	r2, [r3, #224]
  58 0022 02F01002 		and	r2, r2, #16
  59 0026 0092     		str	r2, [sp]
  60              		.loc 1 453 3 view .LVU7
  61 0028 009A     		ldr	r2, [sp]
ARM GAS  /tmp/cctnoRdP.s 			page 10


  62              	.LBE4:
  63              		.loc 1 453 3 view .LVU8
 454:Core/Src/main.c ****   __HAL_RCC_GPIOH_CLK_ENABLE();
  64              		.loc 1 454 3 view .LVU9
  65              	.LBB5:
  66              		.loc 1 454 3 view .LVU10
  67              		.loc 1 454 3 view .LVU11
  68 002a D3F8E020 		ldr	r2, [r3, #224]
  69 002e 42F08002 		orr	r2, r2, #128
  70 0032 C3F8E020 		str	r2, [r3, #224]
  71              		.loc 1 454 3 view .LVU12
  72 0036 D3F8E020 		ldr	r2, [r3, #224]
  73 003a 02F08002 		and	r2, r2, #128
  74 003e 0192     		str	r2, [sp, #4]
  75              		.loc 1 454 3 view .LVU13
  76 0040 019A     		ldr	r2, [sp, #4]
  77              	.LBE5:
  78              		.loc 1 454 3 view .LVU14
 455:Core/Src/main.c ****   __HAL_RCC_GPIOB_CLK_ENABLE();
  79              		.loc 1 455 3 view .LVU15
  80              	.LBB6:
  81              		.loc 1 455 3 view .LVU16
  82              		.loc 1 455 3 view .LVU17
  83 0042 D3F8E020 		ldr	r2, [r3, #224]
  84 0046 42F00202 		orr	r2, r2, #2
  85 004a C3F8E020 		str	r2, [r3, #224]
  86              		.loc 1 455 3 view .LVU18
  87 004e D3F8E020 		ldr	r2, [r3, #224]
  88 0052 02F00202 		and	r2, r2, #2
  89 0056 0292     		str	r2, [sp, #8]
  90              		.loc 1 455 3 view .LVU19
  91 0058 029A     		ldr	r2, [sp, #8]
  92              	.LBE6:
  93              		.loc 1 455 3 view .LVU20
 456:Core/Src/main.c ****   __HAL_RCC_GPIOD_CLK_ENABLE();
  94              		.loc 1 456 3 view .LVU21
  95              	.LBB7:
  96              		.loc 1 456 3 view .LVU22
  97              		.loc 1 456 3 view .LVU23
  98 005a D3F8E020 		ldr	r2, [r3, #224]
  99 005e 42F00802 		orr	r2, r2, #8
 100 0062 C3F8E020 		str	r2, [r3, #224]
 101              		.loc 1 456 3 view .LVU24
 102 0066 D3F8E020 		ldr	r2, [r3, #224]
 103 006a 02F00802 		and	r2, r2, #8
 104 006e 0392     		str	r2, [sp, #12]
 105              		.loc 1 456 3 view .LVU25
 106 0070 039A     		ldr	r2, [sp, #12]
 107              	.LBE7:
 108              		.loc 1 456 3 view .LVU26
 457:Core/Src/main.c ****   __HAL_RCC_GPIOG_CLK_ENABLE();
 109              		.loc 1 457 3 view .LVU27
 110              	.LBB8:
 111              		.loc 1 457 3 view .LVU28
 112              		.loc 1 457 3 view .LVU29
 113 0072 D3F8E020 		ldr	r2, [r3, #224]
 114 0076 42F04002 		orr	r2, r2, #64
ARM GAS  /tmp/cctnoRdP.s 			page 11


 115 007a C3F8E020 		str	r2, [r3, #224]
 116              		.loc 1 457 3 view .LVU30
 117 007e D3F8E020 		ldr	r2, [r3, #224]
 118 0082 02F04002 		and	r2, r2, #64
 119 0086 0492     		str	r2, [sp, #16]
 120              		.loc 1 457 3 view .LVU31
 121 0088 049A     		ldr	r2, [sp, #16]
 122              	.LBE8:
 123              		.loc 1 457 3 view .LVU32
 458:Core/Src/main.c ****   __HAL_RCC_GPIOA_CLK_ENABLE();
 124              		.loc 1 458 3 view .LVU33
 125              	.LBB9:
 126              		.loc 1 458 3 view .LVU34
 127              		.loc 1 458 3 view .LVU35
 128 008a D3F8E020 		ldr	r2, [r3, #224]
 129 008e 42F00102 		orr	r2, r2, #1
 130 0092 C3F8E020 		str	r2, [r3, #224]
 131              		.loc 1 458 3 view .LVU36
 132 0096 D3F8E020 		ldr	r2, [r3, #224]
 133 009a 02F00102 		and	r2, r2, #1
 134 009e 0592     		str	r2, [sp, #20]
 135              		.loc 1 458 3 view .LVU37
 136 00a0 059A     		ldr	r2, [sp, #20]
 137              	.LBE9:
 138              		.loc 1 458 3 view .LVU38
 459:Core/Src/main.c ****   __HAL_RCC_GPIOC_CLK_ENABLE();
 139              		.loc 1 459 3 view .LVU39
 140              	.LBB10:
 141              		.loc 1 459 3 view .LVU40
 142              		.loc 1 459 3 view .LVU41
 143 00a2 D3F8E020 		ldr	r2, [r3, #224]
 144 00a6 42F00402 		orr	r2, r2, #4
 145 00aa C3F8E020 		str	r2, [r3, #224]
 146              		.loc 1 459 3 view .LVU42
 147 00ae D3F8E030 		ldr	r3, [r3, #224]
 148 00b2 03F00403 		and	r3, r3, #4
 149 00b6 0693     		str	r3, [sp, #24]
 150              		.loc 1 459 3 view .LVU43
 151 00b8 069B     		ldr	r3, [sp, #24]
 152              	.LBE10:
 153              		.loc 1 459 3 view .LVU44
 460:Core/Src/main.c **** 
 461:Core/Src/main.c ****   /*Configure GPIO pin Output Level */
 462:Core/Src/main.c ****   HAL_GPIO_WritePin(GPIOG, FLASH_CS_Pin|SD_CS_Pin, GPIO_PIN_SET);
 154              		.loc 1 462 3 view .LVU45
 155 00ba 0B4D     		ldr	r5, .L3+4
 156 00bc 0122     		movs	r2, #1
 157 00be 4FF48861 		mov	r1, #1088
 158 00c2 2846     		mov	r0, r5
 159 00c4 FFF7FEFF 		bl	HAL_GPIO_WritePin
 160              	.LVL0:
 463:Core/Src/main.c **** 
 464:Core/Src/main.c ****   /*Configure GPIO pins : FLASH_CS_Pin SD_CS_Pin */
 465:Core/Src/main.c ****   GPIO_InitStruct.Pin = FLASH_CS_Pin|SD_CS_Pin;
 161              		.loc 1 465 3 view .LVU46
 162              		.loc 1 465 23 is_stmt 0 view .LVU47
 163 00c8 4FF48863 		mov	r3, #1088
ARM GAS  /tmp/cctnoRdP.s 			page 12


 164 00cc 0793     		str	r3, [sp, #28]
 466:Core/Src/main.c ****   GPIO_InitStruct.Mode = GPIO_MODE_OUTPUT_PP;
 165              		.loc 1 466 3 is_stmt 1 view .LVU48
 166              		.loc 1 466 24 is_stmt 0 view .LVU49
 167 00ce 0123     		movs	r3, #1
 168 00d0 0893     		str	r3, [sp, #32]
 467:Core/Src/main.c ****   GPIO_InitStruct.Pull = GPIO_NOPULL;
 169              		.loc 1 467 3 is_stmt 1 view .LVU50
 170              		.loc 1 467 24 is_stmt 0 view .LVU51
 171 00d2 0994     		str	r4, [sp, #36]
 468:Core/Src/main.c ****   GPIO_InitStruct.Speed = GPIO_SPEED_FREQ_LOW;
 172              		.loc 1 468 3 is_stmt 1 view .LVU52
 173              		.loc 1 468 25 is_stmt 0 view .LVU53
 174 00d4 0A94     		str	r4, [sp, #40]
 469:Core/Src/main.c ****   HAL_GPIO_Init(GPIOG, &GPIO_InitStruct);
 175              		.loc 1 469 3 is_stmt 1 view .LVU54
 176 00d6 07A9     		add	r1, sp, #28
 177 00d8 2846     		mov	r0, r5
 178 00da FFF7FEFF 		bl	HAL_GPIO_Init
 179              	.LVL1:
 470:Core/Src/main.c **** 
 471:Core/Src/main.c **** /* USER CODE BEGIN MX_GPIO_Init_2 */
 472:Core/Src/main.c **** /* USER CODE END MX_GPIO_Init_2 */
 473:Core/Src/main.c **** }
 180              		.loc 1 473 1 is_stmt 0 view .LVU55
 181 00de 0DB0     		add	sp, sp, #52
 182              	.LCFI2:
 183              		.cfi_def_cfa_offset 12
 184              		@ sp needed
 185 00e0 30BD     		pop	{r4, r5, pc}
 186              	.L4:
 187 00e2 00BF     		.align	2
 188              	.L3:
 189 00e4 00440258 		.word	1476543488
 190 00e8 00180258 		.word	1476532224
 191              		.cfi_endproc
 192              	.LFE158:
 194              		.section	.text.HAL_UART_RxCpltCallback,"ax",%progbits
 195              		.align	1
 196              		.global	HAL_UART_RxCpltCallback
 197              		.syntax unified
 198              		.thumb
 199              		.thumb_func
 200              		.fpu fpv5-d16
 202              	HAL_UART_RxCpltCallback:
 203              	.LVL2:
 204              	.LFB159:
 474:Core/Src/main.c **** 
 475:Core/Src/main.c **** /* USER CODE BEGIN 4 */
 476:Core/Src/main.c **** void HAL_UART_RxCpltCallback(UART_HandleTypeDef *huart) {
 205              		.loc 1 476 57 is_stmt 1 view -0
 206              		.cfi_startproc
 207              		@ args = 0, pretend = 0, frame = 0
 208              		@ frame_needed = 0, uses_anonymous_args = 0
 209              		@ link register save eliminated.
 477:Core/Src/main.c ****   //HAL_UART_Transmit(&debug_uart, "Received bytes\r\n", 16, HAL_MAX_DELAY);
 478:Core/Src/main.c **** }
ARM GAS  /tmp/cctnoRdP.s 			page 13


 210              		.loc 1 478 1 view .LVU57
 211 0000 7047     		bx	lr
 212              		.cfi_endproc
 213              	.LFE159:
 215              		.section	.rodata.HAL_UARTEx_RxEventCallback.str1.4,"aMS",%progbits,1
 216              		.align	2
 217              	.LC0:
 218 0000 52656365 		.ascii	"Received bytes\015\012\000"
 218      69766564 
 218      20627974 
 218      65730D0A 
 218      00
 219              		.section	.text.HAL_UARTEx_RxEventCallback,"ax",%progbits
 220              		.align	1
 221              		.global	HAL_UARTEx_RxEventCallback
 222              		.syntax unified
 223              		.thumb
 224              		.thumb_func
 225              		.fpu fpv5-d16
 227              	HAL_UARTEx_RxEventCallback:
 228              	.LVL3:
 229              	.LFB160:
 479:Core/Src/main.c **** 
 480:Core/Src/main.c **** void HAL_UARTEx_RxEventCallback(UART_HandleTypeDef *huart, uint16_t size) {
 230              		.loc 1 480 75 view -0
 231              		.cfi_startproc
 232              		@ args = 0, pretend = 0, frame = 0
 233              		@ frame_needed = 0, uses_anonymous_args = 0
 234              		.loc 1 480 75 is_stmt 0 view .LVU59
 235 0000 38B5     		push	{r3, r4, r5, lr}
 236              	.LCFI3:
 237              		.cfi_def_cfa_offset 16
 238              		.cfi_offset 3, -16
 239              		.cfi_offset 4, -12
 240              		.cfi_offset 5, -8
 241              		.cfi_offset 14, -4
 242 0002 0D46     		mov	r5, r1
 481:Core/Src/main.c ****   HAL_UART_Transmit(&debug_uart, "Received bytes\r\n", 16, HAL_MAX_DELAY);
 243              		.loc 1 481 3 is_stmt 1 view .LVU60
 244 0004 4FF0FF33 		mov	r3, #-1
 245 0008 1022     		movs	r2, #16
 246 000a 1449     		ldr	r1, .L16
 247              	.LVL4:
 248              		.loc 1 481 3 is_stmt 0 view .LVU61
 249 000c 1448     		ldr	r0, .L16+4
 250              	.LVL5:
 251              		.loc 1 481 3 view .LVU62
 252 000e FFF7FEFF 		bl	HAL_UART_Transmit
 253              	.LVL6:
 482:Core/Src/main.c **** 
 483:Core/Src/main.c ****   for (int i = prev_size; i < size; i ++){
 254              		.loc 1 483 3 is_stmt 1 view .LVU63
 255              	.LBB11:
 256              		.loc 1 483 8 view .LVU64
 257              		.loc 1 483 12 is_stmt 0 view .LVU65
 258 0012 144B     		ldr	r3, .L16+8
 259 0014 1C88     		ldrh	r4, [r3]
ARM GAS  /tmp/cctnoRdP.s 			page 14


 260              	.LVL7:
 261              		.loc 1 483 3 view .LVU66
 262 0016 03E0     		b	.L7
 263              	.LVL8:
 264              	.L8:
 265              	.LBB12:
 484:Core/Src/main.c ****     uint16_t next_buffer_size = process_incoming_byte(rx_buffer[i], message_buffer, message_buffer_
 485:Core/Src/main.c **** 
 486:Core/Src/main.c ****     if (next_buffer_size < 0) {
 487:Core/Src/main.c ****       message_buffer_size = 0;
 488:Core/Src/main.c **** 
 489:Core/Src/main.c ****       if (verify_packet(message_buffer, -next_buffer_size)) {
 490:Core/Src/main.c ****         uint8_t command_id = is_command_packet(message_buffer, -next_buffer_size);
 491:Core/Src/main.c ****         char buf[20];
 492:Core/Src/main.c ****         sprintf(buf, "Command: %d\r\n", command_id);
 493:Core/Src/main.c ****         messages_recieved ++;
 494:Core/Src/main.c ****         HAL_UART_Transmit(&debug_uart, buf, strlen(buf), HAL_MAX_DELAY);
 495:Core/Src/main.c ****       }
 496:Core/Src/main.c ****     } else if (next_buffer_size < MESSAGE_MAX_SIZE) {
 497:Core/Src/main.c ****       //avoid buffer overflow
 498:Core/Src/main.c ****       message_buffer_size = next_buffer_size;
 499:Core/Src/main.c ****     } else {
 500:Core/Src/main.c ****       message_buffer_size = 0;
 266              		.loc 1 500 7 is_stmt 1 view .LVU67
 267              		.loc 1 500 27 is_stmt 0 view .LVU68
 268 0018 134B     		ldr	r3, .L16+12
 269 001a 0022     		movs	r2, #0
 270 001c 1A80     		strh	r2, [r3]	@ movhi
 271              	.L9:
 272              	.LBE12:
 483:Core/Src/main.c ****     uint16_t next_buffer_size = process_incoming_byte(rx_buffer[i], message_buffer, message_buffer_
 273              		.loc 1 483 37 is_stmt 1 discriminator 2 view .LVU69
 483:Core/Src/main.c ****     uint16_t next_buffer_size = process_incoming_byte(rx_buffer[i], message_buffer, message_buffer_
 274              		.loc 1 483 39 is_stmt 0 discriminator 2 view .LVU70
 275 001e 0134     		adds	r4, r4, #1
 276              	.LVL9:
 277              	.L7:
 483:Core/Src/main.c ****     uint16_t next_buffer_size = process_incoming_byte(rx_buffer[i], message_buffer, message_buffer_
 278              		.loc 1 483 27 is_stmt 1 discriminator 1 view .LVU71
 483:Core/Src/main.c ****     uint16_t next_buffer_size = process_incoming_byte(rx_buffer[i], message_buffer, message_buffer_
 279              		.loc 1 483 3 is_stmt 0 discriminator 1 view .LVU72
 280 0020 AC42     		cmp	r4, r5
 281 0022 0CDA     		bge	.L14
 282              	.LBB13:
 484:Core/Src/main.c ****     uint16_t next_buffer_size = process_incoming_byte(rx_buffer[i], message_buffer, message_buffer_
 283              		.loc 1 484 5 is_stmt 1 view .LVU73
 484:Core/Src/main.c ****     uint16_t next_buffer_size = process_incoming_byte(rx_buffer[i], message_buffer, message_buffer_
 284              		.loc 1 484 33 is_stmt 0 view .LVU74
 285 0024 104B     		ldr	r3, .L16+12
 286 0026 1A88     		ldrh	r2, [r3]
 287 0028 1049     		ldr	r1, .L16+16
 288 002a 114B     		ldr	r3, .L16+20
 289 002c 185D     		ldrb	r0, [r3, r4]	@ zero_extendqisi2
 290 002e FFF7FEFF 		bl	process_incoming_byte
 291              	.LVL10:
 484:Core/Src/main.c ****     uint16_t next_buffer_size = process_incoming_byte(rx_buffer[i], message_buffer, message_buffer_
 292              		.loc 1 484 14 view .LVU75
ARM GAS  /tmp/cctnoRdP.s 			page 15


 293 0032 80B2     		uxth	r0, r0
 294              	.LVL11:
 486:Core/Src/main.c ****       message_buffer_size = 0;
 295              		.loc 1 486 5 is_stmt 1 view .LVU76
 496:Core/Src/main.c ****       //avoid buffer overflow
 296              		.loc 1 496 12 view .LVU77
 496:Core/Src/main.c ****       //avoid buffer overflow
 297              		.loc 1 496 15 is_stmt 0 view .LVU78
 298 0034 1F28     		cmp	r0, #31
 299 0036 EFD8     		bhi	.L8
 498:Core/Src/main.c ****     } else {
 300              		.loc 1 498 7 is_stmt 1 view .LVU79
 498:Core/Src/main.c ****     } else {
 301              		.loc 1 498 27 is_stmt 0 view .LVU80
 302 0038 0B4B     		ldr	r3, .L16+12
 303 003a 1880     		strh	r0, [r3]	@ movhi
 304 003c EFE7     		b	.L9
 305              	.LVL12:
 306              	.L14:
 498:Core/Src/main.c ****     } else {
 307              		.loc 1 498 27 view .LVU81
 308              	.LBE13:
 309              	.LBE11:
 501:Core/Src/main.c ****     }
 502:Core/Src/main.c ****   }
 503:Core/Src/main.c **** 
 504:Core/Src/main.c ****   if (size == MESSAGE_MAX_SIZE) {
 310              		.loc 1 504 3 is_stmt 1 view .LVU82
 311              		.loc 1 504 6 is_stmt 0 view .LVU83
 312 003e 202D     		cmp	r5, #32
 313 0040 07D0     		beq	.L15
 505:Core/Src/main.c ****     prev_size = 0;
 506:Core/Src/main.c ****   } else {
 507:Core/Src/main.c ****     prev_size = size;
 314              		.loc 1 507 5 is_stmt 1 view .LVU84
 315              		.loc 1 507 15 is_stmt 0 view .LVU85
 316 0042 084B     		ldr	r3, .L16+8
 317 0044 1D80     		strh	r5, [r3]	@ movhi
 318              	.L12:
 508:Core/Src/main.c ****   }
 509:Core/Src/main.c **** 
 510:Core/Src/main.c ****   HAL_UARTEx_ReceiveToIdle_IT(&huart4, rx_buffer, MESSAGE_MAX_SIZE);
 319              		.loc 1 510 3 is_stmt 1 view .LVU86
 320 0046 2022     		movs	r2, #32
 321 0048 0949     		ldr	r1, .L16+20
 322 004a 0A48     		ldr	r0, .L16+24
 323 004c FFF7FEFF 		bl	HAL_UARTEx_ReceiveToIdle_IT
 324              	.LVL13:
 511:Core/Src/main.c **** }
 325              		.loc 1 511 1 is_stmt 0 view .LVU87
 326 0050 38BD     		pop	{r3, r4, r5, pc}
 327              	.LVL14:
 328              	.L15:
 505:Core/Src/main.c ****     prev_size = 0;
 329              		.loc 1 505 5 is_stmt 1 view .LVU88
 505:Core/Src/main.c ****     prev_size = 0;
 330              		.loc 1 505 15 is_stmt 0 view .LVU89
ARM GAS  /tmp/cctnoRdP.s 			page 16


 331 0052 044B     		ldr	r3, .L16+8
 332 0054 0022     		movs	r2, #0
 333 0056 1A80     		strh	r2, [r3]	@ movhi
 334 0058 F5E7     		b	.L12
 335              	.L17:
 336 005a 00BF     		.align	2
 337              	.L16:
 338 005c 00000000 		.word	.LC0
 339 0060 00000000 		.word	.LANCHOR0
 340 0064 00000000 		.word	.LANCHOR1
 341 0068 00000000 		.word	.LANCHOR2
 342 006c 00000000 		.word	.LANCHOR3
 343 0070 00000000 		.word	.LANCHOR4
 344 0074 00000000 		.word	.LANCHOR5
 345              		.cfi_endproc
 346              	.LFE160:
 348              		.section	.text.HAL_TIM_PeriodElapsedCallback,"ax",%progbits
 349              		.align	1
 350              		.global	HAL_TIM_PeriodElapsedCallback
 351              		.syntax unified
 352              		.thumb
 353              		.thumb_func
 354              		.fpu fpv5-d16
 356              	HAL_TIM_PeriodElapsedCallback:
 357              	.LVL15:
 358              	.LFB161:
 512:Core/Src/main.c **** 
 513:Core/Src/main.c **** /* USER CODE END 4 */
 514:Core/Src/main.c **** 
 515:Core/Src/main.c **** /**
 516:Core/Src/main.c ****   * @brief  Period elapsed callback in non blocking mode
 517:Core/Src/main.c ****   * @note   This function is called  when TIM1 interrupt took place, inside
 518:Core/Src/main.c ****   * HAL_TIM_IRQHandler(). It makes a direct call to HAL_IncTick() to increment
 519:Core/Src/main.c ****   * a global variable "uwTick" used as application time base.
 520:Core/Src/main.c ****   * @param  htim : TIM handle
 521:Core/Src/main.c ****   * @retval None
 522:Core/Src/main.c ****   */
 523:Core/Src/main.c **** void HAL_TIM_PeriodElapsedCallback(TIM_HandleTypeDef *htim)
 524:Core/Src/main.c **** {
 359              		.loc 1 524 1 is_stmt 1 view -0
 360              		.cfi_startproc
 361              		@ args = 0, pretend = 0, frame = 0
 362              		@ frame_needed = 0, uses_anonymous_args = 0
 363              		.loc 1 524 1 is_stmt 0 view .LVU91
 364 0000 08B5     		push	{r3, lr}
 365              	.LCFI4:
 366              		.cfi_def_cfa_offset 8
 367              		.cfi_offset 3, -8
 368              		.cfi_offset 14, -4
 525:Core/Src/main.c ****   /* USER CODE BEGIN Callback 0 */
 526:Core/Src/main.c **** 
 527:Core/Src/main.c ****   /* USER CODE END Callback 0 */
 528:Core/Src/main.c ****   if (htim->Instance == TIM1) {
 369              		.loc 1 528 3 is_stmt 1 view .LVU92
 370              		.loc 1 528 11 is_stmt 0 view .LVU93
 371 0002 0268     		ldr	r2, [r0]
 372              		.loc 1 528 6 view .LVU94
ARM GAS  /tmp/cctnoRdP.s 			page 17


 373 0004 034B     		ldr	r3, .L22
 374 0006 9A42     		cmp	r2, r3
 375 0008 00D0     		beq	.L21
 376              	.LVL16:
 377              	.L18:
 529:Core/Src/main.c ****     HAL_IncTick();
 530:Core/Src/main.c ****   }
 531:Core/Src/main.c ****   /* USER CODE BEGIN Callback 1 */
 532:Core/Src/main.c **** 
 533:Core/Src/main.c ****   /* USER CODE END Callback 1 */
 534:Core/Src/main.c **** }
 378              		.loc 1 534 1 view .LVU95
 379 000a 08BD     		pop	{r3, pc}
 380              	.LVL17:
 381              	.L21:
 529:Core/Src/main.c ****     HAL_IncTick();
 382              		.loc 1 529 5 is_stmt 1 view .LVU96
 383 000c FFF7FEFF 		bl	HAL_IncTick
 384              	.LVL18:
 385              		.loc 1 534 1 is_stmt 0 view .LVU97
 386 0010 FBE7     		b	.L18
 387              	.L23:
 388 0012 00BF     		.align	2
 389              	.L22:
 390 0014 00000140 		.word	1073807360
 391              		.cfi_endproc
 392              	.LFE161:
 394              		.section	.text.Error_Handler,"ax",%progbits
 395              		.align	1
 396              		.global	Error_Handler
 397              		.syntax unified
 398              		.thumb
 399              		.thumb_func
 400              		.fpu fpv5-d16
 402              	Error_Handler:
 403              	.LFB162:
 535:Core/Src/main.c **** 
 536:Core/Src/main.c **** /**
 537:Core/Src/main.c ****   * @brief  This function is executed in case of error occurrence.
 538:Core/Src/main.c ****   * @retval None
 539:Core/Src/main.c ****   */
 540:Core/Src/main.c **** void Error_Handler(void)
 541:Core/Src/main.c **** {
 404              		.loc 1 541 1 is_stmt 1 view -0
 405              		.cfi_startproc
 406              		@ Volatile: function does not return.
 407              		@ args = 0, pretend = 0, frame = 0
 408              		@ frame_needed = 0, uses_anonymous_args = 0
 409              		@ link register save eliminated.
 542:Core/Src/main.c ****   /* USER CODE BEGIN Error_Handler_Debug */
 543:Core/Src/main.c ****   /* User can add his own implementation to report the HAL error return state */
 544:Core/Src/main.c ****   __disable_irq();
 410              		.loc 1 544 3 view .LVU99
 411              	.LBB14:
 412              	.LBI14:
 413              		.file 2 "Drivers/CMSIS/Include/cmsis_gcc.h"
   1:Drivers/CMSIS/Include/cmsis_gcc.h **** /**************************************************************************//**
ARM GAS  /tmp/cctnoRdP.s 			page 18


   2:Drivers/CMSIS/Include/cmsis_gcc.h ****  * @file     cmsis_gcc.h
   3:Drivers/CMSIS/Include/cmsis_gcc.h ****  * @brief    CMSIS compiler GCC header file
   4:Drivers/CMSIS/Include/cmsis_gcc.h ****  * @version  V5.2.0
   5:Drivers/CMSIS/Include/cmsis_gcc.h ****  * @date     08. May 2019
   6:Drivers/CMSIS/Include/cmsis_gcc.h ****  ******************************************************************************/
   7:Drivers/CMSIS/Include/cmsis_gcc.h **** /*
   8:Drivers/CMSIS/Include/cmsis_gcc.h ****  * Copyright (c) 2009-2019 Arm Limited. All rights reserved.
   9:Drivers/CMSIS/Include/cmsis_gcc.h ****  *
  10:Drivers/CMSIS/Include/cmsis_gcc.h ****  * SPDX-License-Identifier: Apache-2.0
  11:Drivers/CMSIS/Include/cmsis_gcc.h ****  *
  12:Drivers/CMSIS/Include/cmsis_gcc.h ****  * Licensed under the Apache License, Version 2.0 (the License); you may
  13:Drivers/CMSIS/Include/cmsis_gcc.h ****  * not use this file except in compliance with the License.
  14:Drivers/CMSIS/Include/cmsis_gcc.h ****  * You may obtain a copy of the License at
  15:Drivers/CMSIS/Include/cmsis_gcc.h ****  *
  16:Drivers/CMSIS/Include/cmsis_gcc.h ****  * www.apache.org/licenses/LICENSE-2.0
  17:Drivers/CMSIS/Include/cmsis_gcc.h ****  *
  18:Drivers/CMSIS/Include/cmsis_gcc.h ****  * Unless required by applicable law or agreed to in writing, software
  19:Drivers/CMSIS/Include/cmsis_gcc.h ****  * distributed under the License is distributed on an AS IS BASIS, WITHOUT
  20:Drivers/CMSIS/Include/cmsis_gcc.h ****  * WARRANTIES OR CONDITIONS OF ANY KIND, either express or implied.
  21:Drivers/CMSIS/Include/cmsis_gcc.h ****  * See the License for the specific language governing permissions and
  22:Drivers/CMSIS/Include/cmsis_gcc.h ****  * limitations under the License.
  23:Drivers/CMSIS/Include/cmsis_gcc.h ****  */
  24:Drivers/CMSIS/Include/cmsis_gcc.h **** 
  25:Drivers/CMSIS/Include/cmsis_gcc.h **** #ifndef __CMSIS_GCC_H
  26:Drivers/CMSIS/Include/cmsis_gcc.h **** #define __CMSIS_GCC_H
  27:Drivers/CMSIS/Include/cmsis_gcc.h **** 
  28:Drivers/CMSIS/Include/cmsis_gcc.h **** /* ignore some GCC warnings */
  29:Drivers/CMSIS/Include/cmsis_gcc.h **** #pragma GCC diagnostic push
  30:Drivers/CMSIS/Include/cmsis_gcc.h **** #pragma GCC diagnostic ignored "-Wsign-conversion"
  31:Drivers/CMSIS/Include/cmsis_gcc.h **** #pragma GCC diagnostic ignored "-Wconversion"
  32:Drivers/CMSIS/Include/cmsis_gcc.h **** #pragma GCC diagnostic ignored "-Wunused-parameter"
  33:Drivers/CMSIS/Include/cmsis_gcc.h **** 
  34:Drivers/CMSIS/Include/cmsis_gcc.h **** /* Fallback for __has_builtin */
  35:Drivers/CMSIS/Include/cmsis_gcc.h **** #ifndef __has_builtin
  36:Drivers/CMSIS/Include/cmsis_gcc.h ****   #define __has_builtin(x) (0)
  37:Drivers/CMSIS/Include/cmsis_gcc.h **** #endif
  38:Drivers/CMSIS/Include/cmsis_gcc.h **** 
  39:Drivers/CMSIS/Include/cmsis_gcc.h **** /* CMSIS compiler specific defines */
  40:Drivers/CMSIS/Include/cmsis_gcc.h **** #ifndef   __ASM
  41:Drivers/CMSIS/Include/cmsis_gcc.h ****   #define __ASM                                  __asm
  42:Drivers/CMSIS/Include/cmsis_gcc.h **** #endif
  43:Drivers/CMSIS/Include/cmsis_gcc.h **** #ifndef   __INLINE
  44:Drivers/CMSIS/Include/cmsis_gcc.h ****   #define __INLINE                               inline
  45:Drivers/CMSIS/Include/cmsis_gcc.h **** #endif
  46:Drivers/CMSIS/Include/cmsis_gcc.h **** #ifndef   __STATIC_INLINE
  47:Drivers/CMSIS/Include/cmsis_gcc.h ****   #define __STATIC_INLINE                        static inline
  48:Drivers/CMSIS/Include/cmsis_gcc.h **** #endif
  49:Drivers/CMSIS/Include/cmsis_gcc.h **** #ifndef   __STATIC_FORCEINLINE                 
  50:Drivers/CMSIS/Include/cmsis_gcc.h ****   #define __STATIC_FORCEINLINE                   __attribute__((always_inline)) static inline
  51:Drivers/CMSIS/Include/cmsis_gcc.h **** #endif                                           
  52:Drivers/CMSIS/Include/cmsis_gcc.h **** #ifndef   __NO_RETURN
  53:Drivers/CMSIS/Include/cmsis_gcc.h ****   #define __NO_RETURN                            __attribute__((__noreturn__))
  54:Drivers/CMSIS/Include/cmsis_gcc.h **** #endif
  55:Drivers/CMSIS/Include/cmsis_gcc.h **** #ifndef   __USED
  56:Drivers/CMSIS/Include/cmsis_gcc.h ****   #define __USED                                 __attribute__((used))
  57:Drivers/CMSIS/Include/cmsis_gcc.h **** #endif
  58:Drivers/CMSIS/Include/cmsis_gcc.h **** #ifndef   __WEAK
ARM GAS  /tmp/cctnoRdP.s 			page 19


  59:Drivers/CMSIS/Include/cmsis_gcc.h ****   #define __WEAK                                 __attribute__((weak))
  60:Drivers/CMSIS/Include/cmsis_gcc.h **** #endif
  61:Drivers/CMSIS/Include/cmsis_gcc.h **** #ifndef   __PACKED
  62:Drivers/CMSIS/Include/cmsis_gcc.h ****   #define __PACKED                               __attribute__((packed, aligned(1)))
  63:Drivers/CMSIS/Include/cmsis_gcc.h **** #endif
  64:Drivers/CMSIS/Include/cmsis_gcc.h **** #ifndef   __PACKED_STRUCT
  65:Drivers/CMSIS/Include/cmsis_gcc.h ****   #define __PACKED_STRUCT                        struct __attribute__((packed, aligned(1)))
  66:Drivers/CMSIS/Include/cmsis_gcc.h **** #endif
  67:Drivers/CMSIS/Include/cmsis_gcc.h **** #ifndef   __PACKED_UNION
  68:Drivers/CMSIS/Include/cmsis_gcc.h ****   #define __PACKED_UNION                         union __attribute__((packed, aligned(1)))
  69:Drivers/CMSIS/Include/cmsis_gcc.h **** #endif
  70:Drivers/CMSIS/Include/cmsis_gcc.h **** #ifndef   __UNALIGNED_UINT32        /* deprecated */
  71:Drivers/CMSIS/Include/cmsis_gcc.h ****   #pragma GCC diagnostic push
  72:Drivers/CMSIS/Include/cmsis_gcc.h ****   #pragma GCC diagnostic ignored "-Wpacked"
  73:Drivers/CMSIS/Include/cmsis_gcc.h ****   #pragma GCC diagnostic ignored "-Wattributes"
  74:Drivers/CMSIS/Include/cmsis_gcc.h ****   struct __attribute__((packed)) T_UINT32 { uint32_t v; };
  75:Drivers/CMSIS/Include/cmsis_gcc.h ****   #pragma GCC diagnostic pop
  76:Drivers/CMSIS/Include/cmsis_gcc.h ****   #define __UNALIGNED_UINT32(x)                  (((struct T_UINT32 *)(x))->v)
  77:Drivers/CMSIS/Include/cmsis_gcc.h **** #endif
  78:Drivers/CMSIS/Include/cmsis_gcc.h **** #ifndef   __UNALIGNED_UINT16_WRITE
  79:Drivers/CMSIS/Include/cmsis_gcc.h ****   #pragma GCC diagnostic push
  80:Drivers/CMSIS/Include/cmsis_gcc.h ****   #pragma GCC diagnostic ignored "-Wpacked"
  81:Drivers/CMSIS/Include/cmsis_gcc.h ****   #pragma GCC diagnostic ignored "-Wattributes"
  82:Drivers/CMSIS/Include/cmsis_gcc.h ****   __PACKED_STRUCT T_UINT16_WRITE { uint16_t v; };
  83:Drivers/CMSIS/Include/cmsis_gcc.h ****   #pragma GCC diagnostic pop
  84:Drivers/CMSIS/Include/cmsis_gcc.h ****   #define __UNALIGNED_UINT16_WRITE(addr, val)    (void)((((struct T_UINT16_WRITE *)(void *)(addr))-
  85:Drivers/CMSIS/Include/cmsis_gcc.h **** #endif
  86:Drivers/CMSIS/Include/cmsis_gcc.h **** #ifndef   __UNALIGNED_UINT16_READ
  87:Drivers/CMSIS/Include/cmsis_gcc.h ****   #pragma GCC diagnostic push
  88:Drivers/CMSIS/Include/cmsis_gcc.h ****   #pragma GCC diagnostic ignored "-Wpacked"
  89:Drivers/CMSIS/Include/cmsis_gcc.h ****   #pragma GCC diagnostic ignored "-Wattributes"
  90:Drivers/CMSIS/Include/cmsis_gcc.h ****   __PACKED_STRUCT T_UINT16_READ { uint16_t v; };
  91:Drivers/CMSIS/Include/cmsis_gcc.h ****   #pragma GCC diagnostic pop
  92:Drivers/CMSIS/Include/cmsis_gcc.h ****   #define __UNALIGNED_UINT16_READ(addr)          (((const struct T_UINT16_READ *)(const void *)(add
  93:Drivers/CMSIS/Include/cmsis_gcc.h **** #endif
  94:Drivers/CMSIS/Include/cmsis_gcc.h **** #ifndef   __UNALIGNED_UINT32_WRITE
  95:Drivers/CMSIS/Include/cmsis_gcc.h ****   #pragma GCC diagnostic push
  96:Drivers/CMSIS/Include/cmsis_gcc.h ****   #pragma GCC diagnostic ignored "-Wpacked"
  97:Drivers/CMSIS/Include/cmsis_gcc.h ****   #pragma GCC diagnostic ignored "-Wattributes"
  98:Drivers/CMSIS/Include/cmsis_gcc.h ****   __PACKED_STRUCT T_UINT32_WRITE { uint32_t v; };
  99:Drivers/CMSIS/Include/cmsis_gcc.h ****   #pragma GCC diagnostic pop
 100:Drivers/CMSIS/Include/cmsis_gcc.h ****   #define __UNALIGNED_UINT32_WRITE(addr, val)    (void)((((struct T_UINT32_WRITE *)(void *)(addr))-
 101:Drivers/CMSIS/Include/cmsis_gcc.h **** #endif
 102:Drivers/CMSIS/Include/cmsis_gcc.h **** #ifndef   __UNALIGNED_UINT32_READ
 103:Drivers/CMSIS/Include/cmsis_gcc.h ****   #pragma GCC diagnostic push
 104:Drivers/CMSIS/Include/cmsis_gcc.h ****   #pragma GCC diagnostic ignored "-Wpacked"
 105:Drivers/CMSIS/Include/cmsis_gcc.h ****   #pragma GCC diagnostic ignored "-Wattributes"
 106:Drivers/CMSIS/Include/cmsis_gcc.h ****   __PACKED_STRUCT T_UINT32_READ { uint32_t v; };
 107:Drivers/CMSIS/Include/cmsis_gcc.h ****   #pragma GCC diagnostic pop
 108:Drivers/CMSIS/Include/cmsis_gcc.h ****   #define __UNALIGNED_UINT32_READ(addr)          (((const struct T_UINT32_READ *)(const void *)(add
 109:Drivers/CMSIS/Include/cmsis_gcc.h **** #endif
 110:Drivers/CMSIS/Include/cmsis_gcc.h **** #ifndef   __ALIGNED
 111:Drivers/CMSIS/Include/cmsis_gcc.h ****   #define __ALIGNED(x)                           __attribute__((aligned(x)))
 112:Drivers/CMSIS/Include/cmsis_gcc.h **** #endif
 113:Drivers/CMSIS/Include/cmsis_gcc.h **** #ifndef   __RESTRICT
 114:Drivers/CMSIS/Include/cmsis_gcc.h ****   #define __RESTRICT                             __restrict
 115:Drivers/CMSIS/Include/cmsis_gcc.h **** #endif
ARM GAS  /tmp/cctnoRdP.s 			page 20


 116:Drivers/CMSIS/Include/cmsis_gcc.h **** #ifndef   __COMPILER_BARRIER
 117:Drivers/CMSIS/Include/cmsis_gcc.h ****   #define __COMPILER_BARRIER()                   __ASM volatile("":::"memory")
 118:Drivers/CMSIS/Include/cmsis_gcc.h **** #endif
 119:Drivers/CMSIS/Include/cmsis_gcc.h **** 
 120:Drivers/CMSIS/Include/cmsis_gcc.h **** /* #########################  Startup and Lowlevel Init  ######################## */
 121:Drivers/CMSIS/Include/cmsis_gcc.h **** 
 122:Drivers/CMSIS/Include/cmsis_gcc.h **** #ifndef __PROGRAM_START
 123:Drivers/CMSIS/Include/cmsis_gcc.h **** 
 124:Drivers/CMSIS/Include/cmsis_gcc.h **** /**
 125:Drivers/CMSIS/Include/cmsis_gcc.h ****   \brief   Initializes data and bss sections
 126:Drivers/CMSIS/Include/cmsis_gcc.h ****   \details This default implementations initialized all data and additional bss
 127:Drivers/CMSIS/Include/cmsis_gcc.h ****            sections relying on .copy.table and .zero.table specified properly
 128:Drivers/CMSIS/Include/cmsis_gcc.h ****            in the used linker script.
 129:Drivers/CMSIS/Include/cmsis_gcc.h ****   
 130:Drivers/CMSIS/Include/cmsis_gcc.h ****  */
 131:Drivers/CMSIS/Include/cmsis_gcc.h **** __STATIC_FORCEINLINE __NO_RETURN void __cmsis_start(void)
 132:Drivers/CMSIS/Include/cmsis_gcc.h **** {
 133:Drivers/CMSIS/Include/cmsis_gcc.h ****   extern void _start(void) __NO_RETURN;
 134:Drivers/CMSIS/Include/cmsis_gcc.h ****   
 135:Drivers/CMSIS/Include/cmsis_gcc.h ****   typedef struct {
 136:Drivers/CMSIS/Include/cmsis_gcc.h ****     uint32_t const* src;
 137:Drivers/CMSIS/Include/cmsis_gcc.h ****     uint32_t* dest;
 138:Drivers/CMSIS/Include/cmsis_gcc.h ****     uint32_t  wlen;
 139:Drivers/CMSIS/Include/cmsis_gcc.h ****   } __copy_table_t;
 140:Drivers/CMSIS/Include/cmsis_gcc.h ****   
 141:Drivers/CMSIS/Include/cmsis_gcc.h ****   typedef struct {
 142:Drivers/CMSIS/Include/cmsis_gcc.h ****     uint32_t* dest;
 143:Drivers/CMSIS/Include/cmsis_gcc.h ****     uint32_t  wlen;
 144:Drivers/CMSIS/Include/cmsis_gcc.h ****   } __zero_table_t;
 145:Drivers/CMSIS/Include/cmsis_gcc.h ****   
 146:Drivers/CMSIS/Include/cmsis_gcc.h ****   extern const __copy_table_t __copy_table_start__;
 147:Drivers/CMSIS/Include/cmsis_gcc.h ****   extern const __copy_table_t __copy_table_end__;
 148:Drivers/CMSIS/Include/cmsis_gcc.h ****   extern const __zero_table_t __zero_table_start__;
 149:Drivers/CMSIS/Include/cmsis_gcc.h ****   extern const __zero_table_t __zero_table_end__;
 150:Drivers/CMSIS/Include/cmsis_gcc.h **** 
 151:Drivers/CMSIS/Include/cmsis_gcc.h ****   for (__copy_table_t const* pTable = &__copy_table_start__; pTable < &__copy_table_end__; ++pTable
 152:Drivers/CMSIS/Include/cmsis_gcc.h ****     for(uint32_t i=0u; i<pTable->wlen; ++i) {
 153:Drivers/CMSIS/Include/cmsis_gcc.h ****       pTable->dest[i] = pTable->src[i];
 154:Drivers/CMSIS/Include/cmsis_gcc.h ****     }
 155:Drivers/CMSIS/Include/cmsis_gcc.h ****   }
 156:Drivers/CMSIS/Include/cmsis_gcc.h ****  
 157:Drivers/CMSIS/Include/cmsis_gcc.h ****   for (__zero_table_t const* pTable = &__zero_table_start__; pTable < &__zero_table_end__; ++pTable
 158:Drivers/CMSIS/Include/cmsis_gcc.h ****     for(uint32_t i=0u; i<pTable->wlen; ++i) {
 159:Drivers/CMSIS/Include/cmsis_gcc.h ****       pTable->dest[i] = 0u;
 160:Drivers/CMSIS/Include/cmsis_gcc.h ****     }
 161:Drivers/CMSIS/Include/cmsis_gcc.h ****   }
 162:Drivers/CMSIS/Include/cmsis_gcc.h ****  
 163:Drivers/CMSIS/Include/cmsis_gcc.h ****   _start();
 164:Drivers/CMSIS/Include/cmsis_gcc.h **** }
 165:Drivers/CMSIS/Include/cmsis_gcc.h ****   
 166:Drivers/CMSIS/Include/cmsis_gcc.h **** #define __PROGRAM_START           __cmsis_start
 167:Drivers/CMSIS/Include/cmsis_gcc.h **** #endif
 168:Drivers/CMSIS/Include/cmsis_gcc.h **** 
 169:Drivers/CMSIS/Include/cmsis_gcc.h **** #ifndef __INITIAL_SP
 170:Drivers/CMSIS/Include/cmsis_gcc.h **** #define __INITIAL_SP              __StackTop
 171:Drivers/CMSIS/Include/cmsis_gcc.h **** #endif
 172:Drivers/CMSIS/Include/cmsis_gcc.h **** 
ARM GAS  /tmp/cctnoRdP.s 			page 21


 173:Drivers/CMSIS/Include/cmsis_gcc.h **** #ifndef __STACK_LIMIT
 174:Drivers/CMSIS/Include/cmsis_gcc.h **** #define __STACK_LIMIT             __StackLimit
 175:Drivers/CMSIS/Include/cmsis_gcc.h **** #endif
 176:Drivers/CMSIS/Include/cmsis_gcc.h **** 
 177:Drivers/CMSIS/Include/cmsis_gcc.h **** #ifndef __VECTOR_TABLE
 178:Drivers/CMSIS/Include/cmsis_gcc.h **** #define __VECTOR_TABLE            __Vectors
 179:Drivers/CMSIS/Include/cmsis_gcc.h **** #endif
 180:Drivers/CMSIS/Include/cmsis_gcc.h **** 
 181:Drivers/CMSIS/Include/cmsis_gcc.h **** #ifndef __VECTOR_TABLE_ATTRIBUTE
 182:Drivers/CMSIS/Include/cmsis_gcc.h **** #define __VECTOR_TABLE_ATTRIBUTE  __attribute((used, section(".vectors")))
 183:Drivers/CMSIS/Include/cmsis_gcc.h **** #endif
 184:Drivers/CMSIS/Include/cmsis_gcc.h **** 
 185:Drivers/CMSIS/Include/cmsis_gcc.h **** /* ###########################  Core Function Access  ########################### */
 186:Drivers/CMSIS/Include/cmsis_gcc.h **** /** \ingroup  CMSIS_Core_FunctionInterface
 187:Drivers/CMSIS/Include/cmsis_gcc.h ****     \defgroup CMSIS_Core_RegAccFunctions CMSIS Core Register Access Functions
 188:Drivers/CMSIS/Include/cmsis_gcc.h ****   @{
 189:Drivers/CMSIS/Include/cmsis_gcc.h ****  */
 190:Drivers/CMSIS/Include/cmsis_gcc.h **** 
 191:Drivers/CMSIS/Include/cmsis_gcc.h **** /**
 192:Drivers/CMSIS/Include/cmsis_gcc.h ****   \brief   Enable IRQ Interrupts
 193:Drivers/CMSIS/Include/cmsis_gcc.h ****   \details Enables IRQ interrupts by clearing the I-bit in the CPSR.
 194:Drivers/CMSIS/Include/cmsis_gcc.h ****            Can only be executed in Privileged modes.
 195:Drivers/CMSIS/Include/cmsis_gcc.h ****  */
 196:Drivers/CMSIS/Include/cmsis_gcc.h **** __STATIC_FORCEINLINE void __enable_irq(void)
 197:Drivers/CMSIS/Include/cmsis_gcc.h **** {
 198:Drivers/CMSIS/Include/cmsis_gcc.h ****   __ASM volatile ("cpsie i" : : : "memory");
 199:Drivers/CMSIS/Include/cmsis_gcc.h **** }
 200:Drivers/CMSIS/Include/cmsis_gcc.h **** 
 201:Drivers/CMSIS/Include/cmsis_gcc.h **** 
 202:Drivers/CMSIS/Include/cmsis_gcc.h **** /**
 203:Drivers/CMSIS/Include/cmsis_gcc.h ****   \brief   Disable IRQ Interrupts
 204:Drivers/CMSIS/Include/cmsis_gcc.h ****   \details Disables IRQ interrupts by setting the I-bit in the CPSR.
 205:Drivers/CMSIS/Include/cmsis_gcc.h ****            Can only be executed in Privileged modes.
 206:Drivers/CMSIS/Include/cmsis_gcc.h ****  */
 207:Drivers/CMSIS/Include/cmsis_gcc.h **** __STATIC_FORCEINLINE void __disable_irq(void)
 414              		.loc 2 207 27 view .LVU100
 415              	.LBB15:
 208:Drivers/CMSIS/Include/cmsis_gcc.h **** {
 209:Drivers/CMSIS/Include/cmsis_gcc.h ****   __ASM volatile ("cpsid i" : : : "memory");
 416              		.loc 2 209 3 view .LVU101
 417              		.syntax unified
 418              	@ 209 "Drivers/CMSIS/Include/cmsis_gcc.h" 1
 419 0000 72B6     		cpsid i
 420              	@ 0 "" 2
 421              		.thumb
 422              		.syntax unified
 423              	.L25:
 424              	.LBE15:
 425              	.LBE14:
 545:Core/Src/main.c ****   while (1)
 426              		.loc 1 545 3 discriminator 1 view .LVU102
 546:Core/Src/main.c ****   {
 547:Core/Src/main.c ****   }
 427              		.loc 1 547 3 discriminator 1 view .LVU103
 545:Core/Src/main.c ****   while (1)
 428              		.loc 1 545 9 discriminator 1 view .LVU104
 429 0002 FEE7     		b	.L25
ARM GAS  /tmp/cctnoRdP.s 			page 22


 430              		.cfi_endproc
 431              	.LFE162:
 433              		.section	.text.MX_SPI1_Init,"ax",%progbits
 434              		.align	1
 435              		.syntax unified
 436              		.thumb
 437              		.thumb_func
 438              		.fpu fpv5-d16
 440              	MX_SPI1_Init:
 441              	.LFB154:
 255:Core/Src/main.c **** 
 442              		.loc 1 255 1 view -0
 443              		.cfi_startproc
 444              		@ args = 0, pretend = 0, frame = 0
 445              		@ frame_needed = 0, uses_anonymous_args = 0
 446 0000 08B5     		push	{r3, lr}
 447              	.LCFI5:
 448              		.cfi_def_cfa_offset 8
 449              		.cfi_offset 3, -8
 450              		.cfi_offset 14, -4
 265:Core/Src/main.c ****   hspi1.Init.Mode = SPI_MODE_MASTER;
 451              		.loc 1 265 3 view .LVU106
 265:Core/Src/main.c ****   hspi1.Init.Mode = SPI_MODE_MASTER;
 452              		.loc 1 265 18 is_stmt 0 view .LVU107
 453 0002 1448     		ldr	r0, .L30
 454 0004 144B     		ldr	r3, .L30+4
 455 0006 0360     		str	r3, [r0]
 266:Core/Src/main.c ****   hspi1.Init.Direction = SPI_DIRECTION_2LINES;
 456              		.loc 1 266 3 is_stmt 1 view .LVU108
 266:Core/Src/main.c ****   hspi1.Init.Direction = SPI_DIRECTION_2LINES;
 457              		.loc 1 266 19 is_stmt 0 view .LVU109
 458 0008 4FF48003 		mov	r3, #4194304
 459 000c 4360     		str	r3, [r0, #4]
 267:Core/Src/main.c ****   hspi1.Init.DataSize = SPI_DATASIZE_8BIT;
 460              		.loc 1 267 3 is_stmt 1 view .LVU110
 267:Core/Src/main.c ****   hspi1.Init.DataSize = SPI_DATASIZE_8BIT;
 461              		.loc 1 267 24 is_stmt 0 view .LVU111
 462 000e 0023     		movs	r3, #0
 463 0010 8360     		str	r3, [r0, #8]
 268:Core/Src/main.c ****   hspi1.Init.CLKPolarity = SPI_POLARITY_LOW;
 464              		.loc 1 268 3 is_stmt 1 view .LVU112
 268:Core/Src/main.c ****   hspi1.Init.CLKPolarity = SPI_POLARITY_LOW;
 465              		.loc 1 268 23 is_stmt 0 view .LVU113
 466 0012 0722     		movs	r2, #7
 467 0014 C260     		str	r2, [r0, #12]
 269:Core/Src/main.c ****   hspi1.Init.CLKPhase = SPI_PHASE_1EDGE;
 468              		.loc 1 269 3 is_stmt 1 view .LVU114
 269:Core/Src/main.c ****   hspi1.Init.CLKPhase = SPI_PHASE_1EDGE;
 469              		.loc 1 269 26 is_stmt 0 view .LVU115
 470 0016 0361     		str	r3, [r0, #16]
 270:Core/Src/main.c ****   hspi1.Init.NSS = SPI_NSS_SOFT;
 471              		.loc 1 270 3 is_stmt 1 view .LVU116
 270:Core/Src/main.c ****   hspi1.Init.NSS = SPI_NSS_SOFT;
 472              		.loc 1 270 23 is_stmt 0 view .LVU117
 473 0018 4361     		str	r3, [r0, #20]
 271:Core/Src/main.c ****   hspi1.Init.BaudRatePrescaler = SPI_BAUDRATEPRESCALER_16;
 474              		.loc 1 271 3 is_stmt 1 view .LVU118
ARM GAS  /tmp/cctnoRdP.s 			page 23


 271:Core/Src/main.c ****   hspi1.Init.BaudRatePrescaler = SPI_BAUDRATEPRESCALER_16;
 475              		.loc 1 271 18 is_stmt 0 view .LVU119
 476 001a 4FF08062 		mov	r2, #67108864
 477 001e 8261     		str	r2, [r0, #24]
 272:Core/Src/main.c ****   hspi1.Init.FirstBit = SPI_FIRSTBIT_MSB;
 478              		.loc 1 272 3 is_stmt 1 view .LVU120
 272:Core/Src/main.c ****   hspi1.Init.FirstBit = SPI_FIRSTBIT_MSB;
 479              		.loc 1 272 32 is_stmt 0 view .LVU121
 480 0020 4FF04052 		mov	r2, #805306368
 481 0024 C261     		str	r2, [r0, #28]
 273:Core/Src/main.c ****   hspi1.Init.TIMode = SPI_TIMODE_DISABLE;
 482              		.loc 1 273 3 is_stmt 1 view .LVU122
 273:Core/Src/main.c ****   hspi1.Init.TIMode = SPI_TIMODE_DISABLE;
 483              		.loc 1 273 23 is_stmt 0 view .LVU123
 484 0026 0362     		str	r3, [r0, #32]
 274:Core/Src/main.c ****   hspi1.Init.CRCCalculation = SPI_CRCCALCULATION_DISABLE;
 485              		.loc 1 274 3 is_stmt 1 view .LVU124
 274:Core/Src/main.c ****   hspi1.Init.CRCCalculation = SPI_CRCCALCULATION_DISABLE;
 486              		.loc 1 274 21 is_stmt 0 view .LVU125
 487 0028 4362     		str	r3, [r0, #36]
 275:Core/Src/main.c ****   hspi1.Init.CRCPolynomial = 0x0;
 488              		.loc 1 275 3 is_stmt 1 view .LVU126
 275:Core/Src/main.c ****   hspi1.Init.CRCPolynomial = 0x0;
 489              		.loc 1 275 29 is_stmt 0 view .LVU127
 490 002a 8362     		str	r3, [r0, #40]
 276:Core/Src/main.c ****   hspi1.Init.NSSPMode = SPI_NSS_PULSE_ENABLE;
 491              		.loc 1 276 3 is_stmt 1 view .LVU128
 276:Core/Src/main.c ****   hspi1.Init.NSSPMode = SPI_NSS_PULSE_ENABLE;
 492              		.loc 1 276 28 is_stmt 0 view .LVU129
 493 002c C362     		str	r3, [r0, #44]
 277:Core/Src/main.c ****   hspi1.Init.NSSPolarity = SPI_NSS_POLARITY_LOW;
 494              		.loc 1 277 3 is_stmt 1 view .LVU130
 277:Core/Src/main.c ****   hspi1.Init.NSSPolarity = SPI_NSS_POLARITY_LOW;
 495              		.loc 1 277 23 is_stmt 0 view .LVU131
 496 002e 4FF08042 		mov	r2, #1073741824
 497 0032 4263     		str	r2, [r0, #52]
 278:Core/Src/main.c ****   hspi1.Init.FifoThreshold = SPI_FIFO_THRESHOLD_01DATA;
 498              		.loc 1 278 3 is_stmt 1 view .LVU132
 278:Core/Src/main.c ****   hspi1.Init.FifoThreshold = SPI_FIFO_THRESHOLD_01DATA;
 499              		.loc 1 278 26 is_stmt 0 view .LVU133
 500 0034 8363     		str	r3, [r0, #56]
 279:Core/Src/main.c ****   hspi1.Init.TxCRCInitializationPattern = SPI_CRC_INITIALIZATION_ALL_ZERO_PATTERN;
 501              		.loc 1 279 3 is_stmt 1 view .LVU134
 279:Core/Src/main.c ****   hspi1.Init.TxCRCInitializationPattern = SPI_CRC_INITIALIZATION_ALL_ZERO_PATTERN;
 502              		.loc 1 279 28 is_stmt 0 view .LVU135
 503 0036 C363     		str	r3, [r0, #60]
 280:Core/Src/main.c ****   hspi1.Init.RxCRCInitializationPattern = SPI_CRC_INITIALIZATION_ALL_ZERO_PATTERN;
 504              		.loc 1 280 3 is_stmt 1 view .LVU136
 280:Core/Src/main.c ****   hspi1.Init.RxCRCInitializationPattern = SPI_CRC_INITIALIZATION_ALL_ZERO_PATTERN;
 505              		.loc 1 280 41 is_stmt 0 view .LVU137
 506 0038 0364     		str	r3, [r0, #64]
 281:Core/Src/main.c ****   hspi1.Init.MasterSSIdleness = SPI_MASTER_SS_IDLENESS_00CYCLE;
 507              		.loc 1 281 3 is_stmt 1 view .LVU138
 281:Core/Src/main.c ****   hspi1.Init.MasterSSIdleness = SPI_MASTER_SS_IDLENESS_00CYCLE;
 508              		.loc 1 281 41 is_stmt 0 view .LVU139
 509 003a 4364     		str	r3, [r0, #68]
 282:Core/Src/main.c ****   hspi1.Init.MasterInterDataIdleness = SPI_MASTER_INTERDATA_IDLENESS_00CYCLE;
ARM GAS  /tmp/cctnoRdP.s 			page 24


 510              		.loc 1 282 3 is_stmt 1 view .LVU140
 282:Core/Src/main.c ****   hspi1.Init.MasterInterDataIdleness = SPI_MASTER_INTERDATA_IDLENESS_00CYCLE;
 511              		.loc 1 282 31 is_stmt 0 view .LVU141
 512 003c 8364     		str	r3, [r0, #72]
 283:Core/Src/main.c ****   hspi1.Init.MasterReceiverAutoSusp = SPI_MASTER_RX_AUTOSUSP_DISABLE;
 513              		.loc 1 283 3 is_stmt 1 view .LVU142
 283:Core/Src/main.c ****   hspi1.Init.MasterReceiverAutoSusp = SPI_MASTER_RX_AUTOSUSP_DISABLE;
 514              		.loc 1 283 38 is_stmt 0 view .LVU143
 515 003e C364     		str	r3, [r0, #76]
 284:Core/Src/main.c ****   hspi1.Init.MasterKeepIOState = SPI_MASTER_KEEP_IO_STATE_DISABLE;
 516              		.loc 1 284 3 is_stmt 1 view .LVU144
 284:Core/Src/main.c ****   hspi1.Init.MasterKeepIOState = SPI_MASTER_KEEP_IO_STATE_DISABLE;
 517              		.loc 1 284 37 is_stmt 0 view .LVU145
 518 0040 0365     		str	r3, [r0, #80]
 285:Core/Src/main.c ****   hspi1.Init.IOSwap = SPI_IO_SWAP_DISABLE;
 519              		.loc 1 285 3 is_stmt 1 view .LVU146
 285:Core/Src/main.c ****   hspi1.Init.IOSwap = SPI_IO_SWAP_DISABLE;
 520              		.loc 1 285 32 is_stmt 0 view .LVU147
 521 0042 4365     		str	r3, [r0, #84]
 286:Core/Src/main.c ****   if (HAL_SPI_Init(&hspi1) != HAL_OK)
 522              		.loc 1 286 3 is_stmt 1 view .LVU148
 286:Core/Src/main.c ****   if (HAL_SPI_Init(&hspi1) != HAL_OK)
 523              		.loc 1 286 21 is_stmt 0 view .LVU149
 524 0044 8365     		str	r3, [r0, #88]
 287:Core/Src/main.c ****   {
 525              		.loc 1 287 3 is_stmt 1 view .LVU150
 287:Core/Src/main.c ****   {
 526              		.loc 1 287 7 is_stmt 0 view .LVU151
 527 0046 FFF7FEFF 		bl	HAL_SPI_Init
 528              	.LVL19:
 287:Core/Src/main.c ****   {
 529              		.loc 1 287 6 view .LVU152
 530 004a 00B9     		cbnz	r0, .L29
 295:Core/Src/main.c **** 
 531              		.loc 1 295 1 view .LVU153
 532 004c 08BD     		pop	{r3, pc}
 533              	.L29:
 289:Core/Src/main.c ****   }
 534              		.loc 1 289 5 is_stmt 1 view .LVU154
 535 004e FFF7FEFF 		bl	Error_Handler
 536              	.LVL20:
 537              	.L31:
 538 0052 00BF     		.align	2
 539              	.L30:
 540 0054 00000000 		.word	.LANCHOR6
 541 0058 00300140 		.word	1073819648
 542              		.cfi_endproc
 543              	.LFE154:
 545              		.section	.text.MX_UART4_Init,"ax",%progbits
 546              		.align	1
 547              		.syntax unified
 548              		.thumb
 549              		.thumb_func
 550              		.fpu fpv5-d16
 552              	MX_UART4_Init:
 553              	.LFB155:
 303:Core/Src/main.c **** 
ARM GAS  /tmp/cctnoRdP.s 			page 25


 554              		.loc 1 303 1 view -0
 555              		.cfi_startproc
 556              		@ args = 0, pretend = 0, frame = 0
 557              		@ frame_needed = 0, uses_anonymous_args = 0
 558 0000 08B5     		push	{r3, lr}
 559              	.LCFI6:
 560              		.cfi_def_cfa_offset 8
 561              		.cfi_offset 3, -8
 562              		.cfi_offset 14, -4
 312:Core/Src/main.c ****   huart4.Init.BaudRate = 9600;
 563              		.loc 1 312 3 view .LVU156
 312:Core/Src/main.c ****   huart4.Init.BaudRate = 9600;
 564              		.loc 1 312 19 is_stmt 0 view .LVU157
 565 0002 1548     		ldr	r0, .L42
 566 0004 154B     		ldr	r3, .L42+4
 567 0006 0360     		str	r3, [r0]
 313:Core/Src/main.c ****   huart4.Init.WordLength = UART_WORDLENGTH_8B;
 568              		.loc 1 313 3 is_stmt 1 view .LVU158
 313:Core/Src/main.c ****   huart4.Init.WordLength = UART_WORDLENGTH_8B;
 569              		.loc 1 313 24 is_stmt 0 view .LVU159
 570 0008 4FF41653 		mov	r3, #9600
 571 000c 4360     		str	r3, [r0, #4]
 314:Core/Src/main.c ****   huart4.Init.StopBits = UART_STOPBITS_1;
 572              		.loc 1 314 3 is_stmt 1 view .LVU160
 314:Core/Src/main.c ****   huart4.Init.StopBits = UART_STOPBITS_1;
 573              		.loc 1 314 26 is_stmt 0 view .LVU161
 574 000e 0023     		movs	r3, #0
 575 0010 8360     		str	r3, [r0, #8]
 315:Core/Src/main.c ****   huart4.Init.Parity = UART_PARITY_NONE;
 576              		.loc 1 315 3 is_stmt 1 view .LVU162
 315:Core/Src/main.c ****   huart4.Init.Parity = UART_PARITY_NONE;
 577              		.loc 1 315 24 is_stmt 0 view .LVU163
 578 0012 C360     		str	r3, [r0, #12]
 316:Core/Src/main.c ****   huart4.Init.Mode = UART_MODE_TX_RX;
 579              		.loc 1 316 3 is_stmt 1 view .LVU164
 316:Core/Src/main.c ****   huart4.Init.Mode = UART_MODE_TX_RX;
 580              		.loc 1 316 22 is_stmt 0 view .LVU165
 581 0014 0361     		str	r3, [r0, #16]
 317:Core/Src/main.c ****   huart4.Init.HwFlowCtl = UART_HWCONTROL_NONE;
 582              		.loc 1 317 3 is_stmt 1 view .LVU166
 317:Core/Src/main.c ****   huart4.Init.HwFlowCtl = UART_HWCONTROL_NONE;
 583              		.loc 1 317 20 is_stmt 0 view .LVU167
 584 0016 0C22     		movs	r2, #12
 585 0018 4261     		str	r2, [r0, #20]
 318:Core/Src/main.c ****   huart4.Init.OverSampling = UART_OVERSAMPLING_16;
 586              		.loc 1 318 3 is_stmt 1 view .LVU168
 318:Core/Src/main.c ****   huart4.Init.OverSampling = UART_OVERSAMPLING_16;
 587              		.loc 1 318 25 is_stmt 0 view .LVU169
 588 001a 8361     		str	r3, [r0, #24]
 319:Core/Src/main.c ****   huart4.Init.OneBitSampling = UART_ONE_BIT_SAMPLE_DISABLE;
 589              		.loc 1 319 3 is_stmt 1 view .LVU170
 319:Core/Src/main.c ****   huart4.Init.OneBitSampling = UART_ONE_BIT_SAMPLE_DISABLE;
 590              		.loc 1 319 28 is_stmt 0 view .LVU171
 591 001c C361     		str	r3, [r0, #28]
 320:Core/Src/main.c ****   huart4.Init.ClockPrescaler = UART_PRESCALER_DIV1;
 592              		.loc 1 320 3 is_stmt 1 view .LVU172
 320:Core/Src/main.c ****   huart4.Init.ClockPrescaler = UART_PRESCALER_DIV1;
ARM GAS  /tmp/cctnoRdP.s 			page 26


 593              		.loc 1 320 30 is_stmt 0 view .LVU173
 594 001e 0362     		str	r3, [r0, #32]
 321:Core/Src/main.c ****   huart4.AdvancedInit.AdvFeatureInit = UART_ADVFEATURE_NO_INIT;
 595              		.loc 1 321 3 is_stmt 1 view .LVU174
 321:Core/Src/main.c ****   huart4.AdvancedInit.AdvFeatureInit = UART_ADVFEATURE_NO_INIT;
 596              		.loc 1 321 30 is_stmt 0 view .LVU175
 597 0020 4362     		str	r3, [r0, #36]
 322:Core/Src/main.c ****   if (HAL_UART_Init(&huart4) != HAL_OK)
 598              		.loc 1 322 3 is_stmt 1 view .LVU176
 322:Core/Src/main.c ****   if (HAL_UART_Init(&huart4) != HAL_OK)
 599              		.loc 1 322 38 is_stmt 0 view .LVU177
 600 0022 8362     		str	r3, [r0, #40]
 323:Core/Src/main.c ****   {
 601              		.loc 1 323 3 is_stmt 1 view .LVU178
 323:Core/Src/main.c ****   {
 602              		.loc 1 323 7 is_stmt 0 view .LVU179
 603 0024 FFF7FEFF 		bl	HAL_UART_Init
 604              	.LVL21:
 323:Core/Src/main.c ****   {
 605              		.loc 1 323 6 view .LVU180
 606 0028 70B9     		cbnz	r0, .L38
 327:Core/Src/main.c ****   {
 607              		.loc 1 327 3 is_stmt 1 view .LVU181
 327:Core/Src/main.c ****   {
 608              		.loc 1 327 7 is_stmt 0 view .LVU182
 609 002a 0021     		movs	r1, #0
 610 002c 0A48     		ldr	r0, .L42
 611 002e FFF7FEFF 		bl	HAL_UARTEx_SetTxFifoThreshold
 612              	.LVL22:
 327:Core/Src/main.c ****   {
 613              		.loc 1 327 6 view .LVU183
 614 0032 58B9     		cbnz	r0, .L39
 331:Core/Src/main.c ****   {
 615              		.loc 1 331 3 is_stmt 1 view .LVU184
 331:Core/Src/main.c ****   {
 616              		.loc 1 331 7 is_stmt 0 view .LVU185
 617 0034 0021     		movs	r1, #0
 618 0036 0848     		ldr	r0, .L42
 619 0038 FFF7FEFF 		bl	HAL_UARTEx_SetRxFifoThreshold
 620              	.LVL23:
 331:Core/Src/main.c ****   {
 621              		.loc 1 331 6 view .LVU186
 622 003c 40B9     		cbnz	r0, .L40
 335:Core/Src/main.c ****   {
 623              		.loc 1 335 3 is_stmt 1 view .LVU187
 335:Core/Src/main.c ****   {
 624              		.loc 1 335 7 is_stmt 0 view .LVU188
 625 003e 0648     		ldr	r0, .L42
 626 0040 FFF7FEFF 		bl	HAL_UARTEx_DisableFifoMode
 627              	.LVL24:
 335:Core/Src/main.c ****   {
 628              		.loc 1 335 6 view .LVU189
 629 0044 30B9     		cbnz	r0, .L41
 343:Core/Src/main.c **** 
 630              		.loc 1 343 1 view .LVU190
 631 0046 08BD     		pop	{r3, pc}
 632              	.L38:
ARM GAS  /tmp/cctnoRdP.s 			page 27


 325:Core/Src/main.c ****   }
 633              		.loc 1 325 5 is_stmt 1 view .LVU191
 634 0048 FFF7FEFF 		bl	Error_Handler
 635              	.LVL25:
 636              	.L39:
 329:Core/Src/main.c ****   }
 637              		.loc 1 329 5 view .LVU192
 638 004c FFF7FEFF 		bl	Error_Handler
 639              	.LVL26:
 640              	.L40:
 333:Core/Src/main.c ****   }
 641              		.loc 1 333 5 view .LVU193
 642 0050 FFF7FEFF 		bl	Error_Handler
 643              	.LVL27:
 644              	.L41:
 337:Core/Src/main.c ****   }
 645              		.loc 1 337 5 view .LVU194
 646 0054 FFF7FEFF 		bl	Error_Handler
 647              	.LVL28:
 648              	.L43:
 649              		.align	2
 650              	.L42:
 651 0058 00000000 		.word	.LANCHOR5
 652 005c 004C0040 		.word	1073761280
 653              		.cfi_endproc
 654              	.LFE155:
 656              		.section	.text.MX_UART5_Init,"ax",%progbits
 657              		.align	1
 658              		.syntax unified
 659              		.thumb
 660              		.thumb_func
 661              		.fpu fpv5-d16
 663              	MX_UART5_Init:
 664              	.LFB156:
 351:Core/Src/main.c **** 
 665              		.loc 1 351 1 view -0
 666              		.cfi_startproc
 667              		@ args = 0, pretend = 0, frame = 0
 668              		@ frame_needed = 0, uses_anonymous_args = 0
 669 0000 08B5     		push	{r3, lr}
 670              	.LCFI7:
 671              		.cfi_def_cfa_offset 8
 672              		.cfi_offset 3, -8
 673              		.cfi_offset 14, -4
 360:Core/Src/main.c ****   huart5.Init.BaudRate = 115200;
 674              		.loc 1 360 3 view .LVU196
 360:Core/Src/main.c ****   huart5.Init.BaudRate = 115200;
 675              		.loc 1 360 19 is_stmt 0 view .LVU197
 676 0002 1548     		ldr	r0, .L54
 677 0004 154B     		ldr	r3, .L54+4
 678 0006 0360     		str	r3, [r0]
 361:Core/Src/main.c ****   huart5.Init.WordLength = UART_WORDLENGTH_8B;
 679              		.loc 1 361 3 is_stmt 1 view .LVU198
 361:Core/Src/main.c ****   huart5.Init.WordLength = UART_WORDLENGTH_8B;
 680              		.loc 1 361 24 is_stmt 0 view .LVU199
 681 0008 4FF4E133 		mov	r3, #115200
 682 000c 4360     		str	r3, [r0, #4]
ARM GAS  /tmp/cctnoRdP.s 			page 28


 362:Core/Src/main.c ****   huart5.Init.StopBits = UART_STOPBITS_1;
 683              		.loc 1 362 3 is_stmt 1 view .LVU200
 362:Core/Src/main.c ****   huart5.Init.StopBits = UART_STOPBITS_1;
 684              		.loc 1 362 26 is_stmt 0 view .LVU201
 685 000e 0023     		movs	r3, #0
 686 0010 8360     		str	r3, [r0, #8]
 363:Core/Src/main.c ****   huart5.Init.Parity = UART_PARITY_NONE;
 687              		.loc 1 363 3 is_stmt 1 view .LVU202
 363:Core/Src/main.c ****   huart5.Init.Parity = UART_PARITY_NONE;
 688              		.loc 1 363 24 is_stmt 0 view .LVU203
 689 0012 C360     		str	r3, [r0, #12]
 364:Core/Src/main.c ****   huart5.Init.Mode = UART_MODE_TX_RX;
 690              		.loc 1 364 3 is_stmt 1 view .LVU204
 364:Core/Src/main.c ****   huart5.Init.Mode = UART_MODE_TX_RX;
 691              		.loc 1 364 22 is_stmt 0 view .LVU205
 692 0014 0361     		str	r3, [r0, #16]
 365:Core/Src/main.c ****   huart5.Init.HwFlowCtl = UART_HWCONTROL_NONE;
 693              		.loc 1 365 3 is_stmt 1 view .LVU206
 365:Core/Src/main.c ****   huart5.Init.HwFlowCtl = UART_HWCONTROL_NONE;
 694              		.loc 1 365 20 is_stmt 0 view .LVU207
 695 0016 0C22     		movs	r2, #12
 696 0018 4261     		str	r2, [r0, #20]
 366:Core/Src/main.c ****   huart5.Init.OverSampling = UART_OVERSAMPLING_16;
 697              		.loc 1 366 3 is_stmt 1 view .LVU208
 366:Core/Src/main.c ****   huart5.Init.OverSampling = UART_OVERSAMPLING_16;
 698              		.loc 1 366 25 is_stmt 0 view .LVU209
 699 001a 8361     		str	r3, [r0, #24]
 367:Core/Src/main.c ****   huart5.Init.OneBitSampling = UART_ONE_BIT_SAMPLE_DISABLE;
 700              		.loc 1 367 3 is_stmt 1 view .LVU210
 367:Core/Src/main.c ****   huart5.Init.OneBitSampling = UART_ONE_BIT_SAMPLE_DISABLE;
 701              		.loc 1 367 28 is_stmt 0 view .LVU211
 702 001c C361     		str	r3, [r0, #28]
 368:Core/Src/main.c ****   huart5.Init.ClockPrescaler = UART_PRESCALER_DIV1;
 703              		.loc 1 368 3 is_stmt 1 view .LVU212
 368:Core/Src/main.c ****   huart5.Init.ClockPrescaler = UART_PRESCALER_DIV1;
 704              		.loc 1 368 30 is_stmt 0 view .LVU213
 705 001e 0362     		str	r3, [r0, #32]
 369:Core/Src/main.c ****   huart5.AdvancedInit.AdvFeatureInit = UART_ADVFEATURE_NO_INIT;
 706              		.loc 1 369 3 is_stmt 1 view .LVU214
 369:Core/Src/main.c ****   huart5.AdvancedInit.AdvFeatureInit = UART_ADVFEATURE_NO_INIT;
 707              		.loc 1 369 30 is_stmt 0 view .LVU215
 708 0020 4362     		str	r3, [r0, #36]
 370:Core/Src/main.c ****   if (HAL_UART_Init(&huart5) != HAL_OK)
 709              		.loc 1 370 3 is_stmt 1 view .LVU216
 370:Core/Src/main.c ****   if (HAL_UART_Init(&huart5) != HAL_OK)
 710              		.loc 1 370 38 is_stmt 0 view .LVU217
 711 0022 8362     		str	r3, [r0, #40]
 371:Core/Src/main.c ****   {
 712              		.loc 1 371 3 is_stmt 1 view .LVU218
 371:Core/Src/main.c ****   {
 713              		.loc 1 371 7 is_stmt 0 view .LVU219
 714 0024 FFF7FEFF 		bl	HAL_UART_Init
 715              	.LVL29:
 371:Core/Src/main.c ****   {
 716              		.loc 1 371 6 view .LVU220
 717 0028 70B9     		cbnz	r0, .L50
 375:Core/Src/main.c ****   {
ARM GAS  /tmp/cctnoRdP.s 			page 29


 718              		.loc 1 375 3 is_stmt 1 view .LVU221
 375:Core/Src/main.c ****   {
 719              		.loc 1 375 7 is_stmt 0 view .LVU222
 720 002a 0021     		movs	r1, #0
 721 002c 0A48     		ldr	r0, .L54
 722 002e FFF7FEFF 		bl	HAL_UARTEx_SetTxFifoThreshold
 723              	.LVL30:
 375:Core/Src/main.c ****   {
 724              		.loc 1 375 6 view .LVU223
 725 0032 58B9     		cbnz	r0, .L51
 379:Core/Src/main.c ****   {
 726              		.loc 1 379 3 is_stmt 1 view .LVU224
 379:Core/Src/main.c ****   {
 727              		.loc 1 379 7 is_stmt 0 view .LVU225
 728 0034 0021     		movs	r1, #0
 729 0036 0848     		ldr	r0, .L54
 730 0038 FFF7FEFF 		bl	HAL_UARTEx_SetRxFifoThreshold
 731              	.LVL31:
 379:Core/Src/main.c ****   {
 732              		.loc 1 379 6 view .LVU226
 733 003c 40B9     		cbnz	r0, .L52
 383:Core/Src/main.c ****   {
 734              		.loc 1 383 3 is_stmt 1 view .LVU227
 383:Core/Src/main.c ****   {
 735              		.loc 1 383 7 is_stmt 0 view .LVU228
 736 003e 0648     		ldr	r0, .L54
 737 0040 FFF7FEFF 		bl	HAL_UARTEx_DisableFifoMode
 738              	.LVL32:
 383:Core/Src/main.c ****   {
 739              		.loc 1 383 6 view .LVU229
 740 0044 30B9     		cbnz	r0, .L53
 391:Core/Src/main.c **** 
 741              		.loc 1 391 1 view .LVU230
 742 0046 08BD     		pop	{r3, pc}
 743              	.L50:
 373:Core/Src/main.c ****   }
 744              		.loc 1 373 5 is_stmt 1 view .LVU231
 745 0048 FFF7FEFF 		bl	Error_Handler
 746              	.LVL33:
 747              	.L51:
 377:Core/Src/main.c ****   }
 748              		.loc 1 377 5 view .LVU232
 749 004c FFF7FEFF 		bl	Error_Handler
 750              	.LVL34:
 751              	.L52:
 381:Core/Src/main.c ****   }
 752              		.loc 1 381 5 view .LVU233
 753 0050 FFF7FEFF 		bl	Error_Handler
 754              	.LVL35:
 755              	.L53:
 385:Core/Src/main.c ****   }
 756              		.loc 1 385 5 view .LVU234
 757 0054 FFF7FEFF 		bl	Error_Handler
 758              	.LVL36:
 759              	.L55:
 760              		.align	2
 761              	.L54:
ARM GAS  /tmp/cctnoRdP.s 			page 30


 762 0058 00000000 		.word	.LANCHOR7
 763 005c 00500040 		.word	1073762304
 764              		.cfi_endproc
 765              	.LFE156:
 767              		.section	.text.MX_USART2_UART_Init,"ax",%progbits
 768              		.align	1
 769              		.syntax unified
 770              		.thumb
 771              		.thumb_func
 772              		.fpu fpv5-d16
 774              	MX_USART2_UART_Init:
 775              	.LFB157:
 399:Core/Src/main.c **** 
 776              		.loc 1 399 1 view -0
 777              		.cfi_startproc
 778              		@ args = 0, pretend = 0, frame = 0
 779              		@ frame_needed = 0, uses_anonymous_args = 0
 780 0000 08B5     		push	{r3, lr}
 781              	.LCFI8:
 782              		.cfi_def_cfa_offset 8
 783              		.cfi_offset 3, -8
 784              		.cfi_offset 14, -4
 408:Core/Src/main.c ****   huart2.Init.BaudRate = 115200;
 785              		.loc 1 408 3 view .LVU236
 408:Core/Src/main.c ****   huart2.Init.BaudRate = 115200;
 786              		.loc 1 408 19 is_stmt 0 view .LVU237
 787 0002 1548     		ldr	r0, .L66
 788 0004 154B     		ldr	r3, .L66+4
 789 0006 0360     		str	r3, [r0]
 409:Core/Src/main.c ****   huart2.Init.WordLength = UART_WORDLENGTH_8B;
 790              		.loc 1 409 3 is_stmt 1 view .LVU238
 409:Core/Src/main.c ****   huart2.Init.WordLength = UART_WORDLENGTH_8B;
 791              		.loc 1 409 24 is_stmt 0 view .LVU239
 792 0008 4FF4E133 		mov	r3, #115200
 793 000c 4360     		str	r3, [r0, #4]
 410:Core/Src/main.c ****   huart2.Init.StopBits = UART_STOPBITS_1;
 794              		.loc 1 410 3 is_stmt 1 view .LVU240
 410:Core/Src/main.c ****   huart2.Init.StopBits = UART_STOPBITS_1;
 795              		.loc 1 410 26 is_stmt 0 view .LVU241
 796 000e 0023     		movs	r3, #0
 797 0010 8360     		str	r3, [r0, #8]
 411:Core/Src/main.c ****   huart2.Init.Parity = UART_PARITY_NONE;
 798              		.loc 1 411 3 is_stmt 1 view .LVU242
 411:Core/Src/main.c ****   huart2.Init.Parity = UART_PARITY_NONE;
 799              		.loc 1 411 24 is_stmt 0 view .LVU243
 800 0012 C360     		str	r3, [r0, #12]
 412:Core/Src/main.c ****   huart2.Init.Mode = UART_MODE_TX_RX;
 801              		.loc 1 412 3 is_stmt 1 view .LVU244
 412:Core/Src/main.c ****   huart2.Init.Mode = UART_MODE_TX_RX;
 802              		.loc 1 412 22 is_stmt 0 view .LVU245
 803 0014 0361     		str	r3, [r0, #16]
 413:Core/Src/main.c ****   huart2.Init.HwFlowCtl = UART_HWCONTROL_NONE;
 804              		.loc 1 413 3 is_stmt 1 view .LVU246
 413:Core/Src/main.c ****   huart2.Init.HwFlowCtl = UART_HWCONTROL_NONE;
 805              		.loc 1 413 20 is_stmt 0 view .LVU247
 806 0016 0C22     		movs	r2, #12
 807 0018 4261     		str	r2, [r0, #20]
ARM GAS  /tmp/cctnoRdP.s 			page 31


 414:Core/Src/main.c ****   huart2.Init.OverSampling = UART_OVERSAMPLING_16;
 808              		.loc 1 414 3 is_stmt 1 view .LVU248
 414:Core/Src/main.c ****   huart2.Init.OverSampling = UART_OVERSAMPLING_16;
 809              		.loc 1 414 25 is_stmt 0 view .LVU249
 810 001a 8361     		str	r3, [r0, #24]
 415:Core/Src/main.c ****   huart2.Init.OneBitSampling = UART_ONE_BIT_SAMPLE_DISABLE;
 811              		.loc 1 415 3 is_stmt 1 view .LVU250
 415:Core/Src/main.c ****   huart2.Init.OneBitSampling = UART_ONE_BIT_SAMPLE_DISABLE;
 812              		.loc 1 415 28 is_stmt 0 view .LVU251
 813 001c C361     		str	r3, [r0, #28]
 416:Core/Src/main.c ****   huart2.Init.ClockPrescaler = UART_PRESCALER_DIV1;
 814              		.loc 1 416 3 is_stmt 1 view .LVU252
 416:Core/Src/main.c ****   huart2.Init.ClockPrescaler = UART_PRESCALER_DIV1;
 815              		.loc 1 416 30 is_stmt 0 view .LVU253
 816 001e 0362     		str	r3, [r0, #32]
 417:Core/Src/main.c ****   huart2.AdvancedInit.AdvFeatureInit = UART_ADVFEATURE_NO_INIT;
 817              		.loc 1 417 3 is_stmt 1 view .LVU254
 417:Core/Src/main.c ****   huart2.AdvancedInit.AdvFeatureInit = UART_ADVFEATURE_NO_INIT;
 818              		.loc 1 417 30 is_stmt 0 view .LVU255
 819 0020 4362     		str	r3, [r0, #36]
 418:Core/Src/main.c ****   if (HAL_UART_Init(&huart2) != HAL_OK)
 820              		.loc 1 418 3 is_stmt 1 view .LVU256
 418:Core/Src/main.c ****   if (HAL_UART_Init(&huart2) != HAL_OK)
 821              		.loc 1 418 38 is_stmt 0 view .LVU257
 822 0022 8362     		str	r3, [r0, #40]
 419:Core/Src/main.c ****   {
 823              		.loc 1 419 3 is_stmt 1 view .LVU258
 419:Core/Src/main.c ****   {
 824              		.loc 1 419 7 is_stmt 0 view .LVU259
 825 0024 FFF7FEFF 		bl	HAL_UART_Init
 826              	.LVL37:
 419:Core/Src/main.c ****   {
 827              		.loc 1 419 6 view .LVU260
 828 0028 70B9     		cbnz	r0, .L62
 423:Core/Src/main.c ****   {
 829              		.loc 1 423 3 is_stmt 1 view .LVU261
 423:Core/Src/main.c ****   {
 830              		.loc 1 423 7 is_stmt 0 view .LVU262
 831 002a 0021     		movs	r1, #0
 832 002c 0A48     		ldr	r0, .L66
 833 002e FFF7FEFF 		bl	HAL_UARTEx_SetTxFifoThreshold
 834              	.LVL38:
 423:Core/Src/main.c ****   {
 835              		.loc 1 423 6 view .LVU263
 836 0032 58B9     		cbnz	r0, .L63
 427:Core/Src/main.c ****   {
 837              		.loc 1 427 3 is_stmt 1 view .LVU264
 427:Core/Src/main.c ****   {
 838              		.loc 1 427 7 is_stmt 0 view .LVU265
 839 0034 0021     		movs	r1, #0
 840 0036 0848     		ldr	r0, .L66
 841 0038 FFF7FEFF 		bl	HAL_UARTEx_SetRxFifoThreshold
 842              	.LVL39:
 427:Core/Src/main.c ****   {
 843              		.loc 1 427 6 view .LVU266
 844 003c 40B9     		cbnz	r0, .L64
 431:Core/Src/main.c ****   {
ARM GAS  /tmp/cctnoRdP.s 			page 32


 845              		.loc 1 431 3 is_stmt 1 view .LVU267
 431:Core/Src/main.c ****   {
 846              		.loc 1 431 7 is_stmt 0 view .LVU268
 847 003e 0648     		ldr	r0, .L66
 848 0040 FFF7FEFF 		bl	HAL_UARTEx_DisableFifoMode
 849              	.LVL40:
 431:Core/Src/main.c ****   {
 850              		.loc 1 431 6 view .LVU269
 851 0044 30B9     		cbnz	r0, .L65
 439:Core/Src/main.c **** 
 852              		.loc 1 439 1 view .LVU270
 853 0046 08BD     		pop	{r3, pc}
 854              	.L62:
 421:Core/Src/main.c ****   }
 855              		.loc 1 421 5 is_stmt 1 view .LVU271
 856 0048 FFF7FEFF 		bl	Error_Handler
 857              	.LVL41:
 858              	.L63:
 425:Core/Src/main.c ****   }
 859              		.loc 1 425 5 view .LVU272
 860 004c FFF7FEFF 		bl	Error_Handler
 861              	.LVL42:
 862              	.L64:
 429:Core/Src/main.c ****   }
 863              		.loc 1 429 5 view .LVU273
 864 0050 FFF7FEFF 		bl	Error_Handler
 865              	.LVL43:
 866              	.L65:
 433:Core/Src/main.c ****   }
 867              		.loc 1 433 5 view .LVU274
 868 0054 FFF7FEFF 		bl	Error_Handler
 869              	.LVL44:
 870              	.L67:
 871              		.align	2
 872              	.L66:
 873 0058 00000000 		.word	.LANCHOR0
 874 005c 00440040 		.word	1073759232
 875              		.cfi_endproc
 876              	.LFE157:
 878              		.section	.text.MX_OCTOSPI1_Init,"ax",%progbits
 879              		.align	1
 880              		.syntax unified
 881              		.thumb
 882              		.thumb_func
 883              		.fpu fpv5-d16
 885              	MX_OCTOSPI1_Init:
 886              	.LFB153:
 205:Core/Src/main.c **** 
 887              		.loc 1 205 1 view -0
 888              		.cfi_startproc
 889              		@ args = 0, pretend = 0, frame = 24
 890              		@ frame_needed = 0, uses_anonymous_args = 0
 891 0000 00B5     		push	{lr}
 892              	.LCFI9:
 893              		.cfi_def_cfa_offset 4
 894              		.cfi_offset 14, -4
 895 0002 87B0     		sub	sp, sp, #28
ARM GAS  /tmp/cctnoRdP.s 			page 33


 896              	.LCFI10:
 897              		.cfi_def_cfa_offset 32
 211:Core/Src/main.c **** 
 898              		.loc 1 211 3 view .LVU276
 211:Core/Src/main.c **** 
 899              		.loc 1 211 20 is_stmt 0 view .LVU277
 900 0004 0023     		movs	r3, #0
 901 0006 0093     		str	r3, [sp]
 902 0008 0193     		str	r3, [sp, #4]
 903 000a 0293     		str	r3, [sp, #8]
 904 000c 0393     		str	r3, [sp, #12]
 905 000e 0493     		str	r3, [sp, #16]
 906 0010 0593     		str	r3, [sp, #20]
 217:Core/Src/main.c ****   hospi1.Init.FifoThreshold = 1;
 907              		.loc 1 217 3 is_stmt 1 view .LVU278
 217:Core/Src/main.c ****   hospi1.Init.FifoThreshold = 1;
 908              		.loc 1 217 19 is_stmt 0 view .LVU279
 909 0012 1648     		ldr	r0, .L74
 910 0014 164A     		ldr	r2, .L74+4
 911 0016 0260     		str	r2, [r0]
 218:Core/Src/main.c ****   hospi1.Init.DualQuad = HAL_OSPI_DUALQUAD_DISABLE;
 912              		.loc 1 218 3 is_stmt 1 view .LVU280
 218:Core/Src/main.c ****   hospi1.Init.DualQuad = HAL_OSPI_DUALQUAD_DISABLE;
 913              		.loc 1 218 29 is_stmt 0 view .LVU281
 914 0018 0122     		movs	r2, #1
 915 001a 4260     		str	r2, [r0, #4]
 219:Core/Src/main.c ****   hospi1.Init.MemoryType = HAL_OSPI_MEMTYPE_MICRON;
 916              		.loc 1 219 3 is_stmt 1 view .LVU282
 219:Core/Src/main.c ****   hospi1.Init.MemoryType = HAL_OSPI_MEMTYPE_MICRON;
 917              		.loc 1 219 24 is_stmt 0 view .LVU283
 918 001c 8360     		str	r3, [r0, #8]
 220:Core/Src/main.c ****   hospi1.Init.DeviceSize = 24;
 919              		.loc 1 220 3 is_stmt 1 view .LVU284
 220:Core/Src/main.c ****   hospi1.Init.DeviceSize = 24;
 920              		.loc 1 220 26 is_stmt 0 view .LVU285
 921 001e C360     		str	r3, [r0, #12]
 221:Core/Src/main.c ****   hospi1.Init.ChipSelectHighTime = 1;
 922              		.loc 1 221 3 is_stmt 1 view .LVU286
 221:Core/Src/main.c ****   hospi1.Init.ChipSelectHighTime = 1;
 923              		.loc 1 221 26 is_stmt 0 view .LVU287
 924 0020 1821     		movs	r1, #24
 925 0022 0161     		str	r1, [r0, #16]
 222:Core/Src/main.c ****   hospi1.Init.FreeRunningClock = HAL_OSPI_FREERUNCLK_DISABLE;
 926              		.loc 1 222 3 is_stmt 1 view .LVU288
 222:Core/Src/main.c ****   hospi1.Init.FreeRunningClock = HAL_OSPI_FREERUNCLK_DISABLE;
 927              		.loc 1 222 34 is_stmt 0 view .LVU289
 928 0024 4261     		str	r2, [r0, #20]
 223:Core/Src/main.c ****   hospi1.Init.ClockMode = HAL_OSPI_CLOCK_MODE_0;
 929              		.loc 1 223 3 is_stmt 1 view .LVU290
 223:Core/Src/main.c ****   hospi1.Init.ClockMode = HAL_OSPI_CLOCK_MODE_0;
 930              		.loc 1 223 32 is_stmt 0 view .LVU291
 931 0026 8361     		str	r3, [r0, #24]
 224:Core/Src/main.c ****   hospi1.Init.WrapSize = HAL_OSPI_WRAP_NOT_SUPPORTED;
 932              		.loc 1 224 3 is_stmt 1 view .LVU292
 224:Core/Src/main.c ****   hospi1.Init.WrapSize = HAL_OSPI_WRAP_NOT_SUPPORTED;
 933              		.loc 1 224 25 is_stmt 0 view .LVU293
 934 0028 C361     		str	r3, [r0, #28]
ARM GAS  /tmp/cctnoRdP.s 			page 34


 225:Core/Src/main.c ****   hospi1.Init.ClockPrescaler = 2;
 935              		.loc 1 225 3 is_stmt 1 view .LVU294
 225:Core/Src/main.c ****   hospi1.Init.ClockPrescaler = 2;
 936              		.loc 1 225 24 is_stmt 0 view .LVU295
 937 002a 0362     		str	r3, [r0, #32]
 226:Core/Src/main.c ****   hospi1.Init.SampleShifting = HAL_OSPI_SAMPLE_SHIFTING_NONE;
 938              		.loc 1 226 3 is_stmt 1 view .LVU296
 226:Core/Src/main.c ****   hospi1.Init.SampleShifting = HAL_OSPI_SAMPLE_SHIFTING_NONE;
 939              		.loc 1 226 30 is_stmt 0 view .LVU297
 940 002c 0222     		movs	r2, #2
 941 002e 4262     		str	r2, [r0, #36]
 227:Core/Src/main.c ****   hospi1.Init.DelayHoldQuarterCycle = HAL_OSPI_DHQC_DISABLE;
 942              		.loc 1 227 3 is_stmt 1 view .LVU298
 227:Core/Src/main.c ****   hospi1.Init.DelayHoldQuarterCycle = HAL_OSPI_DHQC_DISABLE;
 943              		.loc 1 227 30 is_stmt 0 view .LVU299
 944 0030 8362     		str	r3, [r0, #40]
 228:Core/Src/main.c ****   hospi1.Init.ChipSelectBoundary = 0;
 945              		.loc 1 228 3 is_stmt 1 view .LVU300
 228:Core/Src/main.c ****   hospi1.Init.ChipSelectBoundary = 0;
 946              		.loc 1 228 37 is_stmt 0 view .LVU301
 947 0032 C362     		str	r3, [r0, #44]
 229:Core/Src/main.c ****   hospi1.Init.DelayBlockBypass = HAL_OSPI_DELAY_BLOCK_BYPASSED;
 948              		.loc 1 229 3 is_stmt 1 view .LVU302
 229:Core/Src/main.c ****   hospi1.Init.DelayBlockBypass = HAL_OSPI_DELAY_BLOCK_BYPASSED;
 949              		.loc 1 229 34 is_stmt 0 view .LVU303
 950 0034 0363     		str	r3, [r0, #48]
 230:Core/Src/main.c ****   hospi1.Init.MaxTran = 0;
 951              		.loc 1 230 3 is_stmt 1 view .LVU304
 230:Core/Src/main.c ****   hospi1.Init.MaxTran = 0;
 952              		.loc 1 230 32 is_stmt 0 view .LVU305
 953 0036 0822     		movs	r2, #8
 954 0038 4263     		str	r2, [r0, #52]
 231:Core/Src/main.c ****   hospi1.Init.Refresh = 0;
 955              		.loc 1 231 3 is_stmt 1 view .LVU306
 231:Core/Src/main.c ****   hospi1.Init.Refresh = 0;
 956              		.loc 1 231 23 is_stmt 0 view .LVU307
 957 003a 8363     		str	r3, [r0, #56]
 232:Core/Src/main.c ****   if (HAL_OSPI_Init(&hospi1) != HAL_OK)
 958              		.loc 1 232 3 is_stmt 1 view .LVU308
 232:Core/Src/main.c ****   if (HAL_OSPI_Init(&hospi1) != HAL_OK)
 959              		.loc 1 232 23 is_stmt 0 view .LVU309
 960 003c C363     		str	r3, [r0, #60]
 233:Core/Src/main.c ****   {
 961              		.loc 1 233 3 is_stmt 1 view .LVU310
 233:Core/Src/main.c ****   {
 962              		.loc 1 233 7 is_stmt 0 view .LVU311
 963 003e FFF7FEFF 		bl	HAL_OSPI_Init
 964              	.LVL45:
 233:Core/Src/main.c ****   {
 965              		.loc 1 233 6 view .LVU312
 966 0042 70B9     		cbnz	r0, .L72
 237:Core/Src/main.c ****   sOspiManagerCfg.IOLowPort = HAL_OSPIM_IOPORT_1_LOW;
 967              		.loc 1 237 3 is_stmt 1 view .LVU313
 237:Core/Src/main.c ****   sOspiManagerCfg.IOLowPort = HAL_OSPIM_IOPORT_1_LOW;
 968              		.loc 1 237 27 is_stmt 0 view .LVU314
 969 0044 0123     		movs	r3, #1
 970 0046 0093     		str	r3, [sp]
ARM GAS  /tmp/cctnoRdP.s 			page 35


 238:Core/Src/main.c ****   if (HAL_OSPIM_Config(&hospi1, &sOspiManagerCfg, HAL_OSPI_TIMEOUT_DEFAULT_VALUE) != HAL_OK)
 971              		.loc 1 238 3 is_stmt 1 view .LVU315
 238:Core/Src/main.c ****   if (HAL_OSPIM_Config(&hospi1, &sOspiManagerCfg, HAL_OSPI_TIMEOUT_DEFAULT_VALUE) != HAL_OK)
 972              		.loc 1 238 29 is_stmt 0 view .LVU316
 973 0048 4FF00113 		mov	r3, #65537
 974 004c 0393     		str	r3, [sp, #12]
 239:Core/Src/main.c ****   {
 975              		.loc 1 239 3 is_stmt 1 view .LVU317
 239:Core/Src/main.c ****   {
 976              		.loc 1 239 7 is_stmt 0 view .LVU318
 977 004e 41F28832 		movw	r2, #5000
 978 0052 6946     		mov	r1, sp
 979 0054 0548     		ldr	r0, .L74
 980 0056 FFF7FEFF 		bl	HAL_OSPIM_Config
 981              	.LVL46:
 239:Core/Src/main.c ****   {
 982              		.loc 1 239 6 view .LVU319
 983 005a 20B9     		cbnz	r0, .L73
 247:Core/Src/main.c **** 
 984              		.loc 1 247 1 view .LVU320
 985 005c 07B0     		add	sp, sp, #28
 986              	.LCFI11:
 987              		.cfi_remember_state
 988              		.cfi_def_cfa_offset 4
 989              		@ sp needed
 990 005e 5DF804FB 		ldr	pc, [sp], #4
 991              	.L72:
 992              	.LCFI12:
 993              		.cfi_restore_state
 235:Core/Src/main.c ****   }
 994              		.loc 1 235 5 is_stmt 1 view .LVU321
 995 0062 FFF7FEFF 		bl	Error_Handler
 996              	.LVL47:
 997              	.L73:
 241:Core/Src/main.c ****   }
 998              		.loc 1 241 5 view .LVU322
 999 0066 FFF7FEFF 		bl	Error_Handler
 1000              	.LVL48:
 1001              	.L75:
 1002 006a 00BF     		.align	2
 1003              	.L74:
 1004 006c 00000000 		.word	.LANCHOR8
 1005 0070 00500052 		.word	1375752192
 1006              		.cfi_endproc
 1007              	.LFE153:
 1009              		.section	.text.SystemClock_Config,"ax",%progbits
 1010              		.align	1
 1011              		.global	SystemClock_Config
 1012              		.syntax unified
 1013              		.thumb
 1014              		.thumb_func
 1015              		.fpu fpv5-d16
 1017              	SystemClock_Config:
 1018              	.LFB152:
 146:Core/Src/main.c ****   RCC_OscInitTypeDef RCC_OscInitStruct = {0};
 1019              		.loc 1 146 1 view -0
 1020              		.cfi_startproc
ARM GAS  /tmp/cctnoRdP.s 			page 36


 1021              		@ args = 0, pretend = 0, frame = 112
 1022              		@ frame_needed = 0, uses_anonymous_args = 0
 1023 0000 00B5     		push	{lr}
 1024              	.LCFI13:
 1025              		.cfi_def_cfa_offset 4
 1026              		.cfi_offset 14, -4
 1027 0002 9DB0     		sub	sp, sp, #116
 1028              	.LCFI14:
 1029              		.cfi_def_cfa_offset 120
 147:Core/Src/main.c ****   RCC_ClkInitTypeDef RCC_ClkInitStruct = {0};
 1030              		.loc 1 147 3 view .LVU324
 147:Core/Src/main.c ****   RCC_ClkInitTypeDef RCC_ClkInitStruct = {0};
 1031              		.loc 1 147 22 is_stmt 0 view .LVU325
 1032 0004 4C22     		movs	r2, #76
 1033 0006 0021     		movs	r1, #0
 1034 0008 09A8     		add	r0, sp, #36
 1035 000a FFF7FEFF 		bl	memset
 1036              	.LVL49:
 148:Core/Src/main.c **** 
 1037              		.loc 1 148 3 is_stmt 1 view .LVU326
 148:Core/Src/main.c **** 
 1038              		.loc 1 148 22 is_stmt 0 view .LVU327
 1039 000e 2022     		movs	r2, #32
 1040 0010 0021     		movs	r1, #0
 1041 0012 01A8     		add	r0, sp, #4
 1042 0014 FFF7FEFF 		bl	memset
 1043              	.LVL50:
 152:Core/Src/main.c **** 
 1044              		.loc 1 152 3 is_stmt 1 view .LVU328
 1045 0018 0220     		movs	r0, #2
 1046 001a FFF7FEFF 		bl	HAL_PWREx_ConfigSupply
 1047              	.LVL51:
 156:Core/Src/main.c **** 
 1048              		.loc 1 156 3 view .LVU329
 1049              	.LBB16:
 156:Core/Src/main.c **** 
 1050              		.loc 1 156 3 view .LVU330
 1051 001e 0023     		movs	r3, #0
 1052 0020 0093     		str	r3, [sp]
 156:Core/Src/main.c **** 
 1053              		.loc 1 156 3 view .LVU331
 1054 0022 204A     		ldr	r2, .L83
 1055 0024 9369     		ldr	r3, [r2, #24]
 1056 0026 23F44043 		bic	r3, r3, #49152
 1057 002a 43F40043 		orr	r3, r3, #32768
 1058 002e 9361     		str	r3, [r2, #24]
 156:Core/Src/main.c **** 
 1059              		.loc 1 156 3 view .LVU332
 1060 0030 9369     		ldr	r3, [r2, #24]
 1061 0032 03F44043 		and	r3, r3, #49152
 1062 0036 0093     		str	r3, [sp]
 156:Core/Src/main.c **** 
 1063              		.loc 1 156 3 view .LVU333
 1064 0038 009B     		ldr	r3, [sp]
 1065              	.LBE16:
 156:Core/Src/main.c **** 
 1066              		.loc 1 156 3 view .LVU334
ARM GAS  /tmp/cctnoRdP.s 			page 37


 158:Core/Src/main.c **** 
 1067              		.loc 1 158 3 view .LVU335
 1068              	.L77:
 158:Core/Src/main.c **** 
 1069              		.loc 1 158 48 discriminator 1 view .LVU336
 158:Core/Src/main.c **** 
 1070              		.loc 1 158 8 discriminator 1 view .LVU337
 158:Core/Src/main.c **** 
 1071              		.loc 1 158 10 is_stmt 0 discriminator 1 view .LVU338
 1072 003a 1A4B     		ldr	r3, .L83
 1073 003c 9B69     		ldr	r3, [r3, #24]
 158:Core/Src/main.c **** 
 1074              		.loc 1 158 8 discriminator 1 view .LVU339
 1075 003e 13F4005F 		tst	r3, #8192
 1076 0042 FAD0     		beq	.L77
 163:Core/Src/main.c ****   RCC_OscInitStruct.HSEState = RCC_HSE_ON;
 1077              		.loc 1 163 3 is_stmt 1 view .LVU340
 163:Core/Src/main.c ****   RCC_OscInitStruct.HSEState = RCC_HSE_ON;
 1078              		.loc 1 163 36 is_stmt 0 view .LVU341
 1079 0044 0122     		movs	r2, #1
 1080 0046 0992     		str	r2, [sp, #36]
 164:Core/Src/main.c ****   RCC_OscInitStruct.PLL.PLLState = RCC_PLL_ON;
 1081              		.loc 1 164 3 is_stmt 1 view .LVU342
 164:Core/Src/main.c ****   RCC_OscInitStruct.PLL.PLLState = RCC_PLL_ON;
 1082              		.loc 1 164 30 is_stmt 0 view .LVU343
 1083 0048 4FF48033 		mov	r3, #65536
 1084 004c 0A93     		str	r3, [sp, #40]
 165:Core/Src/main.c ****   RCC_OscInitStruct.PLL.PLLSource = RCC_PLLSOURCE_HSE;
 1085              		.loc 1 165 3 is_stmt 1 view .LVU344
 165:Core/Src/main.c ****   RCC_OscInitStruct.PLL.PLLSource = RCC_PLLSOURCE_HSE;
 1086              		.loc 1 165 34 is_stmt 0 view .LVU345
 1087 004e 0223     		movs	r3, #2
 1088 0050 1293     		str	r3, [sp, #72]
 166:Core/Src/main.c ****   RCC_OscInitStruct.PLL.PLLM = 1;
 1089              		.loc 1 166 3 is_stmt 1 view .LVU346
 166:Core/Src/main.c ****   RCC_OscInitStruct.PLL.PLLM = 1;
 1090              		.loc 1 166 35 is_stmt 0 view .LVU347
 1091 0052 1393     		str	r3, [sp, #76]
 167:Core/Src/main.c ****   RCC_OscInitStruct.PLL.PLLN = 24;
 1092              		.loc 1 167 3 is_stmt 1 view .LVU348
 167:Core/Src/main.c ****   RCC_OscInitStruct.PLL.PLLN = 24;
 1093              		.loc 1 167 30 is_stmt 0 view .LVU349
 1094 0054 1492     		str	r2, [sp, #80]
 168:Core/Src/main.c ****   RCC_OscInitStruct.PLL.PLLP = 1;
 1095              		.loc 1 168 3 is_stmt 1 view .LVU350
 168:Core/Src/main.c ****   RCC_OscInitStruct.PLL.PLLP = 1;
 1096              		.loc 1 168 30 is_stmt 0 view .LVU351
 1097 0056 1821     		movs	r1, #24
 1098 0058 1591     		str	r1, [sp, #84]
 169:Core/Src/main.c ****   RCC_OscInitStruct.PLL.PLLQ = 2;
 1099              		.loc 1 169 3 is_stmt 1 view .LVU352
 169:Core/Src/main.c ****   RCC_OscInitStruct.PLL.PLLQ = 2;
 1100              		.loc 1 169 30 is_stmt 0 view .LVU353
 1101 005a 1692     		str	r2, [sp, #88]
 170:Core/Src/main.c ****   RCC_OscInitStruct.PLL.PLLR = 2;
 1102              		.loc 1 170 3 is_stmt 1 view .LVU354
 170:Core/Src/main.c ****   RCC_OscInitStruct.PLL.PLLR = 2;
ARM GAS  /tmp/cctnoRdP.s 			page 38


 1103              		.loc 1 170 30 is_stmt 0 view .LVU355
 1104 005c 1793     		str	r3, [sp, #92]
 171:Core/Src/main.c ****   RCC_OscInitStruct.PLL.PLLRGE = RCC_PLL1VCIRANGE_3;
 1105              		.loc 1 171 3 is_stmt 1 view .LVU356
 171:Core/Src/main.c ****   RCC_OscInitStruct.PLL.PLLRGE = RCC_PLL1VCIRANGE_3;
 1106              		.loc 1 171 30 is_stmt 0 view .LVU357
 1107 005e 1893     		str	r3, [sp, #96]
 172:Core/Src/main.c ****   RCC_OscInitStruct.PLL.PLLVCOSEL = RCC_PLL1VCOWIDE;
 1108              		.loc 1 172 3 is_stmt 1 view .LVU358
 172:Core/Src/main.c ****   RCC_OscInitStruct.PLL.PLLVCOSEL = RCC_PLL1VCOWIDE;
 1109              		.loc 1 172 32 is_stmt 0 view .LVU359
 1110 0060 0C23     		movs	r3, #12
 1111 0062 1993     		str	r3, [sp, #100]
 173:Core/Src/main.c ****   RCC_OscInitStruct.PLL.PLLFRACN = 0;
 1112              		.loc 1 173 3 is_stmt 1 view .LVU360
 173:Core/Src/main.c ****   RCC_OscInitStruct.PLL.PLLFRACN = 0;
 1113              		.loc 1 173 35 is_stmt 0 view .LVU361
 1114 0064 0023     		movs	r3, #0
 1115 0066 1A93     		str	r3, [sp, #104]
 174:Core/Src/main.c ****   if (HAL_RCC_OscConfig(&RCC_OscInitStruct) != HAL_OK)
 1116              		.loc 1 174 3 is_stmt 1 view .LVU362
 174:Core/Src/main.c ****   if (HAL_RCC_OscConfig(&RCC_OscInitStruct) != HAL_OK)
 1117              		.loc 1 174 34 is_stmt 0 view .LVU363
 1118 0068 1B93     		str	r3, [sp, #108]
 175:Core/Src/main.c ****   {
 1119              		.loc 1 175 3 is_stmt 1 view .LVU364
 175:Core/Src/main.c ****   {
 1120              		.loc 1 175 7 is_stmt 0 view .LVU365
 1121 006a 09A8     		add	r0, sp, #36
 1122 006c FFF7FEFF 		bl	HAL_RCC_OscConfig
 1123              	.LVL52:
 175:Core/Src/main.c ****   {
 1124              		.loc 1 175 6 view .LVU366
 1125 0070 A0B9     		cbnz	r0, .L81
 182:Core/Src/main.c ****                               |RCC_CLOCKTYPE_PCLK1|RCC_CLOCKTYPE_PCLK2
 1126              		.loc 1 182 3 is_stmt 1 view .LVU367
 182:Core/Src/main.c ****                               |RCC_CLOCKTYPE_PCLK1|RCC_CLOCKTYPE_PCLK2
 1127              		.loc 1 182 31 is_stmt 0 view .LVU368
 1128 0072 3F23     		movs	r3, #63
 1129 0074 0193     		str	r3, [sp, #4]
 185:Core/Src/main.c ****   RCC_ClkInitStruct.SYSCLKDivider = RCC_SYSCLK_DIV1;
 1130              		.loc 1 185 3 is_stmt 1 view .LVU369
 185:Core/Src/main.c ****   RCC_ClkInitStruct.SYSCLKDivider = RCC_SYSCLK_DIV1;
 1131              		.loc 1 185 34 is_stmt 0 view .LVU370
 1132 0076 0323     		movs	r3, #3
 1133 0078 0293     		str	r3, [sp, #8]
 186:Core/Src/main.c ****   RCC_ClkInitStruct.AHBCLKDivider = RCC_HCLK_DIV2;
 1134              		.loc 1 186 3 is_stmt 1 view .LVU371
 186:Core/Src/main.c ****   RCC_ClkInitStruct.AHBCLKDivider = RCC_HCLK_DIV2;
 1135              		.loc 1 186 35 is_stmt 0 view .LVU372
 1136 007a 0023     		movs	r3, #0
 1137 007c 0393     		str	r3, [sp, #12]
 187:Core/Src/main.c ****   RCC_ClkInitStruct.APB3CLKDivider = RCC_APB3_DIV1;
 1138              		.loc 1 187 3 is_stmt 1 view .LVU373
 187:Core/Src/main.c ****   RCC_ClkInitStruct.APB3CLKDivider = RCC_APB3_DIV1;
 1139              		.loc 1 187 35 is_stmt 0 view .LVU374
 1140 007e 0822     		movs	r2, #8
ARM GAS  /tmp/cctnoRdP.s 			page 39


 1141 0080 0492     		str	r2, [sp, #16]
 188:Core/Src/main.c ****   RCC_ClkInitStruct.APB1CLKDivider = RCC_APB1_DIV2;
 1142              		.loc 1 188 3 is_stmt 1 view .LVU375
 188:Core/Src/main.c ****   RCC_ClkInitStruct.APB1CLKDivider = RCC_APB1_DIV2;
 1143              		.loc 1 188 36 is_stmt 0 view .LVU376
 1144 0082 0593     		str	r3, [sp, #20]
 189:Core/Src/main.c ****   RCC_ClkInitStruct.APB2CLKDivider = RCC_APB2_DIV1;
 1145              		.loc 1 189 3 is_stmt 1 view .LVU377
 189:Core/Src/main.c ****   RCC_ClkInitStruct.APB2CLKDivider = RCC_APB2_DIV1;
 1146              		.loc 1 189 36 is_stmt 0 view .LVU378
 1147 0084 4022     		movs	r2, #64
 1148 0086 0692     		str	r2, [sp, #24]
 190:Core/Src/main.c ****   RCC_ClkInitStruct.APB4CLKDivider = RCC_APB4_DIV1;
 1149              		.loc 1 190 3 is_stmt 1 view .LVU379
 190:Core/Src/main.c ****   RCC_ClkInitStruct.APB4CLKDivider = RCC_APB4_DIV1;
 1150              		.loc 1 190 36 is_stmt 0 view .LVU380
 1151 0088 0793     		str	r3, [sp, #28]
 191:Core/Src/main.c **** 
 1152              		.loc 1 191 3 is_stmt 1 view .LVU381
 191:Core/Src/main.c **** 
 1153              		.loc 1 191 36 is_stmt 0 view .LVU382
 1154 008a 0893     		str	r3, [sp, #32]
 193:Core/Src/main.c ****   {
 1155              		.loc 1 193 3 is_stmt 1 view .LVU383
 193:Core/Src/main.c ****   {
 1156              		.loc 1 193 7 is_stmt 0 view .LVU384
 1157 008c 0121     		movs	r1, #1
 1158 008e 01A8     		add	r0, sp, #4
 1159 0090 FFF7FEFF 		bl	HAL_RCC_ClockConfig
 1160              	.LVL53:
 193:Core/Src/main.c ****   {
 1161              		.loc 1 193 6 view .LVU385
 1162 0094 20B9     		cbnz	r0, .L82
 197:Core/Src/main.c **** 
 1163              		.loc 1 197 1 view .LVU386
 1164 0096 1DB0     		add	sp, sp, #116
 1165              	.LCFI15:
 1166              		.cfi_remember_state
 1167              		.cfi_def_cfa_offset 4
 1168              		@ sp needed
 1169 0098 5DF804FB 		ldr	pc, [sp], #4
 1170              	.L81:
 1171              	.LCFI16:
 1172              		.cfi_restore_state
 177:Core/Src/main.c ****   }
 1173              		.loc 1 177 5 is_stmt 1 view .LVU387
 1174 009c FFF7FEFF 		bl	Error_Handler
 1175              	.LVL54:
 1176              	.L82:
 195:Core/Src/main.c ****   }
 1177              		.loc 1 195 5 view .LVU388
 1178 00a0 FFF7FEFF 		bl	Error_Handler
 1179              	.LVL55:
 1180              	.L84:
 1181              		.align	2
 1182              	.L83:
 1183 00a4 00480258 		.word	1476544512
ARM GAS  /tmp/cctnoRdP.s 			page 40


 1184              		.cfi_endproc
 1185              	.LFE152:
 1187              		.section	.text.main,"ax",%progbits
 1188              		.align	1
 1189              		.global	main
 1190              		.syntax unified
 1191              		.thumb
 1192              		.thumb_func
 1193              		.fpu fpv5-d16
 1195              	main:
 1196              	.LFB151:
  87:Core/Src/main.c **** 
 1197              		.loc 1 87 1 view -0
 1198              		.cfi_startproc
 1199              		@ Volatile: function does not return.
 1200              		@ args = 0, pretend = 0, frame = 0
 1201              		@ frame_needed = 0, uses_anonymous_args = 0
 1202 0000 08B5     		push	{r3, lr}
 1203              	.LCFI17:
 1204              		.cfi_def_cfa_offset 8
 1205              		.cfi_offset 3, -8
 1206              		.cfi_offset 14, -4
  96:Core/Src/main.c **** 
 1207              		.loc 1 96 3 view .LVU390
 1208 0002 FFF7FEFF 		bl	HAL_Init
 1209              	.LVL56:
 103:Core/Src/main.c **** 
 1210              		.loc 1 103 3 view .LVU391
 1211 0006 FFF7FEFF 		bl	SystemClock_Config
 1212              	.LVL57:
 110:Core/Src/main.c ****   MX_SPI1_Init();
 1213              		.loc 1 110 3 view .LVU392
 1214 000a FFF7FEFF 		bl	MX_GPIO_Init
 1215              	.LVL58:
 111:Core/Src/main.c ****   MX_UART4_Init();
 1216              		.loc 1 111 3 view .LVU393
 1217 000e FFF7FEFF 		bl	MX_SPI1_Init
 1218              	.LVL59:
 112:Core/Src/main.c ****   MX_UART5_Init();
 1219              		.loc 1 112 3 view .LVU394
 1220 0012 FFF7FEFF 		bl	MX_UART4_Init
 1221              	.LVL60:
 113:Core/Src/main.c ****   MX_USART2_UART_Init();
 1222              		.loc 1 113 3 view .LVU395
 1223 0016 FFF7FEFF 		bl	MX_UART5_Init
 1224              	.LVL61:
 114:Core/Src/main.c ****   MX_FATFS_Init();
 1225              		.loc 1 114 3 view .LVU396
 1226 001a FFF7FEFF 		bl	MX_USART2_UART_Init
 1227              	.LVL62:
 115:Core/Src/main.c ****   MX_OCTOSPI1_Init();
 1228              		.loc 1 115 3 view .LVU397
 1229 001e FFF7FEFF 		bl	MX_FATFS_Init
 1230              	.LVL63:
 116:Core/Src/main.c ****   /* USER CODE BEGIN 2 */
 1231              		.loc 1 116 3 view .LVU398
 1232 0022 FFF7FEFF 		bl	MX_OCTOSPI1_Init
ARM GAS  /tmp/cctnoRdP.s 			page 41


 1233              	.LVL64:
 121:Core/Src/main.c ****   /* USER CODE END 2 */
 1234              		.loc 1 121 3 view .LVU399
 1235 0026 2022     		movs	r2, #32
 1236 0028 0249     		ldr	r1, .L88
 1237 002a 0348     		ldr	r0, .L88+4
 1238 002c FFF7FEFF 		bl	HAL_UARTEx_ReceiveToIdle_IT
 1239              	.LVL65:
 1240              	.L86:
 126:Core/Src/main.c ****   {
 1241              		.loc 1 126 3 discriminator 1 view .LVU400
 137:Core/Src/main.c ****   /* USER CODE END 3 */
 1242              		.loc 1 137 3 discriminator 1 view .LVU401
 126:Core/Src/main.c ****   {
 1243              		.loc 1 126 9 discriminator 1 view .LVU402
 1244 0030 FEE7     		b	.L86
 1245              	.L89:
 1246 0032 00BF     		.align	2
 1247              	.L88:
 1248 0034 00000000 		.word	.LANCHOR4
 1249 0038 00000000 		.word	.LANCHOR5
 1250              		.cfi_endproc
 1251              	.LFE151:
 1253              		.global	prev_size
 1254              		.global	rx_buffer
 1255              		.global	message_buffer_size
 1256              		.global	message_buffer
 1257              		.global	messages_recieved
 1258              		.global	huart2
 1259              		.global	huart5
 1260              		.global	huart4
 1261              		.global	hspi1
 1262              		.global	hospi1
 1263              		.section	.bss.hospi1,"aw",%nobits
 1264              		.align	2
 1265              		.set	.LANCHOR8,. + 0
 1268              	hospi1:
 1269 0000 00000000 		.space	92
 1269      00000000 
 1269      00000000 
 1269      00000000 
 1269      00000000 
 1270              		.section	.bss.hspi1,"aw",%nobits
 1271              		.align	2
 1272              		.set	.LANCHOR6,. + 0
 1275              	hspi1:
 1276 0000 00000000 		.space	136
 1276      00000000 
 1276      00000000 
 1276      00000000 
 1276      00000000 
 1277              		.section	.bss.huart2,"aw",%nobits
 1278              		.align	2
 1279              		.set	.LANCHOR0,. + 0
 1282              	huart2:
 1283 0000 00000000 		.space	148
 1283      00000000 
ARM GAS  /tmp/cctnoRdP.s 			page 42


 1283      00000000 
 1283      00000000 
 1283      00000000 
 1284              		.section	.bss.huart4,"aw",%nobits
 1285              		.align	2
 1286              		.set	.LANCHOR5,. + 0
 1289              	huart4:
 1290 0000 00000000 		.space	148
 1290      00000000 
 1290      00000000 
 1290      00000000 
 1290      00000000 
 1291              		.section	.bss.huart5,"aw",%nobits
 1292              		.align	2
 1293              		.set	.LANCHOR7,. + 0
 1296              	huart5:
 1297 0000 00000000 		.space	148
 1297      00000000 
 1297      00000000 
 1297      00000000 
 1297      00000000 
 1298              		.section	.bss.message_buffer,"aw",%nobits
 1299              		.align	2
 1300              		.set	.LANCHOR3,. + 0
 1303              	message_buffer:
 1304 0000 00000000 		.space	32
 1304      00000000 
 1304      00000000 
 1304      00000000 
 1304      00000000 
 1305              		.section	.bss.message_buffer_size,"aw",%nobits
 1306              		.align	1
 1307              		.set	.LANCHOR2,. + 0
 1310              	message_buffer_size:
 1311 0000 0000     		.space	2
 1312              		.section	.bss.messages_recieved,"aw",%nobits
 1315              	messages_recieved:
 1316 0000 00       		.space	1
 1317              		.section	.bss.prev_size,"aw",%nobits
 1318              		.align	1
 1319              		.set	.LANCHOR1,. + 0
 1322              	prev_size:
 1323 0000 0000     		.space	2
 1324              		.section	.bss.rx_buffer,"aw",%nobits
 1325              		.align	2
 1326              		.set	.LANCHOR4,. + 0
 1329              	rx_buffer:
 1330 0000 00000000 		.space	32
 1330      00000000 
 1330      00000000 
 1330      00000000 
 1330      00000000 
 1331              		.text
 1332              	.Letext0:
 1333              		.file 3 "/usr/lib/gcc/arm-none-eabi/10.3.1/include/stdint.h"
 1334              		.file 4 "Drivers/CMSIS/Device/ST/STM32H7xx/Include/stm32h725xx.h"
 1335              		.file 5 "Drivers/STM32H7xx_HAL_Driver/Inc/stm32h7xx_hal_def.h"
ARM GAS  /tmp/cctnoRdP.s 			page 43


 1336              		.file 6 "Drivers/STM32H7xx_HAL_Driver/Inc/stm32h7xx_hal_rcc.h"
 1337              		.file 7 "Drivers/STM32H7xx_HAL_Driver/Inc/stm32h7xx_hal_gpio.h"
 1338              		.file 8 "Drivers/STM32H7xx_HAL_Driver/Inc/stm32h7xx_hal_dma.h"
 1339              		.file 9 "Drivers/STM32H7xx_HAL_Driver/Inc/stm32h7xx_hal_mdma.h"
 1340              		.file 10 "Drivers/STM32H7xx_HAL_Driver/Inc/stm32h7xx_hal_ospi.h"
 1341              		.file 11 "Drivers/STM32H7xx_HAL_Driver/Inc/stm32h7xx_hal_spi.h"
 1342              		.file 12 "Drivers/STM32H7xx_HAL_Driver/Inc/stm32h7xx_hal_tim.h"
 1343              		.file 13 "Drivers/STM32H7xx_HAL_Driver/Inc/stm32h7xx_hal_uart.h"
 1344              		.file 14 "../Core/Include/globals.h"
 1345              		.file 15 "Drivers/STM32H7xx_HAL_Driver/Inc/stm32h7xx_hal.h"
 1346              		.file 16 "../Core/Include/packet_encode.h"
 1347              		.file 17 "Drivers/STM32H7xx_HAL_Driver/Inc/stm32h7xx_hal_uart_ex.h"
 1348              		.file 18 "Drivers/STM32H7xx_HAL_Driver/Inc/stm32h7xx_hal_pwr_ex.h"
 1349              		.file 19 "FATFS/App/fatfs.h"
 1350              		.file 20 "<built-in>"
ARM GAS  /tmp/cctnoRdP.s 			page 44


DEFINED SYMBOLS
                            *ABS*:0000000000000000 main.c
     /tmp/cctnoRdP.s:17     .text.MX_GPIO_Init:0000000000000000 $t
     /tmp/cctnoRdP.s:24     .text.MX_GPIO_Init:0000000000000000 MX_GPIO_Init
     /tmp/cctnoRdP.s:189    .text.MX_GPIO_Init:00000000000000e4 $d
     /tmp/cctnoRdP.s:195    .text.HAL_UART_RxCpltCallback:0000000000000000 $t
     /tmp/cctnoRdP.s:202    .text.HAL_UART_RxCpltCallback:0000000000000000 HAL_UART_RxCpltCallback
     /tmp/cctnoRdP.s:216    .rodata.HAL_UARTEx_RxEventCallback.str1.4:0000000000000000 $d
     /tmp/cctnoRdP.s:220    .text.HAL_UARTEx_RxEventCallback:0000000000000000 $t
     /tmp/cctnoRdP.s:227    .text.HAL_UARTEx_RxEventCallback:0000000000000000 HAL_UARTEx_RxEventCallback
     /tmp/cctnoRdP.s:338    .text.HAL_UARTEx_RxEventCallback:000000000000005c $d
     /tmp/cctnoRdP.s:349    .text.HAL_TIM_PeriodElapsedCallback:0000000000000000 $t
     /tmp/cctnoRdP.s:356    .text.HAL_TIM_PeriodElapsedCallback:0000000000000000 HAL_TIM_PeriodElapsedCallback
     /tmp/cctnoRdP.s:390    .text.HAL_TIM_PeriodElapsedCallback:0000000000000014 $d
     /tmp/cctnoRdP.s:395    .text.Error_Handler:0000000000000000 $t
     /tmp/cctnoRdP.s:402    .text.Error_Handler:0000000000000000 Error_Handler
     /tmp/cctnoRdP.s:434    .text.MX_SPI1_Init:0000000000000000 $t
     /tmp/cctnoRdP.s:440    .text.MX_SPI1_Init:0000000000000000 MX_SPI1_Init
     /tmp/cctnoRdP.s:540    .text.MX_SPI1_Init:0000000000000054 $d
     /tmp/cctnoRdP.s:546    .text.MX_UART4_Init:0000000000000000 $t
     /tmp/cctnoRdP.s:552    .text.MX_UART4_Init:0000000000000000 MX_UART4_Init
     /tmp/cctnoRdP.s:651    .text.MX_UART4_Init:0000000000000058 $d
     /tmp/cctnoRdP.s:657    .text.MX_UART5_Init:0000000000000000 $t
     /tmp/cctnoRdP.s:663    .text.MX_UART5_Init:0000000000000000 MX_UART5_Init
     /tmp/cctnoRdP.s:762    .text.MX_UART5_Init:0000000000000058 $d
     /tmp/cctnoRdP.s:768    .text.MX_USART2_UART_Init:0000000000000000 $t
     /tmp/cctnoRdP.s:774    .text.MX_USART2_UART_Init:0000000000000000 MX_USART2_UART_Init
     /tmp/cctnoRdP.s:873    .text.MX_USART2_UART_Init:0000000000000058 $d
     /tmp/cctnoRdP.s:879    .text.MX_OCTOSPI1_Init:0000000000000000 $t
     /tmp/cctnoRdP.s:885    .text.MX_OCTOSPI1_Init:0000000000000000 MX_OCTOSPI1_Init
     /tmp/cctnoRdP.s:1004   .text.MX_OCTOSPI1_Init:000000000000006c $d
     /tmp/cctnoRdP.s:1010   .text.SystemClock_Config:0000000000000000 $t
     /tmp/cctnoRdP.s:1017   .text.SystemClock_Config:0000000000000000 SystemClock_Config
     /tmp/cctnoRdP.s:1183   .text.SystemClock_Config:00000000000000a4 $d
     /tmp/cctnoRdP.s:1188   .text.main:0000000000000000 $t
     /tmp/cctnoRdP.s:1195   .text.main:0000000000000000 main
     /tmp/cctnoRdP.s:1248   .text.main:0000000000000034 $d
     /tmp/cctnoRdP.s:1322   .bss.prev_size:0000000000000000 prev_size
     /tmp/cctnoRdP.s:1329   .bss.rx_buffer:0000000000000000 rx_buffer
     /tmp/cctnoRdP.s:1310   .bss.message_buffer_size:0000000000000000 message_buffer_size
     /tmp/cctnoRdP.s:1303   .bss.message_buffer:0000000000000000 message_buffer
     /tmp/cctnoRdP.s:1315   .bss.messages_recieved:0000000000000000 messages_recieved
     /tmp/cctnoRdP.s:1282   .bss.huart2:0000000000000000 huart2
     /tmp/cctnoRdP.s:1296   .bss.huart5:0000000000000000 huart5
     /tmp/cctnoRdP.s:1289   .bss.huart4:0000000000000000 huart4
     /tmp/cctnoRdP.s:1275   .bss.hspi1:0000000000000000 hspi1
     /tmp/cctnoRdP.s:1268   .bss.hospi1:0000000000000000 hospi1
     /tmp/cctnoRdP.s:1264   .bss.hospi1:0000000000000000 $d
     /tmp/cctnoRdP.s:1271   .bss.hspi1:0000000000000000 $d
     /tmp/cctnoRdP.s:1278   .bss.huart2:0000000000000000 $d
     /tmp/cctnoRdP.s:1285   .bss.huart4:0000000000000000 $d
     /tmp/cctnoRdP.s:1292   .bss.huart5:0000000000000000 $d
     /tmp/cctnoRdP.s:1299   .bss.message_buffer:0000000000000000 $d
     /tmp/cctnoRdP.s:1306   .bss.message_buffer_size:0000000000000000 $d
     /tmp/cctnoRdP.s:1316   .bss.messages_recieved:0000000000000000 $d
     /tmp/cctnoRdP.s:1318   .bss.prev_size:0000000000000000 $d
     /tmp/cctnoRdP.s:1325   .bss.rx_buffer:0000000000000000 $d
ARM GAS  /tmp/cctnoRdP.s 			page 45



UNDEFINED SYMBOLS
HAL_GPIO_WritePin
HAL_GPIO_Init
HAL_UART_Transmit
process_incoming_byte
HAL_UARTEx_ReceiveToIdle_IT
HAL_IncTick
HAL_SPI_Init
HAL_UART_Init
HAL_UARTEx_SetTxFifoThreshold
HAL_UARTEx_SetRxFifoThreshold
HAL_UARTEx_DisableFifoMode
HAL_OSPI_Init
HAL_OSPIM_Config
memset
HAL_PWREx_ConfigSupply
HAL_RCC_OscConfig
HAL_RCC_ClockConfig
HAL_Init
MX_FATFS_Init
