ARM GAS  /tmp/cct3MTCB.s 			page 1


   1              		.cpu cortex-m7
   2              		.eabi_attribute 28, 1
   3              		.eabi_attribute 20, 1
   4              		.eabi_attribute 21, 1
   5              		.eabi_attribute 23, 3
   6              		.eabi_attribute 24, 1
   7              		.eabi_attribute 25, 1
   8              		.eabi_attribute 26, 1
   9              		.eabi_attribute 30, 1
  10              		.eabi_attribute 34, 1
  11              		.eabi_attribute 18, 4
  12              		.file	"stm32h7xx_hal_msp.c"
  13              		.text
  14              	.Ltext0:
  15              		.cfi_sections	.debug_frame
  16              		.section	.text.HAL_MspInit,"ax",%progbits
  17              		.align	1
  18              		.global	HAL_MspInit
  19              		.arch armv7e-m
  20              		.syntax unified
  21              		.thumb
  22              		.thumb_func
  23              		.fpu fpv5-d16
  25              	HAL_MspInit:
  26              	.LFB144:
  27              		.file 1 "Core/Src/stm32h7xx_hal_msp.c"
   1:Core/Src/stm32h7xx_hal_msp.c **** 
   2:Core/Src/stm32h7xx_hal_msp.c **** /* USER CODE BEGIN Header */
   3:Core/Src/stm32h7xx_hal_msp.c **** /**
   4:Core/Src/stm32h7xx_hal_msp.c ****   ******************************************************************************
   5:Core/Src/stm32h7xx_hal_msp.c ****   * @file         stm32h7xx_hal_msp.c
   6:Core/Src/stm32h7xx_hal_msp.c ****   * @brief        This file provides code for the MSP Initialization
   7:Core/Src/stm32h7xx_hal_msp.c ****   *               and de-Initialization codes.
   8:Core/Src/stm32h7xx_hal_msp.c ****   ******************************************************************************
   9:Core/Src/stm32h7xx_hal_msp.c ****   * @attention
  10:Core/Src/stm32h7xx_hal_msp.c ****   *
  11:Core/Src/stm32h7xx_hal_msp.c ****   * Copyright (c) 2024 STMicroelectronics.
  12:Core/Src/stm32h7xx_hal_msp.c ****   * All rights reserved.
  13:Core/Src/stm32h7xx_hal_msp.c ****   *
  14:Core/Src/stm32h7xx_hal_msp.c ****   * This software is licensed under terms that can be found in the LICENSE file
  15:Core/Src/stm32h7xx_hal_msp.c ****   * in the root directory of this software component.
  16:Core/Src/stm32h7xx_hal_msp.c ****   * If no LICENSE file comes with this software, it is provided AS-IS.
  17:Core/Src/stm32h7xx_hal_msp.c ****   *
  18:Core/Src/stm32h7xx_hal_msp.c ****   ******************************************************************************
  19:Core/Src/stm32h7xx_hal_msp.c ****   */
  20:Core/Src/stm32h7xx_hal_msp.c **** /* USER CODE END Header */
  21:Core/Src/stm32h7xx_hal_msp.c **** 
  22:Core/Src/stm32h7xx_hal_msp.c **** /* Includes ------------------------------------------------------------------*/
  23:Core/Src/stm32h7xx_hal_msp.c **** #include "main.h"
  24:Core/Src/stm32h7xx_hal_msp.c **** /* USER CODE BEGIN Includes */
  25:Core/Src/stm32h7xx_hal_msp.c **** 
  26:Core/Src/stm32h7xx_hal_msp.c **** /* USER CODE END Includes */
  27:Core/Src/stm32h7xx_hal_msp.c **** extern DMA_HandleTypeDef hdma_uart4_rx;
  28:Core/Src/stm32h7xx_hal_msp.c **** 
  29:Core/Src/stm32h7xx_hal_msp.c **** extern DMA_HandleTypeDef hdma_uart4_tx;
  30:Core/Src/stm32h7xx_hal_msp.c **** 
  31:Core/Src/stm32h7xx_hal_msp.c **** extern DMA_HandleTypeDef hdma_uart5_rx;
ARM GAS  /tmp/cct3MTCB.s 			page 2


  32:Core/Src/stm32h7xx_hal_msp.c **** 
  33:Core/Src/stm32h7xx_hal_msp.c **** extern DMA_HandleTypeDef hdma_uart5_tx;
  34:Core/Src/stm32h7xx_hal_msp.c **** 
  35:Core/Src/stm32h7xx_hal_msp.c **** /* Private typedef -----------------------------------------------------------*/
  36:Core/Src/stm32h7xx_hal_msp.c **** /* USER CODE BEGIN TD */
  37:Core/Src/stm32h7xx_hal_msp.c **** 
  38:Core/Src/stm32h7xx_hal_msp.c **** /* USER CODE END TD */
  39:Core/Src/stm32h7xx_hal_msp.c **** 
  40:Core/Src/stm32h7xx_hal_msp.c **** /* Private define ------------------------------------------------------------*/
  41:Core/Src/stm32h7xx_hal_msp.c **** /* USER CODE BEGIN Define */
  42:Core/Src/stm32h7xx_hal_msp.c **** 
  43:Core/Src/stm32h7xx_hal_msp.c **** /* USER CODE END Define */
  44:Core/Src/stm32h7xx_hal_msp.c **** 
  45:Core/Src/stm32h7xx_hal_msp.c **** /* Private macro -------------------------------------------------------------*/
  46:Core/Src/stm32h7xx_hal_msp.c **** /* USER CODE BEGIN Macro */
  47:Core/Src/stm32h7xx_hal_msp.c **** 
  48:Core/Src/stm32h7xx_hal_msp.c **** /* USER CODE END Macro */
  49:Core/Src/stm32h7xx_hal_msp.c **** 
  50:Core/Src/stm32h7xx_hal_msp.c **** /* Private variables ---------------------------------------------------------*/
  51:Core/Src/stm32h7xx_hal_msp.c **** /* USER CODE BEGIN PV */
  52:Core/Src/stm32h7xx_hal_msp.c **** 
  53:Core/Src/stm32h7xx_hal_msp.c **** /* USER CODE END PV */
  54:Core/Src/stm32h7xx_hal_msp.c **** 
  55:Core/Src/stm32h7xx_hal_msp.c **** /* Private function prototypes -----------------------------------------------*/
  56:Core/Src/stm32h7xx_hal_msp.c **** /* USER CODE BEGIN PFP */
  57:Core/Src/stm32h7xx_hal_msp.c **** 
  58:Core/Src/stm32h7xx_hal_msp.c **** /* USER CODE END PFP */
  59:Core/Src/stm32h7xx_hal_msp.c **** 
  60:Core/Src/stm32h7xx_hal_msp.c **** /* External functions --------------------------------------------------------*/
  61:Core/Src/stm32h7xx_hal_msp.c **** /* USER CODE BEGIN ExternalFunctions */
  62:Core/Src/stm32h7xx_hal_msp.c **** 
  63:Core/Src/stm32h7xx_hal_msp.c **** /* USER CODE END ExternalFunctions */
  64:Core/Src/stm32h7xx_hal_msp.c **** 
  65:Core/Src/stm32h7xx_hal_msp.c **** /* USER CODE BEGIN 0 */
  66:Core/Src/stm32h7xx_hal_msp.c **** 
  67:Core/Src/stm32h7xx_hal_msp.c **** /* USER CODE END 0 */
  68:Core/Src/stm32h7xx_hal_msp.c **** /**
  69:Core/Src/stm32h7xx_hal_msp.c ****   * Initializes the Global MSP.
  70:Core/Src/stm32h7xx_hal_msp.c ****   */
  71:Core/Src/stm32h7xx_hal_msp.c **** void HAL_MspInit(void)
  72:Core/Src/stm32h7xx_hal_msp.c **** {
  28              		.loc 1 72 1 view -0
  29              		.cfi_startproc
  30              		@ args = 0, pretend = 0, frame = 8
  31              		@ frame_needed = 0, uses_anonymous_args = 0
  32              		@ link register save eliminated.
  33 0000 82B0     		sub	sp, sp, #8
  34              	.LCFI0:
  35              		.cfi_def_cfa_offset 8
  73:Core/Src/stm32h7xx_hal_msp.c **** 
  74:Core/Src/stm32h7xx_hal_msp.c ****   /* USER CODE BEGIN MspInit 0 */
  75:Core/Src/stm32h7xx_hal_msp.c **** 
  76:Core/Src/stm32h7xx_hal_msp.c ****   /* USER CODE END MspInit 0 */
  77:Core/Src/stm32h7xx_hal_msp.c **** 
  78:Core/Src/stm32h7xx_hal_msp.c ****   __HAL_RCC_SYSCFG_CLK_ENABLE();
  36              		.loc 1 78 3 view .LVU1
  37              	.LBB2:
ARM GAS  /tmp/cct3MTCB.s 			page 3


  38              		.loc 1 78 3 view .LVU2
  39              		.loc 1 78 3 view .LVU3
  40 0002 074B     		ldr	r3, .L3
  41 0004 D3F8F420 		ldr	r2, [r3, #244]
  42 0008 42F00202 		orr	r2, r2, #2
  43 000c C3F8F420 		str	r2, [r3, #244]
  44              		.loc 1 78 3 view .LVU4
  45 0010 D3F8F430 		ldr	r3, [r3, #244]
  46 0014 03F00203 		and	r3, r3, #2
  47 0018 0193     		str	r3, [sp, #4]
  48              		.loc 1 78 3 view .LVU5
  49 001a 019B     		ldr	r3, [sp, #4]
  50              	.LBE2:
  51              		.loc 1 78 3 view .LVU6
  79:Core/Src/stm32h7xx_hal_msp.c **** 
  80:Core/Src/stm32h7xx_hal_msp.c ****   /* System interrupt init*/
  81:Core/Src/stm32h7xx_hal_msp.c **** 
  82:Core/Src/stm32h7xx_hal_msp.c ****   /* USER CODE BEGIN MspInit 1 */
  83:Core/Src/stm32h7xx_hal_msp.c **** 
  84:Core/Src/stm32h7xx_hal_msp.c ****   /* USER CODE END MspInit 1 */
  85:Core/Src/stm32h7xx_hal_msp.c **** }
  52              		.loc 1 85 1 is_stmt 0 view .LVU7
  53 001c 02B0     		add	sp, sp, #8
  54              	.LCFI1:
  55              		.cfi_def_cfa_offset 0
  56              		@ sp needed
  57 001e 7047     		bx	lr
  58              	.L4:
  59              		.align	2
  60              	.L3:
  61 0020 00440258 		.word	1476543488
  62              		.cfi_endproc
  63              	.LFE144:
  65              		.section	.text.HAL_SPI_MspInit,"ax",%progbits
  66              		.align	1
  67              		.global	HAL_SPI_MspInit
  68              		.syntax unified
  69              		.thumb
  70              		.thumb_func
  71              		.fpu fpv5-d16
  73              	HAL_SPI_MspInit:
  74              	.LVL0:
  75              	.LFB145:
  86:Core/Src/stm32h7xx_hal_msp.c **** 
  87:Core/Src/stm32h7xx_hal_msp.c **** /**
  88:Core/Src/stm32h7xx_hal_msp.c **** * @brief SPI MSP Initialization
  89:Core/Src/stm32h7xx_hal_msp.c **** * This function configures the hardware resources used in this example
  90:Core/Src/stm32h7xx_hal_msp.c **** * @param hspi: SPI handle pointer
  91:Core/Src/stm32h7xx_hal_msp.c **** * @retval None
  92:Core/Src/stm32h7xx_hal_msp.c **** */
  93:Core/Src/stm32h7xx_hal_msp.c **** void HAL_SPI_MspInit(SPI_HandleTypeDef* hspi)
  94:Core/Src/stm32h7xx_hal_msp.c **** {
  76              		.loc 1 94 1 is_stmt 1 view -0
  77              		.cfi_startproc
  78              		@ args = 0, pretend = 0, frame = 224
  79              		@ frame_needed = 0, uses_anonymous_args = 0
  80              		.loc 1 94 1 is_stmt 0 view .LVU9
ARM GAS  /tmp/cct3MTCB.s 			page 4


  81 0000 70B5     		push	{r4, r5, r6, lr}
  82              	.LCFI2:
  83              		.cfi_def_cfa_offset 16
  84              		.cfi_offset 4, -16
  85              		.cfi_offset 5, -12
  86              		.cfi_offset 6, -8
  87              		.cfi_offset 14, -4
  88 0002 B8B0     		sub	sp, sp, #224
  89              	.LCFI3:
  90              		.cfi_def_cfa_offset 240
  91 0004 0446     		mov	r4, r0
  95:Core/Src/stm32h7xx_hal_msp.c ****   GPIO_InitTypeDef GPIO_InitStruct = {0};
  92              		.loc 1 95 3 is_stmt 1 view .LVU10
  93              		.loc 1 95 20 is_stmt 0 view .LVU11
  94 0006 0021     		movs	r1, #0
  95 0008 3391     		str	r1, [sp, #204]
  96 000a 3491     		str	r1, [sp, #208]
  97 000c 3591     		str	r1, [sp, #212]
  98 000e 3691     		str	r1, [sp, #216]
  99 0010 3791     		str	r1, [sp, #220]
  96:Core/Src/stm32h7xx_hal_msp.c ****   RCC_PeriphCLKInitTypeDef PeriphClkInitStruct = {0};
 100              		.loc 1 96 3 is_stmt 1 view .LVU12
 101              		.loc 1 96 28 is_stmt 0 view .LVU13
 102 0012 B822     		movs	r2, #184
 103 0014 04A8     		add	r0, sp, #16
 104              	.LVL1:
 105              		.loc 1 96 28 view .LVU14
 106 0016 FFF7FEFF 		bl	memset
 107              	.LVL2:
  97:Core/Src/stm32h7xx_hal_msp.c ****   if(hspi->Instance==SPI1)
 108              		.loc 1 97 3 is_stmt 1 view .LVU15
 109              		.loc 1 97 10 is_stmt 0 view .LVU16
 110 001a 2268     		ldr	r2, [r4]
 111              		.loc 1 97 5 view .LVU17
 112 001c 274B     		ldr	r3, .L11
 113 001e 9A42     		cmp	r2, r3
 114 0020 01D0     		beq	.L9
 115              	.LVL3:
 116              	.L5:
  98:Core/Src/stm32h7xx_hal_msp.c ****   {
  99:Core/Src/stm32h7xx_hal_msp.c ****   /* USER CODE BEGIN SPI1_MspInit 0 */
 100:Core/Src/stm32h7xx_hal_msp.c **** 
 101:Core/Src/stm32h7xx_hal_msp.c ****   /* USER CODE END SPI1_MspInit 0 */
 102:Core/Src/stm32h7xx_hal_msp.c **** 
 103:Core/Src/stm32h7xx_hal_msp.c ****   /** Initializes the peripherals clock
 104:Core/Src/stm32h7xx_hal_msp.c ****   */
 105:Core/Src/stm32h7xx_hal_msp.c ****     PeriphClkInitStruct.PeriphClockSelection = RCC_PERIPHCLK_SPI1;
 106:Core/Src/stm32h7xx_hal_msp.c ****     PeriphClkInitStruct.Spi123ClockSelection = RCC_SPI123CLKSOURCE_PLL;
 107:Core/Src/stm32h7xx_hal_msp.c ****     if (HAL_RCCEx_PeriphCLKConfig(&PeriphClkInitStruct) != HAL_OK)
 108:Core/Src/stm32h7xx_hal_msp.c ****     {
 109:Core/Src/stm32h7xx_hal_msp.c ****       Error_Handler();
 110:Core/Src/stm32h7xx_hal_msp.c ****     }
 111:Core/Src/stm32h7xx_hal_msp.c **** 
 112:Core/Src/stm32h7xx_hal_msp.c ****     /* Peripheral clock enable */
 113:Core/Src/stm32h7xx_hal_msp.c ****     __HAL_RCC_SPI1_CLK_ENABLE();
 114:Core/Src/stm32h7xx_hal_msp.c **** 
 115:Core/Src/stm32h7xx_hal_msp.c ****     __HAL_RCC_GPIOD_CLK_ENABLE();
ARM GAS  /tmp/cct3MTCB.s 			page 5


 116:Core/Src/stm32h7xx_hal_msp.c ****     __HAL_RCC_GPIOG_CLK_ENABLE();
 117:Core/Src/stm32h7xx_hal_msp.c ****     /**SPI1 GPIO Configuration
 118:Core/Src/stm32h7xx_hal_msp.c ****     PD7     ------> SPI1_MOSI
 119:Core/Src/stm32h7xx_hal_msp.c ****     PG9     ------> SPI1_MISO
 120:Core/Src/stm32h7xx_hal_msp.c ****     PG11     ------> SPI1_SCK
 121:Core/Src/stm32h7xx_hal_msp.c ****     */
 122:Core/Src/stm32h7xx_hal_msp.c ****     GPIO_InitStruct.Pin = GPIO_PIN_7;
 123:Core/Src/stm32h7xx_hal_msp.c ****     GPIO_InitStruct.Mode = GPIO_MODE_AF_PP;
 124:Core/Src/stm32h7xx_hal_msp.c ****     GPIO_InitStruct.Pull = GPIO_NOPULL;
 125:Core/Src/stm32h7xx_hal_msp.c ****     GPIO_InitStruct.Speed = GPIO_SPEED_FREQ_LOW;
 126:Core/Src/stm32h7xx_hal_msp.c ****     GPIO_InitStruct.Alternate = GPIO_AF5_SPI1;
 127:Core/Src/stm32h7xx_hal_msp.c ****     HAL_GPIO_Init(GPIOD, &GPIO_InitStruct);
 128:Core/Src/stm32h7xx_hal_msp.c **** 
 129:Core/Src/stm32h7xx_hal_msp.c ****     GPIO_InitStruct.Pin = GPIO_PIN_9|GPIO_PIN_11;
 130:Core/Src/stm32h7xx_hal_msp.c ****     GPIO_InitStruct.Mode = GPIO_MODE_AF_PP;
 131:Core/Src/stm32h7xx_hal_msp.c ****     GPIO_InitStruct.Pull = GPIO_NOPULL;
 132:Core/Src/stm32h7xx_hal_msp.c ****     GPIO_InitStruct.Speed = GPIO_SPEED_FREQ_LOW;
 133:Core/Src/stm32h7xx_hal_msp.c ****     GPIO_InitStruct.Alternate = GPIO_AF5_SPI1;
 134:Core/Src/stm32h7xx_hal_msp.c ****     HAL_GPIO_Init(GPIOG, &GPIO_InitStruct);
 135:Core/Src/stm32h7xx_hal_msp.c **** 
 136:Core/Src/stm32h7xx_hal_msp.c ****   /* USER CODE BEGIN SPI1_MspInit 1 */
 137:Core/Src/stm32h7xx_hal_msp.c **** 
 138:Core/Src/stm32h7xx_hal_msp.c ****   /* USER CODE END SPI1_MspInit 1 */
 139:Core/Src/stm32h7xx_hal_msp.c **** 
 140:Core/Src/stm32h7xx_hal_msp.c ****   }
 141:Core/Src/stm32h7xx_hal_msp.c **** 
 142:Core/Src/stm32h7xx_hal_msp.c **** }
 117              		.loc 1 142 1 view .LVU18
 118 0022 38B0     		add	sp, sp, #224
 119              	.LCFI4:
 120              		.cfi_remember_state
 121              		.cfi_def_cfa_offset 16
 122              		@ sp needed
 123 0024 70BD     		pop	{r4, r5, r6, pc}
 124              	.LVL4:
 125              	.L9:
 126              	.LCFI5:
 127              		.cfi_restore_state
 105:Core/Src/stm32h7xx_hal_msp.c ****     PeriphClkInitStruct.Spi123ClockSelection = RCC_SPI123CLKSOURCE_PLL;
 128              		.loc 1 105 5 is_stmt 1 view .LVU19
 105:Core/Src/stm32h7xx_hal_msp.c ****     PeriphClkInitStruct.Spi123ClockSelection = RCC_SPI123CLKSOURCE_PLL;
 129              		.loc 1 105 46 is_stmt 0 view .LVU20
 130 0026 4FF48052 		mov	r2, #4096
 131 002a 0023     		movs	r3, #0
 132 002c CDE90423 		strd	r2, [sp, #16]
 106:Core/Src/stm32h7xx_hal_msp.c ****     if (HAL_RCCEx_PeriphCLKConfig(&PeriphClkInitStruct) != HAL_OK)
 133              		.loc 1 106 5 is_stmt 1 view .LVU21
 107:Core/Src/stm32h7xx_hal_msp.c ****     {
 134              		.loc 1 107 5 view .LVU22
 107:Core/Src/stm32h7xx_hal_msp.c ****     {
 135              		.loc 1 107 9 is_stmt 0 view .LVU23
 136 0030 04A8     		add	r0, sp, #16
 137 0032 FFF7FEFF 		bl	HAL_RCCEx_PeriphCLKConfig
 138              	.LVL5:
 107:Core/Src/stm32h7xx_hal_msp.c ****     {
 139              		.loc 1 107 8 view .LVU24
 140 0036 0028     		cmp	r0, #0
ARM GAS  /tmp/cct3MTCB.s 			page 6


 141 0038 3DD1     		bne	.L10
 142              	.L7:
 113:Core/Src/stm32h7xx_hal_msp.c **** 
 143              		.loc 1 113 5 is_stmt 1 view .LVU25
 144              	.LBB3:
 113:Core/Src/stm32h7xx_hal_msp.c **** 
 145              		.loc 1 113 5 view .LVU26
 113:Core/Src/stm32h7xx_hal_msp.c **** 
 146              		.loc 1 113 5 view .LVU27
 147 003a 214B     		ldr	r3, .L11+4
 148 003c D3F8F020 		ldr	r2, [r3, #240]
 149 0040 42F48052 		orr	r2, r2, #4096
 150 0044 C3F8F020 		str	r2, [r3, #240]
 113:Core/Src/stm32h7xx_hal_msp.c **** 
 151              		.loc 1 113 5 view .LVU28
 152 0048 D3F8F020 		ldr	r2, [r3, #240]
 153 004c 02F48052 		and	r2, r2, #4096
 154 0050 0192     		str	r2, [sp, #4]
 113:Core/Src/stm32h7xx_hal_msp.c **** 
 155              		.loc 1 113 5 view .LVU29
 156 0052 019A     		ldr	r2, [sp, #4]
 157              	.LBE3:
 113:Core/Src/stm32h7xx_hal_msp.c **** 
 158              		.loc 1 113 5 view .LVU30
 115:Core/Src/stm32h7xx_hal_msp.c ****     __HAL_RCC_GPIOG_CLK_ENABLE();
 159              		.loc 1 115 5 view .LVU31
 160              	.LBB4:
 115:Core/Src/stm32h7xx_hal_msp.c ****     __HAL_RCC_GPIOG_CLK_ENABLE();
 161              		.loc 1 115 5 view .LVU32
 115:Core/Src/stm32h7xx_hal_msp.c ****     __HAL_RCC_GPIOG_CLK_ENABLE();
 162              		.loc 1 115 5 view .LVU33
 163 0054 D3F8E020 		ldr	r2, [r3, #224]
 164 0058 42F00802 		orr	r2, r2, #8
 165 005c C3F8E020 		str	r2, [r3, #224]
 115:Core/Src/stm32h7xx_hal_msp.c ****     __HAL_RCC_GPIOG_CLK_ENABLE();
 166              		.loc 1 115 5 view .LVU34
 167 0060 D3F8E020 		ldr	r2, [r3, #224]
 168 0064 02F00802 		and	r2, r2, #8
 169 0068 0292     		str	r2, [sp, #8]
 115:Core/Src/stm32h7xx_hal_msp.c ****     __HAL_RCC_GPIOG_CLK_ENABLE();
 170              		.loc 1 115 5 view .LVU35
 171 006a 029A     		ldr	r2, [sp, #8]
 172              	.LBE4:
 115:Core/Src/stm32h7xx_hal_msp.c ****     __HAL_RCC_GPIOG_CLK_ENABLE();
 173              		.loc 1 115 5 view .LVU36
 116:Core/Src/stm32h7xx_hal_msp.c ****     /**SPI1 GPIO Configuration
 174              		.loc 1 116 5 view .LVU37
 175              	.LBB5:
 116:Core/Src/stm32h7xx_hal_msp.c ****     /**SPI1 GPIO Configuration
 176              		.loc 1 116 5 view .LVU38
 116:Core/Src/stm32h7xx_hal_msp.c ****     /**SPI1 GPIO Configuration
 177              		.loc 1 116 5 view .LVU39
 178 006c D3F8E020 		ldr	r2, [r3, #224]
 179 0070 42F04002 		orr	r2, r2, #64
 180 0074 C3F8E020 		str	r2, [r3, #224]
 116:Core/Src/stm32h7xx_hal_msp.c ****     /**SPI1 GPIO Configuration
 181              		.loc 1 116 5 view .LVU40
ARM GAS  /tmp/cct3MTCB.s 			page 7


 182 0078 D3F8E030 		ldr	r3, [r3, #224]
 183 007c 03F04003 		and	r3, r3, #64
 184 0080 0393     		str	r3, [sp, #12]
 116:Core/Src/stm32h7xx_hal_msp.c ****     /**SPI1 GPIO Configuration
 185              		.loc 1 116 5 view .LVU41
 186 0082 039B     		ldr	r3, [sp, #12]
 187              	.LBE5:
 116:Core/Src/stm32h7xx_hal_msp.c ****     /**SPI1 GPIO Configuration
 188              		.loc 1 116 5 view .LVU42
 122:Core/Src/stm32h7xx_hal_msp.c ****     GPIO_InitStruct.Mode = GPIO_MODE_AF_PP;
 189              		.loc 1 122 5 view .LVU43
 122:Core/Src/stm32h7xx_hal_msp.c ****     GPIO_InitStruct.Mode = GPIO_MODE_AF_PP;
 190              		.loc 1 122 25 is_stmt 0 view .LVU44
 191 0084 8023     		movs	r3, #128
 192 0086 3393     		str	r3, [sp, #204]
 123:Core/Src/stm32h7xx_hal_msp.c ****     GPIO_InitStruct.Pull = GPIO_NOPULL;
 193              		.loc 1 123 5 is_stmt 1 view .LVU45
 123:Core/Src/stm32h7xx_hal_msp.c ****     GPIO_InitStruct.Pull = GPIO_NOPULL;
 194              		.loc 1 123 26 is_stmt 0 view .LVU46
 195 0088 0226     		movs	r6, #2
 196 008a 3496     		str	r6, [sp, #208]
 124:Core/Src/stm32h7xx_hal_msp.c ****     GPIO_InitStruct.Speed = GPIO_SPEED_FREQ_LOW;
 197              		.loc 1 124 5 is_stmt 1 view .LVU47
 124:Core/Src/stm32h7xx_hal_msp.c ****     GPIO_InitStruct.Speed = GPIO_SPEED_FREQ_LOW;
 198              		.loc 1 124 26 is_stmt 0 view .LVU48
 199 008c 0024     		movs	r4, #0
 200              	.LVL6:
 124:Core/Src/stm32h7xx_hal_msp.c ****     GPIO_InitStruct.Speed = GPIO_SPEED_FREQ_LOW;
 201              		.loc 1 124 26 view .LVU49
 202 008e 3594     		str	r4, [sp, #212]
 125:Core/Src/stm32h7xx_hal_msp.c ****     GPIO_InitStruct.Alternate = GPIO_AF5_SPI1;
 203              		.loc 1 125 5 is_stmt 1 view .LVU50
 125:Core/Src/stm32h7xx_hal_msp.c ****     GPIO_InitStruct.Alternate = GPIO_AF5_SPI1;
 204              		.loc 1 125 27 is_stmt 0 view .LVU51
 205 0090 3694     		str	r4, [sp, #216]
 126:Core/Src/stm32h7xx_hal_msp.c ****     HAL_GPIO_Init(GPIOD, &GPIO_InitStruct);
 206              		.loc 1 126 5 is_stmt 1 view .LVU52
 126:Core/Src/stm32h7xx_hal_msp.c ****     HAL_GPIO_Init(GPIOD, &GPIO_InitStruct);
 207              		.loc 1 126 31 is_stmt 0 view .LVU53
 208 0092 0525     		movs	r5, #5
 209 0094 3795     		str	r5, [sp, #220]
 127:Core/Src/stm32h7xx_hal_msp.c **** 
 210              		.loc 1 127 5 is_stmt 1 view .LVU54
 211 0096 33A9     		add	r1, sp, #204
 212 0098 0A48     		ldr	r0, .L11+8
 213 009a FFF7FEFF 		bl	HAL_GPIO_Init
 214              	.LVL7:
 129:Core/Src/stm32h7xx_hal_msp.c ****     GPIO_InitStruct.Mode = GPIO_MODE_AF_PP;
 215              		.loc 1 129 5 view .LVU55
 129:Core/Src/stm32h7xx_hal_msp.c ****     GPIO_InitStruct.Mode = GPIO_MODE_AF_PP;
 216              		.loc 1 129 25 is_stmt 0 view .LVU56
 217 009e 4FF42063 		mov	r3, #2560
 218 00a2 3393     		str	r3, [sp, #204]
 130:Core/Src/stm32h7xx_hal_msp.c ****     GPIO_InitStruct.Pull = GPIO_NOPULL;
 219              		.loc 1 130 5 is_stmt 1 view .LVU57
 130:Core/Src/stm32h7xx_hal_msp.c ****     GPIO_InitStruct.Pull = GPIO_NOPULL;
 220              		.loc 1 130 26 is_stmt 0 view .LVU58
ARM GAS  /tmp/cct3MTCB.s 			page 8


 221 00a4 3496     		str	r6, [sp, #208]
 131:Core/Src/stm32h7xx_hal_msp.c ****     GPIO_InitStruct.Speed = GPIO_SPEED_FREQ_LOW;
 222              		.loc 1 131 5 is_stmt 1 view .LVU59
 131:Core/Src/stm32h7xx_hal_msp.c ****     GPIO_InitStruct.Speed = GPIO_SPEED_FREQ_LOW;
 223              		.loc 1 131 26 is_stmt 0 view .LVU60
 224 00a6 3594     		str	r4, [sp, #212]
 132:Core/Src/stm32h7xx_hal_msp.c ****     GPIO_InitStruct.Alternate = GPIO_AF5_SPI1;
 225              		.loc 1 132 5 is_stmt 1 view .LVU61
 132:Core/Src/stm32h7xx_hal_msp.c ****     GPIO_InitStruct.Alternate = GPIO_AF5_SPI1;
 226              		.loc 1 132 27 is_stmt 0 view .LVU62
 227 00a8 3694     		str	r4, [sp, #216]
 133:Core/Src/stm32h7xx_hal_msp.c ****     HAL_GPIO_Init(GPIOG, &GPIO_InitStruct);
 228              		.loc 1 133 5 is_stmt 1 view .LVU63
 133:Core/Src/stm32h7xx_hal_msp.c ****     HAL_GPIO_Init(GPIOG, &GPIO_InitStruct);
 229              		.loc 1 133 31 is_stmt 0 view .LVU64
 230 00aa 3795     		str	r5, [sp, #220]
 134:Core/Src/stm32h7xx_hal_msp.c **** 
 231              		.loc 1 134 5 is_stmt 1 view .LVU65
 232 00ac 33A9     		add	r1, sp, #204
 233 00ae 0648     		ldr	r0, .L11+12
 234 00b0 FFF7FEFF 		bl	HAL_GPIO_Init
 235              	.LVL8:
 236              		.loc 1 142 1 is_stmt 0 view .LVU66
 237 00b4 B5E7     		b	.L5
 238              	.LVL9:
 239              	.L10:
 109:Core/Src/stm32h7xx_hal_msp.c ****     }
 240              		.loc 1 109 7 is_stmt 1 view .LVU67
 241 00b6 FFF7FEFF 		bl	Error_Handler
 242              	.LVL10:
 243 00ba BEE7     		b	.L7
 244              	.L12:
 245              		.align	2
 246              	.L11:
 247 00bc 00300140 		.word	1073819648
 248 00c0 00440258 		.word	1476543488
 249 00c4 000C0258 		.word	1476529152
 250 00c8 00180258 		.word	1476532224
 251              		.cfi_endproc
 252              	.LFE145:
 254              		.section	.text.HAL_SPI_MspDeInit,"ax",%progbits
 255              		.align	1
 256              		.global	HAL_SPI_MspDeInit
 257              		.syntax unified
 258              		.thumb
 259              		.thumb_func
 260              		.fpu fpv5-d16
 262              	HAL_SPI_MspDeInit:
 263              	.LVL11:
 264              	.LFB146:
 143:Core/Src/stm32h7xx_hal_msp.c **** 
 144:Core/Src/stm32h7xx_hal_msp.c **** /**
 145:Core/Src/stm32h7xx_hal_msp.c **** * @brief SPI MSP De-Initialization
 146:Core/Src/stm32h7xx_hal_msp.c **** * This function freeze the hardware resources used in this example
 147:Core/Src/stm32h7xx_hal_msp.c **** * @param hspi: SPI handle pointer
 148:Core/Src/stm32h7xx_hal_msp.c **** * @retval None
 149:Core/Src/stm32h7xx_hal_msp.c **** */
ARM GAS  /tmp/cct3MTCB.s 			page 9


 150:Core/Src/stm32h7xx_hal_msp.c **** void HAL_SPI_MspDeInit(SPI_HandleTypeDef* hspi)
 151:Core/Src/stm32h7xx_hal_msp.c **** {
 265              		.loc 1 151 1 view -0
 266              		.cfi_startproc
 267              		@ args = 0, pretend = 0, frame = 0
 268              		@ frame_needed = 0, uses_anonymous_args = 0
 269              		.loc 1 151 1 is_stmt 0 view .LVU69
 270 0000 08B5     		push	{r3, lr}
 271              	.LCFI6:
 272              		.cfi_def_cfa_offset 8
 273              		.cfi_offset 3, -8
 274              		.cfi_offset 14, -4
 152:Core/Src/stm32h7xx_hal_msp.c ****   if(hspi->Instance==SPI1)
 275              		.loc 1 152 3 is_stmt 1 view .LVU70
 276              		.loc 1 152 10 is_stmt 0 view .LVU71
 277 0002 0268     		ldr	r2, [r0]
 278              		.loc 1 152 5 view .LVU72
 279 0004 0A4B     		ldr	r3, .L17
 280 0006 9A42     		cmp	r2, r3
 281 0008 00D0     		beq	.L16
 282              	.LVL12:
 283              	.L13:
 153:Core/Src/stm32h7xx_hal_msp.c ****   {
 154:Core/Src/stm32h7xx_hal_msp.c ****   /* USER CODE BEGIN SPI1_MspDeInit 0 */
 155:Core/Src/stm32h7xx_hal_msp.c **** 
 156:Core/Src/stm32h7xx_hal_msp.c ****   /* USER CODE END SPI1_MspDeInit 0 */
 157:Core/Src/stm32h7xx_hal_msp.c ****     /* Peripheral clock disable */
 158:Core/Src/stm32h7xx_hal_msp.c ****     __HAL_RCC_SPI1_CLK_DISABLE();
 159:Core/Src/stm32h7xx_hal_msp.c **** 
 160:Core/Src/stm32h7xx_hal_msp.c ****     /**SPI1 GPIO Configuration
 161:Core/Src/stm32h7xx_hal_msp.c ****     PD7     ------> SPI1_MOSI
 162:Core/Src/stm32h7xx_hal_msp.c ****     PG9     ------> SPI1_MISO
 163:Core/Src/stm32h7xx_hal_msp.c ****     PG11     ------> SPI1_SCK
 164:Core/Src/stm32h7xx_hal_msp.c ****     */
 165:Core/Src/stm32h7xx_hal_msp.c ****     HAL_GPIO_DeInit(GPIOD, GPIO_PIN_7);
 166:Core/Src/stm32h7xx_hal_msp.c **** 
 167:Core/Src/stm32h7xx_hal_msp.c ****     HAL_GPIO_DeInit(GPIOG, GPIO_PIN_9|GPIO_PIN_11);
 168:Core/Src/stm32h7xx_hal_msp.c **** 
 169:Core/Src/stm32h7xx_hal_msp.c ****   /* USER CODE BEGIN SPI1_MspDeInit 1 */
 170:Core/Src/stm32h7xx_hal_msp.c **** 
 171:Core/Src/stm32h7xx_hal_msp.c ****   /* USER CODE END SPI1_MspDeInit 1 */
 172:Core/Src/stm32h7xx_hal_msp.c ****   }
 173:Core/Src/stm32h7xx_hal_msp.c **** 
 174:Core/Src/stm32h7xx_hal_msp.c **** }
 284              		.loc 1 174 1 view .LVU73
 285 000a 08BD     		pop	{r3, pc}
 286              	.LVL13:
 287              	.L16:
 158:Core/Src/stm32h7xx_hal_msp.c **** 
 288              		.loc 1 158 5 is_stmt 1 view .LVU74
 289 000c 094A     		ldr	r2, .L17+4
 290 000e D2F8F030 		ldr	r3, [r2, #240]
 291 0012 23F48053 		bic	r3, r3, #4096
 292 0016 C2F8F030 		str	r3, [r2, #240]
 165:Core/Src/stm32h7xx_hal_msp.c **** 
 293              		.loc 1 165 5 view .LVU75
 294 001a 8021     		movs	r1, #128
ARM GAS  /tmp/cct3MTCB.s 			page 10


 295 001c 0648     		ldr	r0, .L17+8
 296              	.LVL14:
 165:Core/Src/stm32h7xx_hal_msp.c **** 
 297              		.loc 1 165 5 is_stmt 0 view .LVU76
 298 001e FFF7FEFF 		bl	HAL_GPIO_DeInit
 299              	.LVL15:
 167:Core/Src/stm32h7xx_hal_msp.c **** 
 300              		.loc 1 167 5 is_stmt 1 view .LVU77
 301 0022 4FF42061 		mov	r1, #2560
 302 0026 0548     		ldr	r0, .L17+12
 303 0028 FFF7FEFF 		bl	HAL_GPIO_DeInit
 304              	.LVL16:
 305              		.loc 1 174 1 is_stmt 0 view .LVU78
 306 002c EDE7     		b	.L13
 307              	.L18:
 308 002e 00BF     		.align	2
 309              	.L17:
 310 0030 00300140 		.word	1073819648
 311 0034 00440258 		.word	1476543488
 312 0038 000C0258 		.word	1476529152
 313 003c 00180258 		.word	1476532224
 314              		.cfi_endproc
 315              	.LFE146:
 317              		.section	.text.HAL_UART_MspInit,"ax",%progbits
 318              		.align	1
 319              		.global	HAL_UART_MspInit
 320              		.syntax unified
 321              		.thumb
 322              		.thumb_func
 323              		.fpu fpv5-d16
 325              	HAL_UART_MspInit:
 326              	.LVL17:
 327              	.LFB147:
 175:Core/Src/stm32h7xx_hal_msp.c **** 
 176:Core/Src/stm32h7xx_hal_msp.c **** /**
 177:Core/Src/stm32h7xx_hal_msp.c **** * @brief UART MSP Initialization
 178:Core/Src/stm32h7xx_hal_msp.c **** * This function configures the hardware resources used in this example
 179:Core/Src/stm32h7xx_hal_msp.c **** * @param huart: UART handle pointer
 180:Core/Src/stm32h7xx_hal_msp.c **** * @retval None
 181:Core/Src/stm32h7xx_hal_msp.c **** */
 182:Core/Src/stm32h7xx_hal_msp.c **** void HAL_UART_MspInit(UART_HandleTypeDef* huart)
 183:Core/Src/stm32h7xx_hal_msp.c **** {
 328              		.loc 1 183 1 is_stmt 1 view -0
 329              		.cfi_startproc
 330              		@ args = 0, pretend = 0, frame = 240
 331              		@ frame_needed = 0, uses_anonymous_args = 0
 332              		.loc 1 183 1 is_stmt 0 view .LVU80
 333 0000 F0B5     		push	{r4, r5, r6, r7, lr}
 334              	.LCFI7:
 335              		.cfi_def_cfa_offset 20
 336              		.cfi_offset 4, -20
 337              		.cfi_offset 5, -16
 338              		.cfi_offset 6, -12
 339              		.cfi_offset 7, -8
 340              		.cfi_offset 14, -4
 341 0002 BDB0     		sub	sp, sp, #244
 342              	.LCFI8:
ARM GAS  /tmp/cct3MTCB.s 			page 11


 343              		.cfi_def_cfa_offset 264
 344 0004 0446     		mov	r4, r0
 184:Core/Src/stm32h7xx_hal_msp.c ****   GPIO_InitTypeDef GPIO_InitStruct = {0};
 345              		.loc 1 184 3 is_stmt 1 view .LVU81
 346              		.loc 1 184 20 is_stmt 0 view .LVU82
 347 0006 0021     		movs	r1, #0
 348 0008 3791     		str	r1, [sp, #220]
 349 000a 3891     		str	r1, [sp, #224]
 350 000c 3991     		str	r1, [sp, #228]
 351 000e 3A91     		str	r1, [sp, #232]
 352 0010 3B91     		str	r1, [sp, #236]
 185:Core/Src/stm32h7xx_hal_msp.c ****   RCC_PeriphCLKInitTypeDef PeriphClkInitStruct = {0};
 353              		.loc 1 185 3 is_stmt 1 view .LVU83
 354              		.loc 1 185 28 is_stmt 0 view .LVU84
 355 0012 B822     		movs	r2, #184
 356 0014 08A8     		add	r0, sp, #32
 357              	.LVL18:
 358              		.loc 1 185 28 view .LVU85
 359 0016 FFF7FEFF 		bl	memset
 360              	.LVL19:
 186:Core/Src/stm32h7xx_hal_msp.c ****   if(huart->Instance==UART4)
 361              		.loc 1 186 3 is_stmt 1 view .LVU86
 362              		.loc 1 186 11 is_stmt 0 view .LVU87
 363 001a 2368     		ldr	r3, [r4]
 364              		.loc 1 186 5 view .LVU88
 365 001c A94A     		ldr	r2, .L41
 366 001e 9342     		cmp	r3, r2
 367 0020 09D0     		beq	.L31
 187:Core/Src/stm32h7xx_hal_msp.c ****   {
 188:Core/Src/stm32h7xx_hal_msp.c ****   /* USER CODE BEGIN UART4_MspInit 0 */
 189:Core/Src/stm32h7xx_hal_msp.c **** 
 190:Core/Src/stm32h7xx_hal_msp.c ****   /* USER CODE END UART4_MspInit 0 */
 191:Core/Src/stm32h7xx_hal_msp.c **** 
 192:Core/Src/stm32h7xx_hal_msp.c ****   /** Initializes the peripherals clock
 193:Core/Src/stm32h7xx_hal_msp.c ****   */
 194:Core/Src/stm32h7xx_hal_msp.c ****     PeriphClkInitStruct.PeriphClockSelection = RCC_PERIPHCLK_UART4;
 195:Core/Src/stm32h7xx_hal_msp.c ****     PeriphClkInitStruct.Usart234578ClockSelection = RCC_USART234578CLKSOURCE_D2PCLK1;
 196:Core/Src/stm32h7xx_hal_msp.c ****     if (HAL_RCCEx_PeriphCLKConfig(&PeriphClkInitStruct) != HAL_OK)
 197:Core/Src/stm32h7xx_hal_msp.c ****     {
 198:Core/Src/stm32h7xx_hal_msp.c ****       Error_Handler();
 199:Core/Src/stm32h7xx_hal_msp.c ****     }
 200:Core/Src/stm32h7xx_hal_msp.c **** 
 201:Core/Src/stm32h7xx_hal_msp.c ****     /* Peripheral clock enable */
 202:Core/Src/stm32h7xx_hal_msp.c ****     __HAL_RCC_UART4_CLK_ENABLE();
 203:Core/Src/stm32h7xx_hal_msp.c **** 
 204:Core/Src/stm32h7xx_hal_msp.c ****     __HAL_RCC_GPIOC_CLK_ENABLE();
 205:Core/Src/stm32h7xx_hal_msp.c ****     __HAL_RCC_GPIOD_CLK_ENABLE();
 206:Core/Src/stm32h7xx_hal_msp.c ****     /**UART4 GPIO Configuration
 207:Core/Src/stm32h7xx_hal_msp.c ****     PC11     ------> UART4_RX
 208:Core/Src/stm32h7xx_hal_msp.c ****     PD1     ------> UART4_TX
 209:Core/Src/stm32h7xx_hal_msp.c ****     */
 210:Core/Src/stm32h7xx_hal_msp.c ****     GPIO_InitStruct.Pin = GPIO_PIN_11;
 211:Core/Src/stm32h7xx_hal_msp.c ****     GPIO_InitStruct.Mode = GPIO_MODE_AF_PP;
 212:Core/Src/stm32h7xx_hal_msp.c ****     GPIO_InitStruct.Pull = GPIO_NOPULL;
 213:Core/Src/stm32h7xx_hal_msp.c ****     GPIO_InitStruct.Speed = GPIO_SPEED_FREQ_LOW;
 214:Core/Src/stm32h7xx_hal_msp.c ****     GPIO_InitStruct.Alternate = GPIO_AF8_UART4;
 215:Core/Src/stm32h7xx_hal_msp.c ****     HAL_GPIO_Init(GPIOC, &GPIO_InitStruct);
ARM GAS  /tmp/cct3MTCB.s 			page 12


 216:Core/Src/stm32h7xx_hal_msp.c **** 
 217:Core/Src/stm32h7xx_hal_msp.c ****     GPIO_InitStruct.Pin = GPIO_PIN_1;
 218:Core/Src/stm32h7xx_hal_msp.c ****     GPIO_InitStruct.Mode = GPIO_MODE_AF_PP;
 219:Core/Src/stm32h7xx_hal_msp.c ****     GPIO_InitStruct.Pull = GPIO_NOPULL;
 220:Core/Src/stm32h7xx_hal_msp.c ****     GPIO_InitStruct.Speed = GPIO_SPEED_FREQ_LOW;
 221:Core/Src/stm32h7xx_hal_msp.c ****     GPIO_InitStruct.Alternate = GPIO_AF8_UART4;
 222:Core/Src/stm32h7xx_hal_msp.c ****     HAL_GPIO_Init(GPIOD, &GPIO_InitStruct);
 223:Core/Src/stm32h7xx_hal_msp.c **** 
 224:Core/Src/stm32h7xx_hal_msp.c ****     /* UART4 DMA Init */
 225:Core/Src/stm32h7xx_hal_msp.c ****     /* UART4_RX Init */
 226:Core/Src/stm32h7xx_hal_msp.c ****     hdma_uart4_rx.Instance = DMA1_Stream0;
 227:Core/Src/stm32h7xx_hal_msp.c ****     hdma_uart4_rx.Init.Request = DMA_REQUEST_UART4_RX;
 228:Core/Src/stm32h7xx_hal_msp.c ****     hdma_uart4_rx.Init.Direction = DMA_PERIPH_TO_MEMORY;
 229:Core/Src/stm32h7xx_hal_msp.c ****     hdma_uart4_rx.Init.PeriphInc = DMA_PINC_DISABLE;
 230:Core/Src/stm32h7xx_hal_msp.c ****     hdma_uart4_rx.Init.MemInc = DMA_MINC_ENABLE;
 231:Core/Src/stm32h7xx_hal_msp.c ****     hdma_uart4_rx.Init.PeriphDataAlignment = DMA_PDATAALIGN_BYTE;
 232:Core/Src/stm32h7xx_hal_msp.c ****     hdma_uart4_rx.Init.MemDataAlignment = DMA_MDATAALIGN_BYTE;
 233:Core/Src/stm32h7xx_hal_msp.c ****     hdma_uart4_rx.Init.Mode = DMA_CIRCULAR;
 234:Core/Src/stm32h7xx_hal_msp.c ****     hdma_uart4_rx.Init.Priority = DMA_PRIORITY_LOW;
 235:Core/Src/stm32h7xx_hal_msp.c ****     hdma_uart4_rx.Init.FIFOMode = DMA_FIFOMODE_DISABLE;
 236:Core/Src/stm32h7xx_hal_msp.c ****     if (HAL_DMA_Init(&hdma_uart4_rx) != HAL_OK)
 237:Core/Src/stm32h7xx_hal_msp.c ****     {
 238:Core/Src/stm32h7xx_hal_msp.c ****       Error_Handler();
 239:Core/Src/stm32h7xx_hal_msp.c ****     }
 240:Core/Src/stm32h7xx_hal_msp.c **** 
 241:Core/Src/stm32h7xx_hal_msp.c ****     __HAL_LINKDMA(huart,hdmarx,hdma_uart4_rx);
 242:Core/Src/stm32h7xx_hal_msp.c **** 
 243:Core/Src/stm32h7xx_hal_msp.c ****     /* UART4_TX Init */
 244:Core/Src/stm32h7xx_hal_msp.c ****     hdma_uart4_tx.Instance = DMA1_Stream1;
 245:Core/Src/stm32h7xx_hal_msp.c ****     hdma_uart4_tx.Init.Request = DMA_REQUEST_UART4_TX;
 246:Core/Src/stm32h7xx_hal_msp.c ****     hdma_uart4_tx.Init.Direction = DMA_MEMORY_TO_PERIPH;
 247:Core/Src/stm32h7xx_hal_msp.c ****     hdma_uart4_tx.Init.PeriphInc = DMA_PINC_DISABLE;
 248:Core/Src/stm32h7xx_hal_msp.c ****     hdma_uart4_tx.Init.MemInc = DMA_MINC_ENABLE;
 249:Core/Src/stm32h7xx_hal_msp.c ****     hdma_uart4_tx.Init.PeriphDataAlignment = DMA_PDATAALIGN_BYTE;
 250:Core/Src/stm32h7xx_hal_msp.c ****     hdma_uart4_tx.Init.MemDataAlignment = DMA_MDATAALIGN_BYTE;
 251:Core/Src/stm32h7xx_hal_msp.c ****     hdma_uart4_tx.Init.Mode = DMA_NORMAL;
 252:Core/Src/stm32h7xx_hal_msp.c ****     hdma_uart4_tx.Init.Priority = DMA_PRIORITY_LOW;
 253:Core/Src/stm32h7xx_hal_msp.c ****     hdma_uart4_tx.Init.FIFOMode = DMA_FIFOMODE_DISABLE;
 254:Core/Src/stm32h7xx_hal_msp.c ****     if (HAL_DMA_Init(&hdma_uart4_tx) != HAL_OK)
 255:Core/Src/stm32h7xx_hal_msp.c ****     {
 256:Core/Src/stm32h7xx_hal_msp.c ****       Error_Handler();
 257:Core/Src/stm32h7xx_hal_msp.c ****     }
 258:Core/Src/stm32h7xx_hal_msp.c **** 
 259:Core/Src/stm32h7xx_hal_msp.c ****     __HAL_LINKDMA(huart,hdmatx,hdma_uart4_tx);
 260:Core/Src/stm32h7xx_hal_msp.c **** 
 261:Core/Src/stm32h7xx_hal_msp.c ****     /* UART4 interrupt Init */
 262:Core/Src/stm32h7xx_hal_msp.c ****     HAL_NVIC_SetPriority(UART4_IRQn, 5, 0);
 263:Core/Src/stm32h7xx_hal_msp.c ****     HAL_NVIC_EnableIRQ(UART4_IRQn);
 264:Core/Src/stm32h7xx_hal_msp.c ****   /* USER CODE BEGIN UART4_MspInit 1 */
 265:Core/Src/stm32h7xx_hal_msp.c **** 
 266:Core/Src/stm32h7xx_hal_msp.c ****   /* USER CODE END UART4_MspInit 1 */
 267:Core/Src/stm32h7xx_hal_msp.c ****   }
 268:Core/Src/stm32h7xx_hal_msp.c ****   else if(huart->Instance==UART5)
 368              		.loc 1 268 8 is_stmt 1 view .LVU89
 369              		.loc 1 268 10 is_stmt 0 view .LVU90
 370 0022 A94A     		ldr	r2, .L41+4
 371 0024 9342     		cmp	r3, r2
ARM GAS  /tmp/cct3MTCB.s 			page 13


 372 0026 00F08B80 		beq	.L32
 269:Core/Src/stm32h7xx_hal_msp.c ****   {
 270:Core/Src/stm32h7xx_hal_msp.c ****   /* USER CODE BEGIN UART5_MspInit 0 */
 271:Core/Src/stm32h7xx_hal_msp.c **** 
 272:Core/Src/stm32h7xx_hal_msp.c ****   /* USER CODE END UART5_MspInit 0 */
 273:Core/Src/stm32h7xx_hal_msp.c **** 
 274:Core/Src/stm32h7xx_hal_msp.c ****   /** Initializes the peripherals clock
 275:Core/Src/stm32h7xx_hal_msp.c ****   */
 276:Core/Src/stm32h7xx_hal_msp.c ****     PeriphClkInitStruct.PeriphClockSelection = RCC_PERIPHCLK_UART5;
 277:Core/Src/stm32h7xx_hal_msp.c ****     PeriphClkInitStruct.Usart234578ClockSelection = RCC_USART234578CLKSOURCE_D2PCLK1;
 278:Core/Src/stm32h7xx_hal_msp.c ****     if (HAL_RCCEx_PeriphCLKConfig(&PeriphClkInitStruct) != HAL_OK)
 279:Core/Src/stm32h7xx_hal_msp.c ****     {
 280:Core/Src/stm32h7xx_hal_msp.c ****       Error_Handler();
 281:Core/Src/stm32h7xx_hal_msp.c ****     }
 282:Core/Src/stm32h7xx_hal_msp.c **** 
 283:Core/Src/stm32h7xx_hal_msp.c ****     /* Peripheral clock enable */
 284:Core/Src/stm32h7xx_hal_msp.c ****     __HAL_RCC_UART5_CLK_ENABLE();
 285:Core/Src/stm32h7xx_hal_msp.c **** 
 286:Core/Src/stm32h7xx_hal_msp.c ****     __HAL_RCC_GPIOC_CLK_ENABLE();
 287:Core/Src/stm32h7xx_hal_msp.c ****     __HAL_RCC_GPIOD_CLK_ENABLE();
 288:Core/Src/stm32h7xx_hal_msp.c ****     /**UART5 GPIO Configuration
 289:Core/Src/stm32h7xx_hal_msp.c ****     PC12     ------> UART5_TX
 290:Core/Src/stm32h7xx_hal_msp.c ****     PD2     ------> UART5_RX
 291:Core/Src/stm32h7xx_hal_msp.c ****     */
 292:Core/Src/stm32h7xx_hal_msp.c ****     GPIO_InitStruct.Pin = GPIO_PIN_12;
 293:Core/Src/stm32h7xx_hal_msp.c ****     GPIO_InitStruct.Mode = GPIO_MODE_AF_PP;
 294:Core/Src/stm32h7xx_hal_msp.c ****     GPIO_InitStruct.Pull = GPIO_NOPULL;
 295:Core/Src/stm32h7xx_hal_msp.c ****     GPIO_InitStruct.Speed = GPIO_SPEED_FREQ_LOW;
 296:Core/Src/stm32h7xx_hal_msp.c ****     GPIO_InitStruct.Alternate = GPIO_AF8_UART5;
 297:Core/Src/stm32h7xx_hal_msp.c ****     HAL_GPIO_Init(GPIOC, &GPIO_InitStruct);
 298:Core/Src/stm32h7xx_hal_msp.c **** 
 299:Core/Src/stm32h7xx_hal_msp.c ****     GPIO_InitStruct.Pin = GPIO_PIN_2;
 300:Core/Src/stm32h7xx_hal_msp.c ****     GPIO_InitStruct.Mode = GPIO_MODE_AF_PP;
 301:Core/Src/stm32h7xx_hal_msp.c ****     GPIO_InitStruct.Pull = GPIO_NOPULL;
 302:Core/Src/stm32h7xx_hal_msp.c ****     GPIO_InitStruct.Speed = GPIO_SPEED_FREQ_LOW;
 303:Core/Src/stm32h7xx_hal_msp.c ****     GPIO_InitStruct.Alternate = GPIO_AF8_UART5;
 304:Core/Src/stm32h7xx_hal_msp.c ****     HAL_GPIO_Init(GPIOD, &GPIO_InitStruct);
 305:Core/Src/stm32h7xx_hal_msp.c **** 
 306:Core/Src/stm32h7xx_hal_msp.c ****     /* UART5 DMA Init */
 307:Core/Src/stm32h7xx_hal_msp.c ****     /* UART5_RX Init */
 308:Core/Src/stm32h7xx_hal_msp.c ****     hdma_uart5_rx.Instance = DMA1_Stream2;
 309:Core/Src/stm32h7xx_hal_msp.c ****     hdma_uart5_rx.Init.Request = DMA_REQUEST_UART5_RX;
 310:Core/Src/stm32h7xx_hal_msp.c ****     hdma_uart5_rx.Init.Direction = DMA_PERIPH_TO_MEMORY;
 311:Core/Src/stm32h7xx_hal_msp.c ****     hdma_uart5_rx.Init.PeriphInc = DMA_PINC_DISABLE;
 312:Core/Src/stm32h7xx_hal_msp.c ****     hdma_uart5_rx.Init.MemInc = DMA_MINC_ENABLE;
 313:Core/Src/stm32h7xx_hal_msp.c ****     hdma_uart5_rx.Init.PeriphDataAlignment = DMA_PDATAALIGN_BYTE;
 314:Core/Src/stm32h7xx_hal_msp.c ****     hdma_uart5_rx.Init.MemDataAlignment = DMA_MDATAALIGN_BYTE;
 315:Core/Src/stm32h7xx_hal_msp.c ****     hdma_uart5_rx.Init.Mode = DMA_CIRCULAR;
 316:Core/Src/stm32h7xx_hal_msp.c ****     hdma_uart5_rx.Init.Priority = DMA_PRIORITY_LOW;
 317:Core/Src/stm32h7xx_hal_msp.c ****     hdma_uart5_rx.Init.FIFOMode = DMA_FIFOMODE_DISABLE;
 318:Core/Src/stm32h7xx_hal_msp.c ****     if (HAL_DMA_Init(&hdma_uart5_rx) != HAL_OK)
 319:Core/Src/stm32h7xx_hal_msp.c ****     {
 320:Core/Src/stm32h7xx_hal_msp.c ****       Error_Handler();
 321:Core/Src/stm32h7xx_hal_msp.c ****     }
 322:Core/Src/stm32h7xx_hal_msp.c **** 
 323:Core/Src/stm32h7xx_hal_msp.c ****     __HAL_LINKDMA(huart,hdmarx,hdma_uart5_rx);
 324:Core/Src/stm32h7xx_hal_msp.c **** 
ARM GAS  /tmp/cct3MTCB.s 			page 14


 325:Core/Src/stm32h7xx_hal_msp.c ****     /* UART5_TX Init */
 326:Core/Src/stm32h7xx_hal_msp.c ****     hdma_uart5_tx.Instance = DMA1_Stream3;
 327:Core/Src/stm32h7xx_hal_msp.c ****     hdma_uart5_tx.Init.Request = DMA_REQUEST_UART5_TX;
 328:Core/Src/stm32h7xx_hal_msp.c ****     hdma_uart5_tx.Init.Direction = DMA_MEMORY_TO_PERIPH;
 329:Core/Src/stm32h7xx_hal_msp.c ****     hdma_uart5_tx.Init.PeriphInc = DMA_PINC_DISABLE;
 330:Core/Src/stm32h7xx_hal_msp.c ****     hdma_uart5_tx.Init.MemInc = DMA_MINC_ENABLE;
 331:Core/Src/stm32h7xx_hal_msp.c ****     hdma_uart5_tx.Init.PeriphDataAlignment = DMA_PDATAALIGN_BYTE;
 332:Core/Src/stm32h7xx_hal_msp.c ****     hdma_uart5_tx.Init.MemDataAlignment = DMA_MDATAALIGN_BYTE;
 333:Core/Src/stm32h7xx_hal_msp.c ****     hdma_uart5_tx.Init.Mode = DMA_NORMAL;
 334:Core/Src/stm32h7xx_hal_msp.c ****     hdma_uart5_tx.Init.Priority = DMA_PRIORITY_LOW;
 335:Core/Src/stm32h7xx_hal_msp.c ****     hdma_uart5_tx.Init.FIFOMode = DMA_FIFOMODE_DISABLE;
 336:Core/Src/stm32h7xx_hal_msp.c ****     if (HAL_DMA_Init(&hdma_uart5_tx) != HAL_OK)
 337:Core/Src/stm32h7xx_hal_msp.c ****     {
 338:Core/Src/stm32h7xx_hal_msp.c ****       Error_Handler();
 339:Core/Src/stm32h7xx_hal_msp.c ****     }
 340:Core/Src/stm32h7xx_hal_msp.c **** 
 341:Core/Src/stm32h7xx_hal_msp.c ****     __HAL_LINKDMA(huart,hdmatx,hdma_uart5_tx);
 342:Core/Src/stm32h7xx_hal_msp.c **** 
 343:Core/Src/stm32h7xx_hal_msp.c ****     /* UART5 interrupt Init */
 344:Core/Src/stm32h7xx_hal_msp.c ****     HAL_NVIC_SetPriority(UART5_IRQn, 5, 0);
 345:Core/Src/stm32h7xx_hal_msp.c ****     HAL_NVIC_EnableIRQ(UART5_IRQn);
 346:Core/Src/stm32h7xx_hal_msp.c ****   /* USER CODE BEGIN UART5_MspInit 1 */
 347:Core/Src/stm32h7xx_hal_msp.c **** 
 348:Core/Src/stm32h7xx_hal_msp.c ****   /* USER CODE END UART5_MspInit 1 */
 349:Core/Src/stm32h7xx_hal_msp.c ****   }
 350:Core/Src/stm32h7xx_hal_msp.c ****   else if(huart->Instance==USART2)
 373              		.loc 1 350 8 is_stmt 1 view .LVU91
 374              		.loc 1 350 10 is_stmt 0 view .LVU92
 375 002a A84A     		ldr	r2, .L41+8
 376 002c 9342     		cmp	r3, r2
 377 002e 00F00E81 		beq	.L33
 378              	.LVL20:
 379              	.L19:
 351:Core/Src/stm32h7xx_hal_msp.c ****   {
 352:Core/Src/stm32h7xx_hal_msp.c ****   /* USER CODE BEGIN USART2_MspInit 0 */
 353:Core/Src/stm32h7xx_hal_msp.c **** 
 354:Core/Src/stm32h7xx_hal_msp.c ****   /* USER CODE END USART2_MspInit 0 */
 355:Core/Src/stm32h7xx_hal_msp.c **** 
 356:Core/Src/stm32h7xx_hal_msp.c ****   /** Initializes the peripherals clock
 357:Core/Src/stm32h7xx_hal_msp.c ****   */
 358:Core/Src/stm32h7xx_hal_msp.c ****     PeriphClkInitStruct.PeriphClockSelection = RCC_PERIPHCLK_USART2;
 359:Core/Src/stm32h7xx_hal_msp.c ****     PeriphClkInitStruct.Usart234578ClockSelection = RCC_USART234578CLKSOURCE_D2PCLK1;
 360:Core/Src/stm32h7xx_hal_msp.c ****     if (HAL_RCCEx_PeriphCLKConfig(&PeriphClkInitStruct) != HAL_OK)
 361:Core/Src/stm32h7xx_hal_msp.c ****     {
 362:Core/Src/stm32h7xx_hal_msp.c ****       Error_Handler();
 363:Core/Src/stm32h7xx_hal_msp.c ****     }
 364:Core/Src/stm32h7xx_hal_msp.c **** 
 365:Core/Src/stm32h7xx_hal_msp.c ****     /* Peripheral clock enable */
 366:Core/Src/stm32h7xx_hal_msp.c ****     __HAL_RCC_USART2_CLK_ENABLE();
 367:Core/Src/stm32h7xx_hal_msp.c **** 
 368:Core/Src/stm32h7xx_hal_msp.c ****     __HAL_RCC_GPIOD_CLK_ENABLE();
 369:Core/Src/stm32h7xx_hal_msp.c ****     /**USART2 GPIO Configuration
 370:Core/Src/stm32h7xx_hal_msp.c ****     PD5     ------> USART2_TX
 371:Core/Src/stm32h7xx_hal_msp.c ****     PD6     ------> USART2_RX
 372:Core/Src/stm32h7xx_hal_msp.c ****     */
 373:Core/Src/stm32h7xx_hal_msp.c ****     GPIO_InitStruct.Pin = GPIO_PIN_5|GPIO_PIN_6;
 374:Core/Src/stm32h7xx_hal_msp.c ****     GPIO_InitStruct.Mode = GPIO_MODE_AF_PP;
ARM GAS  /tmp/cct3MTCB.s 			page 15


 375:Core/Src/stm32h7xx_hal_msp.c ****     GPIO_InitStruct.Pull = GPIO_NOPULL;
 376:Core/Src/stm32h7xx_hal_msp.c ****     GPIO_InitStruct.Speed = GPIO_SPEED_FREQ_LOW;
 377:Core/Src/stm32h7xx_hal_msp.c ****     GPIO_InitStruct.Alternate = GPIO_AF7_USART2;
 378:Core/Src/stm32h7xx_hal_msp.c ****     HAL_GPIO_Init(GPIOD, &GPIO_InitStruct);
 379:Core/Src/stm32h7xx_hal_msp.c **** 
 380:Core/Src/stm32h7xx_hal_msp.c ****     /* USART2 interrupt Init */
 381:Core/Src/stm32h7xx_hal_msp.c ****     HAL_NVIC_SetPriority(USART2_IRQn, 5, 0);
 382:Core/Src/stm32h7xx_hal_msp.c ****     HAL_NVIC_EnableIRQ(USART2_IRQn);
 383:Core/Src/stm32h7xx_hal_msp.c ****   /* USER CODE BEGIN USART2_MspInit 1 */
 384:Core/Src/stm32h7xx_hal_msp.c **** 
 385:Core/Src/stm32h7xx_hal_msp.c ****   /* USER CODE END USART2_MspInit 1 */
 386:Core/Src/stm32h7xx_hal_msp.c ****   }
 387:Core/Src/stm32h7xx_hal_msp.c **** 
 388:Core/Src/stm32h7xx_hal_msp.c **** }
 380              		.loc 1 388 1 view .LVU93
 381 0032 3DB0     		add	sp, sp, #244
 382              	.LCFI9:
 383              		.cfi_remember_state
 384              		.cfi_def_cfa_offset 20
 385              		@ sp needed
 386 0034 F0BD     		pop	{r4, r5, r6, r7, pc}
 387              	.LVL21:
 388              	.L31:
 389              	.LCFI10:
 390              		.cfi_restore_state
 194:Core/Src/stm32h7xx_hal_msp.c ****     PeriphClkInitStruct.Usart234578ClockSelection = RCC_USART234578CLKSOURCE_D2PCLK1;
 391              		.loc 1 194 5 is_stmt 1 view .LVU94
 194:Core/Src/stm32h7xx_hal_msp.c ****     PeriphClkInitStruct.Usart234578ClockSelection = RCC_USART234578CLKSOURCE_D2PCLK1;
 392              		.loc 1 194 46 is_stmt 0 view .LVU95
 393 0036 0222     		movs	r2, #2
 394 0038 0023     		movs	r3, #0
 395 003a CDE90823 		strd	r2, [sp, #32]
 195:Core/Src/stm32h7xx_hal_msp.c ****     if (HAL_RCCEx_PeriphCLKConfig(&PeriphClkInitStruct) != HAL_OK)
 396              		.loc 1 195 5 is_stmt 1 view .LVU96
 196:Core/Src/stm32h7xx_hal_msp.c ****     {
 397              		.loc 1 196 5 view .LVU97
 196:Core/Src/stm32h7xx_hal_msp.c ****     {
 398              		.loc 1 196 9 is_stmt 0 view .LVU98
 399 003e 08A8     		add	r0, sp, #32
 400 0040 FFF7FEFF 		bl	HAL_RCCEx_PeriphCLKConfig
 401              	.LVL22:
 196:Core/Src/stm32h7xx_hal_msp.c ****     {
 402              		.loc 1 196 8 view .LVU99
 403 0044 0028     		cmp	r0, #0
 404 0046 72D1     		bne	.L34
 405              	.L21:
 202:Core/Src/stm32h7xx_hal_msp.c **** 
 406              		.loc 1 202 5 is_stmt 1 view .LVU100
 407              	.LBB6:
 202:Core/Src/stm32h7xx_hal_msp.c **** 
 408              		.loc 1 202 5 view .LVU101
 202:Core/Src/stm32h7xx_hal_msp.c **** 
 409              		.loc 1 202 5 view .LVU102
 410 0048 A14B     		ldr	r3, .L41+12
 411 004a D3F8E820 		ldr	r2, [r3, #232]
 412 004e 42F40022 		orr	r2, r2, #524288
 413 0052 C3F8E820 		str	r2, [r3, #232]
ARM GAS  /tmp/cct3MTCB.s 			page 16


 202:Core/Src/stm32h7xx_hal_msp.c **** 
 414              		.loc 1 202 5 view .LVU103
 415 0056 D3F8E820 		ldr	r2, [r3, #232]
 416 005a 02F40022 		and	r2, r2, #524288
 417 005e 0092     		str	r2, [sp]
 202:Core/Src/stm32h7xx_hal_msp.c **** 
 418              		.loc 1 202 5 view .LVU104
 419 0060 009A     		ldr	r2, [sp]
 420              	.LBE6:
 202:Core/Src/stm32h7xx_hal_msp.c **** 
 421              		.loc 1 202 5 view .LVU105
 204:Core/Src/stm32h7xx_hal_msp.c ****     __HAL_RCC_GPIOD_CLK_ENABLE();
 422              		.loc 1 204 5 view .LVU106
 423              	.LBB7:
 204:Core/Src/stm32h7xx_hal_msp.c ****     __HAL_RCC_GPIOD_CLK_ENABLE();
 424              		.loc 1 204 5 view .LVU107
 204:Core/Src/stm32h7xx_hal_msp.c ****     __HAL_RCC_GPIOD_CLK_ENABLE();
 425              		.loc 1 204 5 view .LVU108
 426 0062 D3F8E020 		ldr	r2, [r3, #224]
 427 0066 42F00402 		orr	r2, r2, #4
 428 006a C3F8E020 		str	r2, [r3, #224]
 204:Core/Src/stm32h7xx_hal_msp.c ****     __HAL_RCC_GPIOD_CLK_ENABLE();
 429              		.loc 1 204 5 view .LVU109
 430 006e D3F8E020 		ldr	r2, [r3, #224]
 431 0072 02F00402 		and	r2, r2, #4
 432 0076 0192     		str	r2, [sp, #4]
 204:Core/Src/stm32h7xx_hal_msp.c ****     __HAL_RCC_GPIOD_CLK_ENABLE();
 433              		.loc 1 204 5 view .LVU110
 434 0078 019A     		ldr	r2, [sp, #4]
 435              	.LBE7:
 204:Core/Src/stm32h7xx_hal_msp.c ****     __HAL_RCC_GPIOD_CLK_ENABLE();
 436              		.loc 1 204 5 view .LVU111
 205:Core/Src/stm32h7xx_hal_msp.c ****     /**UART4 GPIO Configuration
 437              		.loc 1 205 5 view .LVU112
 438              	.LBB8:
 205:Core/Src/stm32h7xx_hal_msp.c ****     /**UART4 GPIO Configuration
 439              		.loc 1 205 5 view .LVU113
 205:Core/Src/stm32h7xx_hal_msp.c ****     /**UART4 GPIO Configuration
 440              		.loc 1 205 5 view .LVU114
 441 007a D3F8E020 		ldr	r2, [r3, #224]
 442 007e 42F00802 		orr	r2, r2, #8
 443 0082 C3F8E020 		str	r2, [r3, #224]
 205:Core/Src/stm32h7xx_hal_msp.c ****     /**UART4 GPIO Configuration
 444              		.loc 1 205 5 view .LVU115
 445 0086 D3F8E030 		ldr	r3, [r3, #224]
 446 008a 03F00803 		and	r3, r3, #8
 447 008e 0293     		str	r3, [sp, #8]
 205:Core/Src/stm32h7xx_hal_msp.c ****     /**UART4 GPIO Configuration
 448              		.loc 1 205 5 view .LVU116
 449 0090 029B     		ldr	r3, [sp, #8]
 450              	.LBE8:
 205:Core/Src/stm32h7xx_hal_msp.c ****     /**UART4 GPIO Configuration
 451              		.loc 1 205 5 view .LVU117
 210:Core/Src/stm32h7xx_hal_msp.c ****     GPIO_InitStruct.Mode = GPIO_MODE_AF_PP;
 452              		.loc 1 210 5 view .LVU118
 210:Core/Src/stm32h7xx_hal_msp.c ****     GPIO_InitStruct.Mode = GPIO_MODE_AF_PP;
 453              		.loc 1 210 25 is_stmt 0 view .LVU119
ARM GAS  /tmp/cct3MTCB.s 			page 17


 454 0092 4FF40063 		mov	r3, #2048
 455 0096 3793     		str	r3, [sp, #220]
 211:Core/Src/stm32h7xx_hal_msp.c ****     GPIO_InitStruct.Pull = GPIO_NOPULL;
 456              		.loc 1 211 5 is_stmt 1 view .LVU120
 211:Core/Src/stm32h7xx_hal_msp.c ****     GPIO_InitStruct.Pull = GPIO_NOPULL;
 457              		.loc 1 211 26 is_stmt 0 view .LVU121
 458 0098 0226     		movs	r6, #2
 459 009a 3896     		str	r6, [sp, #224]
 212:Core/Src/stm32h7xx_hal_msp.c ****     GPIO_InitStruct.Speed = GPIO_SPEED_FREQ_LOW;
 460              		.loc 1 212 5 is_stmt 1 view .LVU122
 212:Core/Src/stm32h7xx_hal_msp.c ****     GPIO_InitStruct.Speed = GPIO_SPEED_FREQ_LOW;
 461              		.loc 1 212 26 is_stmt 0 view .LVU123
 462 009c 0025     		movs	r5, #0
 463 009e 3995     		str	r5, [sp, #228]
 213:Core/Src/stm32h7xx_hal_msp.c ****     GPIO_InitStruct.Alternate = GPIO_AF8_UART4;
 464              		.loc 1 213 5 is_stmt 1 view .LVU124
 213:Core/Src/stm32h7xx_hal_msp.c ****     GPIO_InitStruct.Alternate = GPIO_AF8_UART4;
 465              		.loc 1 213 27 is_stmt 0 view .LVU125
 466 00a0 3A95     		str	r5, [sp, #232]
 214:Core/Src/stm32h7xx_hal_msp.c ****     HAL_GPIO_Init(GPIOC, &GPIO_InitStruct);
 467              		.loc 1 214 5 is_stmt 1 view .LVU126
 214:Core/Src/stm32h7xx_hal_msp.c ****     HAL_GPIO_Init(GPIOC, &GPIO_InitStruct);
 468              		.loc 1 214 31 is_stmt 0 view .LVU127
 469 00a2 0827     		movs	r7, #8
 470 00a4 3B97     		str	r7, [sp, #236]
 215:Core/Src/stm32h7xx_hal_msp.c **** 
 471              		.loc 1 215 5 is_stmt 1 view .LVU128
 472 00a6 37A9     		add	r1, sp, #220
 473 00a8 8A48     		ldr	r0, .L41+16
 474 00aa FFF7FEFF 		bl	HAL_GPIO_Init
 475              	.LVL23:
 217:Core/Src/stm32h7xx_hal_msp.c ****     GPIO_InitStruct.Mode = GPIO_MODE_AF_PP;
 476              		.loc 1 217 5 view .LVU129
 217:Core/Src/stm32h7xx_hal_msp.c ****     GPIO_InitStruct.Mode = GPIO_MODE_AF_PP;
 477              		.loc 1 217 25 is_stmt 0 view .LVU130
 478 00ae 3796     		str	r6, [sp, #220]
 218:Core/Src/stm32h7xx_hal_msp.c ****     GPIO_InitStruct.Pull = GPIO_NOPULL;
 479              		.loc 1 218 5 is_stmt 1 view .LVU131
 218:Core/Src/stm32h7xx_hal_msp.c ****     GPIO_InitStruct.Pull = GPIO_NOPULL;
 480              		.loc 1 218 26 is_stmt 0 view .LVU132
 481 00b0 3896     		str	r6, [sp, #224]
 219:Core/Src/stm32h7xx_hal_msp.c ****     GPIO_InitStruct.Speed = GPIO_SPEED_FREQ_LOW;
 482              		.loc 1 219 5 is_stmt 1 view .LVU133
 219:Core/Src/stm32h7xx_hal_msp.c ****     GPIO_InitStruct.Speed = GPIO_SPEED_FREQ_LOW;
 483              		.loc 1 219 26 is_stmt 0 view .LVU134
 484 00b2 3995     		str	r5, [sp, #228]
 220:Core/Src/stm32h7xx_hal_msp.c ****     GPIO_InitStruct.Alternate = GPIO_AF8_UART4;
 485              		.loc 1 220 5 is_stmt 1 view .LVU135
 220:Core/Src/stm32h7xx_hal_msp.c ****     GPIO_InitStruct.Alternate = GPIO_AF8_UART4;
 486              		.loc 1 220 27 is_stmt 0 view .LVU136
 487 00b4 3A95     		str	r5, [sp, #232]
 221:Core/Src/stm32h7xx_hal_msp.c ****     HAL_GPIO_Init(GPIOD, &GPIO_InitStruct);
 488              		.loc 1 221 5 is_stmt 1 view .LVU137
 221:Core/Src/stm32h7xx_hal_msp.c ****     HAL_GPIO_Init(GPIOD, &GPIO_InitStruct);
 489              		.loc 1 221 31 is_stmt 0 view .LVU138
 490 00b6 3B97     		str	r7, [sp, #236]
 222:Core/Src/stm32h7xx_hal_msp.c **** 
ARM GAS  /tmp/cct3MTCB.s 			page 18


 491              		.loc 1 222 5 is_stmt 1 view .LVU139
 492 00b8 37A9     		add	r1, sp, #220
 493 00ba 8748     		ldr	r0, .L41+20
 494 00bc FFF7FEFF 		bl	HAL_GPIO_Init
 495              	.LVL24:
 226:Core/Src/stm32h7xx_hal_msp.c ****     hdma_uart4_rx.Init.Request = DMA_REQUEST_UART4_RX;
 496              		.loc 1 226 5 view .LVU140
 226:Core/Src/stm32h7xx_hal_msp.c ****     hdma_uart4_rx.Init.Request = DMA_REQUEST_UART4_RX;
 497              		.loc 1 226 28 is_stmt 0 view .LVU141
 498 00c0 8648     		ldr	r0, .L41+24
 499 00c2 874B     		ldr	r3, .L41+28
 500 00c4 0360     		str	r3, [r0]
 227:Core/Src/stm32h7xx_hal_msp.c ****     hdma_uart4_rx.Init.Direction = DMA_PERIPH_TO_MEMORY;
 501              		.loc 1 227 5 is_stmt 1 view .LVU142
 227:Core/Src/stm32h7xx_hal_msp.c ****     hdma_uart4_rx.Init.Direction = DMA_PERIPH_TO_MEMORY;
 502              		.loc 1 227 32 is_stmt 0 view .LVU143
 503 00c6 3F23     		movs	r3, #63
 504 00c8 4360     		str	r3, [r0, #4]
 228:Core/Src/stm32h7xx_hal_msp.c ****     hdma_uart4_rx.Init.PeriphInc = DMA_PINC_DISABLE;
 505              		.loc 1 228 5 is_stmt 1 view .LVU144
 228:Core/Src/stm32h7xx_hal_msp.c ****     hdma_uart4_rx.Init.PeriphInc = DMA_PINC_DISABLE;
 506              		.loc 1 228 34 is_stmt 0 view .LVU145
 507 00ca 8560     		str	r5, [r0, #8]
 229:Core/Src/stm32h7xx_hal_msp.c ****     hdma_uart4_rx.Init.MemInc = DMA_MINC_ENABLE;
 508              		.loc 1 229 5 is_stmt 1 view .LVU146
 229:Core/Src/stm32h7xx_hal_msp.c ****     hdma_uart4_rx.Init.MemInc = DMA_MINC_ENABLE;
 509              		.loc 1 229 34 is_stmt 0 view .LVU147
 510 00cc C560     		str	r5, [r0, #12]
 230:Core/Src/stm32h7xx_hal_msp.c ****     hdma_uart4_rx.Init.PeriphDataAlignment = DMA_PDATAALIGN_BYTE;
 511              		.loc 1 230 5 is_stmt 1 view .LVU148
 230:Core/Src/stm32h7xx_hal_msp.c ****     hdma_uart4_rx.Init.PeriphDataAlignment = DMA_PDATAALIGN_BYTE;
 512              		.loc 1 230 31 is_stmt 0 view .LVU149
 513 00ce 4FF48063 		mov	r3, #1024
 514 00d2 0361     		str	r3, [r0, #16]
 231:Core/Src/stm32h7xx_hal_msp.c ****     hdma_uart4_rx.Init.MemDataAlignment = DMA_MDATAALIGN_BYTE;
 515              		.loc 1 231 5 is_stmt 1 view .LVU150
 231:Core/Src/stm32h7xx_hal_msp.c ****     hdma_uart4_rx.Init.MemDataAlignment = DMA_MDATAALIGN_BYTE;
 516              		.loc 1 231 44 is_stmt 0 view .LVU151
 517 00d4 4561     		str	r5, [r0, #20]
 232:Core/Src/stm32h7xx_hal_msp.c ****     hdma_uart4_rx.Init.Mode = DMA_CIRCULAR;
 518              		.loc 1 232 5 is_stmt 1 view .LVU152
 232:Core/Src/stm32h7xx_hal_msp.c ****     hdma_uart4_rx.Init.Mode = DMA_CIRCULAR;
 519              		.loc 1 232 41 is_stmt 0 view .LVU153
 520 00d6 8561     		str	r5, [r0, #24]
 233:Core/Src/stm32h7xx_hal_msp.c ****     hdma_uart4_rx.Init.Priority = DMA_PRIORITY_LOW;
 521              		.loc 1 233 5 is_stmt 1 view .LVU154
 233:Core/Src/stm32h7xx_hal_msp.c ****     hdma_uart4_rx.Init.Priority = DMA_PRIORITY_LOW;
 522              		.loc 1 233 29 is_stmt 0 view .LVU155
 523 00d8 4FF48073 		mov	r3, #256
 524 00dc C361     		str	r3, [r0, #28]
 234:Core/Src/stm32h7xx_hal_msp.c ****     hdma_uart4_rx.Init.FIFOMode = DMA_FIFOMODE_DISABLE;
 525              		.loc 1 234 5 is_stmt 1 view .LVU156
 234:Core/Src/stm32h7xx_hal_msp.c ****     hdma_uart4_rx.Init.FIFOMode = DMA_FIFOMODE_DISABLE;
 526              		.loc 1 234 33 is_stmt 0 view .LVU157
 527 00de 0562     		str	r5, [r0, #32]
 235:Core/Src/stm32h7xx_hal_msp.c ****     if (HAL_DMA_Init(&hdma_uart4_rx) != HAL_OK)
 528              		.loc 1 235 5 is_stmt 1 view .LVU158
ARM GAS  /tmp/cct3MTCB.s 			page 19


 235:Core/Src/stm32h7xx_hal_msp.c ****     if (HAL_DMA_Init(&hdma_uart4_rx) != HAL_OK)
 529              		.loc 1 235 33 is_stmt 0 view .LVU159
 530 00e0 4562     		str	r5, [r0, #36]
 236:Core/Src/stm32h7xx_hal_msp.c ****     {
 531              		.loc 1 236 5 is_stmt 1 view .LVU160
 236:Core/Src/stm32h7xx_hal_msp.c ****     {
 532              		.loc 1 236 9 is_stmt 0 view .LVU161
 533 00e2 FFF7FEFF 		bl	HAL_DMA_Init
 534              	.LVL25:
 236:Core/Src/stm32h7xx_hal_msp.c ****     {
 535              		.loc 1 236 8 view .LVU162
 536 00e6 28BB     		cbnz	r0, .L35
 537              	.L22:
 241:Core/Src/stm32h7xx_hal_msp.c **** 
 538              		.loc 1 241 5 is_stmt 1 view .LVU163
 241:Core/Src/stm32h7xx_hal_msp.c **** 
 539              		.loc 1 241 5 view .LVU164
 540 00e8 7C4B     		ldr	r3, .L41+24
 541 00ea C4F88030 		str	r3, [r4, #128]
 241:Core/Src/stm32h7xx_hal_msp.c **** 
 542              		.loc 1 241 5 view .LVU165
 543 00ee 9C63     		str	r4, [r3, #56]
 241:Core/Src/stm32h7xx_hal_msp.c **** 
 544              		.loc 1 241 5 view .LVU166
 244:Core/Src/stm32h7xx_hal_msp.c ****     hdma_uart4_tx.Init.Request = DMA_REQUEST_UART4_TX;
 545              		.loc 1 244 5 view .LVU167
 244:Core/Src/stm32h7xx_hal_msp.c ****     hdma_uart4_tx.Init.Request = DMA_REQUEST_UART4_TX;
 546              		.loc 1 244 28 is_stmt 0 view .LVU168
 547 00f0 7C48     		ldr	r0, .L41+32
 548 00f2 7D4B     		ldr	r3, .L41+36
 549 00f4 0360     		str	r3, [r0]
 245:Core/Src/stm32h7xx_hal_msp.c ****     hdma_uart4_tx.Init.Direction = DMA_MEMORY_TO_PERIPH;
 550              		.loc 1 245 5 is_stmt 1 view .LVU169
 245:Core/Src/stm32h7xx_hal_msp.c ****     hdma_uart4_tx.Init.Direction = DMA_MEMORY_TO_PERIPH;
 551              		.loc 1 245 32 is_stmt 0 view .LVU170
 552 00f6 4023     		movs	r3, #64
 553 00f8 4360     		str	r3, [r0, #4]
 246:Core/Src/stm32h7xx_hal_msp.c ****     hdma_uart4_tx.Init.PeriphInc = DMA_PINC_DISABLE;
 554              		.loc 1 246 5 is_stmt 1 view .LVU171
 246:Core/Src/stm32h7xx_hal_msp.c ****     hdma_uart4_tx.Init.PeriphInc = DMA_PINC_DISABLE;
 555              		.loc 1 246 34 is_stmt 0 view .LVU172
 556 00fa 8360     		str	r3, [r0, #8]
 247:Core/Src/stm32h7xx_hal_msp.c ****     hdma_uart4_tx.Init.MemInc = DMA_MINC_ENABLE;
 557              		.loc 1 247 5 is_stmt 1 view .LVU173
 247:Core/Src/stm32h7xx_hal_msp.c ****     hdma_uart4_tx.Init.MemInc = DMA_MINC_ENABLE;
 558              		.loc 1 247 34 is_stmt 0 view .LVU174
 559 00fc 0023     		movs	r3, #0
 560 00fe C360     		str	r3, [r0, #12]
 248:Core/Src/stm32h7xx_hal_msp.c ****     hdma_uart4_tx.Init.PeriphDataAlignment = DMA_PDATAALIGN_BYTE;
 561              		.loc 1 248 5 is_stmt 1 view .LVU175
 248:Core/Src/stm32h7xx_hal_msp.c ****     hdma_uart4_tx.Init.PeriphDataAlignment = DMA_PDATAALIGN_BYTE;
 562              		.loc 1 248 31 is_stmt 0 view .LVU176
 563 0100 4FF48062 		mov	r2, #1024
 564 0104 0261     		str	r2, [r0, #16]
 249:Core/Src/stm32h7xx_hal_msp.c ****     hdma_uart4_tx.Init.MemDataAlignment = DMA_MDATAALIGN_BYTE;
 565              		.loc 1 249 5 is_stmt 1 view .LVU177
 249:Core/Src/stm32h7xx_hal_msp.c ****     hdma_uart4_tx.Init.MemDataAlignment = DMA_MDATAALIGN_BYTE;
ARM GAS  /tmp/cct3MTCB.s 			page 20


 566              		.loc 1 249 44 is_stmt 0 view .LVU178
 567 0106 4361     		str	r3, [r0, #20]
 250:Core/Src/stm32h7xx_hal_msp.c ****     hdma_uart4_tx.Init.Mode = DMA_NORMAL;
 568              		.loc 1 250 5 is_stmt 1 view .LVU179
 250:Core/Src/stm32h7xx_hal_msp.c ****     hdma_uart4_tx.Init.Mode = DMA_NORMAL;
 569              		.loc 1 250 41 is_stmt 0 view .LVU180
 570 0108 8361     		str	r3, [r0, #24]
 251:Core/Src/stm32h7xx_hal_msp.c ****     hdma_uart4_tx.Init.Priority = DMA_PRIORITY_LOW;
 571              		.loc 1 251 5 is_stmt 1 view .LVU181
 251:Core/Src/stm32h7xx_hal_msp.c ****     hdma_uart4_tx.Init.Priority = DMA_PRIORITY_LOW;
 572              		.loc 1 251 29 is_stmt 0 view .LVU182
 573 010a C361     		str	r3, [r0, #28]
 252:Core/Src/stm32h7xx_hal_msp.c ****     hdma_uart4_tx.Init.FIFOMode = DMA_FIFOMODE_DISABLE;
 574              		.loc 1 252 5 is_stmt 1 view .LVU183
 252:Core/Src/stm32h7xx_hal_msp.c ****     hdma_uart4_tx.Init.FIFOMode = DMA_FIFOMODE_DISABLE;
 575              		.loc 1 252 33 is_stmt 0 view .LVU184
 576 010c 0362     		str	r3, [r0, #32]
 253:Core/Src/stm32h7xx_hal_msp.c ****     if (HAL_DMA_Init(&hdma_uart4_tx) != HAL_OK)
 577              		.loc 1 253 5 is_stmt 1 view .LVU185
 253:Core/Src/stm32h7xx_hal_msp.c ****     if (HAL_DMA_Init(&hdma_uart4_tx) != HAL_OK)
 578              		.loc 1 253 33 is_stmt 0 view .LVU186
 579 010e 4362     		str	r3, [r0, #36]
 254:Core/Src/stm32h7xx_hal_msp.c ****     {
 580              		.loc 1 254 5 is_stmt 1 view .LVU187
 254:Core/Src/stm32h7xx_hal_msp.c ****     {
 581              		.loc 1 254 9 is_stmt 0 view .LVU188
 582 0110 FFF7FEFF 		bl	HAL_DMA_Init
 583              	.LVL26:
 254:Core/Src/stm32h7xx_hal_msp.c ****     {
 584              		.loc 1 254 8 view .LVU189
 585 0114 88B9     		cbnz	r0, .L36
 586              	.L23:
 259:Core/Src/stm32h7xx_hal_msp.c **** 
 587              		.loc 1 259 5 is_stmt 1 view .LVU190
 259:Core/Src/stm32h7xx_hal_msp.c **** 
 588              		.loc 1 259 5 view .LVU191
 589 0116 734B     		ldr	r3, .L41+32
 590 0118 E367     		str	r3, [r4, #124]
 259:Core/Src/stm32h7xx_hal_msp.c **** 
 591              		.loc 1 259 5 view .LVU192
 592 011a 9C63     		str	r4, [r3, #56]
 259:Core/Src/stm32h7xx_hal_msp.c **** 
 593              		.loc 1 259 5 view .LVU193
 262:Core/Src/stm32h7xx_hal_msp.c ****     HAL_NVIC_EnableIRQ(UART4_IRQn);
 594              		.loc 1 262 5 view .LVU194
 595 011c 0022     		movs	r2, #0
 596 011e 0521     		movs	r1, #5
 597 0120 3420     		movs	r0, #52
 598 0122 FFF7FEFF 		bl	HAL_NVIC_SetPriority
 599              	.LVL27:
 263:Core/Src/stm32h7xx_hal_msp.c ****   /* USER CODE BEGIN UART4_MspInit 1 */
 600              		.loc 1 263 5 view .LVU195
 601 0126 3420     		movs	r0, #52
 602 0128 FFF7FEFF 		bl	HAL_NVIC_EnableIRQ
 603              	.LVL28:
 604 012c 81E7     		b	.L19
 605              	.L34:
ARM GAS  /tmp/cct3MTCB.s 			page 21


 198:Core/Src/stm32h7xx_hal_msp.c ****     }
 606              		.loc 1 198 7 view .LVU196
 607 012e FFF7FEFF 		bl	Error_Handler
 608              	.LVL29:
 609 0132 89E7     		b	.L21
 610              	.L35:
 238:Core/Src/stm32h7xx_hal_msp.c ****     }
 611              		.loc 1 238 7 view .LVU197
 612 0134 FFF7FEFF 		bl	Error_Handler
 613              	.LVL30:
 614 0138 D6E7     		b	.L22
 615              	.L36:
 256:Core/Src/stm32h7xx_hal_msp.c ****     }
 616              		.loc 1 256 7 view .LVU198
 617 013a FFF7FEFF 		bl	Error_Handler
 618              	.LVL31:
 619 013e EAE7     		b	.L23
 620              	.L32:
 276:Core/Src/stm32h7xx_hal_msp.c ****     PeriphClkInitStruct.Usart234578ClockSelection = RCC_USART234578CLKSOURCE_D2PCLK1;
 621              		.loc 1 276 5 view .LVU199
 276:Core/Src/stm32h7xx_hal_msp.c ****     PeriphClkInitStruct.Usart234578ClockSelection = RCC_USART234578CLKSOURCE_D2PCLK1;
 622              		.loc 1 276 46 is_stmt 0 view .LVU200
 623 0140 0222     		movs	r2, #2
 624 0142 0023     		movs	r3, #0
 625 0144 CDE90823 		strd	r2, [sp, #32]
 277:Core/Src/stm32h7xx_hal_msp.c ****     if (HAL_RCCEx_PeriphCLKConfig(&PeriphClkInitStruct) != HAL_OK)
 626              		.loc 1 277 5 is_stmt 1 view .LVU201
 278:Core/Src/stm32h7xx_hal_msp.c ****     {
 627              		.loc 1 278 5 view .LVU202
 278:Core/Src/stm32h7xx_hal_msp.c ****     {
 628              		.loc 1 278 9 is_stmt 0 view .LVU203
 629 0148 08A8     		add	r0, sp, #32
 630 014a FFF7FEFF 		bl	HAL_RCCEx_PeriphCLKConfig
 631              	.LVL32:
 278:Core/Src/stm32h7xx_hal_msp.c ****     {
 632              		.loc 1 278 8 view .LVU204
 633 014e 0028     		cmp	r0, #0
 634 0150 74D1     		bne	.L37
 635              	.L26:
 284:Core/Src/stm32h7xx_hal_msp.c **** 
 636              		.loc 1 284 5 is_stmt 1 view .LVU205
 637              	.LBB9:
 284:Core/Src/stm32h7xx_hal_msp.c **** 
 638              		.loc 1 284 5 view .LVU206
 284:Core/Src/stm32h7xx_hal_msp.c **** 
 639              		.loc 1 284 5 view .LVU207
 640 0152 5F4B     		ldr	r3, .L41+12
 641 0154 D3F8E820 		ldr	r2, [r3, #232]
 642 0158 42F48012 		orr	r2, r2, #1048576
 643 015c C3F8E820 		str	r2, [r3, #232]
 284:Core/Src/stm32h7xx_hal_msp.c **** 
 644              		.loc 1 284 5 view .LVU208
 645 0160 D3F8E820 		ldr	r2, [r3, #232]
 646 0164 02F48012 		and	r2, r2, #1048576
 647 0168 0392     		str	r2, [sp, #12]
 284:Core/Src/stm32h7xx_hal_msp.c **** 
 648              		.loc 1 284 5 view .LVU209
ARM GAS  /tmp/cct3MTCB.s 			page 22


 649 016a 039A     		ldr	r2, [sp, #12]
 650              	.LBE9:
 284:Core/Src/stm32h7xx_hal_msp.c **** 
 651              		.loc 1 284 5 view .LVU210
 286:Core/Src/stm32h7xx_hal_msp.c ****     __HAL_RCC_GPIOD_CLK_ENABLE();
 652              		.loc 1 286 5 view .LVU211
 653              	.LBB10:
 286:Core/Src/stm32h7xx_hal_msp.c ****     __HAL_RCC_GPIOD_CLK_ENABLE();
 654              		.loc 1 286 5 view .LVU212
 286:Core/Src/stm32h7xx_hal_msp.c ****     __HAL_RCC_GPIOD_CLK_ENABLE();
 655              		.loc 1 286 5 view .LVU213
 656 016c D3F8E020 		ldr	r2, [r3, #224]
 657 0170 42F00402 		orr	r2, r2, #4
 658 0174 C3F8E020 		str	r2, [r3, #224]
 286:Core/Src/stm32h7xx_hal_msp.c ****     __HAL_RCC_GPIOD_CLK_ENABLE();
 659              		.loc 1 286 5 view .LVU214
 660 0178 D3F8E020 		ldr	r2, [r3, #224]
 661 017c 02F00402 		and	r2, r2, #4
 662 0180 0492     		str	r2, [sp, #16]
 286:Core/Src/stm32h7xx_hal_msp.c ****     __HAL_RCC_GPIOD_CLK_ENABLE();
 663              		.loc 1 286 5 view .LVU215
 664 0182 049A     		ldr	r2, [sp, #16]
 665              	.LBE10:
 286:Core/Src/stm32h7xx_hal_msp.c ****     __HAL_RCC_GPIOD_CLK_ENABLE();
 666              		.loc 1 286 5 view .LVU216
 287:Core/Src/stm32h7xx_hal_msp.c ****     /**UART5 GPIO Configuration
 667              		.loc 1 287 5 view .LVU217
 668              	.LBB11:
 287:Core/Src/stm32h7xx_hal_msp.c ****     /**UART5 GPIO Configuration
 669              		.loc 1 287 5 view .LVU218
 287:Core/Src/stm32h7xx_hal_msp.c ****     /**UART5 GPIO Configuration
 670              		.loc 1 287 5 view .LVU219
 671 0184 D3F8E020 		ldr	r2, [r3, #224]
 672 0188 42F00802 		orr	r2, r2, #8
 673 018c C3F8E020 		str	r2, [r3, #224]
 287:Core/Src/stm32h7xx_hal_msp.c ****     /**UART5 GPIO Configuration
 674              		.loc 1 287 5 view .LVU220
 675 0190 D3F8E030 		ldr	r3, [r3, #224]
 676 0194 03F00803 		and	r3, r3, #8
 677 0198 0593     		str	r3, [sp, #20]
 287:Core/Src/stm32h7xx_hal_msp.c ****     /**UART5 GPIO Configuration
 678              		.loc 1 287 5 view .LVU221
 679 019a 059B     		ldr	r3, [sp, #20]
 680              	.LBE11:
 287:Core/Src/stm32h7xx_hal_msp.c ****     /**UART5 GPIO Configuration
 681              		.loc 1 287 5 view .LVU222
 292:Core/Src/stm32h7xx_hal_msp.c ****     GPIO_InitStruct.Mode = GPIO_MODE_AF_PP;
 682              		.loc 1 292 5 view .LVU223
 292:Core/Src/stm32h7xx_hal_msp.c ****     GPIO_InitStruct.Mode = GPIO_MODE_AF_PP;
 683              		.loc 1 292 25 is_stmt 0 view .LVU224
 684 019c 4FF48053 		mov	r3, #4096
 685 01a0 3793     		str	r3, [sp, #220]
 293:Core/Src/stm32h7xx_hal_msp.c ****     GPIO_InitStruct.Pull = GPIO_NOPULL;
 686              		.loc 1 293 5 is_stmt 1 view .LVU225
 293:Core/Src/stm32h7xx_hal_msp.c ****     GPIO_InitStruct.Pull = GPIO_NOPULL;
 687              		.loc 1 293 26 is_stmt 0 view .LVU226
 688 01a2 0227     		movs	r7, #2
ARM GAS  /tmp/cct3MTCB.s 			page 23


 689 01a4 3897     		str	r7, [sp, #224]
 294:Core/Src/stm32h7xx_hal_msp.c ****     GPIO_InitStruct.Speed = GPIO_SPEED_FREQ_LOW;
 690              		.loc 1 294 5 is_stmt 1 view .LVU227
 294:Core/Src/stm32h7xx_hal_msp.c ****     GPIO_InitStruct.Speed = GPIO_SPEED_FREQ_LOW;
 691              		.loc 1 294 26 is_stmt 0 view .LVU228
 692 01a6 0025     		movs	r5, #0
 693 01a8 3995     		str	r5, [sp, #228]
 295:Core/Src/stm32h7xx_hal_msp.c ****     GPIO_InitStruct.Alternate = GPIO_AF8_UART5;
 694              		.loc 1 295 5 is_stmt 1 view .LVU229
 295:Core/Src/stm32h7xx_hal_msp.c ****     GPIO_InitStruct.Alternate = GPIO_AF8_UART5;
 695              		.loc 1 295 27 is_stmt 0 view .LVU230
 696 01aa 3A95     		str	r5, [sp, #232]
 296:Core/Src/stm32h7xx_hal_msp.c ****     HAL_GPIO_Init(GPIOC, &GPIO_InitStruct);
 697              		.loc 1 296 5 is_stmt 1 view .LVU231
 296:Core/Src/stm32h7xx_hal_msp.c ****     HAL_GPIO_Init(GPIOC, &GPIO_InitStruct);
 698              		.loc 1 296 31 is_stmt 0 view .LVU232
 699 01ac 0826     		movs	r6, #8
 700 01ae 3B96     		str	r6, [sp, #236]
 297:Core/Src/stm32h7xx_hal_msp.c **** 
 701              		.loc 1 297 5 is_stmt 1 view .LVU233
 702 01b0 37A9     		add	r1, sp, #220
 703 01b2 4848     		ldr	r0, .L41+16
 704 01b4 FFF7FEFF 		bl	HAL_GPIO_Init
 705              	.LVL33:
 299:Core/Src/stm32h7xx_hal_msp.c ****     GPIO_InitStruct.Mode = GPIO_MODE_AF_PP;
 706              		.loc 1 299 5 view .LVU234
 299:Core/Src/stm32h7xx_hal_msp.c ****     GPIO_InitStruct.Mode = GPIO_MODE_AF_PP;
 707              		.loc 1 299 25 is_stmt 0 view .LVU235
 708 01b8 0423     		movs	r3, #4
 709 01ba 3793     		str	r3, [sp, #220]
 300:Core/Src/stm32h7xx_hal_msp.c ****     GPIO_InitStruct.Pull = GPIO_NOPULL;
 710              		.loc 1 300 5 is_stmt 1 view .LVU236
 300:Core/Src/stm32h7xx_hal_msp.c ****     GPIO_InitStruct.Pull = GPIO_NOPULL;
 711              		.loc 1 300 26 is_stmt 0 view .LVU237
 712 01bc 3897     		str	r7, [sp, #224]
 301:Core/Src/stm32h7xx_hal_msp.c ****     GPIO_InitStruct.Speed = GPIO_SPEED_FREQ_LOW;
 713              		.loc 1 301 5 is_stmt 1 view .LVU238
 301:Core/Src/stm32h7xx_hal_msp.c ****     GPIO_InitStruct.Speed = GPIO_SPEED_FREQ_LOW;
 714              		.loc 1 301 26 is_stmt 0 view .LVU239
 715 01be 3995     		str	r5, [sp, #228]
 302:Core/Src/stm32h7xx_hal_msp.c ****     GPIO_InitStruct.Alternate = GPIO_AF8_UART5;
 716              		.loc 1 302 5 is_stmt 1 view .LVU240
 302:Core/Src/stm32h7xx_hal_msp.c ****     GPIO_InitStruct.Alternate = GPIO_AF8_UART5;
 717              		.loc 1 302 27 is_stmt 0 view .LVU241
 718 01c0 3A95     		str	r5, [sp, #232]
 303:Core/Src/stm32h7xx_hal_msp.c ****     HAL_GPIO_Init(GPIOD, &GPIO_InitStruct);
 719              		.loc 1 303 5 is_stmt 1 view .LVU242
 303:Core/Src/stm32h7xx_hal_msp.c ****     HAL_GPIO_Init(GPIOD, &GPIO_InitStruct);
 720              		.loc 1 303 31 is_stmt 0 view .LVU243
 721 01c2 3B96     		str	r6, [sp, #236]
 304:Core/Src/stm32h7xx_hal_msp.c **** 
 722              		.loc 1 304 5 is_stmt 1 view .LVU244
 723 01c4 37A9     		add	r1, sp, #220
 724 01c6 4448     		ldr	r0, .L41+20
 725 01c8 FFF7FEFF 		bl	HAL_GPIO_Init
 726              	.LVL34:
 308:Core/Src/stm32h7xx_hal_msp.c ****     hdma_uart5_rx.Init.Request = DMA_REQUEST_UART5_RX;
ARM GAS  /tmp/cct3MTCB.s 			page 24


 727              		.loc 1 308 5 view .LVU245
 308:Core/Src/stm32h7xx_hal_msp.c ****     hdma_uart5_rx.Init.Request = DMA_REQUEST_UART5_RX;
 728              		.loc 1 308 28 is_stmt 0 view .LVU246
 729 01cc 4748     		ldr	r0, .L41+40
 730 01ce 484B     		ldr	r3, .L41+44
 731 01d0 0360     		str	r3, [r0]
 309:Core/Src/stm32h7xx_hal_msp.c ****     hdma_uart5_rx.Init.Direction = DMA_PERIPH_TO_MEMORY;
 732              		.loc 1 309 5 is_stmt 1 view .LVU247
 309:Core/Src/stm32h7xx_hal_msp.c ****     hdma_uart5_rx.Init.Direction = DMA_PERIPH_TO_MEMORY;
 733              		.loc 1 309 32 is_stmt 0 view .LVU248
 734 01d2 4123     		movs	r3, #65
 735 01d4 4360     		str	r3, [r0, #4]
 310:Core/Src/stm32h7xx_hal_msp.c ****     hdma_uart5_rx.Init.PeriphInc = DMA_PINC_DISABLE;
 736              		.loc 1 310 5 is_stmt 1 view .LVU249
 310:Core/Src/stm32h7xx_hal_msp.c ****     hdma_uart5_rx.Init.PeriphInc = DMA_PINC_DISABLE;
 737              		.loc 1 310 34 is_stmt 0 view .LVU250
 738 01d6 8560     		str	r5, [r0, #8]
 311:Core/Src/stm32h7xx_hal_msp.c ****     hdma_uart5_rx.Init.MemInc = DMA_MINC_ENABLE;
 739              		.loc 1 311 5 is_stmt 1 view .LVU251
 311:Core/Src/stm32h7xx_hal_msp.c ****     hdma_uart5_rx.Init.MemInc = DMA_MINC_ENABLE;
 740              		.loc 1 311 34 is_stmt 0 view .LVU252
 741 01d8 C560     		str	r5, [r0, #12]
 312:Core/Src/stm32h7xx_hal_msp.c ****     hdma_uart5_rx.Init.PeriphDataAlignment = DMA_PDATAALIGN_BYTE;
 742              		.loc 1 312 5 is_stmt 1 view .LVU253
 312:Core/Src/stm32h7xx_hal_msp.c ****     hdma_uart5_rx.Init.PeriphDataAlignment = DMA_PDATAALIGN_BYTE;
 743              		.loc 1 312 31 is_stmt 0 view .LVU254
 744 01da 4FF48063 		mov	r3, #1024
 745 01de 0361     		str	r3, [r0, #16]
 313:Core/Src/stm32h7xx_hal_msp.c ****     hdma_uart5_rx.Init.MemDataAlignment = DMA_MDATAALIGN_BYTE;
 746              		.loc 1 313 5 is_stmt 1 view .LVU255
 313:Core/Src/stm32h7xx_hal_msp.c ****     hdma_uart5_rx.Init.MemDataAlignment = DMA_MDATAALIGN_BYTE;
 747              		.loc 1 313 44 is_stmt 0 view .LVU256
 748 01e0 4561     		str	r5, [r0, #20]
 314:Core/Src/stm32h7xx_hal_msp.c ****     hdma_uart5_rx.Init.Mode = DMA_CIRCULAR;
 749              		.loc 1 314 5 is_stmt 1 view .LVU257
 314:Core/Src/stm32h7xx_hal_msp.c ****     hdma_uart5_rx.Init.Mode = DMA_CIRCULAR;
 750              		.loc 1 314 41 is_stmt 0 view .LVU258
 751 01e2 8561     		str	r5, [r0, #24]
 315:Core/Src/stm32h7xx_hal_msp.c ****     hdma_uart5_rx.Init.Priority = DMA_PRIORITY_LOW;
 752              		.loc 1 315 5 is_stmt 1 view .LVU259
 315:Core/Src/stm32h7xx_hal_msp.c ****     hdma_uart5_rx.Init.Priority = DMA_PRIORITY_LOW;
 753              		.loc 1 315 29 is_stmt 0 view .LVU260
 754 01e4 4FF48073 		mov	r3, #256
 755 01e8 C361     		str	r3, [r0, #28]
 316:Core/Src/stm32h7xx_hal_msp.c ****     hdma_uart5_rx.Init.FIFOMode = DMA_FIFOMODE_DISABLE;
 756              		.loc 1 316 5 is_stmt 1 view .LVU261
 316:Core/Src/stm32h7xx_hal_msp.c ****     hdma_uart5_rx.Init.FIFOMode = DMA_FIFOMODE_DISABLE;
 757              		.loc 1 316 33 is_stmt 0 view .LVU262
 758 01ea 0562     		str	r5, [r0, #32]
 317:Core/Src/stm32h7xx_hal_msp.c ****     if (HAL_DMA_Init(&hdma_uart5_rx) != HAL_OK)
 759              		.loc 1 317 5 is_stmt 1 view .LVU263
 317:Core/Src/stm32h7xx_hal_msp.c ****     if (HAL_DMA_Init(&hdma_uart5_rx) != HAL_OK)
 760              		.loc 1 317 33 is_stmt 0 view .LVU264
 761 01ec 4562     		str	r5, [r0, #36]
 318:Core/Src/stm32h7xx_hal_msp.c ****     {
 762              		.loc 1 318 5 is_stmt 1 view .LVU265
 318:Core/Src/stm32h7xx_hal_msp.c ****     {
ARM GAS  /tmp/cct3MTCB.s 			page 25


 763              		.loc 1 318 9 is_stmt 0 view .LVU266
 764 01ee FFF7FEFF 		bl	HAL_DMA_Init
 765              	.LVL35:
 318:Core/Src/stm32h7xx_hal_msp.c ****     {
 766              		.loc 1 318 8 view .LVU267
 767 01f2 30BB     		cbnz	r0, .L38
 768              	.L27:
 323:Core/Src/stm32h7xx_hal_msp.c **** 
 769              		.loc 1 323 5 is_stmt 1 view .LVU268
 323:Core/Src/stm32h7xx_hal_msp.c **** 
 770              		.loc 1 323 5 view .LVU269
 771 01f4 3D4B     		ldr	r3, .L41+40
 772 01f6 C4F88030 		str	r3, [r4, #128]
 323:Core/Src/stm32h7xx_hal_msp.c **** 
 773              		.loc 1 323 5 view .LVU270
 774 01fa 9C63     		str	r4, [r3, #56]
 323:Core/Src/stm32h7xx_hal_msp.c **** 
 775              		.loc 1 323 5 view .LVU271
 326:Core/Src/stm32h7xx_hal_msp.c ****     hdma_uart5_tx.Init.Request = DMA_REQUEST_UART5_TX;
 776              		.loc 1 326 5 view .LVU272
 326:Core/Src/stm32h7xx_hal_msp.c ****     hdma_uart5_tx.Init.Request = DMA_REQUEST_UART5_TX;
 777              		.loc 1 326 28 is_stmt 0 view .LVU273
 778 01fc 3D48     		ldr	r0, .L41+48
 779 01fe 3E4B     		ldr	r3, .L41+52
 780 0200 0360     		str	r3, [r0]
 327:Core/Src/stm32h7xx_hal_msp.c ****     hdma_uart5_tx.Init.Direction = DMA_MEMORY_TO_PERIPH;
 781              		.loc 1 327 5 is_stmt 1 view .LVU274
 327:Core/Src/stm32h7xx_hal_msp.c ****     hdma_uart5_tx.Init.Direction = DMA_MEMORY_TO_PERIPH;
 782              		.loc 1 327 32 is_stmt 0 view .LVU275
 783 0202 4223     		movs	r3, #66
 784 0204 4360     		str	r3, [r0, #4]
 328:Core/Src/stm32h7xx_hal_msp.c ****     hdma_uart5_tx.Init.PeriphInc = DMA_PINC_DISABLE;
 785              		.loc 1 328 5 is_stmt 1 view .LVU276
 328:Core/Src/stm32h7xx_hal_msp.c ****     hdma_uart5_tx.Init.PeriphInc = DMA_PINC_DISABLE;
 786              		.loc 1 328 34 is_stmt 0 view .LVU277
 787 0206 4023     		movs	r3, #64
 788 0208 8360     		str	r3, [r0, #8]
 329:Core/Src/stm32h7xx_hal_msp.c ****     hdma_uart5_tx.Init.MemInc = DMA_MINC_ENABLE;
 789              		.loc 1 329 5 is_stmt 1 view .LVU278
 329:Core/Src/stm32h7xx_hal_msp.c ****     hdma_uart5_tx.Init.MemInc = DMA_MINC_ENABLE;
 790              		.loc 1 329 34 is_stmt 0 view .LVU279
 791 020a 0023     		movs	r3, #0
 792 020c C360     		str	r3, [r0, #12]
 330:Core/Src/stm32h7xx_hal_msp.c ****     hdma_uart5_tx.Init.PeriphDataAlignment = DMA_PDATAALIGN_BYTE;
 793              		.loc 1 330 5 is_stmt 1 view .LVU280
 330:Core/Src/stm32h7xx_hal_msp.c ****     hdma_uart5_tx.Init.PeriphDataAlignment = DMA_PDATAALIGN_BYTE;
 794              		.loc 1 330 31 is_stmt 0 view .LVU281
 795 020e 4FF48062 		mov	r2, #1024
 796 0212 0261     		str	r2, [r0, #16]
 331:Core/Src/stm32h7xx_hal_msp.c ****     hdma_uart5_tx.Init.MemDataAlignment = DMA_MDATAALIGN_BYTE;
 797              		.loc 1 331 5 is_stmt 1 view .LVU282
 331:Core/Src/stm32h7xx_hal_msp.c ****     hdma_uart5_tx.Init.MemDataAlignment = DMA_MDATAALIGN_BYTE;
 798              		.loc 1 331 44 is_stmt 0 view .LVU283
 799 0214 4361     		str	r3, [r0, #20]
 332:Core/Src/stm32h7xx_hal_msp.c ****     hdma_uart5_tx.Init.Mode = DMA_NORMAL;
 800              		.loc 1 332 5 is_stmt 1 view .LVU284
 332:Core/Src/stm32h7xx_hal_msp.c ****     hdma_uart5_tx.Init.Mode = DMA_NORMAL;
ARM GAS  /tmp/cct3MTCB.s 			page 26


 801              		.loc 1 332 41 is_stmt 0 view .LVU285
 802 0216 8361     		str	r3, [r0, #24]
 333:Core/Src/stm32h7xx_hal_msp.c ****     hdma_uart5_tx.Init.Priority = DMA_PRIORITY_LOW;
 803              		.loc 1 333 5 is_stmt 1 view .LVU286
 333:Core/Src/stm32h7xx_hal_msp.c ****     hdma_uart5_tx.Init.Priority = DMA_PRIORITY_LOW;
 804              		.loc 1 333 29 is_stmt 0 view .LVU287
 805 0218 C361     		str	r3, [r0, #28]
 334:Core/Src/stm32h7xx_hal_msp.c ****     hdma_uart5_tx.Init.FIFOMode = DMA_FIFOMODE_DISABLE;
 806              		.loc 1 334 5 is_stmt 1 view .LVU288
 334:Core/Src/stm32h7xx_hal_msp.c ****     hdma_uart5_tx.Init.FIFOMode = DMA_FIFOMODE_DISABLE;
 807              		.loc 1 334 33 is_stmt 0 view .LVU289
 808 021a 0362     		str	r3, [r0, #32]
 335:Core/Src/stm32h7xx_hal_msp.c ****     if (HAL_DMA_Init(&hdma_uart5_tx) != HAL_OK)
 809              		.loc 1 335 5 is_stmt 1 view .LVU290
 335:Core/Src/stm32h7xx_hal_msp.c ****     if (HAL_DMA_Init(&hdma_uart5_tx) != HAL_OK)
 810              		.loc 1 335 33 is_stmt 0 view .LVU291
 811 021c 4362     		str	r3, [r0, #36]
 336:Core/Src/stm32h7xx_hal_msp.c ****     {
 812              		.loc 1 336 5 is_stmt 1 view .LVU292
 336:Core/Src/stm32h7xx_hal_msp.c ****     {
 813              		.loc 1 336 9 is_stmt 0 view .LVU293
 814 021e FFF7FEFF 		bl	HAL_DMA_Init
 815              	.LVL36:
 336:Core/Src/stm32h7xx_hal_msp.c ****     {
 816              		.loc 1 336 8 view .LVU294
 817 0222 88B9     		cbnz	r0, .L39
 818              	.L28:
 341:Core/Src/stm32h7xx_hal_msp.c **** 
 819              		.loc 1 341 5 is_stmt 1 view .LVU295
 341:Core/Src/stm32h7xx_hal_msp.c **** 
 820              		.loc 1 341 5 view .LVU296
 821 0224 334B     		ldr	r3, .L41+48
 822 0226 E367     		str	r3, [r4, #124]
 341:Core/Src/stm32h7xx_hal_msp.c **** 
 823              		.loc 1 341 5 view .LVU297
 824 0228 9C63     		str	r4, [r3, #56]
 341:Core/Src/stm32h7xx_hal_msp.c **** 
 825              		.loc 1 341 5 view .LVU298
 344:Core/Src/stm32h7xx_hal_msp.c ****     HAL_NVIC_EnableIRQ(UART5_IRQn);
 826              		.loc 1 344 5 view .LVU299
 827 022a 0022     		movs	r2, #0
 828 022c 0521     		movs	r1, #5
 829 022e 3520     		movs	r0, #53
 830 0230 FFF7FEFF 		bl	HAL_NVIC_SetPriority
 831              	.LVL37:
 345:Core/Src/stm32h7xx_hal_msp.c ****   /* USER CODE BEGIN UART5_MspInit 1 */
 832              		.loc 1 345 5 view .LVU300
 833 0234 3520     		movs	r0, #53
 834 0236 FFF7FEFF 		bl	HAL_NVIC_EnableIRQ
 835              	.LVL38:
 836 023a FAE6     		b	.L19
 837              	.L37:
 280:Core/Src/stm32h7xx_hal_msp.c ****     }
 838              		.loc 1 280 7 view .LVU301
 839 023c FFF7FEFF 		bl	Error_Handler
 840              	.LVL39:
 841 0240 87E7     		b	.L26
ARM GAS  /tmp/cct3MTCB.s 			page 27


 842              	.L38:
 320:Core/Src/stm32h7xx_hal_msp.c ****     }
 843              		.loc 1 320 7 view .LVU302
 844 0242 FFF7FEFF 		bl	Error_Handler
 845              	.LVL40:
 846 0246 D5E7     		b	.L27
 847              	.L39:
 338:Core/Src/stm32h7xx_hal_msp.c ****     }
 848              		.loc 1 338 7 view .LVU303
 849 0248 FFF7FEFF 		bl	Error_Handler
 850              	.LVL41:
 851 024c EAE7     		b	.L28
 852              	.L33:
 358:Core/Src/stm32h7xx_hal_msp.c ****     PeriphClkInitStruct.Usart234578ClockSelection = RCC_USART234578CLKSOURCE_D2PCLK1;
 853              		.loc 1 358 5 view .LVU304
 358:Core/Src/stm32h7xx_hal_msp.c ****     PeriphClkInitStruct.Usart234578ClockSelection = RCC_USART234578CLKSOURCE_D2PCLK1;
 854              		.loc 1 358 46 is_stmt 0 view .LVU305
 855 024e 0222     		movs	r2, #2
 856 0250 0023     		movs	r3, #0
 857 0252 CDE90823 		strd	r2, [sp, #32]
 359:Core/Src/stm32h7xx_hal_msp.c ****     if (HAL_RCCEx_PeriphCLKConfig(&PeriphClkInitStruct) != HAL_OK)
 858              		.loc 1 359 5 is_stmt 1 view .LVU306
 360:Core/Src/stm32h7xx_hal_msp.c ****     {
 859              		.loc 1 360 5 view .LVU307
 360:Core/Src/stm32h7xx_hal_msp.c ****     {
 860              		.loc 1 360 9 is_stmt 0 view .LVU308
 861 0256 08A8     		add	r0, sp, #32
 862 0258 FFF7FEFF 		bl	HAL_RCCEx_PeriphCLKConfig
 863              	.LVL42:
 360:Core/Src/stm32h7xx_hal_msp.c ****     {
 864              		.loc 1 360 8 view .LVU309
 865 025c 70BB     		cbnz	r0, .L40
 866              	.L29:
 366:Core/Src/stm32h7xx_hal_msp.c **** 
 867              		.loc 1 366 5 is_stmt 1 view .LVU310
 868              	.LBB12:
 366:Core/Src/stm32h7xx_hal_msp.c **** 
 869              		.loc 1 366 5 view .LVU311
 366:Core/Src/stm32h7xx_hal_msp.c **** 
 870              		.loc 1 366 5 view .LVU312
 871 025e 1C4B     		ldr	r3, .L41+12
 872 0260 D3F8E820 		ldr	r2, [r3, #232]
 873 0264 42F40032 		orr	r2, r2, #131072
 874 0268 C3F8E820 		str	r2, [r3, #232]
 366:Core/Src/stm32h7xx_hal_msp.c **** 
 875              		.loc 1 366 5 view .LVU313
 876 026c D3F8E820 		ldr	r2, [r3, #232]
 877 0270 02F40032 		and	r2, r2, #131072
 878 0274 0692     		str	r2, [sp, #24]
 366:Core/Src/stm32h7xx_hal_msp.c **** 
 879              		.loc 1 366 5 view .LVU314
 880 0276 069A     		ldr	r2, [sp, #24]
 881              	.LBE12:
 366:Core/Src/stm32h7xx_hal_msp.c **** 
 882              		.loc 1 366 5 view .LVU315
 368:Core/Src/stm32h7xx_hal_msp.c ****     /**USART2 GPIO Configuration
 883              		.loc 1 368 5 view .LVU316
ARM GAS  /tmp/cct3MTCB.s 			page 28


 884              	.LBB13:
 368:Core/Src/stm32h7xx_hal_msp.c ****     /**USART2 GPIO Configuration
 885              		.loc 1 368 5 view .LVU317
 368:Core/Src/stm32h7xx_hal_msp.c ****     /**USART2 GPIO Configuration
 886              		.loc 1 368 5 view .LVU318
 887 0278 D3F8E020 		ldr	r2, [r3, #224]
 888 027c 42F00802 		orr	r2, r2, #8
 889 0280 C3F8E020 		str	r2, [r3, #224]
 368:Core/Src/stm32h7xx_hal_msp.c ****     /**USART2 GPIO Configuration
 890              		.loc 1 368 5 view .LVU319
 891 0284 D3F8E030 		ldr	r3, [r3, #224]
 892 0288 03F00803 		and	r3, r3, #8
 893 028c 0793     		str	r3, [sp, #28]
 368:Core/Src/stm32h7xx_hal_msp.c ****     /**USART2 GPIO Configuration
 894              		.loc 1 368 5 view .LVU320
 895 028e 079B     		ldr	r3, [sp, #28]
 896              	.LBE13:
 368:Core/Src/stm32h7xx_hal_msp.c ****     /**USART2 GPIO Configuration
 897              		.loc 1 368 5 view .LVU321
 373:Core/Src/stm32h7xx_hal_msp.c ****     GPIO_InitStruct.Mode = GPIO_MODE_AF_PP;
 898              		.loc 1 373 5 view .LVU322
 373:Core/Src/stm32h7xx_hal_msp.c ****     GPIO_InitStruct.Mode = GPIO_MODE_AF_PP;
 899              		.loc 1 373 25 is_stmt 0 view .LVU323
 900 0290 6023     		movs	r3, #96
 901 0292 3793     		str	r3, [sp, #220]
 374:Core/Src/stm32h7xx_hal_msp.c ****     GPIO_InitStruct.Pull = GPIO_NOPULL;
 902              		.loc 1 374 5 is_stmt 1 view .LVU324
 374:Core/Src/stm32h7xx_hal_msp.c ****     GPIO_InitStruct.Pull = GPIO_NOPULL;
 903              		.loc 1 374 26 is_stmt 0 view .LVU325
 904 0294 0223     		movs	r3, #2
 905 0296 3893     		str	r3, [sp, #224]
 375:Core/Src/stm32h7xx_hal_msp.c ****     GPIO_InitStruct.Speed = GPIO_SPEED_FREQ_LOW;
 906              		.loc 1 375 5 is_stmt 1 view .LVU326
 375:Core/Src/stm32h7xx_hal_msp.c ****     GPIO_InitStruct.Speed = GPIO_SPEED_FREQ_LOW;
 907              		.loc 1 375 26 is_stmt 0 view .LVU327
 908 0298 0024     		movs	r4, #0
 909              	.LVL43:
 375:Core/Src/stm32h7xx_hal_msp.c ****     GPIO_InitStruct.Speed = GPIO_SPEED_FREQ_LOW;
 910              		.loc 1 375 26 view .LVU328
 911 029a 3994     		str	r4, [sp, #228]
 376:Core/Src/stm32h7xx_hal_msp.c ****     GPIO_InitStruct.Alternate = GPIO_AF7_USART2;
 912              		.loc 1 376 5 is_stmt 1 view .LVU329
 376:Core/Src/stm32h7xx_hal_msp.c ****     GPIO_InitStruct.Alternate = GPIO_AF7_USART2;
 913              		.loc 1 376 27 is_stmt 0 view .LVU330
 914 029c 3A94     		str	r4, [sp, #232]
 377:Core/Src/stm32h7xx_hal_msp.c ****     HAL_GPIO_Init(GPIOD, &GPIO_InitStruct);
 915              		.loc 1 377 5 is_stmt 1 view .LVU331
 377:Core/Src/stm32h7xx_hal_msp.c ****     HAL_GPIO_Init(GPIOD, &GPIO_InitStruct);
 916              		.loc 1 377 31 is_stmt 0 view .LVU332
 917 029e 0723     		movs	r3, #7
 918 02a0 3B93     		str	r3, [sp, #236]
 378:Core/Src/stm32h7xx_hal_msp.c **** 
 919              		.loc 1 378 5 is_stmt 1 view .LVU333
 920 02a2 37A9     		add	r1, sp, #220
 921 02a4 0C48     		ldr	r0, .L41+20
 922 02a6 FFF7FEFF 		bl	HAL_GPIO_Init
 923              	.LVL44:
ARM GAS  /tmp/cct3MTCB.s 			page 29


 381:Core/Src/stm32h7xx_hal_msp.c ****     HAL_NVIC_EnableIRQ(USART2_IRQn);
 924              		.loc 1 381 5 view .LVU334
 925 02aa 2246     		mov	r2, r4
 926 02ac 0521     		movs	r1, #5
 927 02ae 2620     		movs	r0, #38
 928 02b0 FFF7FEFF 		bl	HAL_NVIC_SetPriority
 929              	.LVL45:
 382:Core/Src/stm32h7xx_hal_msp.c ****   /* USER CODE BEGIN USART2_MspInit 1 */
 930              		.loc 1 382 5 view .LVU335
 931 02b4 2620     		movs	r0, #38
 932 02b6 FFF7FEFF 		bl	HAL_NVIC_EnableIRQ
 933              	.LVL46:
 934              		.loc 1 388 1 is_stmt 0 view .LVU336
 935 02ba BAE6     		b	.L19
 936              	.LVL47:
 937              	.L40:
 362:Core/Src/stm32h7xx_hal_msp.c ****     }
 938              		.loc 1 362 7 is_stmt 1 view .LVU337
 939 02bc FFF7FEFF 		bl	Error_Handler
 940              	.LVL48:
 941 02c0 CDE7     		b	.L29
 942              	.L42:
 943 02c2 00BF     		.align	2
 944              	.L41:
 945 02c4 004C0040 		.word	1073761280
 946 02c8 00500040 		.word	1073762304
 947 02cc 00440040 		.word	1073759232
 948 02d0 00440258 		.word	1476543488
 949 02d4 00080258 		.word	1476528128
 950 02d8 000C0258 		.word	1476529152
 951 02dc 00000000 		.word	hdma_uart4_rx
 952 02e0 10000240 		.word	1073872912
 953 02e4 00000000 		.word	hdma_uart4_tx
 954 02e8 28000240 		.word	1073872936
 955 02ec 00000000 		.word	hdma_uart5_rx
 956 02f0 40000240 		.word	1073872960
 957 02f4 00000000 		.word	hdma_uart5_tx
 958 02f8 58000240 		.word	1073872984
 959              		.cfi_endproc
 960              	.LFE147:
 962              		.section	.text.HAL_UART_MspDeInit,"ax",%progbits
 963              		.align	1
 964              		.global	HAL_UART_MspDeInit
 965              		.syntax unified
 966              		.thumb
 967              		.thumb_func
 968              		.fpu fpv5-d16
 970              	HAL_UART_MspDeInit:
 971              	.LVL49:
 972              	.LFB148:
 389:Core/Src/stm32h7xx_hal_msp.c **** 
 390:Core/Src/stm32h7xx_hal_msp.c **** /**
 391:Core/Src/stm32h7xx_hal_msp.c **** * @brief UART MSP De-Initialization
 392:Core/Src/stm32h7xx_hal_msp.c **** * This function freeze the hardware resources used in this example
 393:Core/Src/stm32h7xx_hal_msp.c **** * @param huart: UART handle pointer
 394:Core/Src/stm32h7xx_hal_msp.c **** * @retval None
 395:Core/Src/stm32h7xx_hal_msp.c **** */
ARM GAS  /tmp/cct3MTCB.s 			page 30


 396:Core/Src/stm32h7xx_hal_msp.c **** void HAL_UART_MspDeInit(UART_HandleTypeDef* huart)
 397:Core/Src/stm32h7xx_hal_msp.c **** {
 973              		.loc 1 397 1 view -0
 974              		.cfi_startproc
 975              		@ args = 0, pretend = 0, frame = 0
 976              		@ frame_needed = 0, uses_anonymous_args = 0
 977              		.loc 1 397 1 is_stmt 0 view .LVU339
 978 0000 10B5     		push	{r4, lr}
 979              	.LCFI11:
 980              		.cfi_def_cfa_offset 8
 981              		.cfi_offset 4, -8
 982              		.cfi_offset 14, -4
 983 0002 0446     		mov	r4, r0
 398:Core/Src/stm32h7xx_hal_msp.c ****   if(huart->Instance==UART4)
 984              		.loc 1 398 3 is_stmt 1 view .LVU340
 985              		.loc 1 398 11 is_stmt 0 view .LVU341
 986 0004 0368     		ldr	r3, [r0]
 987              		.loc 1 398 5 view .LVU342
 988 0006 274A     		ldr	r2, .L51
 989 0008 9342     		cmp	r3, r2
 990 000a 06D0     		beq	.L48
 399:Core/Src/stm32h7xx_hal_msp.c ****   {
 400:Core/Src/stm32h7xx_hal_msp.c ****   /* USER CODE BEGIN UART4_MspDeInit 0 */
 401:Core/Src/stm32h7xx_hal_msp.c **** 
 402:Core/Src/stm32h7xx_hal_msp.c ****   /* USER CODE END UART4_MspDeInit 0 */
 403:Core/Src/stm32h7xx_hal_msp.c ****     /* Peripheral clock disable */
 404:Core/Src/stm32h7xx_hal_msp.c ****     __HAL_RCC_UART4_CLK_DISABLE();
 405:Core/Src/stm32h7xx_hal_msp.c **** 
 406:Core/Src/stm32h7xx_hal_msp.c ****     /**UART4 GPIO Configuration
 407:Core/Src/stm32h7xx_hal_msp.c ****     PC11     ------> UART4_RX
 408:Core/Src/stm32h7xx_hal_msp.c ****     PD1     ------> UART4_TX
 409:Core/Src/stm32h7xx_hal_msp.c ****     */
 410:Core/Src/stm32h7xx_hal_msp.c ****     HAL_GPIO_DeInit(GPIOC, GPIO_PIN_11);
 411:Core/Src/stm32h7xx_hal_msp.c **** 
 412:Core/Src/stm32h7xx_hal_msp.c ****     HAL_GPIO_DeInit(GPIOD, GPIO_PIN_1);
 413:Core/Src/stm32h7xx_hal_msp.c **** 
 414:Core/Src/stm32h7xx_hal_msp.c ****     /* UART4 DMA DeInit */
 415:Core/Src/stm32h7xx_hal_msp.c ****     HAL_DMA_DeInit(huart->hdmarx);
 416:Core/Src/stm32h7xx_hal_msp.c ****     HAL_DMA_DeInit(huart->hdmatx);
 417:Core/Src/stm32h7xx_hal_msp.c **** 
 418:Core/Src/stm32h7xx_hal_msp.c ****     /* UART4 interrupt DeInit */
 419:Core/Src/stm32h7xx_hal_msp.c ****     HAL_NVIC_DisableIRQ(UART4_IRQn);
 420:Core/Src/stm32h7xx_hal_msp.c ****   /* USER CODE BEGIN UART4_MspDeInit 1 */
 421:Core/Src/stm32h7xx_hal_msp.c **** 
 422:Core/Src/stm32h7xx_hal_msp.c ****   /* USER CODE END UART4_MspDeInit 1 */
 423:Core/Src/stm32h7xx_hal_msp.c ****   }
 424:Core/Src/stm32h7xx_hal_msp.c ****   else if(huart->Instance==UART5)
 991              		.loc 1 424 8 is_stmt 1 view .LVU343
 992              		.loc 1 424 10 is_stmt 0 view .LVU344
 993 000c 264A     		ldr	r2, .L51+4
 994 000e 9342     		cmp	r3, r2
 995 0010 1ED0     		beq	.L49
 425:Core/Src/stm32h7xx_hal_msp.c ****   {
 426:Core/Src/stm32h7xx_hal_msp.c ****   /* USER CODE BEGIN UART5_MspDeInit 0 */
 427:Core/Src/stm32h7xx_hal_msp.c **** 
 428:Core/Src/stm32h7xx_hal_msp.c ****   /* USER CODE END UART5_MspDeInit 0 */
 429:Core/Src/stm32h7xx_hal_msp.c ****     /* Peripheral clock disable */
ARM GAS  /tmp/cct3MTCB.s 			page 31


 430:Core/Src/stm32h7xx_hal_msp.c ****     __HAL_RCC_UART5_CLK_DISABLE();
 431:Core/Src/stm32h7xx_hal_msp.c **** 
 432:Core/Src/stm32h7xx_hal_msp.c ****     /**UART5 GPIO Configuration
 433:Core/Src/stm32h7xx_hal_msp.c ****     PC12     ------> UART5_TX
 434:Core/Src/stm32h7xx_hal_msp.c ****     PD2     ------> UART5_RX
 435:Core/Src/stm32h7xx_hal_msp.c ****     */
 436:Core/Src/stm32h7xx_hal_msp.c ****     HAL_GPIO_DeInit(GPIOC, GPIO_PIN_12);
 437:Core/Src/stm32h7xx_hal_msp.c **** 
 438:Core/Src/stm32h7xx_hal_msp.c ****     HAL_GPIO_DeInit(GPIOD, GPIO_PIN_2);
 439:Core/Src/stm32h7xx_hal_msp.c **** 
 440:Core/Src/stm32h7xx_hal_msp.c ****     /* UART5 DMA DeInit */
 441:Core/Src/stm32h7xx_hal_msp.c ****     HAL_DMA_DeInit(huart->hdmarx);
 442:Core/Src/stm32h7xx_hal_msp.c ****     HAL_DMA_DeInit(huart->hdmatx);
 443:Core/Src/stm32h7xx_hal_msp.c **** 
 444:Core/Src/stm32h7xx_hal_msp.c ****     /* UART5 interrupt DeInit */
 445:Core/Src/stm32h7xx_hal_msp.c ****     HAL_NVIC_DisableIRQ(UART5_IRQn);
 446:Core/Src/stm32h7xx_hal_msp.c ****   /* USER CODE BEGIN UART5_MspDeInit 1 */
 447:Core/Src/stm32h7xx_hal_msp.c **** 
 448:Core/Src/stm32h7xx_hal_msp.c ****   /* USER CODE END UART5_MspDeInit 1 */
 449:Core/Src/stm32h7xx_hal_msp.c ****   }
 450:Core/Src/stm32h7xx_hal_msp.c ****   else if(huart->Instance==USART2)
 996              		.loc 1 450 8 is_stmt 1 view .LVU345
 997              		.loc 1 450 10 is_stmt 0 view .LVU346
 998 0012 264A     		ldr	r2, .L51+8
 999 0014 9342     		cmp	r3, r2
 1000 0016 36D0     		beq	.L50
 1001              	.LVL50:
 1002              	.L43:
 451:Core/Src/stm32h7xx_hal_msp.c ****   {
 452:Core/Src/stm32h7xx_hal_msp.c ****   /* USER CODE BEGIN USART2_MspDeInit 0 */
 453:Core/Src/stm32h7xx_hal_msp.c **** 
 454:Core/Src/stm32h7xx_hal_msp.c ****   /* USER CODE END USART2_MspDeInit 0 */
 455:Core/Src/stm32h7xx_hal_msp.c ****     /* Peripheral clock disable */
 456:Core/Src/stm32h7xx_hal_msp.c ****     __HAL_RCC_USART2_CLK_DISABLE();
 457:Core/Src/stm32h7xx_hal_msp.c **** 
 458:Core/Src/stm32h7xx_hal_msp.c ****     /**USART2 GPIO Configuration
 459:Core/Src/stm32h7xx_hal_msp.c ****     PD5     ------> USART2_TX
 460:Core/Src/stm32h7xx_hal_msp.c ****     PD6     ------> USART2_RX
 461:Core/Src/stm32h7xx_hal_msp.c ****     */
 462:Core/Src/stm32h7xx_hal_msp.c ****     HAL_GPIO_DeInit(GPIOD, GPIO_PIN_5|GPIO_PIN_6);
 463:Core/Src/stm32h7xx_hal_msp.c **** 
 464:Core/Src/stm32h7xx_hal_msp.c ****     /* USART2 interrupt DeInit */
 465:Core/Src/stm32h7xx_hal_msp.c ****     HAL_NVIC_DisableIRQ(USART2_IRQn);
 466:Core/Src/stm32h7xx_hal_msp.c ****   /* USER CODE BEGIN USART2_MspDeInit 1 */
 467:Core/Src/stm32h7xx_hal_msp.c **** 
 468:Core/Src/stm32h7xx_hal_msp.c ****   /* USER CODE END USART2_MspDeInit 1 */
 469:Core/Src/stm32h7xx_hal_msp.c ****   }
 470:Core/Src/stm32h7xx_hal_msp.c **** 
 471:Core/Src/stm32h7xx_hal_msp.c **** }
 1003              		.loc 1 471 1 view .LVU347
 1004 0018 10BD     		pop	{r4, pc}
 1005              	.LVL51:
 1006              	.L48:
 404:Core/Src/stm32h7xx_hal_msp.c **** 
 1007              		.loc 1 404 5 is_stmt 1 view .LVU348
 1008 001a 254A     		ldr	r2, .L51+12
 1009 001c D2F8E830 		ldr	r3, [r2, #232]
ARM GAS  /tmp/cct3MTCB.s 			page 32


 1010 0020 23F40023 		bic	r3, r3, #524288
 1011 0024 C2F8E830 		str	r3, [r2, #232]
 410:Core/Src/stm32h7xx_hal_msp.c **** 
 1012              		.loc 1 410 5 view .LVU349
 1013 0028 4FF40061 		mov	r1, #2048
 1014 002c 2148     		ldr	r0, .L51+16
 1015              	.LVL52:
 410:Core/Src/stm32h7xx_hal_msp.c **** 
 1016              		.loc 1 410 5 is_stmt 0 view .LVU350
 1017 002e FFF7FEFF 		bl	HAL_GPIO_DeInit
 1018              	.LVL53:
 412:Core/Src/stm32h7xx_hal_msp.c **** 
 1019              		.loc 1 412 5 is_stmt 1 view .LVU351
 1020 0032 0221     		movs	r1, #2
 1021 0034 2048     		ldr	r0, .L51+20
 1022 0036 FFF7FEFF 		bl	HAL_GPIO_DeInit
 1023              	.LVL54:
 415:Core/Src/stm32h7xx_hal_msp.c ****     HAL_DMA_DeInit(huart->hdmatx);
 1024              		.loc 1 415 5 view .LVU352
 1025 003a D4F88000 		ldr	r0, [r4, #128]
 1026 003e FFF7FEFF 		bl	HAL_DMA_DeInit
 1027              	.LVL55:
 416:Core/Src/stm32h7xx_hal_msp.c **** 
 1028              		.loc 1 416 5 view .LVU353
 1029 0042 E06F     		ldr	r0, [r4, #124]
 1030 0044 FFF7FEFF 		bl	HAL_DMA_DeInit
 1031              	.LVL56:
 419:Core/Src/stm32h7xx_hal_msp.c ****   /* USER CODE BEGIN UART4_MspDeInit 1 */
 1032              		.loc 1 419 5 view .LVU354
 1033 0048 3420     		movs	r0, #52
 1034 004a FFF7FEFF 		bl	HAL_NVIC_DisableIRQ
 1035              	.LVL57:
 1036 004e E3E7     		b	.L43
 1037              	.LVL58:
 1038              	.L49:
 430:Core/Src/stm32h7xx_hal_msp.c **** 
 1039              		.loc 1 430 5 view .LVU355
 1040 0050 174A     		ldr	r2, .L51+12
 1041 0052 D2F8E830 		ldr	r3, [r2, #232]
 1042 0056 23F48013 		bic	r3, r3, #1048576
 1043 005a C2F8E830 		str	r3, [r2, #232]
 436:Core/Src/stm32h7xx_hal_msp.c **** 
 1044              		.loc 1 436 5 view .LVU356
 1045 005e 4FF48051 		mov	r1, #4096
 1046 0062 1448     		ldr	r0, .L51+16
 1047              	.LVL59:
 436:Core/Src/stm32h7xx_hal_msp.c **** 
 1048              		.loc 1 436 5 is_stmt 0 view .LVU357
 1049 0064 FFF7FEFF 		bl	HAL_GPIO_DeInit
 1050              	.LVL60:
 438:Core/Src/stm32h7xx_hal_msp.c **** 
 1051              		.loc 1 438 5 is_stmt 1 view .LVU358
 1052 0068 0421     		movs	r1, #4
 1053 006a 1348     		ldr	r0, .L51+20
 1054 006c FFF7FEFF 		bl	HAL_GPIO_DeInit
 1055              	.LVL61:
 441:Core/Src/stm32h7xx_hal_msp.c ****     HAL_DMA_DeInit(huart->hdmatx);
ARM GAS  /tmp/cct3MTCB.s 			page 33


 1056              		.loc 1 441 5 view .LVU359
 1057 0070 D4F88000 		ldr	r0, [r4, #128]
 1058 0074 FFF7FEFF 		bl	HAL_DMA_DeInit
 1059              	.LVL62:
 442:Core/Src/stm32h7xx_hal_msp.c **** 
 1060              		.loc 1 442 5 view .LVU360
 1061 0078 E06F     		ldr	r0, [r4, #124]
 1062 007a FFF7FEFF 		bl	HAL_DMA_DeInit
 1063              	.LVL63:
 445:Core/Src/stm32h7xx_hal_msp.c ****   /* USER CODE BEGIN UART5_MspDeInit 1 */
 1064              		.loc 1 445 5 view .LVU361
 1065 007e 3520     		movs	r0, #53
 1066 0080 FFF7FEFF 		bl	HAL_NVIC_DisableIRQ
 1067              	.LVL64:
 1068 0084 C8E7     		b	.L43
 1069              	.LVL65:
 1070              	.L50:
 456:Core/Src/stm32h7xx_hal_msp.c **** 
 1071              		.loc 1 456 5 view .LVU362
 1072 0086 0A4A     		ldr	r2, .L51+12
 1073 0088 D2F8E830 		ldr	r3, [r2, #232]
 1074 008c 23F40033 		bic	r3, r3, #131072
 1075 0090 C2F8E830 		str	r3, [r2, #232]
 462:Core/Src/stm32h7xx_hal_msp.c **** 
 1076              		.loc 1 462 5 view .LVU363
 1077 0094 6021     		movs	r1, #96
 1078 0096 0848     		ldr	r0, .L51+20
 1079              	.LVL66:
 462:Core/Src/stm32h7xx_hal_msp.c **** 
 1080              		.loc 1 462 5 is_stmt 0 view .LVU364
 1081 0098 FFF7FEFF 		bl	HAL_GPIO_DeInit
 1082              	.LVL67:
 465:Core/Src/stm32h7xx_hal_msp.c ****   /* USER CODE BEGIN USART2_MspDeInit 1 */
 1083              		.loc 1 465 5 is_stmt 1 view .LVU365
 1084 009c 2620     		movs	r0, #38
 1085 009e FFF7FEFF 		bl	HAL_NVIC_DisableIRQ
 1086              	.LVL68:
 1087              		.loc 1 471 1 is_stmt 0 view .LVU366
 1088 00a2 B9E7     		b	.L43
 1089              	.L52:
 1090              		.align	2
 1091              	.L51:
 1092 00a4 004C0040 		.word	1073761280
 1093 00a8 00500040 		.word	1073762304
 1094 00ac 00440040 		.word	1073759232
 1095 00b0 00440258 		.word	1476543488
 1096 00b4 00080258 		.word	1476528128
 1097 00b8 000C0258 		.word	1476529152
 1098              		.cfi_endproc
 1099              	.LFE148:
 1101              		.text
 1102              	.Letext0:
 1103              		.file 2 "/usr/lib/gcc/arm-none-eabi/10.3.1/include/stdint.h"
 1104              		.file 3 "Drivers/CMSIS/Device/ST/STM32H7xx/Include/stm32h725xx.h"
 1105              		.file 4 "Drivers/STM32H7xx_HAL_Driver/Inc/stm32h7xx_hal_def.h"
 1106              		.file 5 "Drivers/STM32H7xx_HAL_Driver/Inc/stm32h7xx_hal_rcc_ex.h"
 1107              		.file 6 "Drivers/STM32H7xx_HAL_Driver/Inc/stm32h7xx_hal_gpio.h"
ARM GAS  /tmp/cct3MTCB.s 			page 34


 1108              		.file 7 "Drivers/STM32H7xx_HAL_Driver/Inc/stm32h7xx_hal_dma.h"
 1109              		.file 8 "Drivers/STM32H7xx_HAL_Driver/Inc/stm32h7xx_hal_spi.h"
 1110              		.file 9 "Drivers/STM32H7xx_HAL_Driver/Inc/stm32h7xx_hal_uart.h"
 1111              		.file 10 "Drivers/STM32H7xx_HAL_Driver/Inc/stm32h7xx_hal_cortex.h"
 1112              		.file 11 "Core/Inc/main.h"
 1113              		.file 12 "<built-in>"
ARM GAS  /tmp/cct3MTCB.s 			page 35

