ARM GAS  /tmp/ccQPV3qi.s 			page 1


   1              		.cpu cortex-m7
   2              		.eabi_attribute 28, 1
   3              		.eabi_attribute 20, 1
   4              		.eabi_attribute 21, 1
   5              		.eabi_attribute 23, 3
   6              		.eabi_attribute 24, 1
   7              		.eabi_attribute 25, 1
   8              		.eabi_attribute 26, 1
   9              		.eabi_attribute 30, 1
  10              		.eabi_attribute 34, 1
  11              		.eabi_attribute 18, 4
  12              		.file	"stm32h7xx_hal_msp.c"
  13              		.text
  14              	.Ltext0:
  15              		.cfi_sections	.debug_frame
  16              		.section	.text.HAL_MspInit,"ax",%progbits
  17              		.align	1
  18              		.global	HAL_MspInit
  19              		.arch armv7e-m
  20              		.syntax unified
  21              		.thumb
  22              		.thumb_func
  23              		.fpu fpv5-d16
  25              	HAL_MspInit:
  26              	.LFB144:
  27              		.file 1 "Core/Src/stm32h7xx_hal_msp.c"
   1:Core/Src/stm32h7xx_hal_msp.c **** 
   2:Core/Src/stm32h7xx_hal_msp.c **** /* USER CODE BEGIN Header */
   3:Core/Src/stm32h7xx_hal_msp.c **** /**
   4:Core/Src/stm32h7xx_hal_msp.c ****   ******************************************************************************
   5:Core/Src/stm32h7xx_hal_msp.c ****   * @file         stm32h7xx_hal_msp.c
   6:Core/Src/stm32h7xx_hal_msp.c ****   * @brief        This file provides code for the MSP Initialization
   7:Core/Src/stm32h7xx_hal_msp.c ****   *               and de-Initialization codes.
   8:Core/Src/stm32h7xx_hal_msp.c ****   ******************************************************************************
   9:Core/Src/stm32h7xx_hal_msp.c ****   * @attention
  10:Core/Src/stm32h7xx_hal_msp.c ****   *
  11:Core/Src/stm32h7xx_hal_msp.c ****   * Copyright (c) 2024 STMicroelectronics.
  12:Core/Src/stm32h7xx_hal_msp.c ****   * All rights reserved.
  13:Core/Src/stm32h7xx_hal_msp.c ****   *
  14:Core/Src/stm32h7xx_hal_msp.c ****   * This software is licensed under terms that can be found in the LICENSE file
  15:Core/Src/stm32h7xx_hal_msp.c ****   * in the root directory of this software component.
  16:Core/Src/stm32h7xx_hal_msp.c ****   * If no LICENSE file comes with this software, it is provided AS-IS.
  17:Core/Src/stm32h7xx_hal_msp.c ****   *
  18:Core/Src/stm32h7xx_hal_msp.c ****   ******************************************************************************
  19:Core/Src/stm32h7xx_hal_msp.c ****   */
  20:Core/Src/stm32h7xx_hal_msp.c **** /* USER CODE END Header */
  21:Core/Src/stm32h7xx_hal_msp.c **** 
  22:Core/Src/stm32h7xx_hal_msp.c **** /* Includes ------------------------------------------------------------------*/
  23:Core/Src/stm32h7xx_hal_msp.c **** #include "main.h"
  24:Core/Src/stm32h7xx_hal_msp.c **** /* USER CODE BEGIN Includes */
  25:Core/Src/stm32h7xx_hal_msp.c **** 
  26:Core/Src/stm32h7xx_hal_msp.c **** /* USER CODE END Includes */
  27:Core/Src/stm32h7xx_hal_msp.c **** extern DMA_HandleTypeDef hdma_uart4_rx;
  28:Core/Src/stm32h7xx_hal_msp.c **** 
  29:Core/Src/stm32h7xx_hal_msp.c **** extern DMA_HandleTypeDef hdma_uart4_tx;
  30:Core/Src/stm32h7xx_hal_msp.c **** 
  31:Core/Src/stm32h7xx_hal_msp.c **** extern DMA_HandleTypeDef hdma_uart5_rx;
ARM GAS  /tmp/ccQPV3qi.s 			page 2


  32:Core/Src/stm32h7xx_hal_msp.c **** 
  33:Core/Src/stm32h7xx_hal_msp.c **** extern DMA_HandleTypeDef hdma_uart5_tx;
  34:Core/Src/stm32h7xx_hal_msp.c **** 
  35:Core/Src/stm32h7xx_hal_msp.c **** /* Private typedef -----------------------------------------------------------*/
  36:Core/Src/stm32h7xx_hal_msp.c **** /* USER CODE BEGIN TD */
  37:Core/Src/stm32h7xx_hal_msp.c **** 
  38:Core/Src/stm32h7xx_hal_msp.c **** /* USER CODE END TD */
  39:Core/Src/stm32h7xx_hal_msp.c **** 
  40:Core/Src/stm32h7xx_hal_msp.c **** /* Private define ------------------------------------------------------------*/
  41:Core/Src/stm32h7xx_hal_msp.c **** /* USER CODE BEGIN Define */
  42:Core/Src/stm32h7xx_hal_msp.c **** 
  43:Core/Src/stm32h7xx_hal_msp.c **** /* USER CODE END Define */
  44:Core/Src/stm32h7xx_hal_msp.c **** 
  45:Core/Src/stm32h7xx_hal_msp.c **** /* Private macro -------------------------------------------------------------*/
  46:Core/Src/stm32h7xx_hal_msp.c **** /* USER CODE BEGIN Macro */
  47:Core/Src/stm32h7xx_hal_msp.c **** 
  48:Core/Src/stm32h7xx_hal_msp.c **** /* USER CODE END Macro */
  49:Core/Src/stm32h7xx_hal_msp.c **** 
  50:Core/Src/stm32h7xx_hal_msp.c **** /* Private variables ---------------------------------------------------------*/
  51:Core/Src/stm32h7xx_hal_msp.c **** /* USER CODE BEGIN PV */
  52:Core/Src/stm32h7xx_hal_msp.c **** 
  53:Core/Src/stm32h7xx_hal_msp.c **** /* USER CODE END PV */
  54:Core/Src/stm32h7xx_hal_msp.c **** 
  55:Core/Src/stm32h7xx_hal_msp.c **** /* Private function prototypes -----------------------------------------------*/
  56:Core/Src/stm32h7xx_hal_msp.c **** /* USER CODE BEGIN PFP */
  57:Core/Src/stm32h7xx_hal_msp.c **** 
  58:Core/Src/stm32h7xx_hal_msp.c **** /* USER CODE END PFP */
  59:Core/Src/stm32h7xx_hal_msp.c **** 
  60:Core/Src/stm32h7xx_hal_msp.c **** /* External functions --------------------------------------------------------*/
  61:Core/Src/stm32h7xx_hal_msp.c **** /* USER CODE BEGIN ExternalFunctions */
  62:Core/Src/stm32h7xx_hal_msp.c **** 
  63:Core/Src/stm32h7xx_hal_msp.c **** /* USER CODE END ExternalFunctions */
  64:Core/Src/stm32h7xx_hal_msp.c **** 
  65:Core/Src/stm32h7xx_hal_msp.c **** /* USER CODE BEGIN 0 */
  66:Core/Src/stm32h7xx_hal_msp.c **** 
  67:Core/Src/stm32h7xx_hal_msp.c **** /* USER CODE END 0 */
  68:Core/Src/stm32h7xx_hal_msp.c **** /**
  69:Core/Src/stm32h7xx_hal_msp.c ****   * Initializes the Global MSP.
  70:Core/Src/stm32h7xx_hal_msp.c ****   */
  71:Core/Src/stm32h7xx_hal_msp.c **** void HAL_MspInit(void)
  72:Core/Src/stm32h7xx_hal_msp.c **** {
  28              		.loc 1 72 1 view -0
  29              		.cfi_startproc
  30              		@ args = 0, pretend = 0, frame = 8
  31              		@ frame_needed = 0, uses_anonymous_args = 0
  32              		@ link register save eliminated.
  33 0000 82B0     		sub	sp, sp, #8
  34              	.LCFI0:
  35              		.cfi_def_cfa_offset 8
  73:Core/Src/stm32h7xx_hal_msp.c **** 
  74:Core/Src/stm32h7xx_hal_msp.c ****   /* USER CODE BEGIN MspInit 0 */
  75:Core/Src/stm32h7xx_hal_msp.c **** 
  76:Core/Src/stm32h7xx_hal_msp.c ****   /* USER CODE END MspInit 0 */
  77:Core/Src/stm32h7xx_hal_msp.c **** 
  78:Core/Src/stm32h7xx_hal_msp.c ****   __HAL_RCC_SYSCFG_CLK_ENABLE();
  36              		.loc 1 78 3 view .LVU1
  37              	.LBB2:
ARM GAS  /tmp/ccQPV3qi.s 			page 3


  38              		.loc 1 78 3 view .LVU2
  39              		.loc 1 78 3 view .LVU3
  40 0002 074B     		ldr	r3, .L3
  41 0004 D3F8F420 		ldr	r2, [r3, #244]
  42 0008 42F00202 		orr	r2, r2, #2
  43 000c C3F8F420 		str	r2, [r3, #244]
  44              		.loc 1 78 3 view .LVU4
  45 0010 D3F8F430 		ldr	r3, [r3, #244]
  46 0014 03F00203 		and	r3, r3, #2
  47 0018 0193     		str	r3, [sp, #4]
  48              		.loc 1 78 3 view .LVU5
  49 001a 019B     		ldr	r3, [sp, #4]
  50              	.LBE2:
  51              		.loc 1 78 3 view .LVU6
  79:Core/Src/stm32h7xx_hal_msp.c **** 
  80:Core/Src/stm32h7xx_hal_msp.c ****   /* System interrupt init*/
  81:Core/Src/stm32h7xx_hal_msp.c **** 
  82:Core/Src/stm32h7xx_hal_msp.c ****   /* USER CODE BEGIN MspInit 1 */
  83:Core/Src/stm32h7xx_hal_msp.c **** 
  84:Core/Src/stm32h7xx_hal_msp.c ****   /* USER CODE END MspInit 1 */
  85:Core/Src/stm32h7xx_hal_msp.c **** }
  52              		.loc 1 85 1 is_stmt 0 view .LVU7
  53 001c 02B0     		add	sp, sp, #8
  54              	.LCFI1:
  55              		.cfi_def_cfa_offset 0
  56              		@ sp needed
  57 001e 7047     		bx	lr
  58              	.L4:
  59              		.align	2
  60              	.L3:
  61 0020 00440258 		.word	1476543488
  62              		.cfi_endproc
  63              	.LFE144:
  65              		.section	.text.HAL_OSPI_MspInit,"ax",%progbits
  66              		.align	1
  67              		.global	HAL_OSPI_MspInit
  68              		.syntax unified
  69              		.thumb
  70              		.thumb_func
  71              		.fpu fpv5-d16
  73              	HAL_OSPI_MspInit:
  74              	.LVL0:
  75              	.LFB145:
  86:Core/Src/stm32h7xx_hal_msp.c **** 
  87:Core/Src/stm32h7xx_hal_msp.c **** /**
  88:Core/Src/stm32h7xx_hal_msp.c **** * @brief OSPI MSP Initialization
  89:Core/Src/stm32h7xx_hal_msp.c **** * This function configures the hardware resources used in this example
  90:Core/Src/stm32h7xx_hal_msp.c **** * @param hospi: OSPI handle pointer
  91:Core/Src/stm32h7xx_hal_msp.c **** * @retval None
  92:Core/Src/stm32h7xx_hal_msp.c **** */
  93:Core/Src/stm32h7xx_hal_msp.c **** void HAL_OSPI_MspInit(OSPI_HandleTypeDef* hospi)
  94:Core/Src/stm32h7xx_hal_msp.c **** {
  76              		.loc 1 94 1 is_stmt 1 view -0
  77              		.cfi_startproc
  78              		@ args = 0, pretend = 0, frame = 232
  79              		@ frame_needed = 0, uses_anonymous_args = 0
  80              		.loc 1 94 1 is_stmt 0 view .LVU9
ARM GAS  /tmp/ccQPV3qi.s 			page 4


  81 0000 2DE9F041 		push	{r4, r5, r6, r7, r8, lr}
  82              	.LCFI2:
  83              		.cfi_def_cfa_offset 24
  84              		.cfi_offset 4, -24
  85              		.cfi_offset 5, -20
  86              		.cfi_offset 6, -16
  87              		.cfi_offset 7, -12
  88              		.cfi_offset 8, -8
  89              		.cfi_offset 14, -4
  90 0004 BAB0     		sub	sp, sp, #232
  91              	.LCFI3:
  92              		.cfi_def_cfa_offset 256
  93 0006 0446     		mov	r4, r0
  95:Core/Src/stm32h7xx_hal_msp.c ****   GPIO_InitTypeDef GPIO_InitStruct = {0};
  94              		.loc 1 95 3 is_stmt 1 view .LVU10
  95              		.loc 1 95 20 is_stmt 0 view .LVU11
  96 0008 0021     		movs	r1, #0
  97 000a 3591     		str	r1, [sp, #212]
  98 000c 3691     		str	r1, [sp, #216]
  99 000e 3791     		str	r1, [sp, #220]
 100 0010 3891     		str	r1, [sp, #224]
 101 0012 3991     		str	r1, [sp, #228]
  96:Core/Src/stm32h7xx_hal_msp.c ****   RCC_PeriphCLKInitTypeDef PeriphClkInitStruct = {0};
 102              		.loc 1 96 3 is_stmt 1 view .LVU12
 103              		.loc 1 96 28 is_stmt 0 view .LVU13
 104 0014 B822     		movs	r2, #184
 105 0016 06A8     		add	r0, sp, #24
 106              	.LVL1:
 107              		.loc 1 96 28 view .LVU14
 108 0018 FFF7FEFF 		bl	memset
 109              	.LVL2:
  97:Core/Src/stm32h7xx_hal_msp.c ****   if(hospi->Instance==OCTOSPI1)
 110              		.loc 1 97 3 is_stmt 1 view .LVU15
 111              		.loc 1 97 11 is_stmt 0 view .LVU16
 112 001c 2268     		ldr	r2, [r4]
 113              		.loc 1 97 5 view .LVU17
 114 001e 4B4B     		ldr	r3, .L11
 115 0020 9A42     		cmp	r2, r3
 116 0022 02D0     		beq	.L9
 117              	.LVL3:
 118              	.L5:
  98:Core/Src/stm32h7xx_hal_msp.c ****   {
  99:Core/Src/stm32h7xx_hal_msp.c ****   /* USER CODE BEGIN OCTOSPI1_MspInit 0 */
 100:Core/Src/stm32h7xx_hal_msp.c **** 
 101:Core/Src/stm32h7xx_hal_msp.c ****   /* USER CODE END OCTOSPI1_MspInit 0 */
 102:Core/Src/stm32h7xx_hal_msp.c **** 
 103:Core/Src/stm32h7xx_hal_msp.c ****   /** Initializes the peripherals clock
 104:Core/Src/stm32h7xx_hal_msp.c ****   */
 105:Core/Src/stm32h7xx_hal_msp.c ****     PeriphClkInitStruct.PeriphClockSelection = RCC_PERIPHCLK_OSPI;
 106:Core/Src/stm32h7xx_hal_msp.c ****     PeriphClkInitStruct.OspiClockSelection = RCC_OSPICLKSOURCE_D1HCLK;
 107:Core/Src/stm32h7xx_hal_msp.c ****     if (HAL_RCCEx_PeriphCLKConfig(&PeriphClkInitStruct) != HAL_OK)
 108:Core/Src/stm32h7xx_hal_msp.c ****     {
 109:Core/Src/stm32h7xx_hal_msp.c ****       Error_Handler();
 110:Core/Src/stm32h7xx_hal_msp.c ****     }
 111:Core/Src/stm32h7xx_hal_msp.c **** 
 112:Core/Src/stm32h7xx_hal_msp.c ****     /* Peripheral clock enable */
 113:Core/Src/stm32h7xx_hal_msp.c ****     __HAL_RCC_OCTOSPIM_CLK_ENABLE();
ARM GAS  /tmp/ccQPV3qi.s 			page 5


 114:Core/Src/stm32h7xx_hal_msp.c ****     __HAL_RCC_OSPI1_CLK_ENABLE();
 115:Core/Src/stm32h7xx_hal_msp.c **** 
 116:Core/Src/stm32h7xx_hal_msp.c ****     __HAL_RCC_GPIOE_CLK_ENABLE();
 117:Core/Src/stm32h7xx_hal_msp.c ****     __HAL_RCC_GPIOB_CLK_ENABLE();
 118:Core/Src/stm32h7xx_hal_msp.c ****     __HAL_RCC_GPIOD_CLK_ENABLE();
 119:Core/Src/stm32h7xx_hal_msp.c ****     __HAL_RCC_GPIOC_CLK_ENABLE();
 120:Core/Src/stm32h7xx_hal_msp.c ****     /**OCTOSPI1 GPIO Configuration
 121:Core/Src/stm32h7xx_hal_msp.c ****     PE2     ------> OCTOSPIM_P1_IO2
 122:Core/Src/stm32h7xx_hal_msp.c ****     PB2     ------> OCTOSPIM_P1_CLK
 123:Core/Src/stm32h7xx_hal_msp.c ****     PD11     ------> OCTOSPIM_P1_IO0
 124:Core/Src/stm32h7xx_hal_msp.c ****     PD13     ------> OCTOSPIM_P1_IO3
 125:Core/Src/stm32h7xx_hal_msp.c ****     PC10     ------> OCTOSPIM_P1_IO1
 126:Core/Src/stm32h7xx_hal_msp.c ****     */
 127:Core/Src/stm32h7xx_hal_msp.c ****     GPIO_InitStruct.Pin = GPIO_PIN_2;
 128:Core/Src/stm32h7xx_hal_msp.c ****     GPIO_InitStruct.Mode = GPIO_MODE_AF_PP;
 129:Core/Src/stm32h7xx_hal_msp.c ****     GPIO_InitStruct.Pull = GPIO_NOPULL;
 130:Core/Src/stm32h7xx_hal_msp.c ****     GPIO_InitStruct.Speed = GPIO_SPEED_FREQ_VERY_HIGH;
 131:Core/Src/stm32h7xx_hal_msp.c ****     GPIO_InitStruct.Alternate = GPIO_AF9_OCTOSPIM_P1;
 132:Core/Src/stm32h7xx_hal_msp.c ****     HAL_GPIO_Init(GPIOE, &GPIO_InitStruct);
 133:Core/Src/stm32h7xx_hal_msp.c **** 
 134:Core/Src/stm32h7xx_hal_msp.c ****     GPIO_InitStruct.Pin = GPIO_PIN_2;
 135:Core/Src/stm32h7xx_hal_msp.c ****     GPIO_InitStruct.Mode = GPIO_MODE_AF_PP;
 136:Core/Src/stm32h7xx_hal_msp.c ****     GPIO_InitStruct.Pull = GPIO_NOPULL;
 137:Core/Src/stm32h7xx_hal_msp.c ****     GPIO_InitStruct.Speed = GPIO_SPEED_FREQ_VERY_HIGH;
 138:Core/Src/stm32h7xx_hal_msp.c ****     GPIO_InitStruct.Alternate = GPIO_AF9_OCTOSPIM_P1;
 139:Core/Src/stm32h7xx_hal_msp.c ****     HAL_GPIO_Init(GPIOB, &GPIO_InitStruct);
 140:Core/Src/stm32h7xx_hal_msp.c **** 
 141:Core/Src/stm32h7xx_hal_msp.c ****     GPIO_InitStruct.Pin = GPIO_PIN_11|GPIO_PIN_13;
 142:Core/Src/stm32h7xx_hal_msp.c ****     GPIO_InitStruct.Mode = GPIO_MODE_AF_PP;
 143:Core/Src/stm32h7xx_hal_msp.c ****     GPIO_InitStruct.Pull = GPIO_NOPULL;
 144:Core/Src/stm32h7xx_hal_msp.c ****     GPIO_InitStruct.Speed = GPIO_SPEED_FREQ_VERY_HIGH;
 145:Core/Src/stm32h7xx_hal_msp.c ****     GPIO_InitStruct.Alternate = GPIO_AF9_OCTOSPIM_P1;
 146:Core/Src/stm32h7xx_hal_msp.c ****     HAL_GPIO_Init(GPIOD, &GPIO_InitStruct);
 147:Core/Src/stm32h7xx_hal_msp.c **** 
 148:Core/Src/stm32h7xx_hal_msp.c ****     GPIO_InitStruct.Pin = GPIO_PIN_10;
 149:Core/Src/stm32h7xx_hal_msp.c ****     GPIO_InitStruct.Mode = GPIO_MODE_AF_PP;
 150:Core/Src/stm32h7xx_hal_msp.c ****     GPIO_InitStruct.Pull = GPIO_NOPULL;
 151:Core/Src/stm32h7xx_hal_msp.c ****     GPIO_InitStruct.Speed = GPIO_SPEED_FREQ_VERY_HIGH;
 152:Core/Src/stm32h7xx_hal_msp.c ****     GPIO_InitStruct.Alternate = GPIO_AF9_OCTOSPIM_P1;
 153:Core/Src/stm32h7xx_hal_msp.c ****     HAL_GPIO_Init(GPIOC, &GPIO_InitStruct);
 154:Core/Src/stm32h7xx_hal_msp.c **** 
 155:Core/Src/stm32h7xx_hal_msp.c ****     /* OCTOSPI1 interrupt Init */
 156:Core/Src/stm32h7xx_hal_msp.c ****     HAL_NVIC_SetPriority(OCTOSPI1_IRQn, 0, 0);
 157:Core/Src/stm32h7xx_hal_msp.c ****     HAL_NVIC_EnableIRQ(OCTOSPI1_IRQn);
 158:Core/Src/stm32h7xx_hal_msp.c ****   /* USER CODE BEGIN OCTOSPI1_MspInit 1 */
 159:Core/Src/stm32h7xx_hal_msp.c **** 
 160:Core/Src/stm32h7xx_hal_msp.c ****   /* USER CODE END OCTOSPI1_MspInit 1 */
 161:Core/Src/stm32h7xx_hal_msp.c **** 
 162:Core/Src/stm32h7xx_hal_msp.c ****   }
 163:Core/Src/stm32h7xx_hal_msp.c **** 
 164:Core/Src/stm32h7xx_hal_msp.c **** }
 119              		.loc 1 164 1 view .LVU18
 120 0024 3AB0     		add	sp, sp, #232
 121              	.LCFI4:
 122              		.cfi_remember_state
 123              		.cfi_def_cfa_offset 24
 124              		@ sp needed
ARM GAS  /tmp/ccQPV3qi.s 			page 6


 125 0026 BDE8F081 		pop	{r4, r5, r6, r7, r8, pc}
 126              	.LVL4:
 127              	.L9:
 128              	.LCFI5:
 129              		.cfi_restore_state
 105:Core/Src/stm32h7xx_hal_msp.c ****     PeriphClkInitStruct.OspiClockSelection = RCC_OSPICLKSOURCE_D1HCLK;
 130              		.loc 1 105 5 is_stmt 1 view .LVU19
 105:Core/Src/stm32h7xx_hal_msp.c ****     PeriphClkInitStruct.OspiClockSelection = RCC_OSPICLKSOURCE_D1HCLK;
 131              		.loc 1 105 46 is_stmt 0 view .LVU20
 132 002a 4FF00072 		mov	r2, #33554432
 133 002e 0023     		movs	r3, #0
 134 0030 CDE90623 		strd	r2, [sp, #24]
 106:Core/Src/stm32h7xx_hal_msp.c ****     if (HAL_RCCEx_PeriphCLKConfig(&PeriphClkInitStruct) != HAL_OK)
 135              		.loc 1 106 5 is_stmt 1 view .LVU21
 107:Core/Src/stm32h7xx_hal_msp.c ****     {
 136              		.loc 1 107 5 view .LVU22
 107:Core/Src/stm32h7xx_hal_msp.c ****     {
 137              		.loc 1 107 9 is_stmt 0 view .LVU23
 138 0034 06A8     		add	r0, sp, #24
 139 0036 FFF7FEFF 		bl	HAL_RCCEx_PeriphCLKConfig
 140              	.LVL5:
 107:Core/Src/stm32h7xx_hal_msp.c ****     {
 141              		.loc 1 107 8 view .LVU24
 142 003a 0028     		cmp	r0, #0
 143 003c 40F08280 		bne	.L10
 144              	.L7:
 113:Core/Src/stm32h7xx_hal_msp.c ****     __HAL_RCC_OSPI1_CLK_ENABLE();
 145              		.loc 1 113 5 is_stmt 1 view .LVU25
 146              	.LBB3:
 113:Core/Src/stm32h7xx_hal_msp.c ****     __HAL_RCC_OSPI1_CLK_ENABLE();
 147              		.loc 1 113 5 view .LVU26
 113:Core/Src/stm32h7xx_hal_msp.c ****     __HAL_RCC_OSPI1_CLK_ENABLE();
 148              		.loc 1 113 5 view .LVU27
 149 0040 434B     		ldr	r3, .L11+4
 150 0042 D3F8D420 		ldr	r2, [r3, #212]
 151 0046 42F40012 		orr	r2, r2, #2097152
 152 004a C3F8D420 		str	r2, [r3, #212]
 113:Core/Src/stm32h7xx_hal_msp.c ****     __HAL_RCC_OSPI1_CLK_ENABLE();
 153              		.loc 1 113 5 view .LVU28
 154 004e D3F8D420 		ldr	r2, [r3, #212]
 155 0052 02F40012 		and	r2, r2, #2097152
 156 0056 0092     		str	r2, [sp]
 113:Core/Src/stm32h7xx_hal_msp.c ****     __HAL_RCC_OSPI1_CLK_ENABLE();
 157              		.loc 1 113 5 view .LVU29
 158 0058 009A     		ldr	r2, [sp]
 159              	.LBE3:
 113:Core/Src/stm32h7xx_hal_msp.c ****     __HAL_RCC_OSPI1_CLK_ENABLE();
 160              		.loc 1 113 5 view .LVU30
 114:Core/Src/stm32h7xx_hal_msp.c **** 
 161              		.loc 1 114 5 view .LVU31
 162              	.LBB4:
 114:Core/Src/stm32h7xx_hal_msp.c **** 
 163              		.loc 1 114 5 view .LVU32
 114:Core/Src/stm32h7xx_hal_msp.c **** 
 164              		.loc 1 114 5 view .LVU33
 165 005a D3F8D420 		ldr	r2, [r3, #212]
 166 005e 42F48042 		orr	r2, r2, #16384
ARM GAS  /tmp/ccQPV3qi.s 			page 7


 167 0062 C3F8D420 		str	r2, [r3, #212]
 114:Core/Src/stm32h7xx_hal_msp.c **** 
 168              		.loc 1 114 5 view .LVU34
 169 0066 D3F8D420 		ldr	r2, [r3, #212]
 170 006a 02F48042 		and	r2, r2, #16384
 171 006e 0192     		str	r2, [sp, #4]
 114:Core/Src/stm32h7xx_hal_msp.c **** 
 172              		.loc 1 114 5 view .LVU35
 173 0070 019A     		ldr	r2, [sp, #4]
 174              	.LBE4:
 114:Core/Src/stm32h7xx_hal_msp.c **** 
 175              		.loc 1 114 5 view .LVU36
 116:Core/Src/stm32h7xx_hal_msp.c ****     __HAL_RCC_GPIOB_CLK_ENABLE();
 176              		.loc 1 116 5 view .LVU37
 177              	.LBB5:
 116:Core/Src/stm32h7xx_hal_msp.c ****     __HAL_RCC_GPIOB_CLK_ENABLE();
 178              		.loc 1 116 5 view .LVU38
 116:Core/Src/stm32h7xx_hal_msp.c ****     __HAL_RCC_GPIOB_CLK_ENABLE();
 179              		.loc 1 116 5 view .LVU39
 180 0072 D3F8E020 		ldr	r2, [r3, #224]
 181 0076 42F01002 		orr	r2, r2, #16
 182 007a C3F8E020 		str	r2, [r3, #224]
 116:Core/Src/stm32h7xx_hal_msp.c ****     __HAL_RCC_GPIOB_CLK_ENABLE();
 183              		.loc 1 116 5 view .LVU40
 184 007e D3F8E020 		ldr	r2, [r3, #224]
 185 0082 02F01002 		and	r2, r2, #16
 186 0086 0292     		str	r2, [sp, #8]
 116:Core/Src/stm32h7xx_hal_msp.c ****     __HAL_RCC_GPIOB_CLK_ENABLE();
 187              		.loc 1 116 5 view .LVU41
 188 0088 029A     		ldr	r2, [sp, #8]
 189              	.LBE5:
 116:Core/Src/stm32h7xx_hal_msp.c ****     __HAL_RCC_GPIOB_CLK_ENABLE();
 190              		.loc 1 116 5 view .LVU42
 117:Core/Src/stm32h7xx_hal_msp.c ****     __HAL_RCC_GPIOD_CLK_ENABLE();
 191              		.loc 1 117 5 view .LVU43
 192              	.LBB6:
 117:Core/Src/stm32h7xx_hal_msp.c ****     __HAL_RCC_GPIOD_CLK_ENABLE();
 193              		.loc 1 117 5 view .LVU44
 117:Core/Src/stm32h7xx_hal_msp.c ****     __HAL_RCC_GPIOD_CLK_ENABLE();
 194              		.loc 1 117 5 view .LVU45
 195 008a D3F8E020 		ldr	r2, [r3, #224]
 196 008e 42F00202 		orr	r2, r2, #2
 197 0092 C3F8E020 		str	r2, [r3, #224]
 117:Core/Src/stm32h7xx_hal_msp.c ****     __HAL_RCC_GPIOD_CLK_ENABLE();
 198              		.loc 1 117 5 view .LVU46
 199 0096 D3F8E020 		ldr	r2, [r3, #224]
 200 009a 02F00202 		and	r2, r2, #2
 201 009e 0392     		str	r2, [sp, #12]
 117:Core/Src/stm32h7xx_hal_msp.c ****     __HAL_RCC_GPIOD_CLK_ENABLE();
 202              		.loc 1 117 5 view .LVU47
 203 00a0 039A     		ldr	r2, [sp, #12]
 204              	.LBE6:
 117:Core/Src/stm32h7xx_hal_msp.c ****     __HAL_RCC_GPIOD_CLK_ENABLE();
 205              		.loc 1 117 5 view .LVU48
 118:Core/Src/stm32h7xx_hal_msp.c ****     __HAL_RCC_GPIOC_CLK_ENABLE();
 206              		.loc 1 118 5 view .LVU49
 207              	.LBB7:
ARM GAS  /tmp/ccQPV3qi.s 			page 8


 118:Core/Src/stm32h7xx_hal_msp.c ****     __HAL_RCC_GPIOC_CLK_ENABLE();
 208              		.loc 1 118 5 view .LVU50
 118:Core/Src/stm32h7xx_hal_msp.c ****     __HAL_RCC_GPIOC_CLK_ENABLE();
 209              		.loc 1 118 5 view .LVU51
 210 00a2 D3F8E020 		ldr	r2, [r3, #224]
 211 00a6 42F00802 		orr	r2, r2, #8
 212 00aa C3F8E020 		str	r2, [r3, #224]
 118:Core/Src/stm32h7xx_hal_msp.c ****     __HAL_RCC_GPIOC_CLK_ENABLE();
 213              		.loc 1 118 5 view .LVU52
 214 00ae D3F8E020 		ldr	r2, [r3, #224]
 215 00b2 02F00802 		and	r2, r2, #8
 216 00b6 0492     		str	r2, [sp, #16]
 118:Core/Src/stm32h7xx_hal_msp.c ****     __HAL_RCC_GPIOC_CLK_ENABLE();
 217              		.loc 1 118 5 view .LVU53
 218 00b8 049A     		ldr	r2, [sp, #16]
 219              	.LBE7:
 118:Core/Src/stm32h7xx_hal_msp.c ****     __HAL_RCC_GPIOC_CLK_ENABLE();
 220              		.loc 1 118 5 view .LVU54
 119:Core/Src/stm32h7xx_hal_msp.c ****     /**OCTOSPI1 GPIO Configuration
 221              		.loc 1 119 5 view .LVU55
 222              	.LBB8:
 119:Core/Src/stm32h7xx_hal_msp.c ****     /**OCTOSPI1 GPIO Configuration
 223              		.loc 1 119 5 view .LVU56
 119:Core/Src/stm32h7xx_hal_msp.c ****     /**OCTOSPI1 GPIO Configuration
 224              		.loc 1 119 5 view .LVU57
 225 00ba D3F8E020 		ldr	r2, [r3, #224]
 226 00be 42F00402 		orr	r2, r2, #4
 227 00c2 C3F8E020 		str	r2, [r3, #224]
 119:Core/Src/stm32h7xx_hal_msp.c ****     /**OCTOSPI1 GPIO Configuration
 228              		.loc 1 119 5 view .LVU58
 229 00c6 D3F8E030 		ldr	r3, [r3, #224]
 230 00ca 03F00403 		and	r3, r3, #4
 231 00ce 0593     		str	r3, [sp, #20]
 119:Core/Src/stm32h7xx_hal_msp.c ****     /**OCTOSPI1 GPIO Configuration
 232              		.loc 1 119 5 view .LVU59
 233 00d0 059B     		ldr	r3, [sp, #20]
 234              	.LBE8:
 119:Core/Src/stm32h7xx_hal_msp.c ****     /**OCTOSPI1 GPIO Configuration
 235              		.loc 1 119 5 view .LVU60
 127:Core/Src/stm32h7xx_hal_msp.c ****     GPIO_InitStruct.Mode = GPIO_MODE_AF_PP;
 236              		.loc 1 127 5 view .LVU61
 127:Core/Src/stm32h7xx_hal_msp.c ****     GPIO_InitStruct.Mode = GPIO_MODE_AF_PP;
 237              		.loc 1 127 25 is_stmt 0 view .LVU62
 238 00d2 4FF00408 		mov	r8, #4
 239 00d6 CDF8D480 		str	r8, [sp, #212]
 128:Core/Src/stm32h7xx_hal_msp.c ****     GPIO_InitStruct.Pull = GPIO_NOPULL;
 240              		.loc 1 128 5 is_stmt 1 view .LVU63
 128:Core/Src/stm32h7xx_hal_msp.c ****     GPIO_InitStruct.Pull = GPIO_NOPULL;
 241              		.loc 1 128 26 is_stmt 0 view .LVU64
 242 00da 0227     		movs	r7, #2
 243 00dc 3697     		str	r7, [sp, #216]
 129:Core/Src/stm32h7xx_hal_msp.c ****     GPIO_InitStruct.Speed = GPIO_SPEED_FREQ_VERY_HIGH;
 244              		.loc 1 129 5 is_stmt 1 view .LVU65
 129:Core/Src/stm32h7xx_hal_msp.c ****     GPIO_InitStruct.Speed = GPIO_SPEED_FREQ_VERY_HIGH;
 245              		.loc 1 129 26 is_stmt 0 view .LVU66
 246 00de 0024     		movs	r4, #0
 247              	.LVL6:
ARM GAS  /tmp/ccQPV3qi.s 			page 9


 129:Core/Src/stm32h7xx_hal_msp.c ****     GPIO_InitStruct.Speed = GPIO_SPEED_FREQ_VERY_HIGH;
 248              		.loc 1 129 26 view .LVU67
 249 00e0 3794     		str	r4, [sp, #220]
 130:Core/Src/stm32h7xx_hal_msp.c ****     GPIO_InitStruct.Alternate = GPIO_AF9_OCTOSPIM_P1;
 250              		.loc 1 130 5 is_stmt 1 view .LVU68
 130:Core/Src/stm32h7xx_hal_msp.c ****     GPIO_InitStruct.Alternate = GPIO_AF9_OCTOSPIM_P1;
 251              		.loc 1 130 27 is_stmt 0 view .LVU69
 252 00e2 0326     		movs	r6, #3
 253 00e4 3896     		str	r6, [sp, #224]
 131:Core/Src/stm32h7xx_hal_msp.c ****     HAL_GPIO_Init(GPIOE, &GPIO_InitStruct);
 254              		.loc 1 131 5 is_stmt 1 view .LVU70
 131:Core/Src/stm32h7xx_hal_msp.c ****     HAL_GPIO_Init(GPIOE, &GPIO_InitStruct);
 255              		.loc 1 131 31 is_stmt 0 view .LVU71
 256 00e6 0925     		movs	r5, #9
 257 00e8 3995     		str	r5, [sp, #228]
 132:Core/Src/stm32h7xx_hal_msp.c **** 
 258              		.loc 1 132 5 is_stmt 1 view .LVU72
 259 00ea 35A9     		add	r1, sp, #212
 260 00ec 1948     		ldr	r0, .L11+8
 261 00ee FFF7FEFF 		bl	HAL_GPIO_Init
 262              	.LVL7:
 134:Core/Src/stm32h7xx_hal_msp.c ****     GPIO_InitStruct.Mode = GPIO_MODE_AF_PP;
 263              		.loc 1 134 5 view .LVU73
 134:Core/Src/stm32h7xx_hal_msp.c ****     GPIO_InitStruct.Mode = GPIO_MODE_AF_PP;
 264              		.loc 1 134 25 is_stmt 0 view .LVU74
 265 00f2 CDF8D480 		str	r8, [sp, #212]
 135:Core/Src/stm32h7xx_hal_msp.c ****     GPIO_InitStruct.Pull = GPIO_NOPULL;
 266              		.loc 1 135 5 is_stmt 1 view .LVU75
 135:Core/Src/stm32h7xx_hal_msp.c ****     GPIO_InitStruct.Pull = GPIO_NOPULL;
 267              		.loc 1 135 26 is_stmt 0 view .LVU76
 268 00f6 3697     		str	r7, [sp, #216]
 136:Core/Src/stm32h7xx_hal_msp.c ****     GPIO_InitStruct.Speed = GPIO_SPEED_FREQ_VERY_HIGH;
 269              		.loc 1 136 5 is_stmt 1 view .LVU77
 136:Core/Src/stm32h7xx_hal_msp.c ****     GPIO_InitStruct.Speed = GPIO_SPEED_FREQ_VERY_HIGH;
 270              		.loc 1 136 26 is_stmt 0 view .LVU78
 271 00f8 3794     		str	r4, [sp, #220]
 137:Core/Src/stm32h7xx_hal_msp.c ****     GPIO_InitStruct.Alternate = GPIO_AF9_OCTOSPIM_P1;
 272              		.loc 1 137 5 is_stmt 1 view .LVU79
 137:Core/Src/stm32h7xx_hal_msp.c ****     GPIO_InitStruct.Alternate = GPIO_AF9_OCTOSPIM_P1;
 273              		.loc 1 137 27 is_stmt 0 view .LVU80
 274 00fa 3896     		str	r6, [sp, #224]
 138:Core/Src/stm32h7xx_hal_msp.c ****     HAL_GPIO_Init(GPIOB, &GPIO_InitStruct);
 275              		.loc 1 138 5 is_stmt 1 view .LVU81
 138:Core/Src/stm32h7xx_hal_msp.c ****     HAL_GPIO_Init(GPIOB, &GPIO_InitStruct);
 276              		.loc 1 138 31 is_stmt 0 view .LVU82
 277 00fc 3995     		str	r5, [sp, #228]
 139:Core/Src/stm32h7xx_hal_msp.c **** 
 278              		.loc 1 139 5 is_stmt 1 view .LVU83
 279 00fe 35A9     		add	r1, sp, #212
 280 0100 1548     		ldr	r0, .L11+12
 281 0102 FFF7FEFF 		bl	HAL_GPIO_Init
 282              	.LVL8:
 141:Core/Src/stm32h7xx_hal_msp.c ****     GPIO_InitStruct.Mode = GPIO_MODE_AF_PP;
 283              		.loc 1 141 5 view .LVU84
 141:Core/Src/stm32h7xx_hal_msp.c ****     GPIO_InitStruct.Mode = GPIO_MODE_AF_PP;
 284              		.loc 1 141 25 is_stmt 0 view .LVU85
 285 0106 4FF42053 		mov	r3, #10240
ARM GAS  /tmp/ccQPV3qi.s 			page 10


 286 010a 3593     		str	r3, [sp, #212]
 142:Core/Src/stm32h7xx_hal_msp.c ****     GPIO_InitStruct.Pull = GPIO_NOPULL;
 287              		.loc 1 142 5 is_stmt 1 view .LVU86
 142:Core/Src/stm32h7xx_hal_msp.c ****     GPIO_InitStruct.Pull = GPIO_NOPULL;
 288              		.loc 1 142 26 is_stmt 0 view .LVU87
 289 010c 3697     		str	r7, [sp, #216]
 143:Core/Src/stm32h7xx_hal_msp.c ****     GPIO_InitStruct.Speed = GPIO_SPEED_FREQ_VERY_HIGH;
 290              		.loc 1 143 5 is_stmt 1 view .LVU88
 143:Core/Src/stm32h7xx_hal_msp.c ****     GPIO_InitStruct.Speed = GPIO_SPEED_FREQ_VERY_HIGH;
 291              		.loc 1 143 26 is_stmt 0 view .LVU89
 292 010e 3794     		str	r4, [sp, #220]
 144:Core/Src/stm32h7xx_hal_msp.c ****     GPIO_InitStruct.Alternate = GPIO_AF9_OCTOSPIM_P1;
 293              		.loc 1 144 5 is_stmt 1 view .LVU90
 144:Core/Src/stm32h7xx_hal_msp.c ****     GPIO_InitStruct.Alternate = GPIO_AF9_OCTOSPIM_P1;
 294              		.loc 1 144 27 is_stmt 0 view .LVU91
 295 0110 3896     		str	r6, [sp, #224]
 145:Core/Src/stm32h7xx_hal_msp.c ****     HAL_GPIO_Init(GPIOD, &GPIO_InitStruct);
 296              		.loc 1 145 5 is_stmt 1 view .LVU92
 145:Core/Src/stm32h7xx_hal_msp.c ****     HAL_GPIO_Init(GPIOD, &GPIO_InitStruct);
 297              		.loc 1 145 31 is_stmt 0 view .LVU93
 298 0112 3995     		str	r5, [sp, #228]
 146:Core/Src/stm32h7xx_hal_msp.c **** 
 299              		.loc 1 146 5 is_stmt 1 view .LVU94
 300 0114 35A9     		add	r1, sp, #212
 301 0116 1148     		ldr	r0, .L11+16
 302 0118 FFF7FEFF 		bl	HAL_GPIO_Init
 303              	.LVL9:
 148:Core/Src/stm32h7xx_hal_msp.c ****     GPIO_InitStruct.Mode = GPIO_MODE_AF_PP;
 304              		.loc 1 148 5 view .LVU95
 148:Core/Src/stm32h7xx_hal_msp.c ****     GPIO_InitStruct.Mode = GPIO_MODE_AF_PP;
 305              		.loc 1 148 25 is_stmt 0 view .LVU96
 306 011c 4FF48063 		mov	r3, #1024
 307 0120 3593     		str	r3, [sp, #212]
 149:Core/Src/stm32h7xx_hal_msp.c ****     GPIO_InitStruct.Pull = GPIO_NOPULL;
 308              		.loc 1 149 5 is_stmt 1 view .LVU97
 149:Core/Src/stm32h7xx_hal_msp.c ****     GPIO_InitStruct.Pull = GPIO_NOPULL;
 309              		.loc 1 149 26 is_stmt 0 view .LVU98
 310 0122 3697     		str	r7, [sp, #216]
 150:Core/Src/stm32h7xx_hal_msp.c ****     GPIO_InitStruct.Speed = GPIO_SPEED_FREQ_VERY_HIGH;
 311              		.loc 1 150 5 is_stmt 1 view .LVU99
 150:Core/Src/stm32h7xx_hal_msp.c ****     GPIO_InitStruct.Speed = GPIO_SPEED_FREQ_VERY_HIGH;
 312              		.loc 1 150 26 is_stmt 0 view .LVU100
 313 0124 3794     		str	r4, [sp, #220]
 151:Core/Src/stm32h7xx_hal_msp.c ****     GPIO_InitStruct.Alternate = GPIO_AF9_OCTOSPIM_P1;
 314              		.loc 1 151 5 is_stmt 1 view .LVU101
 151:Core/Src/stm32h7xx_hal_msp.c ****     GPIO_InitStruct.Alternate = GPIO_AF9_OCTOSPIM_P1;
 315              		.loc 1 151 27 is_stmt 0 view .LVU102
 316 0126 3896     		str	r6, [sp, #224]
 152:Core/Src/stm32h7xx_hal_msp.c ****     HAL_GPIO_Init(GPIOC, &GPIO_InitStruct);
 317              		.loc 1 152 5 is_stmt 1 view .LVU103
 152:Core/Src/stm32h7xx_hal_msp.c ****     HAL_GPIO_Init(GPIOC, &GPIO_InitStruct);
 318              		.loc 1 152 31 is_stmt 0 view .LVU104
 319 0128 3995     		str	r5, [sp, #228]
 153:Core/Src/stm32h7xx_hal_msp.c **** 
 320              		.loc 1 153 5 is_stmt 1 view .LVU105
 321 012a 35A9     		add	r1, sp, #212
 322 012c 0C48     		ldr	r0, .L11+20
ARM GAS  /tmp/ccQPV3qi.s 			page 11


 323 012e FFF7FEFF 		bl	HAL_GPIO_Init
 324              	.LVL10:
 156:Core/Src/stm32h7xx_hal_msp.c ****     HAL_NVIC_EnableIRQ(OCTOSPI1_IRQn);
 325              		.loc 1 156 5 view .LVU106
 326 0132 2246     		mov	r2, r4
 327 0134 2146     		mov	r1, r4
 328 0136 5C20     		movs	r0, #92
 329 0138 FFF7FEFF 		bl	HAL_NVIC_SetPriority
 330              	.LVL11:
 157:Core/Src/stm32h7xx_hal_msp.c ****   /* USER CODE BEGIN OCTOSPI1_MspInit 1 */
 331              		.loc 1 157 5 view .LVU107
 332 013c 5C20     		movs	r0, #92
 333 013e FFF7FEFF 		bl	HAL_NVIC_EnableIRQ
 334              	.LVL12:
 335              		.loc 1 164 1 is_stmt 0 view .LVU108
 336 0142 6FE7     		b	.L5
 337              	.LVL13:
 338              	.L10:
 109:Core/Src/stm32h7xx_hal_msp.c ****     }
 339              		.loc 1 109 7 is_stmt 1 view .LVU109
 340 0144 FFF7FEFF 		bl	Error_Handler
 341              	.LVL14:
 342 0148 7AE7     		b	.L7
 343              	.L12:
 344 014a 00BF     		.align	2
 345              	.L11:
 346 014c 00500052 		.word	1375752192
 347 0150 00440258 		.word	1476543488
 348 0154 00100258 		.word	1476530176
 349 0158 00040258 		.word	1476527104
 350 015c 000C0258 		.word	1476529152
 351 0160 00080258 		.word	1476528128
 352              		.cfi_endproc
 353              	.LFE145:
 355              		.section	.text.HAL_OSPI_MspDeInit,"ax",%progbits
 356              		.align	1
 357              		.global	HAL_OSPI_MspDeInit
 358              		.syntax unified
 359              		.thumb
 360              		.thumb_func
 361              		.fpu fpv5-d16
 363              	HAL_OSPI_MspDeInit:
 364              	.LVL15:
 365              	.LFB146:
 165:Core/Src/stm32h7xx_hal_msp.c **** 
 166:Core/Src/stm32h7xx_hal_msp.c **** /**
 167:Core/Src/stm32h7xx_hal_msp.c **** * @brief OSPI MSP De-Initialization
 168:Core/Src/stm32h7xx_hal_msp.c **** * This function freeze the hardware resources used in this example
 169:Core/Src/stm32h7xx_hal_msp.c **** * @param hospi: OSPI handle pointer
 170:Core/Src/stm32h7xx_hal_msp.c **** * @retval None
 171:Core/Src/stm32h7xx_hal_msp.c **** */
 172:Core/Src/stm32h7xx_hal_msp.c **** void HAL_OSPI_MspDeInit(OSPI_HandleTypeDef* hospi)
 173:Core/Src/stm32h7xx_hal_msp.c **** {
 366              		.loc 1 173 1 view -0
 367              		.cfi_startproc
 368              		@ args = 0, pretend = 0, frame = 0
 369              		@ frame_needed = 0, uses_anonymous_args = 0
ARM GAS  /tmp/ccQPV3qi.s 			page 12


 370              		.loc 1 173 1 is_stmt 0 view .LVU111
 371 0000 08B5     		push	{r3, lr}
 372              	.LCFI6:
 373              		.cfi_def_cfa_offset 8
 374              		.cfi_offset 3, -8
 375              		.cfi_offset 14, -4
 174:Core/Src/stm32h7xx_hal_msp.c ****   if(hospi->Instance==OCTOSPI1)
 376              		.loc 1 174 3 is_stmt 1 view .LVU112
 377              		.loc 1 174 11 is_stmt 0 view .LVU113
 378 0002 0268     		ldr	r2, [r0]
 379              		.loc 1 174 5 view .LVU114
 380 0004 134B     		ldr	r3, .L17
 381 0006 9A42     		cmp	r2, r3
 382 0008 00D0     		beq	.L16
 383              	.LVL16:
 384              	.L13:
 175:Core/Src/stm32h7xx_hal_msp.c ****   {
 176:Core/Src/stm32h7xx_hal_msp.c ****   /* USER CODE BEGIN OCTOSPI1_MspDeInit 0 */
 177:Core/Src/stm32h7xx_hal_msp.c **** 
 178:Core/Src/stm32h7xx_hal_msp.c ****   /* USER CODE END OCTOSPI1_MspDeInit 0 */
 179:Core/Src/stm32h7xx_hal_msp.c ****     /* Peripheral clock disable */
 180:Core/Src/stm32h7xx_hal_msp.c ****     __HAL_RCC_OCTOSPIM_CLK_DISABLE();
 181:Core/Src/stm32h7xx_hal_msp.c ****     __HAL_RCC_OSPI1_CLK_DISABLE();
 182:Core/Src/stm32h7xx_hal_msp.c **** 
 183:Core/Src/stm32h7xx_hal_msp.c ****     /**OCTOSPI1 GPIO Configuration
 184:Core/Src/stm32h7xx_hal_msp.c ****     PE2     ------> OCTOSPIM_P1_IO2
 185:Core/Src/stm32h7xx_hal_msp.c ****     PB2     ------> OCTOSPIM_P1_CLK
 186:Core/Src/stm32h7xx_hal_msp.c ****     PD11     ------> OCTOSPIM_P1_IO0
 187:Core/Src/stm32h7xx_hal_msp.c ****     PD13     ------> OCTOSPIM_P1_IO3
 188:Core/Src/stm32h7xx_hal_msp.c ****     PC10     ------> OCTOSPIM_P1_IO1
 189:Core/Src/stm32h7xx_hal_msp.c ****     */
 190:Core/Src/stm32h7xx_hal_msp.c ****     HAL_GPIO_DeInit(GPIOE, GPIO_PIN_2);
 191:Core/Src/stm32h7xx_hal_msp.c **** 
 192:Core/Src/stm32h7xx_hal_msp.c ****     HAL_GPIO_DeInit(GPIOB, GPIO_PIN_2);
 193:Core/Src/stm32h7xx_hal_msp.c **** 
 194:Core/Src/stm32h7xx_hal_msp.c ****     HAL_GPIO_DeInit(GPIOD, GPIO_PIN_11|GPIO_PIN_13);
 195:Core/Src/stm32h7xx_hal_msp.c **** 
 196:Core/Src/stm32h7xx_hal_msp.c ****     HAL_GPIO_DeInit(GPIOC, GPIO_PIN_10);
 197:Core/Src/stm32h7xx_hal_msp.c **** 
 198:Core/Src/stm32h7xx_hal_msp.c ****     /* OCTOSPI1 interrupt DeInit */
 199:Core/Src/stm32h7xx_hal_msp.c ****     HAL_NVIC_DisableIRQ(OCTOSPI1_IRQn);
 200:Core/Src/stm32h7xx_hal_msp.c ****   /* USER CODE BEGIN OCTOSPI1_MspDeInit 1 */
 201:Core/Src/stm32h7xx_hal_msp.c **** 
 202:Core/Src/stm32h7xx_hal_msp.c ****   /* USER CODE END OCTOSPI1_MspDeInit 1 */
 203:Core/Src/stm32h7xx_hal_msp.c ****   }
 204:Core/Src/stm32h7xx_hal_msp.c **** 
 205:Core/Src/stm32h7xx_hal_msp.c **** }
 385              		.loc 1 205 1 view .LVU115
 386 000a 08BD     		pop	{r3, pc}
 387              	.LVL17:
 388              	.L16:
 180:Core/Src/stm32h7xx_hal_msp.c ****     __HAL_RCC_OSPI1_CLK_DISABLE();
 389              		.loc 1 180 5 is_stmt 1 view .LVU116
 390 000c 124B     		ldr	r3, .L17+4
 391 000e D3F8D420 		ldr	r2, [r3, #212]
 392 0012 22F40012 		bic	r2, r2, #2097152
 393 0016 C3F8D420 		str	r2, [r3, #212]
ARM GAS  /tmp/ccQPV3qi.s 			page 13


 181:Core/Src/stm32h7xx_hal_msp.c **** 
 394              		.loc 1 181 5 view .LVU117
 395 001a D3F8D420 		ldr	r2, [r3, #212]
 396 001e 22F48042 		bic	r2, r2, #16384
 397 0022 C3F8D420 		str	r2, [r3, #212]
 190:Core/Src/stm32h7xx_hal_msp.c **** 
 398              		.loc 1 190 5 view .LVU118
 399 0026 0421     		movs	r1, #4
 400 0028 0C48     		ldr	r0, .L17+8
 401              	.LVL18:
 190:Core/Src/stm32h7xx_hal_msp.c **** 
 402              		.loc 1 190 5 is_stmt 0 view .LVU119
 403 002a FFF7FEFF 		bl	HAL_GPIO_DeInit
 404              	.LVL19:
 192:Core/Src/stm32h7xx_hal_msp.c **** 
 405              		.loc 1 192 5 is_stmt 1 view .LVU120
 406 002e 0421     		movs	r1, #4
 407 0030 0B48     		ldr	r0, .L17+12
 408 0032 FFF7FEFF 		bl	HAL_GPIO_DeInit
 409              	.LVL20:
 194:Core/Src/stm32h7xx_hal_msp.c **** 
 410              		.loc 1 194 5 view .LVU121
 411 0036 4FF42051 		mov	r1, #10240
 412 003a 0A48     		ldr	r0, .L17+16
 413 003c FFF7FEFF 		bl	HAL_GPIO_DeInit
 414              	.LVL21:
 196:Core/Src/stm32h7xx_hal_msp.c **** 
 415              		.loc 1 196 5 view .LVU122
 416 0040 4FF48061 		mov	r1, #1024
 417 0044 0848     		ldr	r0, .L17+20
 418 0046 FFF7FEFF 		bl	HAL_GPIO_DeInit
 419              	.LVL22:
 199:Core/Src/stm32h7xx_hal_msp.c ****   /* USER CODE BEGIN OCTOSPI1_MspDeInit 1 */
 420              		.loc 1 199 5 view .LVU123
 421 004a 5C20     		movs	r0, #92
 422 004c FFF7FEFF 		bl	HAL_NVIC_DisableIRQ
 423              	.LVL23:
 424              		.loc 1 205 1 is_stmt 0 view .LVU124
 425 0050 DBE7     		b	.L13
 426              	.L18:
 427 0052 00BF     		.align	2
 428              	.L17:
 429 0054 00500052 		.word	1375752192
 430 0058 00440258 		.word	1476543488
 431 005c 00100258 		.word	1476530176
 432 0060 00040258 		.word	1476527104
 433 0064 000C0258 		.word	1476529152
 434 0068 00080258 		.word	1476528128
 435              		.cfi_endproc
 436              	.LFE146:
 438              		.section	.text.HAL_SPI_MspInit,"ax",%progbits
 439              		.align	1
 440              		.global	HAL_SPI_MspInit
 441              		.syntax unified
 442              		.thumb
 443              		.thumb_func
 444              		.fpu fpv5-d16
ARM GAS  /tmp/ccQPV3qi.s 			page 14


 446              	HAL_SPI_MspInit:
 447              	.LVL24:
 448              	.LFB147:
 206:Core/Src/stm32h7xx_hal_msp.c **** 
 207:Core/Src/stm32h7xx_hal_msp.c **** /**
 208:Core/Src/stm32h7xx_hal_msp.c **** * @brief SPI MSP Initialization
 209:Core/Src/stm32h7xx_hal_msp.c **** * This function configures the hardware resources used in this example
 210:Core/Src/stm32h7xx_hal_msp.c **** * @param hspi: SPI handle pointer
 211:Core/Src/stm32h7xx_hal_msp.c **** * @retval None
 212:Core/Src/stm32h7xx_hal_msp.c **** */
 213:Core/Src/stm32h7xx_hal_msp.c **** void HAL_SPI_MspInit(SPI_HandleTypeDef* hspi)
 214:Core/Src/stm32h7xx_hal_msp.c **** {
 449              		.loc 1 214 1 is_stmt 1 view -0
 450              		.cfi_startproc
 451              		@ args = 0, pretend = 0, frame = 224
 452              		@ frame_needed = 0, uses_anonymous_args = 0
 453              		.loc 1 214 1 is_stmt 0 view .LVU126
 454 0000 70B5     		push	{r4, r5, r6, lr}
 455              	.LCFI7:
 456              		.cfi_def_cfa_offset 16
 457              		.cfi_offset 4, -16
 458              		.cfi_offset 5, -12
 459              		.cfi_offset 6, -8
 460              		.cfi_offset 14, -4
 461 0002 B8B0     		sub	sp, sp, #224
 462              	.LCFI8:
 463              		.cfi_def_cfa_offset 240
 464 0004 0446     		mov	r4, r0
 215:Core/Src/stm32h7xx_hal_msp.c ****   GPIO_InitTypeDef GPIO_InitStruct = {0};
 465              		.loc 1 215 3 is_stmt 1 view .LVU127
 466              		.loc 1 215 20 is_stmt 0 view .LVU128
 467 0006 0021     		movs	r1, #0
 468 0008 3391     		str	r1, [sp, #204]
 469 000a 3491     		str	r1, [sp, #208]
 470 000c 3591     		str	r1, [sp, #212]
 471 000e 3691     		str	r1, [sp, #216]
 472 0010 3791     		str	r1, [sp, #220]
 216:Core/Src/stm32h7xx_hal_msp.c ****   RCC_PeriphCLKInitTypeDef PeriphClkInitStruct = {0};
 473              		.loc 1 216 3 is_stmt 1 view .LVU129
 474              		.loc 1 216 28 is_stmt 0 view .LVU130
 475 0012 B822     		movs	r2, #184
 476 0014 04A8     		add	r0, sp, #16
 477              	.LVL25:
 478              		.loc 1 216 28 view .LVU131
 479 0016 FFF7FEFF 		bl	memset
 480              	.LVL26:
 217:Core/Src/stm32h7xx_hal_msp.c ****   if(hspi->Instance==SPI1)
 481              		.loc 1 217 3 is_stmt 1 view .LVU132
 482              		.loc 1 217 10 is_stmt 0 view .LVU133
 483 001a 2268     		ldr	r2, [r4]
 484              		.loc 1 217 5 view .LVU134
 485 001c 274B     		ldr	r3, .L25
 486 001e 9A42     		cmp	r2, r3
 487 0020 01D0     		beq	.L23
 488              	.LVL27:
 489              	.L19:
 218:Core/Src/stm32h7xx_hal_msp.c ****   {
ARM GAS  /tmp/ccQPV3qi.s 			page 15


 219:Core/Src/stm32h7xx_hal_msp.c ****   /* USER CODE BEGIN SPI1_MspInit 0 */
 220:Core/Src/stm32h7xx_hal_msp.c **** 
 221:Core/Src/stm32h7xx_hal_msp.c ****   /* USER CODE END SPI1_MspInit 0 */
 222:Core/Src/stm32h7xx_hal_msp.c **** 
 223:Core/Src/stm32h7xx_hal_msp.c ****   /** Initializes the peripherals clock
 224:Core/Src/stm32h7xx_hal_msp.c ****   */
 225:Core/Src/stm32h7xx_hal_msp.c ****     PeriphClkInitStruct.PeriphClockSelection = RCC_PERIPHCLK_SPI1;
 226:Core/Src/stm32h7xx_hal_msp.c ****     PeriphClkInitStruct.Spi123ClockSelection = RCC_SPI123CLKSOURCE_PLL;
 227:Core/Src/stm32h7xx_hal_msp.c ****     if (HAL_RCCEx_PeriphCLKConfig(&PeriphClkInitStruct) != HAL_OK)
 228:Core/Src/stm32h7xx_hal_msp.c ****     {
 229:Core/Src/stm32h7xx_hal_msp.c ****       Error_Handler();
 230:Core/Src/stm32h7xx_hal_msp.c ****     }
 231:Core/Src/stm32h7xx_hal_msp.c **** 
 232:Core/Src/stm32h7xx_hal_msp.c ****     /* Peripheral clock enable */
 233:Core/Src/stm32h7xx_hal_msp.c ****     __HAL_RCC_SPI1_CLK_ENABLE();
 234:Core/Src/stm32h7xx_hal_msp.c **** 
 235:Core/Src/stm32h7xx_hal_msp.c ****     __HAL_RCC_GPIOD_CLK_ENABLE();
 236:Core/Src/stm32h7xx_hal_msp.c ****     __HAL_RCC_GPIOG_CLK_ENABLE();
 237:Core/Src/stm32h7xx_hal_msp.c ****     /**SPI1 GPIO Configuration
 238:Core/Src/stm32h7xx_hal_msp.c ****     PD7     ------> SPI1_MOSI
 239:Core/Src/stm32h7xx_hal_msp.c ****     PG9     ------> SPI1_MISO
 240:Core/Src/stm32h7xx_hal_msp.c ****     PG11     ------> SPI1_SCK
 241:Core/Src/stm32h7xx_hal_msp.c ****     */
 242:Core/Src/stm32h7xx_hal_msp.c ****     GPIO_InitStruct.Pin = GPIO_PIN_7;
 243:Core/Src/stm32h7xx_hal_msp.c ****     GPIO_InitStruct.Mode = GPIO_MODE_AF_PP;
 244:Core/Src/stm32h7xx_hal_msp.c ****     GPIO_InitStruct.Pull = GPIO_NOPULL;
 245:Core/Src/stm32h7xx_hal_msp.c ****     GPIO_InitStruct.Speed = GPIO_SPEED_FREQ_LOW;
 246:Core/Src/stm32h7xx_hal_msp.c ****     GPIO_InitStruct.Alternate = GPIO_AF5_SPI1;
 247:Core/Src/stm32h7xx_hal_msp.c ****     HAL_GPIO_Init(GPIOD, &GPIO_InitStruct);
 248:Core/Src/stm32h7xx_hal_msp.c **** 
 249:Core/Src/stm32h7xx_hal_msp.c ****     GPIO_InitStruct.Pin = GPIO_PIN_9|GPIO_PIN_11;
 250:Core/Src/stm32h7xx_hal_msp.c ****     GPIO_InitStruct.Mode = GPIO_MODE_AF_PP;
 251:Core/Src/stm32h7xx_hal_msp.c ****     GPIO_InitStruct.Pull = GPIO_NOPULL;
 252:Core/Src/stm32h7xx_hal_msp.c ****     GPIO_InitStruct.Speed = GPIO_SPEED_FREQ_LOW;
 253:Core/Src/stm32h7xx_hal_msp.c ****     GPIO_InitStruct.Alternate = GPIO_AF5_SPI1;
 254:Core/Src/stm32h7xx_hal_msp.c ****     HAL_GPIO_Init(GPIOG, &GPIO_InitStruct);
 255:Core/Src/stm32h7xx_hal_msp.c **** 
 256:Core/Src/stm32h7xx_hal_msp.c ****   /* USER CODE BEGIN SPI1_MspInit 1 */
 257:Core/Src/stm32h7xx_hal_msp.c **** 
 258:Core/Src/stm32h7xx_hal_msp.c ****   /* USER CODE END SPI1_MspInit 1 */
 259:Core/Src/stm32h7xx_hal_msp.c **** 
 260:Core/Src/stm32h7xx_hal_msp.c ****   }
 261:Core/Src/stm32h7xx_hal_msp.c **** 
 262:Core/Src/stm32h7xx_hal_msp.c **** }
 490              		.loc 1 262 1 view .LVU135
 491 0022 38B0     		add	sp, sp, #224
 492              	.LCFI9:
 493              		.cfi_remember_state
 494              		.cfi_def_cfa_offset 16
 495              		@ sp needed
 496 0024 70BD     		pop	{r4, r5, r6, pc}
 497              	.LVL28:
 498              	.L23:
 499              	.LCFI10:
 500              		.cfi_restore_state
 225:Core/Src/stm32h7xx_hal_msp.c ****     PeriphClkInitStruct.Spi123ClockSelection = RCC_SPI123CLKSOURCE_PLL;
 501              		.loc 1 225 5 is_stmt 1 view .LVU136
ARM GAS  /tmp/ccQPV3qi.s 			page 16


 225:Core/Src/stm32h7xx_hal_msp.c ****     PeriphClkInitStruct.Spi123ClockSelection = RCC_SPI123CLKSOURCE_PLL;
 502              		.loc 1 225 46 is_stmt 0 view .LVU137
 503 0026 4FF48052 		mov	r2, #4096
 504 002a 0023     		movs	r3, #0
 505 002c CDE90423 		strd	r2, [sp, #16]
 226:Core/Src/stm32h7xx_hal_msp.c ****     if (HAL_RCCEx_PeriphCLKConfig(&PeriphClkInitStruct) != HAL_OK)
 506              		.loc 1 226 5 is_stmt 1 view .LVU138
 227:Core/Src/stm32h7xx_hal_msp.c ****     {
 507              		.loc 1 227 5 view .LVU139
 227:Core/Src/stm32h7xx_hal_msp.c ****     {
 508              		.loc 1 227 9 is_stmt 0 view .LVU140
 509 0030 04A8     		add	r0, sp, #16
 510 0032 FFF7FEFF 		bl	HAL_RCCEx_PeriphCLKConfig
 511              	.LVL29:
 227:Core/Src/stm32h7xx_hal_msp.c ****     {
 512              		.loc 1 227 8 view .LVU141
 513 0036 0028     		cmp	r0, #0
 514 0038 3DD1     		bne	.L24
 515              	.L21:
 233:Core/Src/stm32h7xx_hal_msp.c **** 
 516              		.loc 1 233 5 is_stmt 1 view .LVU142
 517              	.LBB9:
 233:Core/Src/stm32h7xx_hal_msp.c **** 
 518              		.loc 1 233 5 view .LVU143
 233:Core/Src/stm32h7xx_hal_msp.c **** 
 519              		.loc 1 233 5 view .LVU144
 520 003a 214B     		ldr	r3, .L25+4
 521 003c D3F8F020 		ldr	r2, [r3, #240]
 522 0040 42F48052 		orr	r2, r2, #4096
 523 0044 C3F8F020 		str	r2, [r3, #240]
 233:Core/Src/stm32h7xx_hal_msp.c **** 
 524              		.loc 1 233 5 view .LVU145
 525 0048 D3F8F020 		ldr	r2, [r3, #240]
 526 004c 02F48052 		and	r2, r2, #4096
 527 0050 0192     		str	r2, [sp, #4]
 233:Core/Src/stm32h7xx_hal_msp.c **** 
 528              		.loc 1 233 5 view .LVU146
 529 0052 019A     		ldr	r2, [sp, #4]
 530              	.LBE9:
 233:Core/Src/stm32h7xx_hal_msp.c **** 
 531              		.loc 1 233 5 view .LVU147
 235:Core/Src/stm32h7xx_hal_msp.c ****     __HAL_RCC_GPIOG_CLK_ENABLE();
 532              		.loc 1 235 5 view .LVU148
 533              	.LBB10:
 235:Core/Src/stm32h7xx_hal_msp.c ****     __HAL_RCC_GPIOG_CLK_ENABLE();
 534              		.loc 1 235 5 view .LVU149
 235:Core/Src/stm32h7xx_hal_msp.c ****     __HAL_RCC_GPIOG_CLK_ENABLE();
 535              		.loc 1 235 5 view .LVU150
 536 0054 D3F8E020 		ldr	r2, [r3, #224]
 537 0058 42F00802 		orr	r2, r2, #8
 538 005c C3F8E020 		str	r2, [r3, #224]
 235:Core/Src/stm32h7xx_hal_msp.c ****     __HAL_RCC_GPIOG_CLK_ENABLE();
 539              		.loc 1 235 5 view .LVU151
 540 0060 D3F8E020 		ldr	r2, [r3, #224]
 541 0064 02F00802 		and	r2, r2, #8
 542 0068 0292     		str	r2, [sp, #8]
 235:Core/Src/stm32h7xx_hal_msp.c ****     __HAL_RCC_GPIOG_CLK_ENABLE();
ARM GAS  /tmp/ccQPV3qi.s 			page 17


 543              		.loc 1 235 5 view .LVU152
 544 006a 029A     		ldr	r2, [sp, #8]
 545              	.LBE10:
 235:Core/Src/stm32h7xx_hal_msp.c ****     __HAL_RCC_GPIOG_CLK_ENABLE();
 546              		.loc 1 235 5 view .LVU153
 236:Core/Src/stm32h7xx_hal_msp.c ****     /**SPI1 GPIO Configuration
 547              		.loc 1 236 5 view .LVU154
 548              	.LBB11:
 236:Core/Src/stm32h7xx_hal_msp.c ****     /**SPI1 GPIO Configuration
 549              		.loc 1 236 5 view .LVU155
 236:Core/Src/stm32h7xx_hal_msp.c ****     /**SPI1 GPIO Configuration
 550              		.loc 1 236 5 view .LVU156
 551 006c D3F8E020 		ldr	r2, [r3, #224]
 552 0070 42F04002 		orr	r2, r2, #64
 553 0074 C3F8E020 		str	r2, [r3, #224]
 236:Core/Src/stm32h7xx_hal_msp.c ****     /**SPI1 GPIO Configuration
 554              		.loc 1 236 5 view .LVU157
 555 0078 D3F8E030 		ldr	r3, [r3, #224]
 556 007c 03F04003 		and	r3, r3, #64
 557 0080 0393     		str	r3, [sp, #12]
 236:Core/Src/stm32h7xx_hal_msp.c ****     /**SPI1 GPIO Configuration
 558              		.loc 1 236 5 view .LVU158
 559 0082 039B     		ldr	r3, [sp, #12]
 560              	.LBE11:
 236:Core/Src/stm32h7xx_hal_msp.c ****     /**SPI1 GPIO Configuration
 561              		.loc 1 236 5 view .LVU159
 242:Core/Src/stm32h7xx_hal_msp.c ****     GPIO_InitStruct.Mode = GPIO_MODE_AF_PP;
 562              		.loc 1 242 5 view .LVU160
 242:Core/Src/stm32h7xx_hal_msp.c ****     GPIO_InitStruct.Mode = GPIO_MODE_AF_PP;
 563              		.loc 1 242 25 is_stmt 0 view .LVU161
 564 0084 8023     		movs	r3, #128
 565 0086 3393     		str	r3, [sp, #204]
 243:Core/Src/stm32h7xx_hal_msp.c ****     GPIO_InitStruct.Pull = GPIO_NOPULL;
 566              		.loc 1 243 5 is_stmt 1 view .LVU162
 243:Core/Src/stm32h7xx_hal_msp.c ****     GPIO_InitStruct.Pull = GPIO_NOPULL;
 567              		.loc 1 243 26 is_stmt 0 view .LVU163
 568 0088 0226     		movs	r6, #2
 569 008a 3496     		str	r6, [sp, #208]
 244:Core/Src/stm32h7xx_hal_msp.c ****     GPIO_InitStruct.Speed = GPIO_SPEED_FREQ_LOW;
 570              		.loc 1 244 5 is_stmt 1 view .LVU164
 244:Core/Src/stm32h7xx_hal_msp.c ****     GPIO_InitStruct.Speed = GPIO_SPEED_FREQ_LOW;
 571              		.loc 1 244 26 is_stmt 0 view .LVU165
 572 008c 0024     		movs	r4, #0
 573              	.LVL30:
 244:Core/Src/stm32h7xx_hal_msp.c ****     GPIO_InitStruct.Speed = GPIO_SPEED_FREQ_LOW;
 574              		.loc 1 244 26 view .LVU166
 575 008e 3594     		str	r4, [sp, #212]
 245:Core/Src/stm32h7xx_hal_msp.c ****     GPIO_InitStruct.Alternate = GPIO_AF5_SPI1;
 576              		.loc 1 245 5 is_stmt 1 view .LVU167
 245:Core/Src/stm32h7xx_hal_msp.c ****     GPIO_InitStruct.Alternate = GPIO_AF5_SPI1;
 577              		.loc 1 245 27 is_stmt 0 view .LVU168
 578 0090 3694     		str	r4, [sp, #216]
 246:Core/Src/stm32h7xx_hal_msp.c ****     HAL_GPIO_Init(GPIOD, &GPIO_InitStruct);
 579              		.loc 1 246 5 is_stmt 1 view .LVU169
 246:Core/Src/stm32h7xx_hal_msp.c ****     HAL_GPIO_Init(GPIOD, &GPIO_InitStruct);
 580              		.loc 1 246 31 is_stmt 0 view .LVU170
 581 0092 0525     		movs	r5, #5
ARM GAS  /tmp/ccQPV3qi.s 			page 18


 582 0094 3795     		str	r5, [sp, #220]
 247:Core/Src/stm32h7xx_hal_msp.c **** 
 583              		.loc 1 247 5 is_stmt 1 view .LVU171
 584 0096 33A9     		add	r1, sp, #204
 585 0098 0A48     		ldr	r0, .L25+8
 586 009a FFF7FEFF 		bl	HAL_GPIO_Init
 587              	.LVL31:
 249:Core/Src/stm32h7xx_hal_msp.c ****     GPIO_InitStruct.Mode = GPIO_MODE_AF_PP;
 588              		.loc 1 249 5 view .LVU172
 249:Core/Src/stm32h7xx_hal_msp.c ****     GPIO_InitStruct.Mode = GPIO_MODE_AF_PP;
 589              		.loc 1 249 25 is_stmt 0 view .LVU173
 590 009e 4FF42063 		mov	r3, #2560
 591 00a2 3393     		str	r3, [sp, #204]
 250:Core/Src/stm32h7xx_hal_msp.c ****     GPIO_InitStruct.Pull = GPIO_NOPULL;
 592              		.loc 1 250 5 is_stmt 1 view .LVU174
 250:Core/Src/stm32h7xx_hal_msp.c ****     GPIO_InitStruct.Pull = GPIO_NOPULL;
 593              		.loc 1 250 26 is_stmt 0 view .LVU175
 594 00a4 3496     		str	r6, [sp, #208]
 251:Core/Src/stm32h7xx_hal_msp.c ****     GPIO_InitStruct.Speed = GPIO_SPEED_FREQ_LOW;
 595              		.loc 1 251 5 is_stmt 1 view .LVU176
 251:Core/Src/stm32h7xx_hal_msp.c ****     GPIO_InitStruct.Speed = GPIO_SPEED_FREQ_LOW;
 596              		.loc 1 251 26 is_stmt 0 view .LVU177
 597 00a6 3594     		str	r4, [sp, #212]
 252:Core/Src/stm32h7xx_hal_msp.c ****     GPIO_InitStruct.Alternate = GPIO_AF5_SPI1;
 598              		.loc 1 252 5 is_stmt 1 view .LVU178
 252:Core/Src/stm32h7xx_hal_msp.c ****     GPIO_InitStruct.Alternate = GPIO_AF5_SPI1;
 599              		.loc 1 252 27 is_stmt 0 view .LVU179
 600 00a8 3694     		str	r4, [sp, #216]
 253:Core/Src/stm32h7xx_hal_msp.c ****     HAL_GPIO_Init(GPIOG, &GPIO_InitStruct);
 601              		.loc 1 253 5 is_stmt 1 view .LVU180
 253:Core/Src/stm32h7xx_hal_msp.c ****     HAL_GPIO_Init(GPIOG, &GPIO_InitStruct);
 602              		.loc 1 253 31 is_stmt 0 view .LVU181
 603 00aa 3795     		str	r5, [sp, #220]
 254:Core/Src/stm32h7xx_hal_msp.c **** 
 604              		.loc 1 254 5 is_stmt 1 view .LVU182
 605 00ac 33A9     		add	r1, sp, #204
 606 00ae 0648     		ldr	r0, .L25+12
 607 00b0 FFF7FEFF 		bl	HAL_GPIO_Init
 608              	.LVL32:
 609              		.loc 1 262 1 is_stmt 0 view .LVU183
 610 00b4 B5E7     		b	.L19
 611              	.LVL33:
 612              	.L24:
 229:Core/Src/stm32h7xx_hal_msp.c ****     }
 613              		.loc 1 229 7 is_stmt 1 view .LVU184
 614 00b6 FFF7FEFF 		bl	Error_Handler
 615              	.LVL34:
 616 00ba BEE7     		b	.L21
 617              	.L26:
 618              		.align	2
 619              	.L25:
 620 00bc 00300140 		.word	1073819648
 621 00c0 00440258 		.word	1476543488
 622 00c4 000C0258 		.word	1476529152
 623 00c8 00180258 		.word	1476532224
 624              		.cfi_endproc
 625              	.LFE147:
ARM GAS  /tmp/ccQPV3qi.s 			page 19


 627              		.section	.text.HAL_SPI_MspDeInit,"ax",%progbits
 628              		.align	1
 629              		.global	HAL_SPI_MspDeInit
 630              		.syntax unified
 631              		.thumb
 632              		.thumb_func
 633              		.fpu fpv5-d16
 635              	HAL_SPI_MspDeInit:
 636              	.LVL35:
 637              	.LFB148:
 263:Core/Src/stm32h7xx_hal_msp.c **** 
 264:Core/Src/stm32h7xx_hal_msp.c **** /**
 265:Core/Src/stm32h7xx_hal_msp.c **** * @brief SPI MSP De-Initialization
 266:Core/Src/stm32h7xx_hal_msp.c **** * This function freeze the hardware resources used in this example
 267:Core/Src/stm32h7xx_hal_msp.c **** * @param hspi: SPI handle pointer
 268:Core/Src/stm32h7xx_hal_msp.c **** * @retval None
 269:Core/Src/stm32h7xx_hal_msp.c **** */
 270:Core/Src/stm32h7xx_hal_msp.c **** void HAL_SPI_MspDeInit(SPI_HandleTypeDef* hspi)
 271:Core/Src/stm32h7xx_hal_msp.c **** {
 638              		.loc 1 271 1 view -0
 639              		.cfi_startproc
 640              		@ args = 0, pretend = 0, frame = 0
 641              		@ frame_needed = 0, uses_anonymous_args = 0
 642              		.loc 1 271 1 is_stmt 0 view .LVU186
 643 0000 08B5     		push	{r3, lr}
 644              	.LCFI11:
 645              		.cfi_def_cfa_offset 8
 646              		.cfi_offset 3, -8
 647              		.cfi_offset 14, -4
 272:Core/Src/stm32h7xx_hal_msp.c ****   if(hspi->Instance==SPI1)
 648              		.loc 1 272 3 is_stmt 1 view .LVU187
 649              		.loc 1 272 10 is_stmt 0 view .LVU188
 650 0002 0268     		ldr	r2, [r0]
 651              		.loc 1 272 5 view .LVU189
 652 0004 0A4B     		ldr	r3, .L31
 653 0006 9A42     		cmp	r2, r3
 654 0008 00D0     		beq	.L30
 655              	.LVL36:
 656              	.L27:
 273:Core/Src/stm32h7xx_hal_msp.c ****   {
 274:Core/Src/stm32h7xx_hal_msp.c ****   /* USER CODE BEGIN SPI1_MspDeInit 0 */
 275:Core/Src/stm32h7xx_hal_msp.c **** 
 276:Core/Src/stm32h7xx_hal_msp.c ****   /* USER CODE END SPI1_MspDeInit 0 */
 277:Core/Src/stm32h7xx_hal_msp.c ****     /* Peripheral clock disable */
 278:Core/Src/stm32h7xx_hal_msp.c ****     __HAL_RCC_SPI1_CLK_DISABLE();
 279:Core/Src/stm32h7xx_hal_msp.c **** 
 280:Core/Src/stm32h7xx_hal_msp.c ****     /**SPI1 GPIO Configuration
 281:Core/Src/stm32h7xx_hal_msp.c ****     PD7     ------> SPI1_MOSI
 282:Core/Src/stm32h7xx_hal_msp.c ****     PG9     ------> SPI1_MISO
 283:Core/Src/stm32h7xx_hal_msp.c ****     PG11     ------> SPI1_SCK
 284:Core/Src/stm32h7xx_hal_msp.c ****     */
 285:Core/Src/stm32h7xx_hal_msp.c ****     HAL_GPIO_DeInit(GPIOD, GPIO_PIN_7);
 286:Core/Src/stm32h7xx_hal_msp.c **** 
 287:Core/Src/stm32h7xx_hal_msp.c ****     HAL_GPIO_DeInit(GPIOG, GPIO_PIN_9|GPIO_PIN_11);
 288:Core/Src/stm32h7xx_hal_msp.c **** 
 289:Core/Src/stm32h7xx_hal_msp.c ****   /* USER CODE BEGIN SPI1_MspDeInit 1 */
 290:Core/Src/stm32h7xx_hal_msp.c **** 
ARM GAS  /tmp/ccQPV3qi.s 			page 20


 291:Core/Src/stm32h7xx_hal_msp.c ****   /* USER CODE END SPI1_MspDeInit 1 */
 292:Core/Src/stm32h7xx_hal_msp.c ****   }
 293:Core/Src/stm32h7xx_hal_msp.c **** 
 294:Core/Src/stm32h7xx_hal_msp.c **** }
 657              		.loc 1 294 1 view .LVU190
 658 000a 08BD     		pop	{r3, pc}
 659              	.LVL37:
 660              	.L30:
 278:Core/Src/stm32h7xx_hal_msp.c **** 
 661              		.loc 1 278 5 is_stmt 1 view .LVU191
 662 000c 094A     		ldr	r2, .L31+4
 663 000e D2F8F030 		ldr	r3, [r2, #240]
 664 0012 23F48053 		bic	r3, r3, #4096
 665 0016 C2F8F030 		str	r3, [r2, #240]
 285:Core/Src/stm32h7xx_hal_msp.c **** 
 666              		.loc 1 285 5 view .LVU192
 667 001a 8021     		movs	r1, #128
 668 001c 0648     		ldr	r0, .L31+8
 669              	.LVL38:
 285:Core/Src/stm32h7xx_hal_msp.c **** 
 670              		.loc 1 285 5 is_stmt 0 view .LVU193
 671 001e FFF7FEFF 		bl	HAL_GPIO_DeInit
 672              	.LVL39:
 287:Core/Src/stm32h7xx_hal_msp.c **** 
 673              		.loc 1 287 5 is_stmt 1 view .LVU194
 674 0022 4FF42061 		mov	r1, #2560
 675 0026 0548     		ldr	r0, .L31+12
 676 0028 FFF7FEFF 		bl	HAL_GPIO_DeInit
 677              	.LVL40:
 678              		.loc 1 294 1 is_stmt 0 view .LVU195
 679 002c EDE7     		b	.L27
 680              	.L32:
 681 002e 00BF     		.align	2
 682              	.L31:
 683 0030 00300140 		.word	1073819648
 684 0034 00440258 		.word	1476543488
 685 0038 000C0258 		.word	1476529152
 686 003c 00180258 		.word	1476532224
 687              		.cfi_endproc
 688              	.LFE148:
 690              		.section	.text.HAL_UART_MspInit,"ax",%progbits
 691              		.align	1
 692              		.global	HAL_UART_MspInit
 693              		.syntax unified
 694              		.thumb
 695              		.thumb_func
 696              		.fpu fpv5-d16
 698              	HAL_UART_MspInit:
 699              	.LVL41:
 700              	.LFB149:
 295:Core/Src/stm32h7xx_hal_msp.c **** 
 296:Core/Src/stm32h7xx_hal_msp.c **** /**
 297:Core/Src/stm32h7xx_hal_msp.c **** * @brief UART MSP Initialization
 298:Core/Src/stm32h7xx_hal_msp.c **** * This function configures the hardware resources used in this example
 299:Core/Src/stm32h7xx_hal_msp.c **** * @param huart: UART handle pointer
 300:Core/Src/stm32h7xx_hal_msp.c **** * @retval None
 301:Core/Src/stm32h7xx_hal_msp.c **** */
ARM GAS  /tmp/ccQPV3qi.s 			page 21


 302:Core/Src/stm32h7xx_hal_msp.c **** void HAL_UART_MspInit(UART_HandleTypeDef* huart)
 303:Core/Src/stm32h7xx_hal_msp.c **** {
 701              		.loc 1 303 1 is_stmt 1 view -0
 702              		.cfi_startproc
 703              		@ args = 0, pretend = 0, frame = 240
 704              		@ frame_needed = 0, uses_anonymous_args = 0
 705              		.loc 1 303 1 is_stmt 0 view .LVU197
 706 0000 F0B5     		push	{r4, r5, r6, r7, lr}
 707              	.LCFI12:
 708              		.cfi_def_cfa_offset 20
 709              		.cfi_offset 4, -20
 710              		.cfi_offset 5, -16
 711              		.cfi_offset 6, -12
 712              		.cfi_offset 7, -8
 713              		.cfi_offset 14, -4
 714 0002 BDB0     		sub	sp, sp, #244
 715              	.LCFI13:
 716              		.cfi_def_cfa_offset 264
 717 0004 0446     		mov	r4, r0
 304:Core/Src/stm32h7xx_hal_msp.c ****   GPIO_InitTypeDef GPIO_InitStruct = {0};
 718              		.loc 1 304 3 is_stmt 1 view .LVU198
 719              		.loc 1 304 20 is_stmt 0 view .LVU199
 720 0006 0021     		movs	r1, #0
 721 0008 3791     		str	r1, [sp, #220]
 722 000a 3891     		str	r1, [sp, #224]
 723 000c 3991     		str	r1, [sp, #228]
 724 000e 3A91     		str	r1, [sp, #232]
 725 0010 3B91     		str	r1, [sp, #236]
 305:Core/Src/stm32h7xx_hal_msp.c ****   RCC_PeriphCLKInitTypeDef PeriphClkInitStruct = {0};
 726              		.loc 1 305 3 is_stmt 1 view .LVU200
 727              		.loc 1 305 28 is_stmt 0 view .LVU201
 728 0012 B822     		movs	r2, #184
 729 0014 08A8     		add	r0, sp, #32
 730              	.LVL42:
 731              		.loc 1 305 28 view .LVU202
 732 0016 FFF7FEFF 		bl	memset
 733              	.LVL43:
 306:Core/Src/stm32h7xx_hal_msp.c ****   if(huart->Instance==UART4)
 734              		.loc 1 306 3 is_stmt 1 view .LVU203
 735              		.loc 1 306 11 is_stmt 0 view .LVU204
 736 001a 2368     		ldr	r3, [r4]
 737              		.loc 1 306 5 view .LVU205
 738 001c A94A     		ldr	r2, .L55
 739 001e 9342     		cmp	r3, r2
 740 0020 09D0     		beq	.L45
 307:Core/Src/stm32h7xx_hal_msp.c ****   {
 308:Core/Src/stm32h7xx_hal_msp.c ****   /* USER CODE BEGIN UART4_MspInit 0 */
 309:Core/Src/stm32h7xx_hal_msp.c **** 
 310:Core/Src/stm32h7xx_hal_msp.c ****   /* USER CODE END UART4_MspInit 0 */
 311:Core/Src/stm32h7xx_hal_msp.c **** 
 312:Core/Src/stm32h7xx_hal_msp.c ****   /** Initializes the peripherals clock
 313:Core/Src/stm32h7xx_hal_msp.c ****   */
 314:Core/Src/stm32h7xx_hal_msp.c ****     PeriphClkInitStruct.PeriphClockSelection = RCC_PERIPHCLK_UART4;
 315:Core/Src/stm32h7xx_hal_msp.c ****     PeriphClkInitStruct.Usart234578ClockSelection = RCC_USART234578CLKSOURCE_D2PCLK1;
 316:Core/Src/stm32h7xx_hal_msp.c ****     if (HAL_RCCEx_PeriphCLKConfig(&PeriphClkInitStruct) != HAL_OK)
 317:Core/Src/stm32h7xx_hal_msp.c ****     {
 318:Core/Src/stm32h7xx_hal_msp.c ****       Error_Handler();
ARM GAS  /tmp/ccQPV3qi.s 			page 22


 319:Core/Src/stm32h7xx_hal_msp.c ****     }
 320:Core/Src/stm32h7xx_hal_msp.c **** 
 321:Core/Src/stm32h7xx_hal_msp.c ****     /* Peripheral clock enable */
 322:Core/Src/stm32h7xx_hal_msp.c ****     __HAL_RCC_UART4_CLK_ENABLE();
 323:Core/Src/stm32h7xx_hal_msp.c **** 
 324:Core/Src/stm32h7xx_hal_msp.c ****     __HAL_RCC_GPIOC_CLK_ENABLE();
 325:Core/Src/stm32h7xx_hal_msp.c ****     __HAL_RCC_GPIOD_CLK_ENABLE();
 326:Core/Src/stm32h7xx_hal_msp.c ****     /**UART4 GPIO Configuration
 327:Core/Src/stm32h7xx_hal_msp.c ****     PC11     ------> UART4_RX
 328:Core/Src/stm32h7xx_hal_msp.c ****     PD1     ------> UART4_TX
 329:Core/Src/stm32h7xx_hal_msp.c ****     */
 330:Core/Src/stm32h7xx_hal_msp.c ****     GPIO_InitStruct.Pin = GPIO_PIN_11;
 331:Core/Src/stm32h7xx_hal_msp.c ****     GPIO_InitStruct.Mode = GPIO_MODE_AF_PP;
 332:Core/Src/stm32h7xx_hal_msp.c ****     GPIO_InitStruct.Pull = GPIO_NOPULL;
 333:Core/Src/stm32h7xx_hal_msp.c ****     GPIO_InitStruct.Speed = GPIO_SPEED_FREQ_LOW;
 334:Core/Src/stm32h7xx_hal_msp.c ****     GPIO_InitStruct.Alternate = GPIO_AF8_UART4;
 335:Core/Src/stm32h7xx_hal_msp.c ****     HAL_GPIO_Init(GPIOC, &GPIO_InitStruct);
 336:Core/Src/stm32h7xx_hal_msp.c **** 
 337:Core/Src/stm32h7xx_hal_msp.c ****     GPIO_InitStruct.Pin = GPIO_PIN_1;
 338:Core/Src/stm32h7xx_hal_msp.c ****     GPIO_InitStruct.Mode = GPIO_MODE_AF_PP;
 339:Core/Src/stm32h7xx_hal_msp.c ****     GPIO_InitStruct.Pull = GPIO_NOPULL;
 340:Core/Src/stm32h7xx_hal_msp.c ****     GPIO_InitStruct.Speed = GPIO_SPEED_FREQ_LOW;
 341:Core/Src/stm32h7xx_hal_msp.c ****     GPIO_InitStruct.Alternate = GPIO_AF8_UART4;
 342:Core/Src/stm32h7xx_hal_msp.c ****     HAL_GPIO_Init(GPIOD, &GPIO_InitStruct);
 343:Core/Src/stm32h7xx_hal_msp.c **** 
 344:Core/Src/stm32h7xx_hal_msp.c ****     /* UART4 DMA Init */
 345:Core/Src/stm32h7xx_hal_msp.c ****     /* UART4_RX Init */
 346:Core/Src/stm32h7xx_hal_msp.c ****     hdma_uart4_rx.Instance = DMA1_Stream0;
 347:Core/Src/stm32h7xx_hal_msp.c ****     hdma_uart4_rx.Init.Request = DMA_REQUEST_UART4_RX;
 348:Core/Src/stm32h7xx_hal_msp.c ****     hdma_uart4_rx.Init.Direction = DMA_PERIPH_TO_MEMORY;
 349:Core/Src/stm32h7xx_hal_msp.c ****     hdma_uart4_rx.Init.PeriphInc = DMA_PINC_DISABLE;
 350:Core/Src/stm32h7xx_hal_msp.c ****     hdma_uart4_rx.Init.MemInc = DMA_MINC_ENABLE;
 351:Core/Src/stm32h7xx_hal_msp.c ****     hdma_uart4_rx.Init.PeriphDataAlignment = DMA_PDATAALIGN_BYTE;
 352:Core/Src/stm32h7xx_hal_msp.c ****     hdma_uart4_rx.Init.MemDataAlignment = DMA_MDATAALIGN_BYTE;
 353:Core/Src/stm32h7xx_hal_msp.c ****     hdma_uart4_rx.Init.Mode = DMA_CIRCULAR;
 354:Core/Src/stm32h7xx_hal_msp.c ****     hdma_uart4_rx.Init.Priority = DMA_PRIORITY_LOW;
 355:Core/Src/stm32h7xx_hal_msp.c ****     hdma_uart4_rx.Init.FIFOMode = DMA_FIFOMODE_DISABLE;
 356:Core/Src/stm32h7xx_hal_msp.c ****     if (HAL_DMA_Init(&hdma_uart4_rx) != HAL_OK)
 357:Core/Src/stm32h7xx_hal_msp.c ****     {
 358:Core/Src/stm32h7xx_hal_msp.c ****       Error_Handler();
 359:Core/Src/stm32h7xx_hal_msp.c ****     }
 360:Core/Src/stm32h7xx_hal_msp.c **** 
 361:Core/Src/stm32h7xx_hal_msp.c ****     __HAL_LINKDMA(huart,hdmarx,hdma_uart4_rx);
 362:Core/Src/stm32h7xx_hal_msp.c **** 
 363:Core/Src/stm32h7xx_hal_msp.c ****     /* UART4_TX Init */
 364:Core/Src/stm32h7xx_hal_msp.c ****     hdma_uart4_tx.Instance = DMA1_Stream1;
 365:Core/Src/stm32h7xx_hal_msp.c ****     hdma_uart4_tx.Init.Request = DMA_REQUEST_UART4_TX;
 366:Core/Src/stm32h7xx_hal_msp.c ****     hdma_uart4_tx.Init.Direction = DMA_MEMORY_TO_PERIPH;
 367:Core/Src/stm32h7xx_hal_msp.c ****     hdma_uart4_tx.Init.PeriphInc = DMA_PINC_DISABLE;
 368:Core/Src/stm32h7xx_hal_msp.c ****     hdma_uart4_tx.Init.MemInc = DMA_MINC_ENABLE;
 369:Core/Src/stm32h7xx_hal_msp.c ****     hdma_uart4_tx.Init.PeriphDataAlignment = DMA_PDATAALIGN_BYTE;
 370:Core/Src/stm32h7xx_hal_msp.c ****     hdma_uart4_tx.Init.MemDataAlignment = DMA_MDATAALIGN_BYTE;
 371:Core/Src/stm32h7xx_hal_msp.c ****     hdma_uart4_tx.Init.Mode = DMA_NORMAL;
 372:Core/Src/stm32h7xx_hal_msp.c ****     hdma_uart4_tx.Init.Priority = DMA_PRIORITY_LOW;
 373:Core/Src/stm32h7xx_hal_msp.c ****     hdma_uart4_tx.Init.FIFOMode = DMA_FIFOMODE_DISABLE;
 374:Core/Src/stm32h7xx_hal_msp.c ****     if (HAL_DMA_Init(&hdma_uart4_tx) != HAL_OK)
 375:Core/Src/stm32h7xx_hal_msp.c ****     {
ARM GAS  /tmp/ccQPV3qi.s 			page 23


 376:Core/Src/stm32h7xx_hal_msp.c ****       Error_Handler();
 377:Core/Src/stm32h7xx_hal_msp.c ****     }
 378:Core/Src/stm32h7xx_hal_msp.c **** 
 379:Core/Src/stm32h7xx_hal_msp.c ****     __HAL_LINKDMA(huart,hdmatx,hdma_uart4_tx);
 380:Core/Src/stm32h7xx_hal_msp.c **** 
 381:Core/Src/stm32h7xx_hal_msp.c ****     /* UART4 interrupt Init */
 382:Core/Src/stm32h7xx_hal_msp.c ****     HAL_NVIC_SetPriority(UART4_IRQn, 5, 0);
 383:Core/Src/stm32h7xx_hal_msp.c ****     HAL_NVIC_EnableIRQ(UART4_IRQn);
 384:Core/Src/stm32h7xx_hal_msp.c ****   /* USER CODE BEGIN UART4_MspInit 1 */
 385:Core/Src/stm32h7xx_hal_msp.c **** 
 386:Core/Src/stm32h7xx_hal_msp.c ****   /* USER CODE END UART4_MspInit 1 */
 387:Core/Src/stm32h7xx_hal_msp.c ****   }
 388:Core/Src/stm32h7xx_hal_msp.c ****   else if(huart->Instance==UART5)
 741              		.loc 1 388 8 is_stmt 1 view .LVU206
 742              		.loc 1 388 10 is_stmt 0 view .LVU207
 743 0022 A94A     		ldr	r2, .L55+4
 744 0024 9342     		cmp	r3, r2
 745 0026 00F08B80 		beq	.L46
 389:Core/Src/stm32h7xx_hal_msp.c ****   {
 390:Core/Src/stm32h7xx_hal_msp.c ****   /* USER CODE BEGIN UART5_MspInit 0 */
 391:Core/Src/stm32h7xx_hal_msp.c **** 
 392:Core/Src/stm32h7xx_hal_msp.c ****   /* USER CODE END UART5_MspInit 0 */
 393:Core/Src/stm32h7xx_hal_msp.c **** 
 394:Core/Src/stm32h7xx_hal_msp.c ****   /** Initializes the peripherals clock
 395:Core/Src/stm32h7xx_hal_msp.c ****   */
 396:Core/Src/stm32h7xx_hal_msp.c ****     PeriphClkInitStruct.PeriphClockSelection = RCC_PERIPHCLK_UART5;
 397:Core/Src/stm32h7xx_hal_msp.c ****     PeriphClkInitStruct.Usart234578ClockSelection = RCC_USART234578CLKSOURCE_D2PCLK1;
 398:Core/Src/stm32h7xx_hal_msp.c ****     if (HAL_RCCEx_PeriphCLKConfig(&PeriphClkInitStruct) != HAL_OK)
 399:Core/Src/stm32h7xx_hal_msp.c ****     {
 400:Core/Src/stm32h7xx_hal_msp.c ****       Error_Handler();
 401:Core/Src/stm32h7xx_hal_msp.c ****     }
 402:Core/Src/stm32h7xx_hal_msp.c **** 
 403:Core/Src/stm32h7xx_hal_msp.c ****     /* Peripheral clock enable */
 404:Core/Src/stm32h7xx_hal_msp.c ****     __HAL_RCC_UART5_CLK_ENABLE();
 405:Core/Src/stm32h7xx_hal_msp.c **** 
 406:Core/Src/stm32h7xx_hal_msp.c ****     __HAL_RCC_GPIOC_CLK_ENABLE();
 407:Core/Src/stm32h7xx_hal_msp.c ****     __HAL_RCC_GPIOD_CLK_ENABLE();
 408:Core/Src/stm32h7xx_hal_msp.c ****     /**UART5 GPIO Configuration
 409:Core/Src/stm32h7xx_hal_msp.c ****     PC12     ------> UART5_TX
 410:Core/Src/stm32h7xx_hal_msp.c ****     PD2     ------> UART5_RX
 411:Core/Src/stm32h7xx_hal_msp.c ****     */
 412:Core/Src/stm32h7xx_hal_msp.c ****     GPIO_InitStruct.Pin = GPIO_PIN_12;
 413:Core/Src/stm32h7xx_hal_msp.c ****     GPIO_InitStruct.Mode = GPIO_MODE_AF_PP;
 414:Core/Src/stm32h7xx_hal_msp.c ****     GPIO_InitStruct.Pull = GPIO_NOPULL;
 415:Core/Src/stm32h7xx_hal_msp.c ****     GPIO_InitStruct.Speed = GPIO_SPEED_FREQ_LOW;
 416:Core/Src/stm32h7xx_hal_msp.c ****     GPIO_InitStruct.Alternate = GPIO_AF8_UART5;
 417:Core/Src/stm32h7xx_hal_msp.c ****     HAL_GPIO_Init(GPIOC, &GPIO_InitStruct);
 418:Core/Src/stm32h7xx_hal_msp.c **** 
 419:Core/Src/stm32h7xx_hal_msp.c ****     GPIO_InitStruct.Pin = GPIO_PIN_2;
 420:Core/Src/stm32h7xx_hal_msp.c ****     GPIO_InitStruct.Mode = GPIO_MODE_AF_PP;
 421:Core/Src/stm32h7xx_hal_msp.c ****     GPIO_InitStruct.Pull = GPIO_NOPULL;
 422:Core/Src/stm32h7xx_hal_msp.c ****     GPIO_InitStruct.Speed = GPIO_SPEED_FREQ_LOW;
 423:Core/Src/stm32h7xx_hal_msp.c ****     GPIO_InitStruct.Alternate = GPIO_AF8_UART5;
 424:Core/Src/stm32h7xx_hal_msp.c ****     HAL_GPIO_Init(GPIOD, &GPIO_InitStruct);
 425:Core/Src/stm32h7xx_hal_msp.c **** 
 426:Core/Src/stm32h7xx_hal_msp.c ****     /* UART5 DMA Init */
 427:Core/Src/stm32h7xx_hal_msp.c ****     /* UART5_RX Init */
ARM GAS  /tmp/ccQPV3qi.s 			page 24


 428:Core/Src/stm32h7xx_hal_msp.c ****     hdma_uart5_rx.Instance = DMA1_Stream2;
 429:Core/Src/stm32h7xx_hal_msp.c ****     hdma_uart5_rx.Init.Request = DMA_REQUEST_UART5_RX;
 430:Core/Src/stm32h7xx_hal_msp.c ****     hdma_uart5_rx.Init.Direction = DMA_PERIPH_TO_MEMORY;
 431:Core/Src/stm32h7xx_hal_msp.c ****     hdma_uart5_rx.Init.PeriphInc = DMA_PINC_DISABLE;
 432:Core/Src/stm32h7xx_hal_msp.c ****     hdma_uart5_rx.Init.MemInc = DMA_MINC_ENABLE;
 433:Core/Src/stm32h7xx_hal_msp.c ****     hdma_uart5_rx.Init.PeriphDataAlignment = DMA_PDATAALIGN_BYTE;
 434:Core/Src/stm32h7xx_hal_msp.c ****     hdma_uart5_rx.Init.MemDataAlignment = DMA_MDATAALIGN_BYTE;
 435:Core/Src/stm32h7xx_hal_msp.c ****     hdma_uart5_rx.Init.Mode = DMA_CIRCULAR;
 436:Core/Src/stm32h7xx_hal_msp.c ****     hdma_uart5_rx.Init.Priority = DMA_PRIORITY_LOW;
 437:Core/Src/stm32h7xx_hal_msp.c ****     hdma_uart5_rx.Init.FIFOMode = DMA_FIFOMODE_DISABLE;
 438:Core/Src/stm32h7xx_hal_msp.c ****     if (HAL_DMA_Init(&hdma_uart5_rx) != HAL_OK)
 439:Core/Src/stm32h7xx_hal_msp.c ****     {
 440:Core/Src/stm32h7xx_hal_msp.c ****       Error_Handler();
 441:Core/Src/stm32h7xx_hal_msp.c ****     }
 442:Core/Src/stm32h7xx_hal_msp.c **** 
 443:Core/Src/stm32h7xx_hal_msp.c ****     __HAL_LINKDMA(huart,hdmarx,hdma_uart5_rx);
 444:Core/Src/stm32h7xx_hal_msp.c **** 
 445:Core/Src/stm32h7xx_hal_msp.c ****     /* UART5_TX Init */
 446:Core/Src/stm32h7xx_hal_msp.c ****     hdma_uart5_tx.Instance = DMA1_Stream3;
 447:Core/Src/stm32h7xx_hal_msp.c ****     hdma_uart5_tx.Init.Request = DMA_REQUEST_UART5_TX;
 448:Core/Src/stm32h7xx_hal_msp.c ****     hdma_uart5_tx.Init.Direction = DMA_MEMORY_TO_PERIPH;
 449:Core/Src/stm32h7xx_hal_msp.c ****     hdma_uart5_tx.Init.PeriphInc = DMA_PINC_DISABLE;
 450:Core/Src/stm32h7xx_hal_msp.c ****     hdma_uart5_tx.Init.MemInc = DMA_MINC_ENABLE;
 451:Core/Src/stm32h7xx_hal_msp.c ****     hdma_uart5_tx.Init.PeriphDataAlignment = DMA_PDATAALIGN_BYTE;
 452:Core/Src/stm32h7xx_hal_msp.c ****     hdma_uart5_tx.Init.MemDataAlignment = DMA_MDATAALIGN_BYTE;
 453:Core/Src/stm32h7xx_hal_msp.c ****     hdma_uart5_tx.Init.Mode = DMA_NORMAL;
 454:Core/Src/stm32h7xx_hal_msp.c ****     hdma_uart5_tx.Init.Priority = DMA_PRIORITY_LOW;
 455:Core/Src/stm32h7xx_hal_msp.c ****     hdma_uart5_tx.Init.FIFOMode = DMA_FIFOMODE_DISABLE;
 456:Core/Src/stm32h7xx_hal_msp.c ****     if (HAL_DMA_Init(&hdma_uart5_tx) != HAL_OK)
 457:Core/Src/stm32h7xx_hal_msp.c ****     {
 458:Core/Src/stm32h7xx_hal_msp.c ****       Error_Handler();
 459:Core/Src/stm32h7xx_hal_msp.c ****     }
 460:Core/Src/stm32h7xx_hal_msp.c **** 
 461:Core/Src/stm32h7xx_hal_msp.c ****     __HAL_LINKDMA(huart,hdmatx,hdma_uart5_tx);
 462:Core/Src/stm32h7xx_hal_msp.c **** 
 463:Core/Src/stm32h7xx_hal_msp.c ****     /* UART5 interrupt Init */
 464:Core/Src/stm32h7xx_hal_msp.c ****     HAL_NVIC_SetPriority(UART5_IRQn, 5, 0);
 465:Core/Src/stm32h7xx_hal_msp.c ****     HAL_NVIC_EnableIRQ(UART5_IRQn);
 466:Core/Src/stm32h7xx_hal_msp.c ****   /* USER CODE BEGIN UART5_MspInit 1 */
 467:Core/Src/stm32h7xx_hal_msp.c **** 
 468:Core/Src/stm32h7xx_hal_msp.c ****   /* USER CODE END UART5_MspInit 1 */
 469:Core/Src/stm32h7xx_hal_msp.c ****   }
 470:Core/Src/stm32h7xx_hal_msp.c ****   else if(huart->Instance==USART2)
 746              		.loc 1 470 8 is_stmt 1 view .LVU208
 747              		.loc 1 470 10 is_stmt 0 view .LVU209
 748 002a A84A     		ldr	r2, .L55+8
 749 002c 9342     		cmp	r3, r2
 750 002e 00F00E81 		beq	.L47
 751              	.LVL44:
 752              	.L33:
 471:Core/Src/stm32h7xx_hal_msp.c ****   {
 472:Core/Src/stm32h7xx_hal_msp.c ****   /* USER CODE BEGIN USART2_MspInit 0 */
 473:Core/Src/stm32h7xx_hal_msp.c **** 
 474:Core/Src/stm32h7xx_hal_msp.c ****   /* USER CODE END USART2_MspInit 0 */
 475:Core/Src/stm32h7xx_hal_msp.c **** 
 476:Core/Src/stm32h7xx_hal_msp.c ****   /** Initializes the peripherals clock
 477:Core/Src/stm32h7xx_hal_msp.c ****   */
ARM GAS  /tmp/ccQPV3qi.s 			page 25


 478:Core/Src/stm32h7xx_hal_msp.c ****     PeriphClkInitStruct.PeriphClockSelection = RCC_PERIPHCLK_USART2;
 479:Core/Src/stm32h7xx_hal_msp.c ****     PeriphClkInitStruct.Usart234578ClockSelection = RCC_USART234578CLKSOURCE_D2PCLK1;
 480:Core/Src/stm32h7xx_hal_msp.c ****     if (HAL_RCCEx_PeriphCLKConfig(&PeriphClkInitStruct) != HAL_OK)
 481:Core/Src/stm32h7xx_hal_msp.c ****     {
 482:Core/Src/stm32h7xx_hal_msp.c ****       Error_Handler();
 483:Core/Src/stm32h7xx_hal_msp.c ****     }
 484:Core/Src/stm32h7xx_hal_msp.c **** 
 485:Core/Src/stm32h7xx_hal_msp.c ****     /* Peripheral clock enable */
 486:Core/Src/stm32h7xx_hal_msp.c ****     __HAL_RCC_USART2_CLK_ENABLE();
 487:Core/Src/stm32h7xx_hal_msp.c **** 
 488:Core/Src/stm32h7xx_hal_msp.c ****     __HAL_RCC_GPIOD_CLK_ENABLE();
 489:Core/Src/stm32h7xx_hal_msp.c ****     /**USART2 GPIO Configuration
 490:Core/Src/stm32h7xx_hal_msp.c ****     PD5     ------> USART2_TX
 491:Core/Src/stm32h7xx_hal_msp.c ****     PD6     ------> USART2_RX
 492:Core/Src/stm32h7xx_hal_msp.c ****     */
 493:Core/Src/stm32h7xx_hal_msp.c ****     GPIO_InitStruct.Pin = GPIO_PIN_5|GPIO_PIN_6;
 494:Core/Src/stm32h7xx_hal_msp.c ****     GPIO_InitStruct.Mode = GPIO_MODE_AF_PP;
 495:Core/Src/stm32h7xx_hal_msp.c ****     GPIO_InitStruct.Pull = GPIO_NOPULL;
 496:Core/Src/stm32h7xx_hal_msp.c ****     GPIO_InitStruct.Speed = GPIO_SPEED_FREQ_LOW;
 497:Core/Src/stm32h7xx_hal_msp.c ****     GPIO_InitStruct.Alternate = GPIO_AF7_USART2;
 498:Core/Src/stm32h7xx_hal_msp.c ****     HAL_GPIO_Init(GPIOD, &GPIO_InitStruct);
 499:Core/Src/stm32h7xx_hal_msp.c **** 
 500:Core/Src/stm32h7xx_hal_msp.c ****     /* USART2 interrupt Init */
 501:Core/Src/stm32h7xx_hal_msp.c ****     HAL_NVIC_SetPriority(USART2_IRQn, 5, 0);
 502:Core/Src/stm32h7xx_hal_msp.c ****     HAL_NVIC_EnableIRQ(USART2_IRQn);
 503:Core/Src/stm32h7xx_hal_msp.c ****   /* USER CODE BEGIN USART2_MspInit 1 */
 504:Core/Src/stm32h7xx_hal_msp.c **** 
 505:Core/Src/stm32h7xx_hal_msp.c ****   /* USER CODE END USART2_MspInit 1 */
 506:Core/Src/stm32h7xx_hal_msp.c ****   }
 507:Core/Src/stm32h7xx_hal_msp.c **** 
 508:Core/Src/stm32h7xx_hal_msp.c **** }
 753              		.loc 1 508 1 view .LVU210
 754 0032 3DB0     		add	sp, sp, #244
 755              	.LCFI14:
 756              		.cfi_remember_state
 757              		.cfi_def_cfa_offset 20
 758              		@ sp needed
 759 0034 F0BD     		pop	{r4, r5, r6, r7, pc}
 760              	.LVL45:
 761              	.L45:
 762              	.LCFI15:
 763              		.cfi_restore_state
 314:Core/Src/stm32h7xx_hal_msp.c ****     PeriphClkInitStruct.Usart234578ClockSelection = RCC_USART234578CLKSOURCE_D2PCLK1;
 764              		.loc 1 314 5 is_stmt 1 view .LVU211
 314:Core/Src/stm32h7xx_hal_msp.c ****     PeriphClkInitStruct.Usart234578ClockSelection = RCC_USART234578CLKSOURCE_D2PCLK1;
 765              		.loc 1 314 46 is_stmt 0 view .LVU212
 766 0036 0222     		movs	r2, #2
 767 0038 0023     		movs	r3, #0
 768 003a CDE90823 		strd	r2, [sp, #32]
 315:Core/Src/stm32h7xx_hal_msp.c ****     if (HAL_RCCEx_PeriphCLKConfig(&PeriphClkInitStruct) != HAL_OK)
 769              		.loc 1 315 5 is_stmt 1 view .LVU213
 316:Core/Src/stm32h7xx_hal_msp.c ****     {
 770              		.loc 1 316 5 view .LVU214
 316:Core/Src/stm32h7xx_hal_msp.c ****     {
 771              		.loc 1 316 9 is_stmt 0 view .LVU215
 772 003e 08A8     		add	r0, sp, #32
 773 0040 FFF7FEFF 		bl	HAL_RCCEx_PeriphCLKConfig
ARM GAS  /tmp/ccQPV3qi.s 			page 26


 774              	.LVL46:
 316:Core/Src/stm32h7xx_hal_msp.c ****     {
 775              		.loc 1 316 8 view .LVU216
 776 0044 0028     		cmp	r0, #0
 777 0046 72D1     		bne	.L48
 778              	.L35:
 322:Core/Src/stm32h7xx_hal_msp.c **** 
 779              		.loc 1 322 5 is_stmt 1 view .LVU217
 780              	.LBB12:
 322:Core/Src/stm32h7xx_hal_msp.c **** 
 781              		.loc 1 322 5 view .LVU218
 322:Core/Src/stm32h7xx_hal_msp.c **** 
 782              		.loc 1 322 5 view .LVU219
 783 0048 A14B     		ldr	r3, .L55+12
 784 004a D3F8E820 		ldr	r2, [r3, #232]
 785 004e 42F40022 		orr	r2, r2, #524288
 786 0052 C3F8E820 		str	r2, [r3, #232]
 322:Core/Src/stm32h7xx_hal_msp.c **** 
 787              		.loc 1 322 5 view .LVU220
 788 0056 D3F8E820 		ldr	r2, [r3, #232]
 789 005a 02F40022 		and	r2, r2, #524288
 790 005e 0092     		str	r2, [sp]
 322:Core/Src/stm32h7xx_hal_msp.c **** 
 791              		.loc 1 322 5 view .LVU221
 792 0060 009A     		ldr	r2, [sp]
 793              	.LBE12:
 322:Core/Src/stm32h7xx_hal_msp.c **** 
 794              		.loc 1 322 5 view .LVU222
 324:Core/Src/stm32h7xx_hal_msp.c ****     __HAL_RCC_GPIOD_CLK_ENABLE();
 795              		.loc 1 324 5 view .LVU223
 796              	.LBB13:
 324:Core/Src/stm32h7xx_hal_msp.c ****     __HAL_RCC_GPIOD_CLK_ENABLE();
 797              		.loc 1 324 5 view .LVU224
 324:Core/Src/stm32h7xx_hal_msp.c ****     __HAL_RCC_GPIOD_CLK_ENABLE();
 798              		.loc 1 324 5 view .LVU225
 799 0062 D3F8E020 		ldr	r2, [r3, #224]
 800 0066 42F00402 		orr	r2, r2, #4
 801 006a C3F8E020 		str	r2, [r3, #224]
 324:Core/Src/stm32h7xx_hal_msp.c ****     __HAL_RCC_GPIOD_CLK_ENABLE();
 802              		.loc 1 324 5 view .LVU226
 803 006e D3F8E020 		ldr	r2, [r3, #224]
 804 0072 02F00402 		and	r2, r2, #4
 805 0076 0192     		str	r2, [sp, #4]
 324:Core/Src/stm32h7xx_hal_msp.c ****     __HAL_RCC_GPIOD_CLK_ENABLE();
 806              		.loc 1 324 5 view .LVU227
 807 0078 019A     		ldr	r2, [sp, #4]
 808              	.LBE13:
 324:Core/Src/stm32h7xx_hal_msp.c ****     __HAL_RCC_GPIOD_CLK_ENABLE();
 809              		.loc 1 324 5 view .LVU228
 325:Core/Src/stm32h7xx_hal_msp.c ****     /**UART4 GPIO Configuration
 810              		.loc 1 325 5 view .LVU229
 811              	.LBB14:
 325:Core/Src/stm32h7xx_hal_msp.c ****     /**UART4 GPIO Configuration
 812              		.loc 1 325 5 view .LVU230
 325:Core/Src/stm32h7xx_hal_msp.c ****     /**UART4 GPIO Configuration
 813              		.loc 1 325 5 view .LVU231
 814 007a D3F8E020 		ldr	r2, [r3, #224]
ARM GAS  /tmp/ccQPV3qi.s 			page 27


 815 007e 42F00802 		orr	r2, r2, #8
 816 0082 C3F8E020 		str	r2, [r3, #224]
 325:Core/Src/stm32h7xx_hal_msp.c ****     /**UART4 GPIO Configuration
 817              		.loc 1 325 5 view .LVU232
 818 0086 D3F8E030 		ldr	r3, [r3, #224]
 819 008a 03F00803 		and	r3, r3, #8
 820 008e 0293     		str	r3, [sp, #8]
 325:Core/Src/stm32h7xx_hal_msp.c ****     /**UART4 GPIO Configuration
 821              		.loc 1 325 5 view .LVU233
 822 0090 029B     		ldr	r3, [sp, #8]
 823              	.LBE14:
 325:Core/Src/stm32h7xx_hal_msp.c ****     /**UART4 GPIO Configuration
 824              		.loc 1 325 5 view .LVU234
 330:Core/Src/stm32h7xx_hal_msp.c ****     GPIO_InitStruct.Mode = GPIO_MODE_AF_PP;
 825              		.loc 1 330 5 view .LVU235
 330:Core/Src/stm32h7xx_hal_msp.c ****     GPIO_InitStruct.Mode = GPIO_MODE_AF_PP;
 826              		.loc 1 330 25 is_stmt 0 view .LVU236
 827 0092 4FF40063 		mov	r3, #2048
 828 0096 3793     		str	r3, [sp, #220]
 331:Core/Src/stm32h7xx_hal_msp.c ****     GPIO_InitStruct.Pull = GPIO_NOPULL;
 829              		.loc 1 331 5 is_stmt 1 view .LVU237
 331:Core/Src/stm32h7xx_hal_msp.c ****     GPIO_InitStruct.Pull = GPIO_NOPULL;
 830              		.loc 1 331 26 is_stmt 0 view .LVU238
 831 0098 0226     		movs	r6, #2
 832 009a 3896     		str	r6, [sp, #224]
 332:Core/Src/stm32h7xx_hal_msp.c ****     GPIO_InitStruct.Speed = GPIO_SPEED_FREQ_LOW;
 833              		.loc 1 332 5 is_stmt 1 view .LVU239
 332:Core/Src/stm32h7xx_hal_msp.c ****     GPIO_InitStruct.Speed = GPIO_SPEED_FREQ_LOW;
 834              		.loc 1 332 26 is_stmt 0 view .LVU240
 835 009c 0025     		movs	r5, #0
 836 009e 3995     		str	r5, [sp, #228]
 333:Core/Src/stm32h7xx_hal_msp.c ****     GPIO_InitStruct.Alternate = GPIO_AF8_UART4;
 837              		.loc 1 333 5 is_stmt 1 view .LVU241
 333:Core/Src/stm32h7xx_hal_msp.c ****     GPIO_InitStruct.Alternate = GPIO_AF8_UART4;
 838              		.loc 1 333 27 is_stmt 0 view .LVU242
 839 00a0 3A95     		str	r5, [sp, #232]
 334:Core/Src/stm32h7xx_hal_msp.c ****     HAL_GPIO_Init(GPIOC, &GPIO_InitStruct);
 840              		.loc 1 334 5 is_stmt 1 view .LVU243
 334:Core/Src/stm32h7xx_hal_msp.c ****     HAL_GPIO_Init(GPIOC, &GPIO_InitStruct);
 841              		.loc 1 334 31 is_stmt 0 view .LVU244
 842 00a2 0827     		movs	r7, #8
 843 00a4 3B97     		str	r7, [sp, #236]
 335:Core/Src/stm32h7xx_hal_msp.c **** 
 844              		.loc 1 335 5 is_stmt 1 view .LVU245
 845 00a6 37A9     		add	r1, sp, #220
 846 00a8 8A48     		ldr	r0, .L55+16
 847 00aa FFF7FEFF 		bl	HAL_GPIO_Init
 848              	.LVL47:
 337:Core/Src/stm32h7xx_hal_msp.c ****     GPIO_InitStruct.Mode = GPIO_MODE_AF_PP;
 849              		.loc 1 337 5 view .LVU246
 337:Core/Src/stm32h7xx_hal_msp.c ****     GPIO_InitStruct.Mode = GPIO_MODE_AF_PP;
 850              		.loc 1 337 25 is_stmt 0 view .LVU247
 851 00ae 3796     		str	r6, [sp, #220]
 338:Core/Src/stm32h7xx_hal_msp.c ****     GPIO_InitStruct.Pull = GPIO_NOPULL;
 852              		.loc 1 338 5 is_stmt 1 view .LVU248
 338:Core/Src/stm32h7xx_hal_msp.c ****     GPIO_InitStruct.Pull = GPIO_NOPULL;
 853              		.loc 1 338 26 is_stmt 0 view .LVU249
ARM GAS  /tmp/ccQPV3qi.s 			page 28


 854 00b0 3896     		str	r6, [sp, #224]
 339:Core/Src/stm32h7xx_hal_msp.c ****     GPIO_InitStruct.Speed = GPIO_SPEED_FREQ_LOW;
 855              		.loc 1 339 5 is_stmt 1 view .LVU250
 339:Core/Src/stm32h7xx_hal_msp.c ****     GPIO_InitStruct.Speed = GPIO_SPEED_FREQ_LOW;
 856              		.loc 1 339 26 is_stmt 0 view .LVU251
 857 00b2 3995     		str	r5, [sp, #228]
 340:Core/Src/stm32h7xx_hal_msp.c ****     GPIO_InitStruct.Alternate = GPIO_AF8_UART4;
 858              		.loc 1 340 5 is_stmt 1 view .LVU252
 340:Core/Src/stm32h7xx_hal_msp.c ****     GPIO_InitStruct.Alternate = GPIO_AF8_UART4;
 859              		.loc 1 340 27 is_stmt 0 view .LVU253
 860 00b4 3A95     		str	r5, [sp, #232]
 341:Core/Src/stm32h7xx_hal_msp.c ****     HAL_GPIO_Init(GPIOD, &GPIO_InitStruct);
 861              		.loc 1 341 5 is_stmt 1 view .LVU254
 341:Core/Src/stm32h7xx_hal_msp.c ****     HAL_GPIO_Init(GPIOD, &GPIO_InitStruct);
 862              		.loc 1 341 31 is_stmt 0 view .LVU255
 863 00b6 3B97     		str	r7, [sp, #236]
 342:Core/Src/stm32h7xx_hal_msp.c **** 
 864              		.loc 1 342 5 is_stmt 1 view .LVU256
 865 00b8 37A9     		add	r1, sp, #220
 866 00ba 8748     		ldr	r0, .L55+20
 867 00bc FFF7FEFF 		bl	HAL_GPIO_Init
 868              	.LVL48:
 346:Core/Src/stm32h7xx_hal_msp.c ****     hdma_uart4_rx.Init.Request = DMA_REQUEST_UART4_RX;
 869              		.loc 1 346 5 view .LVU257
 346:Core/Src/stm32h7xx_hal_msp.c ****     hdma_uart4_rx.Init.Request = DMA_REQUEST_UART4_RX;
 870              		.loc 1 346 28 is_stmt 0 view .LVU258
 871 00c0 8648     		ldr	r0, .L55+24
 872 00c2 874B     		ldr	r3, .L55+28
 873 00c4 0360     		str	r3, [r0]
 347:Core/Src/stm32h7xx_hal_msp.c ****     hdma_uart4_rx.Init.Direction = DMA_PERIPH_TO_MEMORY;
 874              		.loc 1 347 5 is_stmt 1 view .LVU259
 347:Core/Src/stm32h7xx_hal_msp.c ****     hdma_uart4_rx.Init.Direction = DMA_PERIPH_TO_MEMORY;
 875              		.loc 1 347 32 is_stmt 0 view .LVU260
 876 00c6 3F23     		movs	r3, #63
 877 00c8 4360     		str	r3, [r0, #4]
 348:Core/Src/stm32h7xx_hal_msp.c ****     hdma_uart4_rx.Init.PeriphInc = DMA_PINC_DISABLE;
 878              		.loc 1 348 5 is_stmt 1 view .LVU261
 348:Core/Src/stm32h7xx_hal_msp.c ****     hdma_uart4_rx.Init.PeriphInc = DMA_PINC_DISABLE;
 879              		.loc 1 348 34 is_stmt 0 view .LVU262
 880 00ca 8560     		str	r5, [r0, #8]
 349:Core/Src/stm32h7xx_hal_msp.c ****     hdma_uart4_rx.Init.MemInc = DMA_MINC_ENABLE;
 881              		.loc 1 349 5 is_stmt 1 view .LVU263
 349:Core/Src/stm32h7xx_hal_msp.c ****     hdma_uart4_rx.Init.MemInc = DMA_MINC_ENABLE;
 882              		.loc 1 349 34 is_stmt 0 view .LVU264
 883 00cc C560     		str	r5, [r0, #12]
 350:Core/Src/stm32h7xx_hal_msp.c ****     hdma_uart4_rx.Init.PeriphDataAlignment = DMA_PDATAALIGN_BYTE;
 884              		.loc 1 350 5 is_stmt 1 view .LVU265
 350:Core/Src/stm32h7xx_hal_msp.c ****     hdma_uart4_rx.Init.PeriphDataAlignment = DMA_PDATAALIGN_BYTE;
 885              		.loc 1 350 31 is_stmt 0 view .LVU266
 886 00ce 4FF48063 		mov	r3, #1024
 887 00d2 0361     		str	r3, [r0, #16]
 351:Core/Src/stm32h7xx_hal_msp.c ****     hdma_uart4_rx.Init.MemDataAlignment = DMA_MDATAALIGN_BYTE;
 888              		.loc 1 351 5 is_stmt 1 view .LVU267
 351:Core/Src/stm32h7xx_hal_msp.c ****     hdma_uart4_rx.Init.MemDataAlignment = DMA_MDATAALIGN_BYTE;
 889              		.loc 1 351 44 is_stmt 0 view .LVU268
 890 00d4 4561     		str	r5, [r0, #20]
 352:Core/Src/stm32h7xx_hal_msp.c ****     hdma_uart4_rx.Init.Mode = DMA_CIRCULAR;
ARM GAS  /tmp/ccQPV3qi.s 			page 29


 891              		.loc 1 352 5 is_stmt 1 view .LVU269
 352:Core/Src/stm32h7xx_hal_msp.c ****     hdma_uart4_rx.Init.Mode = DMA_CIRCULAR;
 892              		.loc 1 352 41 is_stmt 0 view .LVU270
 893 00d6 8561     		str	r5, [r0, #24]
 353:Core/Src/stm32h7xx_hal_msp.c ****     hdma_uart4_rx.Init.Priority = DMA_PRIORITY_LOW;
 894              		.loc 1 353 5 is_stmt 1 view .LVU271
 353:Core/Src/stm32h7xx_hal_msp.c ****     hdma_uart4_rx.Init.Priority = DMA_PRIORITY_LOW;
 895              		.loc 1 353 29 is_stmt 0 view .LVU272
 896 00d8 4FF48073 		mov	r3, #256
 897 00dc C361     		str	r3, [r0, #28]
 354:Core/Src/stm32h7xx_hal_msp.c ****     hdma_uart4_rx.Init.FIFOMode = DMA_FIFOMODE_DISABLE;
 898              		.loc 1 354 5 is_stmt 1 view .LVU273
 354:Core/Src/stm32h7xx_hal_msp.c ****     hdma_uart4_rx.Init.FIFOMode = DMA_FIFOMODE_DISABLE;
 899              		.loc 1 354 33 is_stmt 0 view .LVU274
 900 00de 0562     		str	r5, [r0, #32]
 355:Core/Src/stm32h7xx_hal_msp.c ****     if (HAL_DMA_Init(&hdma_uart4_rx) != HAL_OK)
 901              		.loc 1 355 5 is_stmt 1 view .LVU275
 355:Core/Src/stm32h7xx_hal_msp.c ****     if (HAL_DMA_Init(&hdma_uart4_rx) != HAL_OK)
 902              		.loc 1 355 33 is_stmt 0 view .LVU276
 903 00e0 4562     		str	r5, [r0, #36]
 356:Core/Src/stm32h7xx_hal_msp.c ****     {
 904              		.loc 1 356 5 is_stmt 1 view .LVU277
 356:Core/Src/stm32h7xx_hal_msp.c ****     {
 905              		.loc 1 356 9 is_stmt 0 view .LVU278
 906 00e2 FFF7FEFF 		bl	HAL_DMA_Init
 907              	.LVL49:
 356:Core/Src/stm32h7xx_hal_msp.c ****     {
 908              		.loc 1 356 8 view .LVU279
 909 00e6 28BB     		cbnz	r0, .L49
 910              	.L36:
 361:Core/Src/stm32h7xx_hal_msp.c **** 
 911              		.loc 1 361 5 is_stmt 1 view .LVU280
 361:Core/Src/stm32h7xx_hal_msp.c **** 
 912              		.loc 1 361 5 view .LVU281
 913 00e8 7C4B     		ldr	r3, .L55+24
 914 00ea C4F88030 		str	r3, [r4, #128]
 361:Core/Src/stm32h7xx_hal_msp.c **** 
 915              		.loc 1 361 5 view .LVU282
 916 00ee 9C63     		str	r4, [r3, #56]
 361:Core/Src/stm32h7xx_hal_msp.c **** 
 917              		.loc 1 361 5 view .LVU283
 364:Core/Src/stm32h7xx_hal_msp.c ****     hdma_uart4_tx.Init.Request = DMA_REQUEST_UART4_TX;
 918              		.loc 1 364 5 view .LVU284
 364:Core/Src/stm32h7xx_hal_msp.c ****     hdma_uart4_tx.Init.Request = DMA_REQUEST_UART4_TX;
 919              		.loc 1 364 28 is_stmt 0 view .LVU285
 920 00f0 7C48     		ldr	r0, .L55+32
 921 00f2 7D4B     		ldr	r3, .L55+36
 922 00f4 0360     		str	r3, [r0]
 365:Core/Src/stm32h7xx_hal_msp.c ****     hdma_uart4_tx.Init.Direction = DMA_MEMORY_TO_PERIPH;
 923              		.loc 1 365 5 is_stmt 1 view .LVU286
 365:Core/Src/stm32h7xx_hal_msp.c ****     hdma_uart4_tx.Init.Direction = DMA_MEMORY_TO_PERIPH;
 924              		.loc 1 365 32 is_stmt 0 view .LVU287
 925 00f6 4023     		movs	r3, #64
 926 00f8 4360     		str	r3, [r0, #4]
 366:Core/Src/stm32h7xx_hal_msp.c ****     hdma_uart4_tx.Init.PeriphInc = DMA_PINC_DISABLE;
 927              		.loc 1 366 5 is_stmt 1 view .LVU288
 366:Core/Src/stm32h7xx_hal_msp.c ****     hdma_uart4_tx.Init.PeriphInc = DMA_PINC_DISABLE;
ARM GAS  /tmp/ccQPV3qi.s 			page 30


 928              		.loc 1 366 34 is_stmt 0 view .LVU289
 929 00fa 8360     		str	r3, [r0, #8]
 367:Core/Src/stm32h7xx_hal_msp.c ****     hdma_uart4_tx.Init.MemInc = DMA_MINC_ENABLE;
 930              		.loc 1 367 5 is_stmt 1 view .LVU290
 367:Core/Src/stm32h7xx_hal_msp.c ****     hdma_uart4_tx.Init.MemInc = DMA_MINC_ENABLE;
 931              		.loc 1 367 34 is_stmt 0 view .LVU291
 932 00fc 0023     		movs	r3, #0
 933 00fe C360     		str	r3, [r0, #12]
 368:Core/Src/stm32h7xx_hal_msp.c ****     hdma_uart4_tx.Init.PeriphDataAlignment = DMA_PDATAALIGN_BYTE;
 934              		.loc 1 368 5 is_stmt 1 view .LVU292
 368:Core/Src/stm32h7xx_hal_msp.c ****     hdma_uart4_tx.Init.PeriphDataAlignment = DMA_PDATAALIGN_BYTE;
 935              		.loc 1 368 31 is_stmt 0 view .LVU293
 936 0100 4FF48062 		mov	r2, #1024
 937 0104 0261     		str	r2, [r0, #16]
 369:Core/Src/stm32h7xx_hal_msp.c ****     hdma_uart4_tx.Init.MemDataAlignment = DMA_MDATAALIGN_BYTE;
 938              		.loc 1 369 5 is_stmt 1 view .LVU294
 369:Core/Src/stm32h7xx_hal_msp.c ****     hdma_uart4_tx.Init.MemDataAlignment = DMA_MDATAALIGN_BYTE;
 939              		.loc 1 369 44 is_stmt 0 view .LVU295
 940 0106 4361     		str	r3, [r0, #20]
 370:Core/Src/stm32h7xx_hal_msp.c ****     hdma_uart4_tx.Init.Mode = DMA_NORMAL;
 941              		.loc 1 370 5 is_stmt 1 view .LVU296
 370:Core/Src/stm32h7xx_hal_msp.c ****     hdma_uart4_tx.Init.Mode = DMA_NORMAL;
 942              		.loc 1 370 41 is_stmt 0 view .LVU297
 943 0108 8361     		str	r3, [r0, #24]
 371:Core/Src/stm32h7xx_hal_msp.c ****     hdma_uart4_tx.Init.Priority = DMA_PRIORITY_LOW;
 944              		.loc 1 371 5 is_stmt 1 view .LVU298
 371:Core/Src/stm32h7xx_hal_msp.c ****     hdma_uart4_tx.Init.Priority = DMA_PRIORITY_LOW;
 945              		.loc 1 371 29 is_stmt 0 view .LVU299
 946 010a C361     		str	r3, [r0, #28]
 372:Core/Src/stm32h7xx_hal_msp.c ****     hdma_uart4_tx.Init.FIFOMode = DMA_FIFOMODE_DISABLE;
 947              		.loc 1 372 5 is_stmt 1 view .LVU300
 372:Core/Src/stm32h7xx_hal_msp.c ****     hdma_uart4_tx.Init.FIFOMode = DMA_FIFOMODE_DISABLE;
 948              		.loc 1 372 33 is_stmt 0 view .LVU301
 949 010c 0362     		str	r3, [r0, #32]
 373:Core/Src/stm32h7xx_hal_msp.c ****     if (HAL_DMA_Init(&hdma_uart4_tx) != HAL_OK)
 950              		.loc 1 373 5 is_stmt 1 view .LVU302
 373:Core/Src/stm32h7xx_hal_msp.c ****     if (HAL_DMA_Init(&hdma_uart4_tx) != HAL_OK)
 951              		.loc 1 373 33 is_stmt 0 view .LVU303
 952 010e 4362     		str	r3, [r0, #36]
 374:Core/Src/stm32h7xx_hal_msp.c ****     {
 953              		.loc 1 374 5 is_stmt 1 view .LVU304
 374:Core/Src/stm32h7xx_hal_msp.c ****     {
 954              		.loc 1 374 9 is_stmt 0 view .LVU305
 955 0110 FFF7FEFF 		bl	HAL_DMA_Init
 956              	.LVL50:
 374:Core/Src/stm32h7xx_hal_msp.c ****     {
 957              		.loc 1 374 8 view .LVU306
 958 0114 88B9     		cbnz	r0, .L50
 959              	.L37:
 379:Core/Src/stm32h7xx_hal_msp.c **** 
 960              		.loc 1 379 5 is_stmt 1 view .LVU307
 379:Core/Src/stm32h7xx_hal_msp.c **** 
 961              		.loc 1 379 5 view .LVU308
 962 0116 734B     		ldr	r3, .L55+32
 963 0118 E367     		str	r3, [r4, #124]
 379:Core/Src/stm32h7xx_hal_msp.c **** 
 964              		.loc 1 379 5 view .LVU309
ARM GAS  /tmp/ccQPV3qi.s 			page 31


 965 011a 9C63     		str	r4, [r3, #56]
 379:Core/Src/stm32h7xx_hal_msp.c **** 
 966              		.loc 1 379 5 view .LVU310
 382:Core/Src/stm32h7xx_hal_msp.c ****     HAL_NVIC_EnableIRQ(UART4_IRQn);
 967              		.loc 1 382 5 view .LVU311
 968 011c 0022     		movs	r2, #0
 969 011e 0521     		movs	r1, #5
 970 0120 3420     		movs	r0, #52
 971 0122 FFF7FEFF 		bl	HAL_NVIC_SetPriority
 972              	.LVL51:
 383:Core/Src/stm32h7xx_hal_msp.c ****   /* USER CODE BEGIN UART4_MspInit 1 */
 973              		.loc 1 383 5 view .LVU312
 974 0126 3420     		movs	r0, #52
 975 0128 FFF7FEFF 		bl	HAL_NVIC_EnableIRQ
 976              	.LVL52:
 977 012c 81E7     		b	.L33
 978              	.L48:
 318:Core/Src/stm32h7xx_hal_msp.c ****     }
 979              		.loc 1 318 7 view .LVU313
 980 012e FFF7FEFF 		bl	Error_Handler
 981              	.LVL53:
 982 0132 89E7     		b	.L35
 983              	.L49:
 358:Core/Src/stm32h7xx_hal_msp.c ****     }
 984              		.loc 1 358 7 view .LVU314
 985 0134 FFF7FEFF 		bl	Error_Handler
 986              	.LVL54:
 987 0138 D6E7     		b	.L36
 988              	.L50:
 376:Core/Src/stm32h7xx_hal_msp.c ****     }
 989              		.loc 1 376 7 view .LVU315
 990 013a FFF7FEFF 		bl	Error_Handler
 991              	.LVL55:
 992 013e EAE7     		b	.L37
 993              	.L46:
 396:Core/Src/stm32h7xx_hal_msp.c ****     PeriphClkInitStruct.Usart234578ClockSelection = RCC_USART234578CLKSOURCE_D2PCLK1;
 994              		.loc 1 396 5 view .LVU316
 396:Core/Src/stm32h7xx_hal_msp.c ****     PeriphClkInitStruct.Usart234578ClockSelection = RCC_USART234578CLKSOURCE_D2PCLK1;
 995              		.loc 1 396 46 is_stmt 0 view .LVU317
 996 0140 0222     		movs	r2, #2
 997 0142 0023     		movs	r3, #0
 998 0144 CDE90823 		strd	r2, [sp, #32]
 397:Core/Src/stm32h7xx_hal_msp.c ****     if (HAL_RCCEx_PeriphCLKConfig(&PeriphClkInitStruct) != HAL_OK)
 999              		.loc 1 397 5 is_stmt 1 view .LVU318
 398:Core/Src/stm32h7xx_hal_msp.c ****     {
 1000              		.loc 1 398 5 view .LVU319
 398:Core/Src/stm32h7xx_hal_msp.c ****     {
 1001              		.loc 1 398 9 is_stmt 0 view .LVU320
 1002 0148 08A8     		add	r0, sp, #32
 1003 014a FFF7FEFF 		bl	HAL_RCCEx_PeriphCLKConfig
 1004              	.LVL56:
 398:Core/Src/stm32h7xx_hal_msp.c ****     {
 1005              		.loc 1 398 8 view .LVU321
 1006 014e 0028     		cmp	r0, #0
 1007 0150 74D1     		bne	.L51
 1008              	.L40:
 404:Core/Src/stm32h7xx_hal_msp.c **** 
ARM GAS  /tmp/ccQPV3qi.s 			page 32


 1009              		.loc 1 404 5 is_stmt 1 view .LVU322
 1010              	.LBB15:
 404:Core/Src/stm32h7xx_hal_msp.c **** 
 1011              		.loc 1 404 5 view .LVU323
 404:Core/Src/stm32h7xx_hal_msp.c **** 
 1012              		.loc 1 404 5 view .LVU324
 1013 0152 5F4B     		ldr	r3, .L55+12
 1014 0154 D3F8E820 		ldr	r2, [r3, #232]
 1015 0158 42F48012 		orr	r2, r2, #1048576
 1016 015c C3F8E820 		str	r2, [r3, #232]
 404:Core/Src/stm32h7xx_hal_msp.c **** 
 1017              		.loc 1 404 5 view .LVU325
 1018 0160 D3F8E820 		ldr	r2, [r3, #232]
 1019 0164 02F48012 		and	r2, r2, #1048576
 1020 0168 0392     		str	r2, [sp, #12]
 404:Core/Src/stm32h7xx_hal_msp.c **** 
 1021              		.loc 1 404 5 view .LVU326
 1022 016a 039A     		ldr	r2, [sp, #12]
 1023              	.LBE15:
 404:Core/Src/stm32h7xx_hal_msp.c **** 
 1024              		.loc 1 404 5 view .LVU327
 406:Core/Src/stm32h7xx_hal_msp.c ****     __HAL_RCC_GPIOD_CLK_ENABLE();
 1025              		.loc 1 406 5 view .LVU328
 1026              	.LBB16:
 406:Core/Src/stm32h7xx_hal_msp.c ****     __HAL_RCC_GPIOD_CLK_ENABLE();
 1027              		.loc 1 406 5 view .LVU329
 406:Core/Src/stm32h7xx_hal_msp.c ****     __HAL_RCC_GPIOD_CLK_ENABLE();
 1028              		.loc 1 406 5 view .LVU330
 1029 016c D3F8E020 		ldr	r2, [r3, #224]
 1030 0170 42F00402 		orr	r2, r2, #4
 1031 0174 C3F8E020 		str	r2, [r3, #224]
 406:Core/Src/stm32h7xx_hal_msp.c ****     __HAL_RCC_GPIOD_CLK_ENABLE();
 1032              		.loc 1 406 5 view .LVU331
 1033 0178 D3F8E020 		ldr	r2, [r3, #224]
 1034 017c 02F00402 		and	r2, r2, #4
 1035 0180 0492     		str	r2, [sp, #16]
 406:Core/Src/stm32h7xx_hal_msp.c ****     __HAL_RCC_GPIOD_CLK_ENABLE();
 1036              		.loc 1 406 5 view .LVU332
 1037 0182 049A     		ldr	r2, [sp, #16]
 1038              	.LBE16:
 406:Core/Src/stm32h7xx_hal_msp.c ****     __HAL_RCC_GPIOD_CLK_ENABLE();
 1039              		.loc 1 406 5 view .LVU333
 407:Core/Src/stm32h7xx_hal_msp.c ****     /**UART5 GPIO Configuration
 1040              		.loc 1 407 5 view .LVU334
 1041              	.LBB17:
 407:Core/Src/stm32h7xx_hal_msp.c ****     /**UART5 GPIO Configuration
 1042              		.loc 1 407 5 view .LVU335
 407:Core/Src/stm32h7xx_hal_msp.c ****     /**UART5 GPIO Configuration
 1043              		.loc 1 407 5 view .LVU336
 1044 0184 D3F8E020 		ldr	r2, [r3, #224]
 1045 0188 42F00802 		orr	r2, r2, #8
 1046 018c C3F8E020 		str	r2, [r3, #224]
 407:Core/Src/stm32h7xx_hal_msp.c ****     /**UART5 GPIO Configuration
 1047              		.loc 1 407 5 view .LVU337
 1048 0190 D3F8E030 		ldr	r3, [r3, #224]
 1049 0194 03F00803 		and	r3, r3, #8
 1050 0198 0593     		str	r3, [sp, #20]
ARM GAS  /tmp/ccQPV3qi.s 			page 33


 407:Core/Src/stm32h7xx_hal_msp.c ****     /**UART5 GPIO Configuration
 1051              		.loc 1 407 5 view .LVU338
 1052 019a 059B     		ldr	r3, [sp, #20]
 1053              	.LBE17:
 407:Core/Src/stm32h7xx_hal_msp.c ****     /**UART5 GPIO Configuration
 1054              		.loc 1 407 5 view .LVU339
 412:Core/Src/stm32h7xx_hal_msp.c ****     GPIO_InitStruct.Mode = GPIO_MODE_AF_PP;
 1055              		.loc 1 412 5 view .LVU340
 412:Core/Src/stm32h7xx_hal_msp.c ****     GPIO_InitStruct.Mode = GPIO_MODE_AF_PP;
 1056              		.loc 1 412 25 is_stmt 0 view .LVU341
 1057 019c 4FF48053 		mov	r3, #4096
 1058 01a0 3793     		str	r3, [sp, #220]
 413:Core/Src/stm32h7xx_hal_msp.c ****     GPIO_InitStruct.Pull = GPIO_NOPULL;
 1059              		.loc 1 413 5 is_stmt 1 view .LVU342
 413:Core/Src/stm32h7xx_hal_msp.c ****     GPIO_InitStruct.Pull = GPIO_NOPULL;
 1060              		.loc 1 413 26 is_stmt 0 view .LVU343
 1061 01a2 0227     		movs	r7, #2
 1062 01a4 3897     		str	r7, [sp, #224]
 414:Core/Src/stm32h7xx_hal_msp.c ****     GPIO_InitStruct.Speed = GPIO_SPEED_FREQ_LOW;
 1063              		.loc 1 414 5 is_stmt 1 view .LVU344
 414:Core/Src/stm32h7xx_hal_msp.c ****     GPIO_InitStruct.Speed = GPIO_SPEED_FREQ_LOW;
 1064              		.loc 1 414 26 is_stmt 0 view .LVU345
 1065 01a6 0025     		movs	r5, #0
 1066 01a8 3995     		str	r5, [sp, #228]
 415:Core/Src/stm32h7xx_hal_msp.c ****     GPIO_InitStruct.Alternate = GPIO_AF8_UART5;
 1067              		.loc 1 415 5 is_stmt 1 view .LVU346
 415:Core/Src/stm32h7xx_hal_msp.c ****     GPIO_InitStruct.Alternate = GPIO_AF8_UART5;
 1068              		.loc 1 415 27 is_stmt 0 view .LVU347
 1069 01aa 3A95     		str	r5, [sp, #232]
 416:Core/Src/stm32h7xx_hal_msp.c ****     HAL_GPIO_Init(GPIOC, &GPIO_InitStruct);
 1070              		.loc 1 416 5 is_stmt 1 view .LVU348
 416:Core/Src/stm32h7xx_hal_msp.c ****     HAL_GPIO_Init(GPIOC, &GPIO_InitStruct);
 1071              		.loc 1 416 31 is_stmt 0 view .LVU349
 1072 01ac 0826     		movs	r6, #8
 1073 01ae 3B96     		str	r6, [sp, #236]
 417:Core/Src/stm32h7xx_hal_msp.c **** 
 1074              		.loc 1 417 5 is_stmt 1 view .LVU350
 1075 01b0 37A9     		add	r1, sp, #220
 1076 01b2 4848     		ldr	r0, .L55+16
 1077 01b4 FFF7FEFF 		bl	HAL_GPIO_Init
 1078              	.LVL57:
 419:Core/Src/stm32h7xx_hal_msp.c ****     GPIO_InitStruct.Mode = GPIO_MODE_AF_PP;
 1079              		.loc 1 419 5 view .LVU351
 419:Core/Src/stm32h7xx_hal_msp.c ****     GPIO_InitStruct.Mode = GPIO_MODE_AF_PP;
 1080              		.loc 1 419 25 is_stmt 0 view .LVU352
 1081 01b8 0423     		movs	r3, #4
 1082 01ba 3793     		str	r3, [sp, #220]
 420:Core/Src/stm32h7xx_hal_msp.c ****     GPIO_InitStruct.Pull = GPIO_NOPULL;
 1083              		.loc 1 420 5 is_stmt 1 view .LVU353
 420:Core/Src/stm32h7xx_hal_msp.c ****     GPIO_InitStruct.Pull = GPIO_NOPULL;
 1084              		.loc 1 420 26 is_stmt 0 view .LVU354
 1085 01bc 3897     		str	r7, [sp, #224]
 421:Core/Src/stm32h7xx_hal_msp.c ****     GPIO_InitStruct.Speed = GPIO_SPEED_FREQ_LOW;
 1086              		.loc 1 421 5 is_stmt 1 view .LVU355
 421:Core/Src/stm32h7xx_hal_msp.c ****     GPIO_InitStruct.Speed = GPIO_SPEED_FREQ_LOW;
 1087              		.loc 1 421 26 is_stmt 0 view .LVU356
 1088 01be 3995     		str	r5, [sp, #228]
ARM GAS  /tmp/ccQPV3qi.s 			page 34


 422:Core/Src/stm32h7xx_hal_msp.c ****     GPIO_InitStruct.Alternate = GPIO_AF8_UART5;
 1089              		.loc 1 422 5 is_stmt 1 view .LVU357
 422:Core/Src/stm32h7xx_hal_msp.c ****     GPIO_InitStruct.Alternate = GPIO_AF8_UART5;
 1090              		.loc 1 422 27 is_stmt 0 view .LVU358
 1091 01c0 3A95     		str	r5, [sp, #232]
 423:Core/Src/stm32h7xx_hal_msp.c ****     HAL_GPIO_Init(GPIOD, &GPIO_InitStruct);
 1092              		.loc 1 423 5 is_stmt 1 view .LVU359
 423:Core/Src/stm32h7xx_hal_msp.c ****     HAL_GPIO_Init(GPIOD, &GPIO_InitStruct);
 1093              		.loc 1 423 31 is_stmt 0 view .LVU360
 1094 01c2 3B96     		str	r6, [sp, #236]
 424:Core/Src/stm32h7xx_hal_msp.c **** 
 1095              		.loc 1 424 5 is_stmt 1 view .LVU361
 1096 01c4 37A9     		add	r1, sp, #220
 1097 01c6 4448     		ldr	r0, .L55+20
 1098 01c8 FFF7FEFF 		bl	HAL_GPIO_Init
 1099              	.LVL58:
 428:Core/Src/stm32h7xx_hal_msp.c ****     hdma_uart5_rx.Init.Request = DMA_REQUEST_UART5_RX;
 1100              		.loc 1 428 5 view .LVU362
 428:Core/Src/stm32h7xx_hal_msp.c ****     hdma_uart5_rx.Init.Request = DMA_REQUEST_UART5_RX;
 1101              		.loc 1 428 28 is_stmt 0 view .LVU363
 1102 01cc 4748     		ldr	r0, .L55+40
 1103 01ce 484B     		ldr	r3, .L55+44
 1104 01d0 0360     		str	r3, [r0]
 429:Core/Src/stm32h7xx_hal_msp.c ****     hdma_uart5_rx.Init.Direction = DMA_PERIPH_TO_MEMORY;
 1105              		.loc 1 429 5 is_stmt 1 view .LVU364
 429:Core/Src/stm32h7xx_hal_msp.c ****     hdma_uart5_rx.Init.Direction = DMA_PERIPH_TO_MEMORY;
 1106              		.loc 1 429 32 is_stmt 0 view .LVU365
 1107 01d2 4123     		movs	r3, #65
 1108 01d4 4360     		str	r3, [r0, #4]
 430:Core/Src/stm32h7xx_hal_msp.c ****     hdma_uart5_rx.Init.PeriphInc = DMA_PINC_DISABLE;
 1109              		.loc 1 430 5 is_stmt 1 view .LVU366
 430:Core/Src/stm32h7xx_hal_msp.c ****     hdma_uart5_rx.Init.PeriphInc = DMA_PINC_DISABLE;
 1110              		.loc 1 430 34 is_stmt 0 view .LVU367
 1111 01d6 8560     		str	r5, [r0, #8]
 431:Core/Src/stm32h7xx_hal_msp.c ****     hdma_uart5_rx.Init.MemInc = DMA_MINC_ENABLE;
 1112              		.loc 1 431 5 is_stmt 1 view .LVU368
 431:Core/Src/stm32h7xx_hal_msp.c ****     hdma_uart5_rx.Init.MemInc = DMA_MINC_ENABLE;
 1113              		.loc 1 431 34 is_stmt 0 view .LVU369
 1114 01d8 C560     		str	r5, [r0, #12]
 432:Core/Src/stm32h7xx_hal_msp.c ****     hdma_uart5_rx.Init.PeriphDataAlignment = DMA_PDATAALIGN_BYTE;
 1115              		.loc 1 432 5 is_stmt 1 view .LVU370
 432:Core/Src/stm32h7xx_hal_msp.c ****     hdma_uart5_rx.Init.PeriphDataAlignment = DMA_PDATAALIGN_BYTE;
 1116              		.loc 1 432 31 is_stmt 0 view .LVU371
 1117 01da 4FF48063 		mov	r3, #1024
 1118 01de 0361     		str	r3, [r0, #16]
 433:Core/Src/stm32h7xx_hal_msp.c ****     hdma_uart5_rx.Init.MemDataAlignment = DMA_MDATAALIGN_BYTE;
 1119              		.loc 1 433 5 is_stmt 1 view .LVU372
 433:Core/Src/stm32h7xx_hal_msp.c ****     hdma_uart5_rx.Init.MemDataAlignment = DMA_MDATAALIGN_BYTE;
 1120              		.loc 1 433 44 is_stmt 0 view .LVU373
 1121 01e0 4561     		str	r5, [r0, #20]
 434:Core/Src/stm32h7xx_hal_msp.c ****     hdma_uart5_rx.Init.Mode = DMA_CIRCULAR;
 1122              		.loc 1 434 5 is_stmt 1 view .LVU374
 434:Core/Src/stm32h7xx_hal_msp.c ****     hdma_uart5_rx.Init.Mode = DMA_CIRCULAR;
 1123              		.loc 1 434 41 is_stmt 0 view .LVU375
 1124 01e2 8561     		str	r5, [r0, #24]
 435:Core/Src/stm32h7xx_hal_msp.c ****     hdma_uart5_rx.Init.Priority = DMA_PRIORITY_LOW;
 1125              		.loc 1 435 5 is_stmt 1 view .LVU376
ARM GAS  /tmp/ccQPV3qi.s 			page 35


 435:Core/Src/stm32h7xx_hal_msp.c ****     hdma_uart5_rx.Init.Priority = DMA_PRIORITY_LOW;
 1126              		.loc 1 435 29 is_stmt 0 view .LVU377
 1127 01e4 4FF48073 		mov	r3, #256
 1128 01e8 C361     		str	r3, [r0, #28]
 436:Core/Src/stm32h7xx_hal_msp.c ****     hdma_uart5_rx.Init.FIFOMode = DMA_FIFOMODE_DISABLE;
 1129              		.loc 1 436 5 is_stmt 1 view .LVU378
 436:Core/Src/stm32h7xx_hal_msp.c ****     hdma_uart5_rx.Init.FIFOMode = DMA_FIFOMODE_DISABLE;
 1130              		.loc 1 436 33 is_stmt 0 view .LVU379
 1131 01ea 0562     		str	r5, [r0, #32]
 437:Core/Src/stm32h7xx_hal_msp.c ****     if (HAL_DMA_Init(&hdma_uart5_rx) != HAL_OK)
 1132              		.loc 1 437 5 is_stmt 1 view .LVU380
 437:Core/Src/stm32h7xx_hal_msp.c ****     if (HAL_DMA_Init(&hdma_uart5_rx) != HAL_OK)
 1133              		.loc 1 437 33 is_stmt 0 view .LVU381
 1134 01ec 4562     		str	r5, [r0, #36]
 438:Core/Src/stm32h7xx_hal_msp.c ****     {
 1135              		.loc 1 438 5 is_stmt 1 view .LVU382
 438:Core/Src/stm32h7xx_hal_msp.c ****     {
 1136              		.loc 1 438 9 is_stmt 0 view .LVU383
 1137 01ee FFF7FEFF 		bl	HAL_DMA_Init
 1138              	.LVL59:
 438:Core/Src/stm32h7xx_hal_msp.c ****     {
 1139              		.loc 1 438 8 view .LVU384
 1140 01f2 30BB     		cbnz	r0, .L52
 1141              	.L41:
 443:Core/Src/stm32h7xx_hal_msp.c **** 
 1142              		.loc 1 443 5 is_stmt 1 view .LVU385
 443:Core/Src/stm32h7xx_hal_msp.c **** 
 1143              		.loc 1 443 5 view .LVU386
 1144 01f4 3D4B     		ldr	r3, .L55+40
 1145 01f6 C4F88030 		str	r3, [r4, #128]
 443:Core/Src/stm32h7xx_hal_msp.c **** 
 1146              		.loc 1 443 5 view .LVU387
 1147 01fa 9C63     		str	r4, [r3, #56]
 443:Core/Src/stm32h7xx_hal_msp.c **** 
 1148              		.loc 1 443 5 view .LVU388
 446:Core/Src/stm32h7xx_hal_msp.c ****     hdma_uart5_tx.Init.Request = DMA_REQUEST_UART5_TX;
 1149              		.loc 1 446 5 view .LVU389
 446:Core/Src/stm32h7xx_hal_msp.c ****     hdma_uart5_tx.Init.Request = DMA_REQUEST_UART5_TX;
 1150              		.loc 1 446 28 is_stmt 0 view .LVU390
 1151 01fc 3D48     		ldr	r0, .L55+48
 1152 01fe 3E4B     		ldr	r3, .L55+52
 1153 0200 0360     		str	r3, [r0]
 447:Core/Src/stm32h7xx_hal_msp.c ****     hdma_uart5_tx.Init.Direction = DMA_MEMORY_TO_PERIPH;
 1154              		.loc 1 447 5 is_stmt 1 view .LVU391
 447:Core/Src/stm32h7xx_hal_msp.c ****     hdma_uart5_tx.Init.Direction = DMA_MEMORY_TO_PERIPH;
 1155              		.loc 1 447 32 is_stmt 0 view .LVU392
 1156 0202 4223     		movs	r3, #66
 1157 0204 4360     		str	r3, [r0, #4]
 448:Core/Src/stm32h7xx_hal_msp.c ****     hdma_uart5_tx.Init.PeriphInc = DMA_PINC_DISABLE;
 1158              		.loc 1 448 5 is_stmt 1 view .LVU393
 448:Core/Src/stm32h7xx_hal_msp.c ****     hdma_uart5_tx.Init.PeriphInc = DMA_PINC_DISABLE;
 1159              		.loc 1 448 34 is_stmt 0 view .LVU394
 1160 0206 4023     		movs	r3, #64
 1161 0208 8360     		str	r3, [r0, #8]
 449:Core/Src/stm32h7xx_hal_msp.c ****     hdma_uart5_tx.Init.MemInc = DMA_MINC_ENABLE;
 1162              		.loc 1 449 5 is_stmt 1 view .LVU395
 449:Core/Src/stm32h7xx_hal_msp.c ****     hdma_uart5_tx.Init.MemInc = DMA_MINC_ENABLE;
ARM GAS  /tmp/ccQPV3qi.s 			page 36


 1163              		.loc 1 449 34 is_stmt 0 view .LVU396
 1164 020a 0023     		movs	r3, #0
 1165 020c C360     		str	r3, [r0, #12]
 450:Core/Src/stm32h7xx_hal_msp.c ****     hdma_uart5_tx.Init.PeriphDataAlignment = DMA_PDATAALIGN_BYTE;
 1166              		.loc 1 450 5 is_stmt 1 view .LVU397
 450:Core/Src/stm32h7xx_hal_msp.c ****     hdma_uart5_tx.Init.PeriphDataAlignment = DMA_PDATAALIGN_BYTE;
 1167              		.loc 1 450 31 is_stmt 0 view .LVU398
 1168 020e 4FF48062 		mov	r2, #1024
 1169 0212 0261     		str	r2, [r0, #16]
 451:Core/Src/stm32h7xx_hal_msp.c ****     hdma_uart5_tx.Init.MemDataAlignment = DMA_MDATAALIGN_BYTE;
 1170              		.loc 1 451 5 is_stmt 1 view .LVU399
 451:Core/Src/stm32h7xx_hal_msp.c ****     hdma_uart5_tx.Init.MemDataAlignment = DMA_MDATAALIGN_BYTE;
 1171              		.loc 1 451 44 is_stmt 0 view .LVU400
 1172 0214 4361     		str	r3, [r0, #20]
 452:Core/Src/stm32h7xx_hal_msp.c ****     hdma_uart5_tx.Init.Mode = DMA_NORMAL;
 1173              		.loc 1 452 5 is_stmt 1 view .LVU401
 452:Core/Src/stm32h7xx_hal_msp.c ****     hdma_uart5_tx.Init.Mode = DMA_NORMAL;
 1174              		.loc 1 452 41 is_stmt 0 view .LVU402
 1175 0216 8361     		str	r3, [r0, #24]
 453:Core/Src/stm32h7xx_hal_msp.c ****     hdma_uart5_tx.Init.Priority = DMA_PRIORITY_LOW;
 1176              		.loc 1 453 5 is_stmt 1 view .LVU403
 453:Core/Src/stm32h7xx_hal_msp.c ****     hdma_uart5_tx.Init.Priority = DMA_PRIORITY_LOW;
 1177              		.loc 1 453 29 is_stmt 0 view .LVU404
 1178 0218 C361     		str	r3, [r0, #28]
 454:Core/Src/stm32h7xx_hal_msp.c ****     hdma_uart5_tx.Init.FIFOMode = DMA_FIFOMODE_DISABLE;
 1179              		.loc 1 454 5 is_stmt 1 view .LVU405
 454:Core/Src/stm32h7xx_hal_msp.c ****     hdma_uart5_tx.Init.FIFOMode = DMA_FIFOMODE_DISABLE;
 1180              		.loc 1 454 33 is_stmt 0 view .LVU406
 1181 021a 0362     		str	r3, [r0, #32]
 455:Core/Src/stm32h7xx_hal_msp.c ****     if (HAL_DMA_Init(&hdma_uart5_tx) != HAL_OK)
 1182              		.loc 1 455 5 is_stmt 1 view .LVU407
 455:Core/Src/stm32h7xx_hal_msp.c ****     if (HAL_DMA_Init(&hdma_uart5_tx) != HAL_OK)
 1183              		.loc 1 455 33 is_stmt 0 view .LVU408
 1184 021c 4362     		str	r3, [r0, #36]
 456:Core/Src/stm32h7xx_hal_msp.c ****     {
 1185              		.loc 1 456 5 is_stmt 1 view .LVU409
 456:Core/Src/stm32h7xx_hal_msp.c ****     {
 1186              		.loc 1 456 9 is_stmt 0 view .LVU410
 1187 021e FFF7FEFF 		bl	HAL_DMA_Init
 1188              	.LVL60:
 456:Core/Src/stm32h7xx_hal_msp.c ****     {
 1189              		.loc 1 456 8 view .LVU411
 1190 0222 88B9     		cbnz	r0, .L53
 1191              	.L42:
 461:Core/Src/stm32h7xx_hal_msp.c **** 
 1192              		.loc 1 461 5 is_stmt 1 view .LVU412
 461:Core/Src/stm32h7xx_hal_msp.c **** 
 1193              		.loc 1 461 5 view .LVU413
 1194 0224 334B     		ldr	r3, .L55+48
 1195 0226 E367     		str	r3, [r4, #124]
 461:Core/Src/stm32h7xx_hal_msp.c **** 
 1196              		.loc 1 461 5 view .LVU414
 1197 0228 9C63     		str	r4, [r3, #56]
 461:Core/Src/stm32h7xx_hal_msp.c **** 
 1198              		.loc 1 461 5 view .LVU415
 464:Core/Src/stm32h7xx_hal_msp.c ****     HAL_NVIC_EnableIRQ(UART5_IRQn);
 1199              		.loc 1 464 5 view .LVU416
ARM GAS  /tmp/ccQPV3qi.s 			page 37


 1200 022a 0022     		movs	r2, #0
 1201 022c 0521     		movs	r1, #5
 1202 022e 3520     		movs	r0, #53
 1203 0230 FFF7FEFF 		bl	HAL_NVIC_SetPriority
 1204              	.LVL61:
 465:Core/Src/stm32h7xx_hal_msp.c ****   /* USER CODE BEGIN UART5_MspInit 1 */
 1205              		.loc 1 465 5 view .LVU417
 1206 0234 3520     		movs	r0, #53
 1207 0236 FFF7FEFF 		bl	HAL_NVIC_EnableIRQ
 1208              	.LVL62:
 1209 023a FAE6     		b	.L33
 1210              	.L51:
 400:Core/Src/stm32h7xx_hal_msp.c ****     }
 1211              		.loc 1 400 7 view .LVU418
 1212 023c FFF7FEFF 		bl	Error_Handler
 1213              	.LVL63:
 1214 0240 87E7     		b	.L40
 1215              	.L52:
 440:Core/Src/stm32h7xx_hal_msp.c ****     }
 1216              		.loc 1 440 7 view .LVU419
 1217 0242 FFF7FEFF 		bl	Error_Handler
 1218              	.LVL64:
 1219 0246 D5E7     		b	.L41
 1220              	.L53:
 458:Core/Src/stm32h7xx_hal_msp.c ****     }
 1221              		.loc 1 458 7 view .LVU420
 1222 0248 FFF7FEFF 		bl	Error_Handler
 1223              	.LVL65:
 1224 024c EAE7     		b	.L42
 1225              	.L47:
 478:Core/Src/stm32h7xx_hal_msp.c ****     PeriphClkInitStruct.Usart234578ClockSelection = RCC_USART234578CLKSOURCE_D2PCLK1;
 1226              		.loc 1 478 5 view .LVU421
 478:Core/Src/stm32h7xx_hal_msp.c ****     PeriphClkInitStruct.Usart234578ClockSelection = RCC_USART234578CLKSOURCE_D2PCLK1;
 1227              		.loc 1 478 46 is_stmt 0 view .LVU422
 1228 024e 0222     		movs	r2, #2
 1229 0250 0023     		movs	r3, #0
 1230 0252 CDE90823 		strd	r2, [sp, #32]
 479:Core/Src/stm32h7xx_hal_msp.c ****     if (HAL_RCCEx_PeriphCLKConfig(&PeriphClkInitStruct) != HAL_OK)
 1231              		.loc 1 479 5 is_stmt 1 view .LVU423
 480:Core/Src/stm32h7xx_hal_msp.c ****     {
 1232              		.loc 1 480 5 view .LVU424
 480:Core/Src/stm32h7xx_hal_msp.c ****     {
 1233              		.loc 1 480 9 is_stmt 0 view .LVU425
 1234 0256 08A8     		add	r0, sp, #32
 1235 0258 FFF7FEFF 		bl	HAL_RCCEx_PeriphCLKConfig
 1236              	.LVL66:
 480:Core/Src/stm32h7xx_hal_msp.c ****     {
 1237              		.loc 1 480 8 view .LVU426
 1238 025c 70BB     		cbnz	r0, .L54
 1239              	.L43:
 486:Core/Src/stm32h7xx_hal_msp.c **** 
 1240              		.loc 1 486 5 is_stmt 1 view .LVU427
 1241              	.LBB18:
 486:Core/Src/stm32h7xx_hal_msp.c **** 
 1242              		.loc 1 486 5 view .LVU428
 486:Core/Src/stm32h7xx_hal_msp.c **** 
 1243              		.loc 1 486 5 view .LVU429
ARM GAS  /tmp/ccQPV3qi.s 			page 38


 1244 025e 1C4B     		ldr	r3, .L55+12
 1245 0260 D3F8E820 		ldr	r2, [r3, #232]
 1246 0264 42F40032 		orr	r2, r2, #131072
 1247 0268 C3F8E820 		str	r2, [r3, #232]
 486:Core/Src/stm32h7xx_hal_msp.c **** 
 1248              		.loc 1 486 5 view .LVU430
 1249 026c D3F8E820 		ldr	r2, [r3, #232]
 1250 0270 02F40032 		and	r2, r2, #131072
 1251 0274 0692     		str	r2, [sp, #24]
 486:Core/Src/stm32h7xx_hal_msp.c **** 
 1252              		.loc 1 486 5 view .LVU431
 1253 0276 069A     		ldr	r2, [sp, #24]
 1254              	.LBE18:
 486:Core/Src/stm32h7xx_hal_msp.c **** 
 1255              		.loc 1 486 5 view .LVU432
 488:Core/Src/stm32h7xx_hal_msp.c ****     /**USART2 GPIO Configuration
 1256              		.loc 1 488 5 view .LVU433
 1257              	.LBB19:
 488:Core/Src/stm32h7xx_hal_msp.c ****     /**USART2 GPIO Configuration
 1258              		.loc 1 488 5 view .LVU434
 488:Core/Src/stm32h7xx_hal_msp.c ****     /**USART2 GPIO Configuration
 1259              		.loc 1 488 5 view .LVU435
 1260 0278 D3F8E020 		ldr	r2, [r3, #224]
 1261 027c 42F00802 		orr	r2, r2, #8
 1262 0280 C3F8E020 		str	r2, [r3, #224]
 488:Core/Src/stm32h7xx_hal_msp.c ****     /**USART2 GPIO Configuration
 1263              		.loc 1 488 5 view .LVU436
 1264 0284 D3F8E030 		ldr	r3, [r3, #224]
 1265 0288 03F00803 		and	r3, r3, #8
 1266 028c 0793     		str	r3, [sp, #28]
 488:Core/Src/stm32h7xx_hal_msp.c ****     /**USART2 GPIO Configuration
 1267              		.loc 1 488 5 view .LVU437
 1268 028e 079B     		ldr	r3, [sp, #28]
 1269              	.LBE19:
 488:Core/Src/stm32h7xx_hal_msp.c ****     /**USART2 GPIO Configuration
 1270              		.loc 1 488 5 view .LVU438
 493:Core/Src/stm32h7xx_hal_msp.c ****     GPIO_InitStruct.Mode = GPIO_MODE_AF_PP;
 1271              		.loc 1 493 5 view .LVU439
 493:Core/Src/stm32h7xx_hal_msp.c ****     GPIO_InitStruct.Mode = GPIO_MODE_AF_PP;
 1272              		.loc 1 493 25 is_stmt 0 view .LVU440
 1273 0290 6023     		movs	r3, #96
 1274 0292 3793     		str	r3, [sp, #220]
 494:Core/Src/stm32h7xx_hal_msp.c ****     GPIO_InitStruct.Pull = GPIO_NOPULL;
 1275              		.loc 1 494 5 is_stmt 1 view .LVU441
 494:Core/Src/stm32h7xx_hal_msp.c ****     GPIO_InitStruct.Pull = GPIO_NOPULL;
 1276              		.loc 1 494 26 is_stmt 0 view .LVU442
 1277 0294 0223     		movs	r3, #2
 1278 0296 3893     		str	r3, [sp, #224]
 495:Core/Src/stm32h7xx_hal_msp.c ****     GPIO_InitStruct.Speed = GPIO_SPEED_FREQ_LOW;
 1279              		.loc 1 495 5 is_stmt 1 view .LVU443
 495:Core/Src/stm32h7xx_hal_msp.c ****     GPIO_InitStruct.Speed = GPIO_SPEED_FREQ_LOW;
 1280              		.loc 1 495 26 is_stmt 0 view .LVU444
 1281 0298 0024     		movs	r4, #0
 1282              	.LVL67:
 495:Core/Src/stm32h7xx_hal_msp.c ****     GPIO_InitStruct.Speed = GPIO_SPEED_FREQ_LOW;
 1283              		.loc 1 495 26 view .LVU445
 1284 029a 3994     		str	r4, [sp, #228]
ARM GAS  /tmp/ccQPV3qi.s 			page 39


 496:Core/Src/stm32h7xx_hal_msp.c ****     GPIO_InitStruct.Alternate = GPIO_AF7_USART2;
 1285              		.loc 1 496 5 is_stmt 1 view .LVU446
 496:Core/Src/stm32h7xx_hal_msp.c ****     GPIO_InitStruct.Alternate = GPIO_AF7_USART2;
 1286              		.loc 1 496 27 is_stmt 0 view .LVU447
 1287 029c 3A94     		str	r4, [sp, #232]
 497:Core/Src/stm32h7xx_hal_msp.c ****     HAL_GPIO_Init(GPIOD, &GPIO_InitStruct);
 1288              		.loc 1 497 5 is_stmt 1 view .LVU448
 497:Core/Src/stm32h7xx_hal_msp.c ****     HAL_GPIO_Init(GPIOD, &GPIO_InitStruct);
 1289              		.loc 1 497 31 is_stmt 0 view .LVU449
 1290 029e 0723     		movs	r3, #7
 1291 02a0 3B93     		str	r3, [sp, #236]
 498:Core/Src/stm32h7xx_hal_msp.c **** 
 1292              		.loc 1 498 5 is_stmt 1 view .LVU450
 1293 02a2 37A9     		add	r1, sp, #220
 1294 02a4 0C48     		ldr	r0, .L55+20
 1295 02a6 FFF7FEFF 		bl	HAL_GPIO_Init
 1296              	.LVL68:
 501:Core/Src/stm32h7xx_hal_msp.c ****     HAL_NVIC_EnableIRQ(USART2_IRQn);
 1297              		.loc 1 501 5 view .LVU451
 1298 02aa 2246     		mov	r2, r4
 1299 02ac 0521     		movs	r1, #5
 1300 02ae 2620     		movs	r0, #38
 1301 02b0 FFF7FEFF 		bl	HAL_NVIC_SetPriority
 1302              	.LVL69:
 502:Core/Src/stm32h7xx_hal_msp.c ****   /* USER CODE BEGIN USART2_MspInit 1 */
 1303              		.loc 1 502 5 view .LVU452
 1304 02b4 2620     		movs	r0, #38
 1305 02b6 FFF7FEFF 		bl	HAL_NVIC_EnableIRQ
 1306              	.LVL70:
 1307              		.loc 1 508 1 is_stmt 0 view .LVU453
 1308 02ba BAE6     		b	.L33
 1309              	.LVL71:
 1310              	.L54:
 482:Core/Src/stm32h7xx_hal_msp.c ****     }
 1311              		.loc 1 482 7 is_stmt 1 view .LVU454
 1312 02bc FFF7FEFF 		bl	Error_Handler
 1313              	.LVL72:
 1314 02c0 CDE7     		b	.L43
 1315              	.L56:
 1316 02c2 00BF     		.align	2
 1317              	.L55:
 1318 02c4 004C0040 		.word	1073761280
 1319 02c8 00500040 		.word	1073762304
 1320 02cc 00440040 		.word	1073759232
 1321 02d0 00440258 		.word	1476543488
 1322 02d4 00080258 		.word	1476528128
 1323 02d8 000C0258 		.word	1476529152
 1324 02dc 00000000 		.word	hdma_uart4_rx
 1325 02e0 10000240 		.word	1073872912
 1326 02e4 00000000 		.word	hdma_uart4_tx
 1327 02e8 28000240 		.word	1073872936
 1328 02ec 00000000 		.word	hdma_uart5_rx
 1329 02f0 40000240 		.word	1073872960
 1330 02f4 00000000 		.word	hdma_uart5_tx
 1331 02f8 58000240 		.word	1073872984
 1332              		.cfi_endproc
 1333              	.LFE149:
ARM GAS  /tmp/ccQPV3qi.s 			page 40


 1335              		.section	.text.HAL_UART_MspDeInit,"ax",%progbits
 1336              		.align	1
 1337              		.global	HAL_UART_MspDeInit
 1338              		.syntax unified
 1339              		.thumb
 1340              		.thumb_func
 1341              		.fpu fpv5-d16
 1343              	HAL_UART_MspDeInit:
 1344              	.LVL73:
 1345              	.LFB150:
 509:Core/Src/stm32h7xx_hal_msp.c **** 
 510:Core/Src/stm32h7xx_hal_msp.c **** /**
 511:Core/Src/stm32h7xx_hal_msp.c **** * @brief UART MSP De-Initialization
 512:Core/Src/stm32h7xx_hal_msp.c **** * This function freeze the hardware resources used in this example
 513:Core/Src/stm32h7xx_hal_msp.c **** * @param huart: UART handle pointer
 514:Core/Src/stm32h7xx_hal_msp.c **** * @retval None
 515:Core/Src/stm32h7xx_hal_msp.c **** */
 516:Core/Src/stm32h7xx_hal_msp.c **** void HAL_UART_MspDeInit(UART_HandleTypeDef* huart)
 517:Core/Src/stm32h7xx_hal_msp.c **** {
 1346              		.loc 1 517 1 view -0
 1347              		.cfi_startproc
 1348              		@ args = 0, pretend = 0, frame = 0
 1349              		@ frame_needed = 0, uses_anonymous_args = 0
 1350              		.loc 1 517 1 is_stmt 0 view .LVU456
 1351 0000 10B5     		push	{r4, lr}
 1352              	.LCFI16:
 1353              		.cfi_def_cfa_offset 8
 1354              		.cfi_offset 4, -8
 1355              		.cfi_offset 14, -4
 1356 0002 0446     		mov	r4, r0
 518:Core/Src/stm32h7xx_hal_msp.c ****   if(huart->Instance==UART4)
 1357              		.loc 1 518 3 is_stmt 1 view .LVU457
 1358              		.loc 1 518 11 is_stmt 0 view .LVU458
 1359 0004 0368     		ldr	r3, [r0]
 1360              		.loc 1 518 5 view .LVU459
 1361 0006 274A     		ldr	r2, .L65
 1362 0008 9342     		cmp	r3, r2
 1363 000a 06D0     		beq	.L62
 519:Core/Src/stm32h7xx_hal_msp.c ****   {
 520:Core/Src/stm32h7xx_hal_msp.c ****   /* USER CODE BEGIN UART4_MspDeInit 0 */
 521:Core/Src/stm32h7xx_hal_msp.c **** 
 522:Core/Src/stm32h7xx_hal_msp.c ****   /* USER CODE END UART4_MspDeInit 0 */
 523:Core/Src/stm32h7xx_hal_msp.c ****     /* Peripheral clock disable */
 524:Core/Src/stm32h7xx_hal_msp.c ****     __HAL_RCC_UART4_CLK_DISABLE();
 525:Core/Src/stm32h7xx_hal_msp.c **** 
 526:Core/Src/stm32h7xx_hal_msp.c ****     /**UART4 GPIO Configuration
 527:Core/Src/stm32h7xx_hal_msp.c ****     PC11     ------> UART4_RX
 528:Core/Src/stm32h7xx_hal_msp.c ****     PD1     ------> UART4_TX
 529:Core/Src/stm32h7xx_hal_msp.c ****     */
 530:Core/Src/stm32h7xx_hal_msp.c ****     HAL_GPIO_DeInit(GPIOC, GPIO_PIN_11);
 531:Core/Src/stm32h7xx_hal_msp.c **** 
 532:Core/Src/stm32h7xx_hal_msp.c ****     HAL_GPIO_DeInit(GPIOD, GPIO_PIN_1);
 533:Core/Src/stm32h7xx_hal_msp.c **** 
 534:Core/Src/stm32h7xx_hal_msp.c ****     /* UART4 DMA DeInit */
 535:Core/Src/stm32h7xx_hal_msp.c ****     HAL_DMA_DeInit(huart->hdmarx);
 536:Core/Src/stm32h7xx_hal_msp.c ****     HAL_DMA_DeInit(huart->hdmatx);
 537:Core/Src/stm32h7xx_hal_msp.c **** 
ARM GAS  /tmp/ccQPV3qi.s 			page 41


 538:Core/Src/stm32h7xx_hal_msp.c ****     /* UART4 interrupt DeInit */
 539:Core/Src/stm32h7xx_hal_msp.c ****     HAL_NVIC_DisableIRQ(UART4_IRQn);
 540:Core/Src/stm32h7xx_hal_msp.c ****   /* USER CODE BEGIN UART4_MspDeInit 1 */
 541:Core/Src/stm32h7xx_hal_msp.c **** 
 542:Core/Src/stm32h7xx_hal_msp.c ****   /* USER CODE END UART4_MspDeInit 1 */
 543:Core/Src/stm32h7xx_hal_msp.c ****   }
 544:Core/Src/stm32h7xx_hal_msp.c ****   else if(huart->Instance==UART5)
 1364              		.loc 1 544 8 is_stmt 1 view .LVU460
 1365              		.loc 1 544 10 is_stmt 0 view .LVU461
 1366 000c 264A     		ldr	r2, .L65+4
 1367 000e 9342     		cmp	r3, r2
 1368 0010 1ED0     		beq	.L63
 545:Core/Src/stm32h7xx_hal_msp.c ****   {
 546:Core/Src/stm32h7xx_hal_msp.c ****   /* USER CODE BEGIN UART5_MspDeInit 0 */
 547:Core/Src/stm32h7xx_hal_msp.c **** 
 548:Core/Src/stm32h7xx_hal_msp.c ****   /* USER CODE END UART5_MspDeInit 0 */
 549:Core/Src/stm32h7xx_hal_msp.c ****     /* Peripheral clock disable */
 550:Core/Src/stm32h7xx_hal_msp.c ****     __HAL_RCC_UART5_CLK_DISABLE();
 551:Core/Src/stm32h7xx_hal_msp.c **** 
 552:Core/Src/stm32h7xx_hal_msp.c ****     /**UART5 GPIO Configuration
 553:Core/Src/stm32h7xx_hal_msp.c ****     PC12     ------> UART5_TX
 554:Core/Src/stm32h7xx_hal_msp.c ****     PD2     ------> UART5_RX
 555:Core/Src/stm32h7xx_hal_msp.c ****     */
 556:Core/Src/stm32h7xx_hal_msp.c ****     HAL_GPIO_DeInit(GPIOC, GPIO_PIN_12);
 557:Core/Src/stm32h7xx_hal_msp.c **** 
 558:Core/Src/stm32h7xx_hal_msp.c ****     HAL_GPIO_DeInit(GPIOD, GPIO_PIN_2);
 559:Core/Src/stm32h7xx_hal_msp.c **** 
 560:Core/Src/stm32h7xx_hal_msp.c ****     /* UART5 DMA DeInit */
 561:Core/Src/stm32h7xx_hal_msp.c ****     HAL_DMA_DeInit(huart->hdmarx);
 562:Core/Src/stm32h7xx_hal_msp.c ****     HAL_DMA_DeInit(huart->hdmatx);
 563:Core/Src/stm32h7xx_hal_msp.c **** 
 564:Core/Src/stm32h7xx_hal_msp.c ****     /* UART5 interrupt DeInit */
 565:Core/Src/stm32h7xx_hal_msp.c ****     HAL_NVIC_DisableIRQ(UART5_IRQn);
 566:Core/Src/stm32h7xx_hal_msp.c ****   /* USER CODE BEGIN UART5_MspDeInit 1 */
 567:Core/Src/stm32h7xx_hal_msp.c **** 
 568:Core/Src/stm32h7xx_hal_msp.c ****   /* USER CODE END UART5_MspDeInit 1 */
 569:Core/Src/stm32h7xx_hal_msp.c ****   }
 570:Core/Src/stm32h7xx_hal_msp.c ****   else if(huart->Instance==USART2)
 1369              		.loc 1 570 8 is_stmt 1 view .LVU462
 1370              		.loc 1 570 10 is_stmt 0 view .LVU463
 1371 0012 264A     		ldr	r2, .L65+8
 1372 0014 9342     		cmp	r3, r2
 1373 0016 36D0     		beq	.L64
 1374              	.LVL74:
 1375              	.L57:
 571:Core/Src/stm32h7xx_hal_msp.c ****   {
 572:Core/Src/stm32h7xx_hal_msp.c ****   /* USER CODE BEGIN USART2_MspDeInit 0 */
 573:Core/Src/stm32h7xx_hal_msp.c **** 
 574:Core/Src/stm32h7xx_hal_msp.c ****   /* USER CODE END USART2_MspDeInit 0 */
 575:Core/Src/stm32h7xx_hal_msp.c ****     /* Peripheral clock disable */
 576:Core/Src/stm32h7xx_hal_msp.c ****     __HAL_RCC_USART2_CLK_DISABLE();
 577:Core/Src/stm32h7xx_hal_msp.c **** 
 578:Core/Src/stm32h7xx_hal_msp.c ****     /**USART2 GPIO Configuration
 579:Core/Src/stm32h7xx_hal_msp.c ****     PD5     ------> USART2_TX
 580:Core/Src/stm32h7xx_hal_msp.c ****     PD6     ------> USART2_RX
 581:Core/Src/stm32h7xx_hal_msp.c ****     */
 582:Core/Src/stm32h7xx_hal_msp.c ****     HAL_GPIO_DeInit(GPIOD, GPIO_PIN_5|GPIO_PIN_6);
ARM GAS  /tmp/ccQPV3qi.s 			page 42


 583:Core/Src/stm32h7xx_hal_msp.c **** 
 584:Core/Src/stm32h7xx_hal_msp.c ****     /* USART2 interrupt DeInit */
 585:Core/Src/stm32h7xx_hal_msp.c ****     HAL_NVIC_DisableIRQ(USART2_IRQn);
 586:Core/Src/stm32h7xx_hal_msp.c ****   /* USER CODE BEGIN USART2_MspDeInit 1 */
 587:Core/Src/stm32h7xx_hal_msp.c **** 
 588:Core/Src/stm32h7xx_hal_msp.c ****   /* USER CODE END USART2_MspDeInit 1 */
 589:Core/Src/stm32h7xx_hal_msp.c ****   }
 590:Core/Src/stm32h7xx_hal_msp.c **** 
 591:Core/Src/stm32h7xx_hal_msp.c **** }
 1376              		.loc 1 591 1 view .LVU464
 1377 0018 10BD     		pop	{r4, pc}
 1378              	.LVL75:
 1379              	.L62:
 524:Core/Src/stm32h7xx_hal_msp.c **** 
 1380              		.loc 1 524 5 is_stmt 1 view .LVU465
 1381 001a 254A     		ldr	r2, .L65+12
 1382 001c D2F8E830 		ldr	r3, [r2, #232]
 1383 0020 23F40023 		bic	r3, r3, #524288
 1384 0024 C2F8E830 		str	r3, [r2, #232]
 530:Core/Src/stm32h7xx_hal_msp.c **** 
 1385              		.loc 1 530 5 view .LVU466
 1386 0028 4FF40061 		mov	r1, #2048
 1387 002c 2148     		ldr	r0, .L65+16
 1388              	.LVL76:
 530:Core/Src/stm32h7xx_hal_msp.c **** 
 1389              		.loc 1 530 5 is_stmt 0 view .LVU467
 1390 002e FFF7FEFF 		bl	HAL_GPIO_DeInit
 1391              	.LVL77:
 532:Core/Src/stm32h7xx_hal_msp.c **** 
 1392              		.loc 1 532 5 is_stmt 1 view .LVU468
 1393 0032 0221     		movs	r1, #2
 1394 0034 2048     		ldr	r0, .L65+20
 1395 0036 FFF7FEFF 		bl	HAL_GPIO_DeInit
 1396              	.LVL78:
 535:Core/Src/stm32h7xx_hal_msp.c ****     HAL_DMA_DeInit(huart->hdmatx);
 1397              		.loc 1 535 5 view .LVU469
 1398 003a D4F88000 		ldr	r0, [r4, #128]
 1399 003e FFF7FEFF 		bl	HAL_DMA_DeInit
 1400              	.LVL79:
 536:Core/Src/stm32h7xx_hal_msp.c **** 
 1401              		.loc 1 536 5 view .LVU470
 1402 0042 E06F     		ldr	r0, [r4, #124]
 1403 0044 FFF7FEFF 		bl	HAL_DMA_DeInit
 1404              	.LVL80:
 539:Core/Src/stm32h7xx_hal_msp.c ****   /* USER CODE BEGIN UART4_MspDeInit 1 */
 1405              		.loc 1 539 5 view .LVU471
 1406 0048 3420     		movs	r0, #52
 1407 004a FFF7FEFF 		bl	HAL_NVIC_DisableIRQ
 1408              	.LVL81:
 1409 004e E3E7     		b	.L57
 1410              	.LVL82:
 1411              	.L63:
 550:Core/Src/stm32h7xx_hal_msp.c **** 
 1412              		.loc 1 550 5 view .LVU472
 1413 0050 174A     		ldr	r2, .L65+12
 1414 0052 D2F8E830 		ldr	r3, [r2, #232]
 1415 0056 23F48013 		bic	r3, r3, #1048576
ARM GAS  /tmp/ccQPV3qi.s 			page 43


 1416 005a C2F8E830 		str	r3, [r2, #232]
 556:Core/Src/stm32h7xx_hal_msp.c **** 
 1417              		.loc 1 556 5 view .LVU473
 1418 005e 4FF48051 		mov	r1, #4096
 1419 0062 1448     		ldr	r0, .L65+16
 1420              	.LVL83:
 556:Core/Src/stm32h7xx_hal_msp.c **** 
 1421              		.loc 1 556 5 is_stmt 0 view .LVU474
 1422 0064 FFF7FEFF 		bl	HAL_GPIO_DeInit
 1423              	.LVL84:
 558:Core/Src/stm32h7xx_hal_msp.c **** 
 1424              		.loc 1 558 5 is_stmt 1 view .LVU475
 1425 0068 0421     		movs	r1, #4
 1426 006a 1348     		ldr	r0, .L65+20
 1427 006c FFF7FEFF 		bl	HAL_GPIO_DeInit
 1428              	.LVL85:
 561:Core/Src/stm32h7xx_hal_msp.c ****     HAL_DMA_DeInit(huart->hdmatx);
 1429              		.loc 1 561 5 view .LVU476
 1430 0070 D4F88000 		ldr	r0, [r4, #128]
 1431 0074 FFF7FEFF 		bl	HAL_DMA_DeInit
 1432              	.LVL86:
 562:Core/Src/stm32h7xx_hal_msp.c **** 
 1433              		.loc 1 562 5 view .LVU477
 1434 0078 E06F     		ldr	r0, [r4, #124]
 1435 007a FFF7FEFF 		bl	HAL_DMA_DeInit
 1436              	.LVL87:
 565:Core/Src/stm32h7xx_hal_msp.c ****   /* USER CODE BEGIN UART5_MspDeInit 1 */
 1437              		.loc 1 565 5 view .LVU478
 1438 007e 3520     		movs	r0, #53
 1439 0080 FFF7FEFF 		bl	HAL_NVIC_DisableIRQ
 1440              	.LVL88:
 1441 0084 C8E7     		b	.L57
 1442              	.LVL89:
 1443              	.L64:
 576:Core/Src/stm32h7xx_hal_msp.c **** 
 1444              		.loc 1 576 5 view .LVU479
 1445 0086 0A4A     		ldr	r2, .L65+12
 1446 0088 D2F8E830 		ldr	r3, [r2, #232]
 1447 008c 23F40033 		bic	r3, r3, #131072
 1448 0090 C2F8E830 		str	r3, [r2, #232]
 582:Core/Src/stm32h7xx_hal_msp.c **** 
 1449              		.loc 1 582 5 view .LVU480
 1450 0094 6021     		movs	r1, #96
 1451 0096 0848     		ldr	r0, .L65+20
 1452              	.LVL90:
 582:Core/Src/stm32h7xx_hal_msp.c **** 
 1453              		.loc 1 582 5 is_stmt 0 view .LVU481
 1454 0098 FFF7FEFF 		bl	HAL_GPIO_DeInit
 1455              	.LVL91:
 585:Core/Src/stm32h7xx_hal_msp.c ****   /* USER CODE BEGIN USART2_MspDeInit 1 */
 1456              		.loc 1 585 5 is_stmt 1 view .LVU482
 1457 009c 2620     		movs	r0, #38
 1458 009e FFF7FEFF 		bl	HAL_NVIC_DisableIRQ
 1459              	.LVL92:
 1460              		.loc 1 591 1 is_stmt 0 view .LVU483
 1461 00a2 B9E7     		b	.L57
 1462              	.L66:
ARM GAS  /tmp/ccQPV3qi.s 			page 44


 1463              		.align	2
 1464              	.L65:
 1465 00a4 004C0040 		.word	1073761280
 1466 00a8 00500040 		.word	1073762304
 1467 00ac 00440040 		.word	1073759232
 1468 00b0 00440258 		.word	1476543488
 1469 00b4 00080258 		.word	1476528128
 1470 00b8 000C0258 		.word	1476529152
 1471              		.cfi_endproc
 1472              	.LFE150:
 1474              		.text
 1475              	.Letext0:
 1476              		.file 2 "/usr/lib/gcc/arm-none-eabi/10.3.1/include/stdint.h"
 1477              		.file 3 "Drivers/CMSIS/Device/ST/STM32H7xx/Include/stm32h725xx.h"
 1478              		.file 4 "Drivers/STM32H7xx_HAL_Driver/Inc/stm32h7xx_hal_def.h"
 1479              		.file 5 "Drivers/STM32H7xx_HAL_Driver/Inc/stm32h7xx_hal_rcc_ex.h"
 1480              		.file 6 "Drivers/STM32H7xx_HAL_Driver/Inc/stm32h7xx_hal_gpio.h"
 1481              		.file 7 "Drivers/STM32H7xx_HAL_Driver/Inc/stm32h7xx_hal_dma.h"
 1482              		.file 8 "Drivers/STM32H7xx_HAL_Driver/Inc/stm32h7xx_hal_mdma.h"
 1483              		.file 9 "Drivers/STM32H7xx_HAL_Driver/Inc/stm32h7xx_hal_ospi.h"
 1484              		.file 10 "Drivers/STM32H7xx_HAL_Driver/Inc/stm32h7xx_hal_spi.h"
 1485              		.file 11 "Drivers/STM32H7xx_HAL_Driver/Inc/stm32h7xx_hal_uart.h"
 1486              		.file 12 "Drivers/STM32H7xx_HAL_Driver/Inc/stm32h7xx_hal_cortex.h"
 1487              		.file 13 "Core/Inc/main.h"
 1488              		.file 14 "<built-in>"
ARM GAS  /tmp/ccQPV3qi.s 			page 45


DEFINED SYMBOLS
                            *ABS*:0000000000000000 stm32h7xx_hal_msp.c
     /tmp/ccQPV3qi.s:17     .text.HAL_MspInit:0000000000000000 $t
     /tmp/ccQPV3qi.s:25     .text.HAL_MspInit:0000000000000000 HAL_MspInit
     /tmp/ccQPV3qi.s:61     .text.HAL_MspInit:0000000000000020 $d
     /tmp/ccQPV3qi.s:66     .text.HAL_OSPI_MspInit:0000000000000000 $t
     /tmp/ccQPV3qi.s:73     .text.HAL_OSPI_MspInit:0000000000000000 HAL_OSPI_MspInit
     /tmp/ccQPV3qi.s:346    .text.HAL_OSPI_MspInit:000000000000014c $d
     /tmp/ccQPV3qi.s:356    .text.HAL_OSPI_MspDeInit:0000000000000000 $t
     /tmp/ccQPV3qi.s:363    .text.HAL_OSPI_MspDeInit:0000000000000000 HAL_OSPI_MspDeInit
     /tmp/ccQPV3qi.s:429    .text.HAL_OSPI_MspDeInit:0000000000000054 $d
     /tmp/ccQPV3qi.s:439    .text.HAL_SPI_MspInit:0000000000000000 $t
     /tmp/ccQPV3qi.s:446    .text.HAL_SPI_MspInit:0000000000000000 HAL_SPI_MspInit
     /tmp/ccQPV3qi.s:620    .text.HAL_SPI_MspInit:00000000000000bc $d
     /tmp/ccQPV3qi.s:628    .text.HAL_SPI_MspDeInit:0000000000000000 $t
     /tmp/ccQPV3qi.s:635    .text.HAL_SPI_MspDeInit:0000000000000000 HAL_SPI_MspDeInit
     /tmp/ccQPV3qi.s:683    .text.HAL_SPI_MspDeInit:0000000000000030 $d
     /tmp/ccQPV3qi.s:691    .text.HAL_UART_MspInit:0000000000000000 $t
     /tmp/ccQPV3qi.s:698    .text.HAL_UART_MspInit:0000000000000000 HAL_UART_MspInit
     /tmp/ccQPV3qi.s:1318   .text.HAL_UART_MspInit:00000000000002c4 $d
     /tmp/ccQPV3qi.s:1336   .text.HAL_UART_MspDeInit:0000000000000000 $t
     /tmp/ccQPV3qi.s:1343   .text.HAL_UART_MspDeInit:0000000000000000 HAL_UART_MspDeInit
     /tmp/ccQPV3qi.s:1465   .text.HAL_UART_MspDeInit:00000000000000a4 $d

UNDEFINED SYMBOLS
memset
HAL_RCCEx_PeriphCLKConfig
HAL_GPIO_Init
HAL_NVIC_SetPriority
HAL_NVIC_EnableIRQ
Error_Handler
HAL_GPIO_DeInit
HAL_NVIC_DisableIRQ
HAL_DMA_Init
hdma_uart4_rx
hdma_uart4_tx
hdma_uart5_rx
hdma_uart5_tx
HAL_DMA_DeInit
