ARM GAS  /tmp/ccCWBsCj.s 			page 1


   1              		.cpu cortex-m7
   2              		.eabi_attribute 28, 1
   3              		.eabi_attribute 20, 1
   4              		.eabi_attribute 21, 1
   5              		.eabi_attribute 23, 3
   6              		.eabi_attribute 24, 1
   7              		.eabi_attribute 25, 1
   8              		.eabi_attribute 26, 1
   9              		.eabi_attribute 30, 1
  10              		.eabi_attribute 34, 1
  11              		.eabi_attribute 18, 4
  12              		.file	"w25q_impl.c"
  13              		.text
  14              	.Ltext0:
  15              		.cfi_sections	.debug_frame
  16              		.section	.text.w25q_delay,"ax",%progbits
  17              		.align	1
  18              		.global	w25q_delay
  19              		.arch armv7e-m
  20              		.syntax unified
  21              		.thumb
  22              		.thumb_func
  23              		.fpu fpv5-d16
  25              	w25q_delay:
  26              	.LVL0:
  27              	.LFB148:
  28              		.file 1 "../Core/Src/w25q_impl.c"
   1:../Core/Src/w25q_impl.c **** #include "w25q.h"
   2:../Core/Src/w25q_impl.c **** #include "port_config.h"
   3:../Core/Src/w25q_impl.c **** #include "globals.h"
   4:../Core/Src/w25q_impl.c **** 
   5:../Core/Src/w25q_impl.c **** void w25q_delay(uint32_t ms) { vTaskDelay(ms); }
  29              		.loc 1 5 30 view -0
  30              		.cfi_startproc
  31              		@ args = 0, pretend = 0, frame = 0
  32              		@ frame_needed = 0, uses_anonymous_args = 0
  33              		.loc 1 5 30 is_stmt 0 view .LVU1
  34 0000 08B5     		push	{r3, lr}
  35              	.LCFI0:
  36              		.cfi_def_cfa_offset 8
  37              		.cfi_offset 3, -8
  38              		.cfi_offset 14, -4
  39              		.loc 1 5 32 is_stmt 1 view .LVU2
  40 0002 FFF7FEFF 		bl	vTaskDelay
  41              	.LVL1:
  42              		.loc 1 5 48 is_stmt 0 view .LVU3
  43 0006 08BD     		pop	{r3, pc}
  44              		.cfi_endproc
  45              	.LFE148:
  47              		.section	.rodata.w25q_read_id.str1.4,"aMS",%progbits,1
  48              		.align	2
  49              	.LC0:
  50 0000 52656164 		.ascii	"Reading ID\015\012\000"
  50      696E6720 
  50      49440D0A 
  50      00
  51 000d 000000   		.align	2
ARM GAS  /tmp/ccCWBsCj.s 			page 2


  52              	.LC1:
  53 0010 436F6D6D 		.ascii	"Command failed\015\012\000"
  53      616E6420 
  53      6661696C 
  53      65640D0A 
  53      00
  54 0021 000000   		.align	2
  55              	.LC2:
  56 0024 52656365 		.ascii	"Receive failed\015\012\000"
  56      69766520 
  56      6661696C 
  56      65640D0A 
  56      00
  57 0035 000000   		.align	2
  58              	.LC3:
  59 0038 49442072 		.ascii	"ID read\015\012\000"
  59      6561640D 
  59      0A00
  60              		.section	.text.w25q_read_id,"ax",%progbits
  61              		.align	1
  62              		.global	w25q_read_id
  63              		.syntax unified
  64              		.thumb
  65              		.thumb_func
  66              		.fpu fpv5-d16
  68              	w25q_read_id:
  69              	.LVL2:
  70              	.LFB149:
   6:../Core/Src/w25q_impl.c **** 
   7:../Core/Src/w25q_impl.c **** enum w25q_err w25q_read_id(struct w25q_device *device, uint8_t *buf) {
  71              		.loc 1 7 70 is_stmt 1 view -0
  72              		.cfi_startproc
  73              		@ args = 0, pretend = 0, frame = 80
  74              		@ frame_needed = 0, uses_anonymous_args = 0
  75              		.loc 1 7 70 is_stmt 0 view .LVU5
  76 0000 10B5     		push	{r4, lr}
  77              	.LCFI1:
  78              		.cfi_def_cfa_offset 8
  79              		.cfi_offset 4, -8
  80              		.cfi_offset 14, -4
  81 0002 94B0     		sub	sp, sp, #80
  82              	.LCFI2:
  83              		.cfi_def_cfa_offset 88
  84 0004 0C46     		mov	r4, r1
   8:../Core/Src/w25q_impl.c ****   OSPI_RegularCmdTypeDef cmd = {0};
  85              		.loc 1 8 3 is_stmt 1 view .LVU6
  86              		.loc 1 8 26 is_stmt 0 view .LVU7
  87 0006 5022     		movs	r2, #80
  88 0008 0021     		movs	r1, #0
  89              	.LVL3:
  90              		.loc 1 8 26 view .LVU8
  91 000a 6846     		mov	r0, sp
  92              	.LVL4:
  93              		.loc 1 8 26 view .LVU9
  94 000c FFF7FEFF 		bl	memset
  95              	.LVL5:
   9:../Core/Src/w25q_impl.c **** 
ARM GAS  /tmp/ccCWBsCj.s 			page 3


  10:../Core/Src/w25q_impl.c ****   cmd.OperationType = HAL_OSPI_OPTYPE_COMMON_CFG;
  96              		.loc 1 10 3 is_stmt 1 view .LVU10
  11:../Core/Src/w25q_impl.c **** 
  12:../Core/Src/w25q_impl.c ****   cmd.Instruction = W25Q_DEVID;
  97              		.loc 1 12 3 view .LVU11
  98              		.loc 1 12 19 is_stmt 0 view .LVU12
  99 0010 AB23     		movs	r3, #171
 100 0012 0293     		str	r3, [sp, #8]
  13:../Core/Src/w25q_impl.c ****   cmd.InstructionMode = HAL_OSPI_INSTRUCTION_1_LINE;
 101              		.loc 1 13 3 is_stmt 1 view .LVU13
 102              		.loc 1 13 23 is_stmt 0 view .LVU14
 103 0014 0123     		movs	r3, #1
 104 0016 0393     		str	r3, [sp, #12]
  14:../Core/Src/w25q_impl.c ****   cmd.InstructionSize = HAL_OSPI_INSTRUCTION_8_BITS;
 105              		.loc 1 14 3 is_stmt 1 view .LVU15
  15:../Core/Src/w25q_impl.c ****   cmd.InstructionDtrMode = HAL_OSPI_INSTRUCTION_DTR_DISABLE;
 106              		.loc 1 15 3 view .LVU16
  16:../Core/Src/w25q_impl.c **** 
  17:../Core/Src/w25q_impl.c ****   cmd.Address = 0x00U;
 107              		.loc 1 17 3 view .LVU17
  18:../Core/Src/w25q_impl.c ****   cmd.AddressMode = HAL_OSPI_ADDRESS_1_LINE;
 108              		.loc 1 18 3 view .LVU18
 109              		.loc 1 18 19 is_stmt 0 view .LVU19
 110 0018 4FF48072 		mov	r2, #256
 111 001c 0792     		str	r2, [sp, #28]
  19:../Core/Src/w25q_impl.c ****   cmd.AddressSize = HAL_OSPI_ADDRESS_24_BITS;
 112              		.loc 1 19 3 is_stmt 1 view .LVU20
 113              		.loc 1 19 19 is_stmt 0 view .LVU21
 114 001e 4FF40052 		mov	r2, #8192
 115 0022 0892     		str	r2, [sp, #32]
  20:../Core/Src/w25q_impl.c ****   cmd.AddressDtrMode = HAL_OSPI_ADDRESS_DTR_DISABLE;
 116              		.loc 1 20 3 is_stmt 1 view .LVU22
  21:../Core/Src/w25q_impl.c **** 
  22:../Core/Src/w25q_impl.c ****   cmd.AlternateBytesMode = HAL_OSPI_ALTERNATE_BYTES_NONE;
 117              		.loc 1 22 3 view .LVU23
  23:../Core/Src/w25q_impl.c **** 
  24:../Core/Src/w25q_impl.c ****   cmd.DataMode = HAL_OSPI_DATA_1_LINE;
 118              		.loc 1 24 3 view .LVU24
 119              		.loc 1 24 16 is_stmt 0 view .LVU25
 120 0024 4FF08072 		mov	r2, #16777216
 121 0028 0E92     		str	r2, [sp, #56]
  25:../Core/Src/w25q_impl.c ****   cmd.DataDtrMode = HAL_OSPI_DATA_DTR_DISABLE;
 122              		.loc 1 25 3 is_stmt 1 view .LVU26
  26:../Core/Src/w25q_impl.c ****   cmd.NbData = 1;
 123              		.loc 1 26 3 view .LVU27
 124              		.loc 1 26 14 is_stmt 0 view .LVU28
 125 002a 0F93     		str	r3, [sp, #60]
  27:../Core/Src/w25q_impl.c **** 
  28:../Core/Src/w25q_impl.c ****   cmd.DummyCycles = 0;
 126              		.loc 1 28 3 is_stmt 1 view .LVU29
  29:../Core/Src/w25q_impl.c ****   cmd.DQSMode = HAL_OSPI_DQS_DISABLE;
 127              		.loc 1 29 3 view .LVU30
  30:../Core/Src/w25q_impl.c ****   cmd.SIOOMode = HAL_OSPI_SIOO_INST_EVERY_CMD;
 128              		.loc 1 30 3 view .LVU31
  31:../Core/Src/w25q_impl.c **** 
  32:../Core/Src/w25q_impl.c ****     HAL_UART_Transmit(&debug_uart, "Reading ID\r\n", 12, HAL_MAX_DELAY);
 129              		.loc 1 32 5 view .LVU32
ARM GAS  /tmp/ccCWBsCj.s 			page 4


 130 002c 4FF0FF33 		mov	r3, #-1
 131 0030 0C22     		movs	r2, #12
 132 0032 1C49     		ldr	r1, .L10
 133 0034 1C48     		ldr	r0, .L10+4
 134 0036 FFF7FEFF 		bl	HAL_UART_Transmit
 135              	.LVL6:
  33:../Core/Src/w25q_impl.c **** 
  34:../Core/Src/w25q_impl.c ****   HAL_GPIO_WritePin(FLASH_CS_GPIO_PORT, FLASH_CS_PIN, GPIO_PIN_RESET);
 136              		.loc 1 34 3 view .LVU33
 137 003a 0022     		movs	r2, #0
 138 003c 4021     		movs	r1, #64
 139 003e 1B48     		ldr	r0, .L10+8
 140 0040 FFF7FEFF 		bl	HAL_GPIO_WritePin
 141              	.LVL7:
  35:../Core/Src/w25q_impl.c **** 
  36:../Core/Src/w25q_impl.c ****   if (HAL_OSPI_Command(&flash_spi, &cmd, HAL_OSPI_TIMEOUT_DEFAULT_VALUE) !=
 142              		.loc 1 36 3 view .LVU34
 143              		.loc 1 36 7 is_stmt 0 view .LVU35
 144 0044 41F28832 		movw	r2, #5000
 145 0048 6946     		mov	r1, sp
 146 004a 1948     		ldr	r0, .L10+12
 147 004c FFF7FEFF 		bl	HAL_OSPI_Command
 148              	.LVL8:
 149              		.loc 1 36 6 view .LVU36
 150 0050 B0B9     		cbnz	r0, .L8
  37:../Core/Src/w25q_impl.c ****       HAL_OK) {
  38:../Core/Src/w25q_impl.c ****         HAL_UART_Transmit(&debug_uart, "Command failed\r\n", 16, HAL_MAX_DELAY);
  39:../Core/Src/w25q_impl.c ****     return W25Q_ERR_SPI;
  40:../Core/Src/w25q_impl.c ****   }
  41:../Core/Src/w25q_impl.c **** 
  42:../Core/Src/w25q_impl.c ****   if (HAL_OSPI_Receive(&flash_spi, buf, HAL_OSPI_TIMEOUT_DEFAULT_VALUE) !=
 151              		.loc 1 42 3 is_stmt 1 view .LVU37
 152              		.loc 1 42 7 is_stmt 0 view .LVU38
 153 0052 41F28832 		movw	r2, #5000
 154 0056 2146     		mov	r1, r4
 155 0058 1548     		ldr	r0, .L10+12
 156 005a FFF7FEFF 		bl	HAL_OSPI_Receive
 157              	.LVL9:
 158              		.loc 1 42 6 view .LVU39
 159 005e 0446     		mov	r4, r0
 160              	.LVL10:
 161              		.loc 1 42 6 view .LVU40
 162 0060 B8B9     		cbnz	r0, .L9
  43:../Core/Src/w25q_impl.c ****       HAL_OK) {
  44:../Core/Src/w25q_impl.c ****         HAL_UART_Transmit(&debug_uart, "Receive failed\r\n", 16, HAL_MAX_DELAY);
  45:../Core/Src/w25q_impl.c ****     return W25Q_ERR_SPI;
  46:../Core/Src/w25q_impl.c ****   }
  47:../Core/Src/w25q_impl.c **** 
  48:../Core/Src/w25q_impl.c ****   HAL_GPIO_WritePin(FLASH_CS_GPIO_PORT, FLASH_CS_PIN, GPIO_PIN_SET);
 163              		.loc 1 48 3 is_stmt 1 view .LVU41
 164 0062 0122     		movs	r2, #1
 165 0064 4021     		movs	r1, #64
 166 0066 1148     		ldr	r0, .L10+8
 167 0068 FFF7FEFF 		bl	HAL_GPIO_WritePin
 168              	.LVL11:
  49:../Core/Src/w25q_impl.c **** 
  50:../Core/Src/w25q_impl.c ****     HAL_UART_Transmit(&debug_uart, "ID read\r\n", 9, HAL_MAX_DELAY);
ARM GAS  /tmp/ccCWBsCj.s 			page 5


 169              		.loc 1 50 5 view .LVU42
 170 006c 4FF0FF33 		mov	r3, #-1
 171 0070 0922     		movs	r2, #9
 172 0072 1049     		ldr	r1, .L10+16
 173 0074 0C48     		ldr	r0, .L10+4
 174 0076 FFF7FEFF 		bl	HAL_UART_Transmit
 175              	.LVL12:
  51:../Core/Src/w25q_impl.c **** 
  52:../Core/Src/w25q_impl.c **** 
  53:../Core/Src/w25q_impl.c ****   return W25Q_ERR_OK;
 176              		.loc 1 53 3 view .LVU43
 177              	.L5:
  54:../Core/Src/w25q_impl.c **** }
 178              		.loc 1 54 1 is_stmt 0 view .LVU44
 179 007a 2046     		mov	r0, r4
 180 007c 14B0     		add	sp, sp, #80
 181              	.LCFI3:
 182              		.cfi_remember_state
 183              		.cfi_def_cfa_offset 8
 184              		@ sp needed
 185 007e 10BD     		pop	{r4, pc}
 186              	.LVL13:
 187              	.L8:
 188              	.LCFI4:
 189              		.cfi_restore_state
  38:../Core/Src/w25q_impl.c ****     return W25Q_ERR_SPI;
 190              		.loc 1 38 9 is_stmt 1 view .LVU45
 191 0080 4FF0FF33 		mov	r3, #-1
 192 0084 1022     		movs	r2, #16
 193 0086 0C49     		ldr	r1, .L10+20
 194 0088 0748     		ldr	r0, .L10+4
 195 008a FFF7FEFF 		bl	HAL_UART_Transmit
 196              	.LVL14:
  39:../Core/Src/w25q_impl.c ****   }
 197              		.loc 1 39 5 view .LVU46
  39:../Core/Src/w25q_impl.c ****   }
 198              		.loc 1 39 12 is_stmt 0 view .LVU47
 199 008e 0424     		movs	r4, #4
 200              	.LVL15:
  39:../Core/Src/w25q_impl.c ****   }
 201              		.loc 1 39 12 view .LVU48
 202 0090 F3E7     		b	.L5
 203              	.L9:
  44:../Core/Src/w25q_impl.c ****     return W25Q_ERR_SPI;
 204              		.loc 1 44 9 is_stmt 1 view .LVU49
 205 0092 4FF0FF33 		mov	r3, #-1
 206 0096 1022     		movs	r2, #16
 207 0098 0849     		ldr	r1, .L10+24
 208 009a 0348     		ldr	r0, .L10+4
 209 009c FFF7FEFF 		bl	HAL_UART_Transmit
 210              	.LVL16:
  45:../Core/Src/w25q_impl.c ****   }
 211              		.loc 1 45 5 view .LVU50
  45:../Core/Src/w25q_impl.c ****   }
 212              		.loc 1 45 12 is_stmt 0 view .LVU51
 213 00a0 0424     		movs	r4, #4
 214 00a2 EAE7     		b	.L5
ARM GAS  /tmp/ccCWBsCj.s 			page 6


 215              	.L11:
 216              		.align	2
 217              	.L10:
 218 00a4 00000000 		.word	.LC0
 219 00a8 00000000 		.word	huart2
 220 00ac 00180258 		.word	1476532224
 221 00b0 00000000 		.word	hospi1
 222 00b4 38000000 		.word	.LC3
 223 00b8 10000000 		.word	.LC1
 224 00bc 24000000 		.word	.LC2
 225              		.cfi_endproc
 226              	.LFE149:
 228              		.section	.text.w25q_write_enable,"ax",%progbits
 229              		.align	1
 230              		.global	w25q_write_enable
 231              		.syntax unified
 232              		.thumb
 233              		.thumb_func
 234              		.fpu fpv5-d16
 236              	w25q_write_enable:
 237              	.LVL17:
 238              	.LFB150:
  55:../Core/Src/w25q_impl.c **** 
  56:../Core/Src/w25q_impl.c **** enum w25q_err w25q_write_enable(struct w25q_device *device, bool enable) {
 239              		.loc 1 56 74 is_stmt 1 view -0
 240              		.cfi_startproc
 241              		@ args = 0, pretend = 0, frame = 80
 242              		@ frame_needed = 0, uses_anonymous_args = 0
 243              		.loc 1 56 74 is_stmt 0 view .LVU53
 244 0000 10B5     		push	{r4, lr}
 245              	.LCFI5:
 246              		.cfi_def_cfa_offset 8
 247              		.cfi_offset 4, -8
 248              		.cfi_offset 14, -4
 249 0002 94B0     		sub	sp, sp, #80
 250              	.LCFI6:
 251              		.cfi_def_cfa_offset 88
 252 0004 0C46     		mov	r4, r1
  57:../Core/Src/w25q_impl.c ****   OSPI_RegularCmdTypeDef cmd = {0};
 253              		.loc 1 57 3 is_stmt 1 view .LVU54
 254              		.loc 1 57 26 is_stmt 0 view .LVU55
 255 0006 5022     		movs	r2, #80
 256 0008 0021     		movs	r1, #0
 257              	.LVL18:
 258              		.loc 1 57 26 view .LVU56
 259 000a 6846     		mov	r0, sp
 260              	.LVL19:
 261              		.loc 1 57 26 view .LVU57
 262 000c FFF7FEFF 		bl	memset
 263              	.LVL20:
  58:../Core/Src/w25q_impl.c **** 
  59:../Core/Src/w25q_impl.c ****   cmd.OperationType = HAL_OSPI_OPTYPE_COMMON_CFG;
 264              		.loc 1 59 3 is_stmt 1 view .LVU58
  60:../Core/Src/w25q_impl.c **** 
  61:../Core/Src/w25q_impl.c ****   cmd.Instruction = enable ? W25Q_WRITE_ENABLE : W25Q_WRITE_DISABLE;
 265              		.loc 1 61 3 view .LVU59
 266              		.loc 1 61 48 is_stmt 0 view .LVU60
ARM GAS  /tmp/ccCWBsCj.s 			page 7


 267 0010 DCB1     		cbz	r4, .L15
 268 0012 0623     		movs	r3, #6
 269              	.L13:
 270              		.loc 1 61 19 discriminator 4 view .LVU61
 271 0014 0293     		str	r3, [sp, #8]
  62:../Core/Src/w25q_impl.c ****   cmd.InstructionMode = HAL_OSPI_INSTRUCTION_1_LINE;
 272              		.loc 1 62 3 is_stmt 1 discriminator 4 view .LVU62
 273              		.loc 1 62 23 is_stmt 0 discriminator 4 view .LVU63
 274 0016 0123     		movs	r3, #1
 275 0018 0393     		str	r3, [sp, #12]
  63:../Core/Src/w25q_impl.c ****   cmd.InstructionSize = HAL_OSPI_INSTRUCTION_8_BITS;
 276              		.loc 1 63 3 is_stmt 1 discriminator 4 view .LVU64
  64:../Core/Src/w25q_impl.c ****   cmd.InstructionDtrMode = HAL_OSPI_INSTRUCTION_DTR_DISABLE;
 277              		.loc 1 64 3 discriminator 4 view .LVU65
  65:../Core/Src/w25q_impl.c **** 
  66:../Core/Src/w25q_impl.c ****   cmd.AddressMode = HAL_OSPI_ADDRESS_NONE;
 278              		.loc 1 66 3 discriminator 4 view .LVU66
  67:../Core/Src/w25q_impl.c **** 
  68:../Core/Src/w25q_impl.c ****   cmd.AlternateBytesMode = HAL_OSPI_ALTERNATE_BYTES_NONE;
 279              		.loc 1 68 3 discriminator 4 view .LVU67
  69:../Core/Src/w25q_impl.c **** 
  70:../Core/Src/w25q_impl.c ****   cmd.DataMode = HAL_OSPI_DATA_NONE;
 280              		.loc 1 70 3 discriminator 4 view .LVU68
  71:../Core/Src/w25q_impl.c ****   cmd.DataDtrMode = HAL_OSPI_DATA_DTR_DISABLE;
 281              		.loc 1 71 3 discriminator 4 view .LVU69
  72:../Core/Src/w25q_impl.c ****   cmd.NbData = 0;
 282              		.loc 1 72 3 discriminator 4 view .LVU70
  73:../Core/Src/w25q_impl.c **** 
  74:../Core/Src/w25q_impl.c ****   cmd.DummyCycles = 0;
 283              		.loc 1 74 3 discriminator 4 view .LVU71
  75:../Core/Src/w25q_impl.c ****   cmd.DQSMode = HAL_OSPI_DQS_DISABLE;
 284              		.loc 1 75 3 discriminator 4 view .LVU72
  76:../Core/Src/w25q_impl.c ****   cmd.SIOOMode = HAL_OSPI_SIOO_INST_EVERY_CMD;
 285              		.loc 1 76 3 discriminator 4 view .LVU73
  77:../Core/Src/w25q_impl.c **** 
  78:../Core/Src/w25q_impl.c ****   HAL_GPIO_WritePin(FLASH_CS_GPIO_PORT, FLASH_CS_PIN, GPIO_PIN_RESET);
 286              		.loc 1 78 3 discriminator 4 view .LVU74
 287 001a 0022     		movs	r2, #0
 288 001c 4021     		movs	r1, #64
 289 001e 0D48     		ldr	r0, .L18
 290 0020 FFF7FEFF 		bl	HAL_GPIO_WritePin
 291              	.LVL21:
  79:../Core/Src/w25q_impl.c **** 
  80:../Core/Src/w25q_impl.c ****   if (HAL_OSPI_Command(&flash_spi, &cmd, HAL_OSPI_TIMEOUT_DEFAULT_VALUE) !=
 292              		.loc 1 80 3 discriminator 4 view .LVU75
 293              		.loc 1 80 7 is_stmt 0 discriminator 4 view .LVU76
 294 0024 41F28832 		movw	r2, #5000
 295 0028 6946     		mov	r1, sp
 296 002a 0B48     		ldr	r0, .L18+4
 297 002c FFF7FEFF 		bl	HAL_OSPI_Command
 298              	.LVL22:
 299              		.loc 1 80 6 discriminator 4 view .LVU77
 300 0030 0446     		mov	r4, r0
 301 0032 60B9     		cbnz	r0, .L16
  81:../Core/Src/w25q_impl.c ****       HAL_OK) {
  82:../Core/Src/w25q_impl.c ****     return W25Q_ERR_SPI;
  83:../Core/Src/w25q_impl.c ****   }
ARM GAS  /tmp/ccCWBsCj.s 			page 8


  84:../Core/Src/w25q_impl.c **** 
  85:../Core/Src/w25q_impl.c ****   HAL_GPIO_WritePin(FLASH_CS_GPIO_PORT, FLASH_CS_PIN, GPIO_PIN_SET);
 302              		.loc 1 85 3 is_stmt 1 view .LVU78
 303 0034 0122     		movs	r2, #1
 304 0036 4021     		movs	r1, #64
 305 0038 0648     		ldr	r0, .L18
 306 003a FFF7FEFF 		bl	HAL_GPIO_WritePin
 307              	.LVL23:
  86:../Core/Src/w25q_impl.c **** 
  87:../Core/Src/w25q_impl.c ****   w25q_delay(1);
 308              		.loc 1 87 3 view .LVU79
 309 003e 0120     		movs	r0, #1
 310 0040 FFF7FEFF 		bl	w25q_delay
 311              	.LVL24:
  88:../Core/Src/w25q_impl.c **** 
  89:../Core/Src/w25q_impl.c ****   return W25Q_ERR_OK;
 312              		.loc 1 89 3 view .LVU80
 313              	.L14:
  90:../Core/Src/w25q_impl.c **** }
 314              		.loc 1 90 1 is_stmt 0 view .LVU81
 315 0044 2046     		mov	r0, r4
 316 0046 14B0     		add	sp, sp, #80
 317              	.LCFI7:
 318              		.cfi_remember_state
 319              		.cfi_def_cfa_offset 8
 320              		@ sp needed
 321 0048 10BD     		pop	{r4, pc}
 322              	.L15:
 323              	.LCFI8:
 324              		.cfi_restore_state
  61:../Core/Src/w25q_impl.c ****   cmd.InstructionMode = HAL_OSPI_INSTRUCTION_1_LINE;
 325              		.loc 1 61 48 view .LVU82
 326 004a 0423     		movs	r3, #4
 327 004c E2E7     		b	.L13
 328              	.L16:
  82:../Core/Src/w25q_impl.c ****   }
 329              		.loc 1 82 12 view .LVU83
 330 004e 0424     		movs	r4, #4
 331 0050 F8E7     		b	.L14
 332              	.L19:
 333 0052 00BF     		.align	2
 334              	.L18:
 335 0054 00180258 		.word	1476532224
 336 0058 00000000 		.word	hospi1
 337              		.cfi_endproc
 338              	.LFE150:
 340              		.section	.text.w25q_enter_4_byte_mode,"ax",%progbits
 341              		.align	1
 342              		.global	w25q_enter_4_byte_mode
 343              		.syntax unified
 344              		.thumb
 345              		.thumb_func
 346              		.fpu fpv5-d16
 348              	w25q_enter_4_byte_mode:
 349              	.LVL25:
 350              	.LFB151:
  91:../Core/Src/w25q_impl.c **** 
ARM GAS  /tmp/ccCWBsCj.s 			page 9


  92:../Core/Src/w25q_impl.c **** enum w25q_err w25q_enter_4_byte_mode(struct w25q_device *device, bool enable) {
 351              		.loc 1 92 79 is_stmt 1 view -0
 352              		.cfi_startproc
 353              		@ args = 0, pretend = 0, frame = 80
 354              		@ frame_needed = 0, uses_anonymous_args = 0
 355              		.loc 1 92 79 is_stmt 0 view .LVU85
 356 0000 30B5     		push	{r4, r5, lr}
 357              	.LCFI9:
 358              		.cfi_def_cfa_offset 12
 359              		.cfi_offset 4, -12
 360              		.cfi_offset 5, -8
 361              		.cfi_offset 14, -4
 362 0002 95B0     		sub	sp, sp, #84
 363              	.LCFI10:
 364              		.cfi_def_cfa_offset 96
 365 0004 0446     		mov	r4, r0
 366 0006 0D46     		mov	r5, r1
  93:../Core/Src/w25q_impl.c ****   while (w25q_is_busy(device) == W25Q_ERR_BUSY)
 367              		.loc 1 93 3 is_stmt 1 view .LVU86
 368              	.LVL26:
 369              	.L21:
  94:../Core/Src/w25q_impl.c ****     ;
 370              		.loc 1 94 5 discriminator 1 view .LVU87
  93:../Core/Src/w25q_impl.c ****   while (w25q_is_busy(device) == W25Q_ERR_BUSY)
 371              		.loc 1 93 9 discriminator 1 view .LVU88
  93:../Core/Src/w25q_impl.c ****   while (w25q_is_busy(device) == W25Q_ERR_BUSY)
 372              		.loc 1 93 10 is_stmt 0 discriminator 1 view .LVU89
 373 0008 2046     		mov	r0, r4
 374 000a FFF7FEFF 		bl	w25q_is_busy
 375              	.LVL27:
  93:../Core/Src/w25q_impl.c ****   while (w25q_is_busy(device) == W25Q_ERR_BUSY)
 376              		.loc 1 93 9 discriminator 1 view .LVU90
 377 000e 0128     		cmp	r0, #1
 378 0010 FAD0     		beq	.L21
  95:../Core/Src/w25q_impl.c **** 
  96:../Core/Src/w25q_impl.c ****   OSPI_RegularCmdTypeDef cmd = {0};
 379              		.loc 1 96 3 is_stmt 1 view .LVU91
 380              		.loc 1 96 26 is_stmt 0 view .LVU92
 381 0012 5022     		movs	r2, #80
 382 0014 0021     		movs	r1, #0
 383 0016 6846     		mov	r0, sp
 384 0018 FFF7FEFF 		bl	memset
 385              	.LVL28:
  97:../Core/Src/w25q_impl.c **** 
  98:../Core/Src/w25q_impl.c ****   cmd.OperationType = HAL_OSPI_OPTYPE_COMMON_CFG;
 386              		.loc 1 98 3 is_stmt 1 view .LVU93
  99:../Core/Src/w25q_impl.c **** 
 100:../Core/Src/w25q_impl.c ****   cmd.Instruction = enable ? W25Q_ENABLE_4B_MODE : W25Q_DISABLE_4B_MODE;
 387              		.loc 1 100 3 view .LVU94
 388              		.loc 1 100 50 is_stmt 0 view .LVU95
 389 001c E5B1     		cbz	r5, .L24
 390 001e B723     		movs	r3, #183
 391              	.L22:
 392              		.loc 1 100 19 discriminator 4 view .LVU96
 393 0020 0293     		str	r3, [sp, #8]
 101:../Core/Src/w25q_impl.c ****   cmd.InstructionMode = HAL_OSPI_INSTRUCTION_1_LINE;
 394              		.loc 1 101 3 is_stmt 1 discriminator 4 view .LVU97
ARM GAS  /tmp/ccCWBsCj.s 			page 10


 395              		.loc 1 101 23 is_stmt 0 discriminator 4 view .LVU98
 396 0022 0123     		movs	r3, #1
 397 0024 0393     		str	r3, [sp, #12]
 102:../Core/Src/w25q_impl.c ****   cmd.InstructionSize = HAL_OSPI_INSTRUCTION_8_BITS;
 398              		.loc 1 102 3 is_stmt 1 discriminator 4 view .LVU99
 103:../Core/Src/w25q_impl.c ****   cmd.InstructionDtrMode = HAL_OSPI_INSTRUCTION_DTR_DISABLE;
 399              		.loc 1 103 3 discriminator 4 view .LVU100
 104:../Core/Src/w25q_impl.c **** 
 105:../Core/Src/w25q_impl.c ****   cmd.AddressMode = HAL_OSPI_ADDRESS_NONE;
 400              		.loc 1 105 3 discriminator 4 view .LVU101
 106:../Core/Src/w25q_impl.c **** 
 107:../Core/Src/w25q_impl.c ****   cmd.AlternateBytesMode = HAL_OSPI_ALTERNATE_BYTES_NONE;
 401              		.loc 1 107 3 discriminator 4 view .LVU102
 108:../Core/Src/w25q_impl.c **** 
 109:../Core/Src/w25q_impl.c ****   cmd.DataMode = HAL_OSPI_DATA_NONE;
 402              		.loc 1 109 3 discriminator 4 view .LVU103
 110:../Core/Src/w25q_impl.c ****   cmd.DataDtrMode = HAL_OSPI_DATA_DTR_DISABLE;
 403              		.loc 1 110 3 discriminator 4 view .LVU104
 111:../Core/Src/w25q_impl.c ****   cmd.NbData = 0;
 404              		.loc 1 111 3 discriminator 4 view .LVU105
 112:../Core/Src/w25q_impl.c **** 
 113:../Core/Src/w25q_impl.c ****   cmd.DummyCycles = 0;
 405              		.loc 1 113 3 discriminator 4 view .LVU106
 114:../Core/Src/w25q_impl.c ****   cmd.DQSMode = HAL_OSPI_DQS_DISABLE;
 406              		.loc 1 114 3 discriminator 4 view .LVU107
 115:../Core/Src/w25q_impl.c ****   cmd.SIOOMode = HAL_OSPI_SIOO_INST_EVERY_CMD;
 407              		.loc 1 115 3 discriminator 4 view .LVU108
 116:../Core/Src/w25q_impl.c **** 
 117:../Core/Src/w25q_impl.c ****   HAL_GPIO_WritePin(FLASH_CS_GPIO_PORT, FLASH_CS_PIN, GPIO_PIN_RESET);
 408              		.loc 1 117 3 discriminator 4 view .LVU109
 409 0026 0022     		movs	r2, #0
 410 0028 4021     		movs	r1, #64
 411 002a 0D48     		ldr	r0, .L27
 412 002c FFF7FEFF 		bl	HAL_GPIO_WritePin
 413              	.LVL29:
 118:../Core/Src/w25q_impl.c **** 
 119:../Core/Src/w25q_impl.c ****   if (HAL_OSPI_Command(&flash_spi, &cmd, HAL_OSPI_TIMEOUT_DEFAULT_VALUE) !=
 414              		.loc 1 119 3 discriminator 4 view .LVU110
 415              		.loc 1 119 7 is_stmt 0 discriminator 4 view .LVU111
 416 0030 41F28832 		movw	r2, #5000
 417 0034 6946     		mov	r1, sp
 418 0036 0B48     		ldr	r0, .L27+4
 419 0038 FFF7FEFF 		bl	HAL_OSPI_Command
 420              	.LVL30:
 421              		.loc 1 119 6 discriminator 4 view .LVU112
 422 003c 70B9     		cbnz	r0, .L25
 120:../Core/Src/w25q_impl.c ****       HAL_OK) {
 121:../Core/Src/w25q_impl.c ****     return W25Q_ERR_SPI;
 122:../Core/Src/w25q_impl.c ****   }
 123:../Core/Src/w25q_impl.c **** 
 124:../Core/Src/w25q_impl.c ****   HAL_GPIO_WritePin(FLASH_CS_GPIO_PORT, FLASH_CS_PIN, GPIO_PIN_SET);
 423              		.loc 1 124 3 is_stmt 1 view .LVU113
 424 003e 0122     		movs	r2, #1
 425 0040 4021     		movs	r1, #64
 426 0042 0748     		ldr	r0, .L27
 427 0044 FFF7FEFF 		bl	HAL_GPIO_WritePin
 428              	.LVL31:
ARM GAS  /tmp/ccCWBsCj.s 			page 11


 125:../Core/Src/w25q_impl.c **** 
 126:../Core/Src/w25q_impl.c ****   w25q_delay(1);
 429              		.loc 1 126 3 view .LVU114
 430 0048 0120     		movs	r0, #1
 431 004a FFF7FEFF 		bl	w25q_delay
 432              	.LVL32:
 127:../Core/Src/w25q_impl.c **** 
 128:../Core/Src/w25q_impl.c ****   return w25q_update_status_struct(device);
 433              		.loc 1 128 3 view .LVU115
 434              		.loc 1 128 10 is_stmt 0 view .LVU116
 435 004e 2046     		mov	r0, r4
 436 0050 FFF7FEFF 		bl	w25q_update_status_struct
 437              	.LVL33:
 438              	.L23:
 129:../Core/Src/w25q_impl.c **** }
 439              		.loc 1 129 1 view .LVU117
 440 0054 15B0     		add	sp, sp, #84
 441              	.LCFI11:
 442              		.cfi_remember_state
 443              		.cfi_def_cfa_offset 12
 444              		@ sp needed
 445 0056 30BD     		pop	{r4, r5, pc}
 446              	.LVL34:
 447              	.L24:
 448              	.LCFI12:
 449              		.cfi_restore_state
 100:../Core/Src/w25q_impl.c ****   cmd.InstructionMode = HAL_OSPI_INSTRUCTION_1_LINE;
 450              		.loc 1 100 50 view .LVU118
 451 0058 E923     		movs	r3, #233
 452 005a E1E7     		b	.L22
 453              	.L25:
 121:../Core/Src/w25q_impl.c ****   }
 454              		.loc 1 121 12 view .LVU119
 455 005c 0420     		movs	r0, #4
 456 005e F9E7     		b	.L23
 457              	.L28:
 458              		.align	2
 459              	.L27:
 460 0060 00180258 		.word	1476532224
 461 0064 00000000 		.word	hospi1
 462              		.cfi_endproc
 463              	.LFE151:
 465              		.section	.text.w25q_read_status_reg,"ax",%progbits
 466              		.align	1
 467              		.global	w25q_read_status_reg
 468              		.syntax unified
 469              		.thumb
 470              		.thumb_func
 471              		.fpu fpv5-d16
 473              	w25q_read_status_reg:
 474              	.LVL35:
 475              	.LFB152:
 130:../Core/Src/w25q_impl.c **** 
 131:../Core/Src/w25q_impl.c **** enum w25q_err w25q_read_status_reg(struct w25q_device *device,
 132:../Core/Src/w25q_impl.c ****                                    uint8_t *reg_data, uint8_t reg_num) {
 476              		.loc 1 132 72 is_stmt 1 view -0
 477              		.cfi_startproc
ARM GAS  /tmp/ccCWBsCj.s 			page 12


 478              		@ args = 0, pretend = 0, frame = 80
 479              		@ frame_needed = 0, uses_anonymous_args = 0
 480              		.loc 1 132 72 is_stmt 0 view .LVU121
 481 0000 30B5     		push	{r4, r5, lr}
 482              	.LCFI13:
 483              		.cfi_def_cfa_offset 12
 484              		.cfi_offset 4, -12
 485              		.cfi_offset 5, -8
 486              		.cfi_offset 14, -4
 487 0002 95B0     		sub	sp, sp, #84
 488              	.LCFI14:
 489              		.cfi_def_cfa_offset 96
 490 0004 0D46     		mov	r5, r1
 491 0006 1446     		mov	r4, r2
 133:../Core/Src/w25q_impl.c ****   OSPI_RegularCmdTypeDef cmd = {0};
 492              		.loc 1 133 3 is_stmt 1 view .LVU122
 493              		.loc 1 133 26 is_stmt 0 view .LVU123
 494 0008 5022     		movs	r2, #80
 495              	.LVL36:
 496              		.loc 1 133 26 view .LVU124
 497 000a 0021     		movs	r1, #0
 498              	.LVL37:
 499              		.loc 1 133 26 view .LVU125
 500 000c 6846     		mov	r0, sp
 501              	.LVL38:
 502              		.loc 1 133 26 view .LVU126
 503 000e FFF7FEFF 		bl	memset
 504              	.LVL39:
 134:../Core/Src/w25q_impl.c **** 
 135:../Core/Src/w25q_impl.c ****   cmd.OperationType = HAL_OSPI_OPTYPE_COMMON_CFG;
 505              		.loc 1 135 3 is_stmt 1 view .LVU127
 136:../Core/Src/w25q_impl.c **** 
 137:../Core/Src/w25q_impl.c ****   if (reg_num == 1) {
 506              		.loc 1 137 3 view .LVU128
 507              		.loc 1 137 6 is_stmt 0 view .LVU129
 508 0012 012C     		cmp	r4, #1
 509 0014 06D0     		beq	.L38
 138:../Core/Src/w25q_impl.c ****     cmd.Instruction = W25Q_READ_SR1;
 139:../Core/Src/w25q_impl.c ****   } else if (reg_num == 2) {
 510              		.loc 1 139 10 is_stmt 1 view .LVU130
 511              		.loc 1 139 13 is_stmt 0 view .LVU131
 512 0016 022C     		cmp	r4, #2
 513 0018 28D0     		beq	.L39
 140:../Core/Src/w25q_impl.c ****     cmd.Instruction = W25Q_READ_SR2;
 141:../Core/Src/w25q_impl.c ****   } else if (reg_num == 3) {
 514              		.loc 1 141 10 is_stmt 1 view .LVU132
 515              		.loc 1 141 13 is_stmt 0 view .LVU133
 516 001a 032C     		cmp	r4, #3
 517 001c 29D1     		bne	.L34
 142:../Core/Src/w25q_impl.c ****     cmd.Instruction = W25Q_READ_SR3;
 518              		.loc 1 142 5 is_stmt 1 view .LVU134
 519              		.loc 1 142 21 is_stmt 0 view .LVU135
 520 001e 1523     		movs	r3, #21
 521 0020 0293     		str	r3, [sp, #8]
 522 0022 01E0     		b	.L31
 523              	.L38:
 138:../Core/Src/w25q_impl.c ****     cmd.Instruction = W25Q_READ_SR1;
ARM GAS  /tmp/ccCWBsCj.s 			page 13


 524              		.loc 1 138 5 is_stmt 1 view .LVU136
 138:../Core/Src/w25q_impl.c ****     cmd.Instruction = W25Q_READ_SR1;
 525              		.loc 1 138 21 is_stmt 0 view .LVU137
 526 0024 0523     		movs	r3, #5
 527 0026 0293     		str	r3, [sp, #8]
 528              	.L31:
 143:../Core/Src/w25q_impl.c ****   } else {
 144:../Core/Src/w25q_impl.c ****     return W25Q_ERR_PARAM;
 145:../Core/Src/w25q_impl.c ****   }
 146:../Core/Src/w25q_impl.c **** 
 147:../Core/Src/w25q_impl.c ****   cmd.InstructionMode = HAL_OSPI_INSTRUCTION_1_LINE;
 529              		.loc 1 147 3 is_stmt 1 view .LVU138
 530              		.loc 1 147 23 is_stmt 0 view .LVU139
 531 0028 0123     		movs	r3, #1
 532 002a 0393     		str	r3, [sp, #12]
 148:../Core/Src/w25q_impl.c ****   cmd.InstructionSize = HAL_OSPI_INSTRUCTION_8_BITS;
 533              		.loc 1 148 3 is_stmt 1 view .LVU140
 149:../Core/Src/w25q_impl.c ****   cmd.InstructionDtrMode = HAL_OSPI_INSTRUCTION_DTR_DISABLE;
 534              		.loc 1 149 3 view .LVU141
 150:../Core/Src/w25q_impl.c **** 
 151:../Core/Src/w25q_impl.c ****   cmd.AddressMode = HAL_OSPI_ADDRESS_NONE;
 535              		.loc 1 151 3 view .LVU142
 152:../Core/Src/w25q_impl.c **** 
 153:../Core/Src/w25q_impl.c ****   cmd.AlternateBytesMode = HAL_OSPI_ALTERNATE_BYTES_NONE;
 536              		.loc 1 153 3 view .LVU143
 154:../Core/Src/w25q_impl.c **** 
 155:../Core/Src/w25q_impl.c ****   cmd.DataMode = HAL_OSPI_DATA_1_LINE;
 537              		.loc 1 155 3 view .LVU144
 538              		.loc 1 155 16 is_stmt 0 view .LVU145
 539 002c 4FF08072 		mov	r2, #16777216
 540 0030 0E92     		str	r2, [sp, #56]
 156:../Core/Src/w25q_impl.c ****   cmd.DataDtrMode = HAL_OSPI_DATA_DTR_DISABLE;
 541              		.loc 1 156 3 is_stmt 1 view .LVU146
 157:../Core/Src/w25q_impl.c ****   cmd.NbData = 1;
 542              		.loc 1 157 3 view .LVU147
 543              		.loc 1 157 14 is_stmt 0 view .LVU148
 544 0032 0F93     		str	r3, [sp, #60]
 158:../Core/Src/w25q_impl.c **** 
 159:../Core/Src/w25q_impl.c ****   cmd.DummyCycles = 0;
 545              		.loc 1 159 3 is_stmt 1 view .LVU149
 160:../Core/Src/w25q_impl.c ****   cmd.DQSMode = HAL_OSPI_DQS_DISABLE;
 546              		.loc 1 160 3 view .LVU150
 161:../Core/Src/w25q_impl.c ****   cmd.SIOOMode = HAL_OSPI_SIOO_INST_EVERY_CMD;
 547              		.loc 1 161 3 view .LVU151
 162:../Core/Src/w25q_impl.c **** 
 163:../Core/Src/w25q_impl.c ****   HAL_GPIO_WritePin(FLASH_CS_GPIO_PORT, FLASH_CS_PIN, GPIO_PIN_RESET);
 548              		.loc 1 163 3 view .LVU152
 549 0034 0022     		movs	r2, #0
 550 0036 4021     		movs	r1, #64
 551 0038 1148     		ldr	r0, .L40
 552 003a FFF7FEFF 		bl	HAL_GPIO_WritePin
 553              	.LVL40:
 164:../Core/Src/w25q_impl.c **** 
 165:../Core/Src/w25q_impl.c ****   if (HAL_OSPI_Command(&flash_spi, &cmd, HAL_OSPI_TIMEOUT_DEFAULT_VALUE) !=
 554              		.loc 1 165 3 view .LVU153
 555              		.loc 1 165 7 is_stmt 0 view .LVU154
 556 003e 41F28832 		movw	r2, #5000
ARM GAS  /tmp/ccCWBsCj.s 			page 14


 557 0042 6946     		mov	r1, sp
 558 0044 0F48     		ldr	r0, .L40+4
 559 0046 FFF7FEFF 		bl	HAL_OSPI_Command
 560              	.LVL41:
 561              		.loc 1 165 6 view .LVU155
 562 004a A0B9     		cbnz	r0, .L35
 166:../Core/Src/w25q_impl.c ****       HAL_OK) {
 167:../Core/Src/w25q_impl.c ****     return W25Q_ERR_SPI;
 168:../Core/Src/w25q_impl.c ****   }
 169:../Core/Src/w25q_impl.c **** 
 170:../Core/Src/w25q_impl.c ****   // cli_transmit(&cli, "KEBAB 2\r\n");
 171:../Core/Src/w25q_impl.c ****   if (HAL_OSPI_Receive(&flash_spi, reg_data, HAL_OSPI_TIMEOUT_DEFAULT_VALUE) !=
 563              		.loc 1 171 3 is_stmt 1 view .LVU156
 564              		.loc 1 171 7 is_stmt 0 view .LVU157
 565 004c 41F28832 		movw	r2, #5000
 566 0050 2946     		mov	r1, r5
 567 0052 0C48     		ldr	r0, .L40+4
 568 0054 FFF7FEFF 		bl	HAL_OSPI_Receive
 569              	.LVL42:
 570              		.loc 1 171 6 view .LVU158
 571 0058 0446     		mov	r4, r0
 572 005a 70B9     		cbnz	r0, .L36
 172:../Core/Src/w25q_impl.c ****       HAL_OK) {
 173:../Core/Src/w25q_impl.c ****     return W25Q_ERR_SPI;
 174:../Core/Src/w25q_impl.c ****   }
 175:../Core/Src/w25q_impl.c **** 
 176:../Core/Src/w25q_impl.c ****   HAL_GPIO_WritePin(FLASH_CS_GPIO_PORT, FLASH_CS_PIN, GPIO_PIN_SET);
 573              		.loc 1 176 3 is_stmt 1 view .LVU159
 574 005c 0122     		movs	r2, #1
 575 005e 4021     		movs	r1, #64
 576 0060 0748     		ldr	r0, .L40
 577 0062 FFF7FEFF 		bl	HAL_GPIO_WritePin
 578              	.LVL43:
 177:../Core/Src/w25q_impl.c **** 
 178:../Core/Src/w25q_impl.c ****   return W25Q_ERR_OK;
 579              		.loc 1 178 3 view .LVU160
 580              	.L33:
 179:../Core/Src/w25q_impl.c **** }
 581              		.loc 1 179 1 is_stmt 0 view .LVU161
 582 0066 2046     		mov	r0, r4
 583 0068 15B0     		add	sp, sp, #84
 584              	.LCFI15:
 585              		.cfi_remember_state
 586              		.cfi_def_cfa_offset 12
 587              		@ sp needed
 588 006a 30BD     		pop	{r4, r5, pc}
 589              	.LVL44:
 590              	.L39:
 591              	.LCFI16:
 592              		.cfi_restore_state
 140:../Core/Src/w25q_impl.c ****   } else if (reg_num == 3) {
 593              		.loc 1 140 5 is_stmt 1 view .LVU162
 140:../Core/Src/w25q_impl.c ****   } else if (reg_num == 3) {
 594              		.loc 1 140 21 is_stmt 0 view .LVU163
 595 006c 3523     		movs	r3, #53
 596 006e 0293     		str	r3, [sp, #8]
 597 0070 DAE7     		b	.L31
ARM GAS  /tmp/ccCWBsCj.s 			page 15


 598              	.L34:
 144:../Core/Src/w25q_impl.c ****   }
 599              		.loc 1 144 12 view .LVU164
 600 0072 0224     		movs	r4, #2
 601 0074 F7E7     		b	.L33
 602              	.L35:
 167:../Core/Src/w25q_impl.c ****   }
 603              		.loc 1 167 12 view .LVU165
 604 0076 0424     		movs	r4, #4
 605 0078 F5E7     		b	.L33
 606              	.L36:
 173:../Core/Src/w25q_impl.c ****   }
 607              		.loc 1 173 12 view .LVU166
 608 007a 0424     		movs	r4, #4
 609 007c F3E7     		b	.L33
 610              	.L41:
 611 007e 00BF     		.align	2
 612              	.L40:
 613 0080 00180258 		.word	1476532224
 614 0084 00000000 		.word	hospi1
 615              		.cfi_endproc
 616              	.LFE152:
 618              		.section	.text.w25q_write_status_reg,"ax",%progbits
 619              		.align	1
 620              		.global	w25q_write_status_reg
 621              		.syntax unified
 622              		.thumb
 623              		.thumb_func
 624              		.fpu fpv5-d16
 626              	w25q_write_status_reg:
 627              	.LVL45:
 628              	.LFB153:
 180:../Core/Src/w25q_impl.c **** 
 181:../Core/Src/w25q_impl.c **** enum w25q_err w25q_write_status_reg(struct w25q_device *device,
 182:../Core/Src/w25q_impl.c ****                                     uint8_t reg_data, uint8_t reg_num) {
 629              		.loc 1 182 72 is_stmt 1 view -0
 630              		.cfi_startproc
 631              		@ args = 0, pretend = 0, frame = 88
 632              		@ frame_needed = 0, uses_anonymous_args = 0
 633              		.loc 1 182 72 is_stmt 0 view .LVU168
 634 0000 30B5     		push	{r4, r5, lr}
 635              	.LCFI17:
 636              		.cfi_def_cfa_offset 12
 637              		.cfi_offset 4, -12
 638              		.cfi_offset 5, -8
 639              		.cfi_offset 14, -4
 640 0002 97B0     		sub	sp, sp, #92
 641              	.LCFI18:
 642              		.cfi_def_cfa_offset 104
 643 0004 0446     		mov	r4, r0
 644 0006 1546     		mov	r5, r2
 645 0008 8DF80710 		strb	r1, [sp, #7]
 183:../Core/Src/w25q_impl.c ****   while (w25q_is_busy(device) == W25Q_ERR_BUSY)
 646              		.loc 1 183 3 is_stmt 1 view .LVU169
 647              	.LVL46:
 648              	.L43:
 184:../Core/Src/w25q_impl.c ****     ;
ARM GAS  /tmp/ccCWBsCj.s 			page 16


 649              		.loc 1 184 5 discriminator 1 view .LVU170
 183:../Core/Src/w25q_impl.c ****   while (w25q_is_busy(device) == W25Q_ERR_BUSY)
 650              		.loc 1 183 9 discriminator 1 view .LVU171
 183:../Core/Src/w25q_impl.c ****   while (w25q_is_busy(device) == W25Q_ERR_BUSY)
 651              		.loc 1 183 10 is_stmt 0 discriminator 1 view .LVU172
 652 000c 2046     		mov	r0, r4
 653 000e FFF7FEFF 		bl	w25q_is_busy
 654              	.LVL47:
 183:../Core/Src/w25q_impl.c ****   while (w25q_is_busy(device) == W25Q_ERR_BUSY)
 655              		.loc 1 183 9 discriminator 1 view .LVU173
 656 0012 0128     		cmp	r0, #1
 657 0014 FAD0     		beq	.L43
 185:../Core/Src/w25q_impl.c **** 
 186:../Core/Src/w25q_impl.c ****   enum w25q_err err = w25q_write_enable(device, 1);
 658              		.loc 1 186 3 is_stmt 1 view .LVU174
 659              		.loc 1 186 23 is_stmt 0 view .LVU175
 660 0016 0121     		movs	r1, #1
 661 0018 2046     		mov	r0, r4
 662 001a FFF7FEFF 		bl	w25q_write_enable
 663              	.LVL48:
 187:../Core/Src/w25q_impl.c ****   if (err != W25Q_ERR_OK) {
 664              		.loc 1 187 3 is_stmt 1 view .LVU176
 665              		.loc 1 187 6 is_stmt 0 view .LVU177
 666 001e 0446     		mov	r4, r0
 667              	.LVL49:
 668              		.loc 1 187 6 view .LVU178
 669 0020 78BB     		cbnz	r0, .L44
 188:../Core/Src/w25q_impl.c ****     return err;
 189:../Core/Src/w25q_impl.c ****   }
 190:../Core/Src/w25q_impl.c **** 
 191:../Core/Src/w25q_impl.c ****   OSPI_RegularCmdTypeDef cmd = {0};
 670              		.loc 1 191 3 is_stmt 1 view .LVU179
 671              		.loc 1 191 26 is_stmt 0 view .LVU180
 672 0022 5022     		movs	r2, #80
 673 0024 0021     		movs	r1, #0
 674 0026 02A8     		add	r0, sp, #8
 675              	.LVL50:
 676              		.loc 1 191 26 view .LVU181
 677 0028 FFF7FEFF 		bl	memset
 678              	.LVL51:
 192:../Core/Src/w25q_impl.c **** 
 193:../Core/Src/w25q_impl.c ****   cmd.OperationType = HAL_OSPI_OPTYPE_COMMON_CFG;
 679              		.loc 1 193 3 is_stmt 1 view .LVU182
 194:../Core/Src/w25q_impl.c **** 
 195:../Core/Src/w25q_impl.c ****   if (reg_num == 1) {
 680              		.loc 1 195 3 view .LVU183
 681              		.loc 1 195 6 is_stmt 0 view .LVU184
 682 002c 012D     		cmp	r5, #1
 683 002e 06D0     		beq	.L52
 196:../Core/Src/w25q_impl.c ****     cmd.Instruction = W25Q_WRITE_SR1;
 197:../Core/Src/w25q_impl.c ****   } else if (reg_num == 2) {
 684              		.loc 1 197 10 is_stmt 1 view .LVU185
 685              		.loc 1 197 13 is_stmt 0 view .LVU186
 686 0030 022D     		cmp	r5, #2
 687 0032 29D0     		beq	.L53
 198:../Core/Src/w25q_impl.c ****     cmd.Instruction = W25Q_WRITE_SR2;
 199:../Core/Src/w25q_impl.c ****   } else if (reg_num == 3) {
ARM GAS  /tmp/ccCWBsCj.s 			page 17


 688              		.loc 1 199 10 is_stmt 1 view .LVU187
 689              		.loc 1 199 13 is_stmt 0 view .LVU188
 690 0034 032D     		cmp	r5, #3
 691 0036 2AD1     		bne	.L48
 200:../Core/Src/w25q_impl.c ****     cmd.Instruction = W25Q_WRITE_SR3;
 692              		.loc 1 200 5 is_stmt 1 view .LVU189
 693              		.loc 1 200 21 is_stmt 0 view .LVU190
 694 0038 1123     		movs	r3, #17
 695 003a 0493     		str	r3, [sp, #16]
 696 003c 01E0     		b	.L46
 697              	.L52:
 196:../Core/Src/w25q_impl.c ****     cmd.Instruction = W25Q_WRITE_SR1;
 698              		.loc 1 196 5 is_stmt 1 view .LVU191
 196:../Core/Src/w25q_impl.c ****     cmd.Instruction = W25Q_WRITE_SR1;
 699              		.loc 1 196 21 is_stmt 0 view .LVU192
 700 003e 0123     		movs	r3, #1
 701 0040 0493     		str	r3, [sp, #16]
 702              	.L46:
 201:../Core/Src/w25q_impl.c ****   } else {
 202:../Core/Src/w25q_impl.c ****     return W25Q_ERR_PARAM;
 203:../Core/Src/w25q_impl.c ****   }
 204:../Core/Src/w25q_impl.c **** 
 205:../Core/Src/w25q_impl.c ****   cmd.InstructionMode = HAL_OSPI_INSTRUCTION_1_LINE;
 703              		.loc 1 205 3 is_stmt 1 view .LVU193
 704              		.loc 1 205 23 is_stmt 0 view .LVU194
 705 0042 0123     		movs	r3, #1
 706 0044 0593     		str	r3, [sp, #20]
 206:../Core/Src/w25q_impl.c ****   cmd.InstructionSize = HAL_OSPI_INSTRUCTION_8_BITS;
 707              		.loc 1 206 3 is_stmt 1 view .LVU195
 207:../Core/Src/w25q_impl.c ****   cmd.InstructionDtrMode = HAL_OSPI_INSTRUCTION_DTR_DISABLE;
 708              		.loc 1 207 3 view .LVU196
 208:../Core/Src/w25q_impl.c **** 
 209:../Core/Src/w25q_impl.c ****   cmd.AddressMode = HAL_OSPI_ADDRESS_NONE;
 709              		.loc 1 209 3 view .LVU197
 210:../Core/Src/w25q_impl.c **** 
 211:../Core/Src/w25q_impl.c ****   cmd.AlternateBytesMode = HAL_OSPI_ALTERNATE_BYTES_NONE;
 710              		.loc 1 211 3 view .LVU198
 212:../Core/Src/w25q_impl.c **** 
 213:../Core/Src/w25q_impl.c ****   cmd.DataMode = HAL_OSPI_DATA_1_LINE;
 711              		.loc 1 213 3 view .LVU199
 712              		.loc 1 213 16 is_stmt 0 view .LVU200
 713 0046 4FF08072 		mov	r2, #16777216
 714 004a 1092     		str	r2, [sp, #64]
 214:../Core/Src/w25q_impl.c ****   cmd.DataDtrMode = HAL_OSPI_DATA_DTR_DISABLE;
 715              		.loc 1 214 3 is_stmt 1 view .LVU201
 215:../Core/Src/w25q_impl.c ****   cmd.NbData = 1;
 716              		.loc 1 215 3 view .LVU202
 717              		.loc 1 215 14 is_stmt 0 view .LVU203
 718 004c 1193     		str	r3, [sp, #68]
 216:../Core/Src/w25q_impl.c **** 
 217:../Core/Src/w25q_impl.c ****   cmd.DummyCycles = 0;
 719              		.loc 1 217 3 is_stmt 1 view .LVU204
 218:../Core/Src/w25q_impl.c ****   cmd.DQSMode = HAL_OSPI_DQS_DISABLE;
 720              		.loc 1 218 3 view .LVU205
 219:../Core/Src/w25q_impl.c ****   cmd.SIOOMode = HAL_OSPI_SIOO_INST_EVERY_CMD;
 721              		.loc 1 219 3 view .LVU206
 220:../Core/Src/w25q_impl.c **** 
ARM GAS  /tmp/ccCWBsCj.s 			page 18


 221:../Core/Src/w25q_impl.c ****   HAL_GPIO_WritePin(FLASH_CS_GPIO_PORT, FLASH_CS_PIN, GPIO_PIN_RESET);
 722              		.loc 1 221 3 view .LVU207
 723 004e 0022     		movs	r2, #0
 724 0050 4021     		movs	r1, #64
 725 0052 1248     		ldr	r0, .L54
 726 0054 FFF7FEFF 		bl	HAL_GPIO_WritePin
 727              	.LVL52:
 222:../Core/Src/w25q_impl.c **** 
 223:../Core/Src/w25q_impl.c ****   if (HAL_OSPI_Command(&flash_spi, &cmd, HAL_OSPI_TIMEOUT_DEFAULT_VALUE) !=
 728              		.loc 1 223 3 view .LVU208
 729              		.loc 1 223 7 is_stmt 0 view .LVU209
 730 0058 41F28832 		movw	r2, #5000
 731 005c 02A9     		add	r1, sp, #8
 732 005e 1048     		ldr	r0, .L54+4
 733 0060 FFF7FEFF 		bl	HAL_OSPI_Command
 734              	.LVL53:
 735              		.loc 1 223 6 view .LVU210
 736 0064 A8B9     		cbnz	r0, .L49
 224:../Core/Src/w25q_impl.c ****       HAL_OK) {
 225:../Core/Src/w25q_impl.c ****     return W25Q_ERR_SPI;
 226:../Core/Src/w25q_impl.c ****   }
 227:../Core/Src/w25q_impl.c **** 
 228:../Core/Src/w25q_impl.c ****   if (HAL_OSPI_Transmit(&flash_spi, &reg_data, HAL_OSPI_TIMEOUT_DEFAULT_VALUE) !=
 737              		.loc 1 228 3 is_stmt 1 view .LVU211
 738              		.loc 1 228 7 is_stmt 0 view .LVU212
 739 0066 41F28832 		movw	r2, #5000
 740 006a 0DF10701 		add	r1, sp, #7
 741 006e 0C48     		ldr	r0, .L54+4
 742 0070 FFF7FEFF 		bl	HAL_OSPI_Transmit
 743              	.LVL54:
 744              		.loc 1 228 6 view .LVU213
 745 0074 0446     		mov	r4, r0
 746 0076 70B9     		cbnz	r0, .L50
 229:../Core/Src/w25q_impl.c ****       HAL_OK) {
 230:../Core/Src/w25q_impl.c ****     return W25Q_ERR_SPI;
 231:../Core/Src/w25q_impl.c ****   }
 232:../Core/Src/w25q_impl.c **** 
 233:../Core/Src/w25q_impl.c ****   HAL_GPIO_WritePin(FLASH_CS_GPIO_PORT, FLASH_CS_PIN, GPIO_PIN_SET);
 747              		.loc 1 233 3 is_stmt 1 view .LVU214
 748 0078 0122     		movs	r2, #1
 749 007a 4021     		movs	r1, #64
 750 007c 0748     		ldr	r0, .L54
 751 007e FFF7FEFF 		bl	HAL_GPIO_WritePin
 752              	.LVL55:
 234:../Core/Src/w25q_impl.c **** 
 235:../Core/Src/w25q_impl.c ****   return W25Q_ERR_OK;
 753              		.loc 1 235 3 view .LVU215
 754              	.L44:
 236:../Core/Src/w25q_impl.c **** }
 755              		.loc 1 236 1 is_stmt 0 view .LVU216
 756 0082 2046     		mov	r0, r4
 757 0084 17B0     		add	sp, sp, #92
 758              	.LCFI19:
 759              		.cfi_remember_state
 760              		.cfi_def_cfa_offset 12
 761              		@ sp needed
 762 0086 30BD     		pop	{r4, r5, pc}
ARM GAS  /tmp/ccCWBsCj.s 			page 19


 763              	.L53:
 764              	.LCFI20:
 765              		.cfi_restore_state
 198:../Core/Src/w25q_impl.c ****   } else if (reg_num == 3) {
 766              		.loc 1 198 5 is_stmt 1 view .LVU217
 198:../Core/Src/w25q_impl.c ****   } else if (reg_num == 3) {
 767              		.loc 1 198 21 is_stmt 0 view .LVU218
 768 0088 3123     		movs	r3, #49
 769 008a 0493     		str	r3, [sp, #16]
 770 008c D9E7     		b	.L46
 771              	.L48:
 202:../Core/Src/w25q_impl.c ****   }
 772              		.loc 1 202 12 view .LVU219
 773 008e 0224     		movs	r4, #2
 774 0090 F7E7     		b	.L44
 775              	.L49:
 225:../Core/Src/w25q_impl.c ****   }
 776              		.loc 1 225 12 view .LVU220
 777 0092 0424     		movs	r4, #4
 778 0094 F5E7     		b	.L44
 779              	.L50:
 230:../Core/Src/w25q_impl.c ****   }
 780              		.loc 1 230 12 view .LVU221
 781 0096 0424     		movs	r4, #4
 782 0098 F3E7     		b	.L44
 783              	.L55:
 784 009a 00BF     		.align	2
 785              	.L54:
 786 009c 00180258 		.word	1476532224
 787 00a0 00000000 		.word	hospi1
 788              		.cfi_endproc
 789              	.LFE153:
 791              		.section	.text.w25q_read_raw,"ax",%progbits
 792              		.align	1
 793              		.global	w25q_read_raw
 794              		.syntax unified
 795              		.thumb
 796              		.thumb_func
 797              		.fpu fpv5-d16
 799              	w25q_read_raw:
 800              	.LVL56:
 801              	.LFB154:
 237:../Core/Src/w25q_impl.c **** 
 238:../Core/Src/w25q_impl.c **** // enum w25q_err w25q_read_raw(struct w25q_device *device, uint8_t *buf,
 239:../Core/Src/w25q_impl.c **** //                             uint32_t len, uint32_t addr) {
 240:../Core/Src/w25q_impl.c **** //   if (len > 256 || len == 0) {
 241:../Core/Src/w25q_impl.c **** //     return W25Q_ERR_PARAM;
 242:../Core/Src/w25q_impl.c **** //   }
 243:../Core/Src/w25q_impl.c **** //
 244:../Core/Src/w25q_impl.c **** //   while (w25q_is_busy(device) == W25Q_ERR_BUSY);
 245:../Core/Src/w25q_impl.c **** //
 246:../Core/Src/w25q_impl.c **** //   OSPI_RegularCmdTypeDef cmd = {0};
 247:../Core/Src/w25q_impl.c **** //
 248:../Core/Src/w25q_impl.c **** //   cmd.OperationType = HAL_OSPI_OPTYPE_COMMON_CFG;
 249:../Core/Src/w25q_impl.c **** //
 250:../Core/Src/w25q_impl.c **** // #if W25Q_MEM_FLASH_SIZE > 128U
 251:../Core/Src/w25q_impl.c **** //
ARM GAS  /tmp/ccCWBsCj.s 			page 20


 252:../Core/Src/w25q_impl.c **** //   cmd.Instruction = W25Q_READ_DATA_4B;
 253:../Core/Src/w25q_impl.c **** //   cmd.AddressSize = HAL_OSPI_ADDRESS_32_BITS;
 254:../Core/Src/w25q_impl.c **** //
 255:../Core/Src/w25q_impl.c **** // #else
 256:../Core/Src/w25q_impl.c **** //
 257:../Core/Src/w25q_impl.c **** //   cmd.Instruction = W25Q_READ_DATA;
 258:../Core/Src/w25q_impl.c **** //   cmd.AddressSize = HAL_OSPI_ADDRESS_24_BITS;
 259:../Core/Src/w25q_impl.c **** //
 260:../Core/Src/w25q_impl.c **** // #endif
 261:../Core/Src/w25q_impl.c **** //
 262:../Core/Src/w25q_impl.c **** //   cmd.InstructionMode = HAL_OSPI_INSTRUCTION_1_LINE;
 263:../Core/Src/w25q_impl.c **** //   cmd.InstructionSize = HAL_OSPI_INSTRUCTION_8_BITS;
 264:../Core/Src/w25q_impl.c **** //   cmd.InstructionDtrMode = HAL_OSPI_INSTRUCTION_DTR_DISABLE;
 265:../Core/Src/w25q_impl.c **** //
 266:../Core/Src/w25q_impl.c **** //   cmd.Address = addr;
 267:../Core/Src/w25q_impl.c **** //   cmd.AddressMode = HAL_OSPI_ADDRESS_1_LINE;
 268:../Core/Src/w25q_impl.c **** //   cmd.AddressDtrMode = HAL_OSPI_ADDRESS_DTR_DISABLE;
 269:../Core/Src/w25q_impl.c **** //
 270:../Core/Src/w25q_impl.c **** //   cmd.AlternateBytesMode = HAL_OSPI_ALTERNATE_BYTES_NONE;
 271:../Core/Src/w25q_impl.c **** //
 272:../Core/Src/w25q_impl.c **** //   cmd.DataMode = HAL_OSPI_DATA_1_LINE;
 273:../Core/Src/w25q_impl.c **** //   cmd.DataDtrMode = HAL_OSPI_DATA_DTR_DISABLE;
 274:../Core/Src/w25q_impl.c **** //   cmd.NbData = len;
 275:../Core/Src/w25q_impl.c **** //
 276:../Core/Src/w25q_impl.c **** //   cmd.DummyCycles = 0;
 277:../Core/Src/w25q_impl.c **** //   cmd.DQSMode = HAL_OSPI_DQS_DISABLE;
 278:../Core/Src/w25q_impl.c **** //   cmd.SIOOMode = HAL_OSPI_SIOO_INST_EVERY_CMD;
 279:../Core/Src/w25q_impl.c **** //
 280:../Core/Src/w25q_impl.c **** //   if (HAL_OSPI_Command(&flash_spi, &cmd, HAL_OSPI_TIMEOUT_DEFAULT_VALUE) !=
 281:../Core/Src/w25q_impl.c **** //       HAL_OK) {
 282:../Core/Src/w25q_impl.c **** //     return W25Q_ERR_SPI;
 283:../Core/Src/w25q_impl.c **** //   }
 284:../Core/Src/w25q_impl.c **** //
 285:../Core/Src/w25q_impl.c **** //   if (HAL_OSPI_Receive(&flash_spi, buf, HAL_OSPI_TIMEOUT_DEFAULT_VALUE) !=
 286:../Core/Src/w25q_impl.c **** //       HAL_OK) {
 287:../Core/Src/w25q_impl.c **** //     return W25Q_ERR_SPI;
 288:../Core/Src/w25q_impl.c **** //   }
 289:../Core/Src/w25q_impl.c **** //
 290:../Core/Src/w25q_impl.c **** //   return W25Q_ERR_OK;
 291:../Core/Src/w25q_impl.c **** //
 292:../Core/Src/w25q_impl.c **** //
 293:../Core/Src/w25q_impl.c **** // }
 294:../Core/Src/w25q_impl.c **** 
 295:../Core/Src/w25q_impl.c **** enum w25q_err w25q_read_raw(struct w25q_device *device, uint8_t *buf,
 296:../Core/Src/w25q_impl.c ****                             uint32_t len, uint32_t addr) {
 802              		.loc 1 296 58 is_stmt 1 view -0
 803              		.cfi_startproc
 804              		@ args = 0, pretend = 0, frame = 80
 805              		@ frame_needed = 0, uses_anonymous_args = 0
 806              		.loc 1 296 58 is_stmt 0 view .LVU223
 807 0000 F0B5     		push	{r4, r5, r6, r7, lr}
 808              	.LCFI21:
 809              		.cfi_def_cfa_offset 20
 810              		.cfi_offset 4, -20
 811              		.cfi_offset 5, -16
 812              		.cfi_offset 6, -12
 813              		.cfi_offset 7, -8
ARM GAS  /tmp/ccCWBsCj.s 			page 21


 814              		.cfi_offset 14, -4
 815 0002 95B0     		sub	sp, sp, #84
 816              	.LCFI22:
 817              		.cfi_def_cfa_offset 104
 818 0004 0446     		mov	r4, r0
 819 0006 0F46     		mov	r7, r1
 820 0008 1546     		mov	r5, r2
 821 000a 1E46     		mov	r6, r3
 297:../Core/Src/w25q_impl.c ****   if (len > 256 || len == 0) {
 822              		.loc 1 297 3 is_stmt 1 view .LVU224
 823              		.loc 1 297 17 is_stmt 0 view .LVU225
 824 000c 013A     		subs	r2, r2, #1
 825              	.LVL57:
 826              		.loc 1 297 6 view .LVU226
 827 000e FF2A     		cmp	r2, #255
 828 0010 36D8     		bhi	.L59
 829              	.LVL58:
 830              	.L58:
 298:../Core/Src/w25q_impl.c ****     return W25Q_ERR_PARAM;
 299:../Core/Src/w25q_impl.c ****   }
 300:../Core/Src/w25q_impl.c **** 
 301:../Core/Src/w25q_impl.c ****   while (w25q_is_busy(device) == W25Q_ERR_BUSY)
 302:../Core/Src/w25q_impl.c ****     ;
 831              		.loc 1 302 5 is_stmt 1 discriminator 1 view .LVU227
 301:../Core/Src/w25q_impl.c ****     ;
 832              		.loc 1 301 9 discriminator 1 view .LVU228
 301:../Core/Src/w25q_impl.c ****     ;
 833              		.loc 1 301 10 is_stmt 0 discriminator 1 view .LVU229
 834 0012 2046     		mov	r0, r4
 835 0014 FFF7FEFF 		bl	w25q_is_busy
 836              	.LVL59:
 301:../Core/Src/w25q_impl.c ****     ;
 837              		.loc 1 301 9 discriminator 1 view .LVU230
 838 0018 0128     		cmp	r0, #1
 839 001a FAD0     		beq	.L58
 303:../Core/Src/w25q_impl.c **** 
 304:../Core/Src/w25q_impl.c ****   OSPI_RegularCmdTypeDef cmd = {0};
 840              		.loc 1 304 3 is_stmt 1 view .LVU231
 841              		.loc 1 304 26 is_stmt 0 view .LVU232
 842 001c 5022     		movs	r2, #80
 843 001e 0021     		movs	r1, #0
 844 0020 6846     		mov	r0, sp
 845 0022 FFF7FEFF 		bl	memset
 846              	.LVL60:
 305:../Core/Src/w25q_impl.c **** 
 306:../Core/Src/w25q_impl.c ****   cmd.OperationType = HAL_OSPI_OPTYPE_COMMON_CFG;
 847              		.loc 1 306 3 is_stmt 1 view .LVU233
 307:../Core/Src/w25q_impl.c **** 
 308:../Core/Src/w25q_impl.c **** #if W25Q_MEM_FLASH_SIZE > 128U
 309:../Core/Src/w25q_impl.c **** 
 310:../Core/Src/w25q_impl.c ****   cmd.Instruction = W25Q_FAST_READ_QUAD_IO_4B;
 311:../Core/Src/w25q_impl.c ****   cmd.AddressSize = HAL_OSPI_ADDRESS_32_BITS;
 312:../Core/Src/w25q_impl.c **** 
 313:../Core/Src/w25q_impl.c **** #else
 314:../Core/Src/w25q_impl.c **** 
 315:../Core/Src/w25q_impl.c ****   cmd.Instruction = W25Q_FAST_READ_QUAD_IO;
 848              		.loc 1 315 3 view .LVU234
ARM GAS  /tmp/ccCWBsCj.s 			page 22


 849              		.loc 1 315 19 is_stmt 0 view .LVU235
 850 0026 EB23     		movs	r3, #235
 851 0028 0293     		str	r3, [sp, #8]
 316:../Core/Src/w25q_impl.c ****   cmd.AddressSize = HAL_OSPI_ADDRESS_24_BITS;
 852              		.loc 1 316 3 is_stmt 1 view .LVU236
 853              		.loc 1 316 19 is_stmt 0 view .LVU237
 854 002a 4FF40053 		mov	r3, #8192
 855 002e 0893     		str	r3, [sp, #32]
 317:../Core/Src/w25q_impl.c **** 
 318:../Core/Src/w25q_impl.c **** #endif
 319:../Core/Src/w25q_impl.c **** 
 320:../Core/Src/w25q_impl.c ****   cmd.InstructionMode = HAL_OSPI_INSTRUCTION_1_LINE;
 856              		.loc 1 320 3 is_stmt 1 view .LVU238
 857              		.loc 1 320 23 is_stmt 0 view .LVU239
 858 0030 0123     		movs	r3, #1
 859 0032 0393     		str	r3, [sp, #12]
 321:../Core/Src/w25q_impl.c ****   cmd.InstructionSize = HAL_OSPI_INSTRUCTION_8_BITS;
 860              		.loc 1 321 3 is_stmt 1 view .LVU240
 322:../Core/Src/w25q_impl.c ****   cmd.InstructionDtrMode = HAL_OSPI_INSTRUCTION_DTR_DISABLE;
 861              		.loc 1 322 3 view .LVU241
 323:../Core/Src/w25q_impl.c **** 
 324:../Core/Src/w25q_impl.c ****   cmd.Address = addr;
 862              		.loc 1 324 3 view .LVU242
 863              		.loc 1 324 15 is_stmt 0 view .LVU243
 864 0034 0696     		str	r6, [sp, #24]
 325:../Core/Src/w25q_impl.c ****   cmd.AddressMode = HAL_OSPI_ADDRESS_4_LINES;
 865              		.loc 1 325 3 is_stmt 1 view .LVU244
 866              		.loc 1 325 19 is_stmt 0 view .LVU245
 867 0036 4FF44073 		mov	r3, #768
 868 003a 0793     		str	r3, [sp, #28]
 326:../Core/Src/w25q_impl.c ****   cmd.AddressDtrMode = HAL_OSPI_ADDRESS_DTR_DISABLE;
 869              		.loc 1 326 3 is_stmt 1 view .LVU246
 327:../Core/Src/w25q_impl.c **** 
 328:../Core/Src/w25q_impl.c ****   cmd.AlternateBytesMode = HAL_OSPI_ALTERNATE_BYTES_NONE;
 870              		.loc 1 328 3 view .LVU247
 329:../Core/Src/w25q_impl.c **** 
 330:../Core/Src/w25q_impl.c ****   cmd.DataMode = HAL_OSPI_DATA_4_LINES;
 871              		.loc 1 330 3 view .LVU248
 872              		.loc 1 330 16 is_stmt 0 view .LVU249
 873 003c 4FF04073 		mov	r3, #50331648
 874 0040 0E93     		str	r3, [sp, #56]
 331:../Core/Src/w25q_impl.c ****   cmd.DataDtrMode = HAL_OSPI_DATA_DTR_DISABLE;
 875              		.loc 1 331 3 is_stmt 1 view .LVU250
 332:../Core/Src/w25q_impl.c ****   cmd.NbData = len;
 876              		.loc 1 332 3 view .LVU251
 877              		.loc 1 332 14 is_stmt 0 view .LVU252
 878 0042 0F95     		str	r5, [sp, #60]
 333:../Core/Src/w25q_impl.c **** 
 334:../Core/Src/w25q_impl.c ****   cmd.DummyCycles = 6;
 879              		.loc 1 334 3 is_stmt 1 view .LVU253
 880              		.loc 1 334 19 is_stmt 0 view .LVU254
 881 0044 0623     		movs	r3, #6
 882 0046 1193     		str	r3, [sp, #68]
 335:../Core/Src/w25q_impl.c ****   cmd.DQSMode = HAL_OSPI_DQS_DISABLE;
 883              		.loc 1 335 3 is_stmt 1 view .LVU255
 336:../Core/Src/w25q_impl.c ****   cmd.SIOOMode = HAL_OSPI_SIOO_INST_EVERY_CMD;
 884              		.loc 1 336 3 view .LVU256
ARM GAS  /tmp/ccCWBsCj.s 			page 23


 337:../Core/Src/w25q_impl.c **** 
 338:../Core/Src/w25q_impl.c ****   HAL_GPIO_WritePin(FLASH_CS_GPIO_PORT, FLASH_CS_PIN, GPIO_PIN_RESET);
 885              		.loc 1 338 3 view .LVU257
 886 0048 0022     		movs	r2, #0
 887 004a 4021     		movs	r1, #64
 888 004c 0F48     		ldr	r0, .L63
 889 004e FFF7FEFF 		bl	HAL_GPIO_WritePin
 890              	.LVL61:
 339:../Core/Src/w25q_impl.c **** 
 340:../Core/Src/w25q_impl.c ****   if (HAL_OSPI_Command(&flash_spi, &cmd, HAL_OSPI_TIMEOUT_DEFAULT_VALUE) !=
 891              		.loc 1 340 3 view .LVU258
 892              		.loc 1 340 7 is_stmt 0 view .LVU259
 893 0052 41F28832 		movw	r2, #5000
 894 0056 6946     		mov	r1, sp
 895 0058 0D48     		ldr	r0, .L63+4
 896 005a FFF7FEFF 		bl	HAL_OSPI_Command
 897              	.LVL62:
 898              		.loc 1 340 6 view .LVU260
 899 005e 88B9     		cbnz	r0, .L60
 341:../Core/Src/w25q_impl.c ****       HAL_OK) {
 342:../Core/Src/w25q_impl.c ****     return W25Q_ERR_SPI;
 343:../Core/Src/w25q_impl.c ****   }
 344:../Core/Src/w25q_impl.c **** 
 345:../Core/Src/w25q_impl.c ****   if (HAL_OSPI_Receive(&flash_spi, buf, HAL_OSPI_TIMEOUT_DEFAULT_VALUE) !=
 900              		.loc 1 345 3 is_stmt 1 view .LVU261
 901              		.loc 1 345 7 is_stmt 0 view .LVU262
 902 0060 41F28832 		movw	r2, #5000
 903 0064 3946     		mov	r1, r7
 904 0066 0A48     		ldr	r0, .L63+4
 905 0068 FFF7FEFF 		bl	HAL_OSPI_Receive
 906              	.LVL63:
 907              		.loc 1 345 6 view .LVU263
 908 006c 0446     		mov	r4, r0
 909              	.LVL64:
 910              		.loc 1 345 6 view .LVU264
 911 006e 58B9     		cbnz	r0, .L61
 346:../Core/Src/w25q_impl.c ****       HAL_OK) {
 347:../Core/Src/w25q_impl.c ****     return W25Q_ERR_SPI;
 348:../Core/Src/w25q_impl.c ****   }
 349:../Core/Src/w25q_impl.c **** 
 350:../Core/Src/w25q_impl.c ****     HAL_GPIO_WritePin(FLASH_CS_GPIO_PORT, FLASH_CS_PIN, GPIO_PIN_SET);
 912              		.loc 1 350 5 is_stmt 1 view .LVU265
 913 0070 0122     		movs	r2, #1
 914 0072 4021     		movs	r1, #64
 915 0074 0548     		ldr	r0, .L63
 916 0076 FFF7FEFF 		bl	HAL_GPIO_WritePin
 917              	.LVL65:
 351:../Core/Src/w25q_impl.c **** 
 352:../Core/Src/w25q_impl.c ****   return W25Q_ERR_OK;
 918              		.loc 1 352 3 view .LVU266
 919              	.L57:
 353:../Core/Src/w25q_impl.c **** }
 920              		.loc 1 353 1 is_stmt 0 view .LVU267
 921 007a 2046     		mov	r0, r4
 922 007c 15B0     		add	sp, sp, #84
 923              	.LCFI23:
 924              		.cfi_remember_state
ARM GAS  /tmp/ccCWBsCj.s 			page 24


 925              		.cfi_def_cfa_offset 20
 926              		@ sp needed
 927 007e F0BD     		pop	{r4, r5, r6, r7, pc}
 928              	.LVL66:
 929              	.L59:
 930              	.LCFI24:
 931              		.cfi_restore_state
 298:../Core/Src/w25q_impl.c ****   }
 932              		.loc 1 298 12 view .LVU268
 933 0080 0224     		movs	r4, #2
 934 0082 FAE7     		b	.L57
 935              	.LVL67:
 936              	.L60:
 342:../Core/Src/w25q_impl.c ****   }
 937              		.loc 1 342 12 view .LVU269
 938 0084 0424     		movs	r4, #4
 939              	.LVL68:
 342:../Core/Src/w25q_impl.c ****   }
 940              		.loc 1 342 12 view .LVU270
 941 0086 F8E7     		b	.L57
 942              	.L61:
 347:../Core/Src/w25q_impl.c ****   }
 943              		.loc 1 347 12 view .LVU271
 944 0088 0424     		movs	r4, #4
 945 008a F6E7     		b	.L57
 946              	.L64:
 947              		.align	2
 948              	.L63:
 949 008c 00180258 		.word	1476532224
 950 0090 00000000 		.word	hospi1
 951              		.cfi_endproc
 952              	.LFE154:
 954              		.section	.text.w25q_write_raw,"ax",%progbits
 955              		.align	1
 956              		.global	w25q_write_raw
 957              		.syntax unified
 958              		.thumb
 959              		.thumb_func
 960              		.fpu fpv5-d16
 962              	w25q_write_raw:
 963              	.LVL69:
 964              	.LFB155:
 354:../Core/Src/w25q_impl.c **** 
 355:../Core/Src/w25q_impl.c **** // enum w25q_err w25q_write_raw(struct w25q_device *device, uint8_t *buf,
 356:../Core/Src/w25q_impl.c **** //                              uint32_t len, uint32_t addr) {
 357:../Core/Src/w25q_impl.c **** //   if (len > 256 || len == 0) {
 358:../Core/Src/w25q_impl.c **** //     return W25Q_ERR_PARAM;
 359:../Core/Src/w25q_impl.c **** //   }
 360:../Core/Src/w25q_impl.c **** //
 361:../Core/Src/w25q_impl.c **** //   while (w25q_is_busy(device) == W25Q_ERR_BUSY);
 362:../Core/Src/w25q_impl.c **** //
 363:../Core/Src/w25q_impl.c **** //   enum w25q_err err = w25q_write_enable(device, 1);
 364:../Core/Src/w25q_impl.c **** //   if (err != W25Q_ERR_OK) {
 365:../Core/Src/w25q_impl.c **** //     return err;
 366:../Core/Src/w25q_impl.c **** //   }
 367:../Core/Src/w25q_impl.c **** //
 368:../Core/Src/w25q_impl.c **** //   OSPI_RegularCmdTypeDef cmd = {0};
ARM GAS  /tmp/ccCWBsCj.s 			page 25


 369:../Core/Src/w25q_impl.c **** //
 370:../Core/Src/w25q_impl.c **** //   cmd.OperationType = HAL_OSPI_OPTYPE_COMMON_CFG;
 371:../Core/Src/w25q_impl.c **** //
 372:../Core/Src/w25q_impl.c **** // #if W25Q_MEM_FLASH_SIZE > 128U
 373:../Core/Src/w25q_impl.c **** //
 374:../Core/Src/w25q_impl.c **** //   cmd.Instruction = W25Q_PAGE_PROGRAM_4B;
 375:../Core/Src/w25q_impl.c **** //   cmd.AddressSize = HAL_OSPI_ADDRESS_32_BITS;
 376:../Core/Src/w25q_impl.c **** //
 377:../Core/Src/w25q_impl.c **** // #else
 378:../Core/Src/w25q_impl.c **** //
 379:../Core/Src/w25q_impl.c **** //   cmd.Instruction = W25Q_PAGE_PROGRAM;
 380:../Core/Src/w25q_impl.c **** //   cmd.AddressSize = HAL_OSPI_ADDRESS_24_BITS;
 381:../Core/Src/w25q_impl.c **** //
 382:../Core/Src/w25q_impl.c **** // #endif
 383:../Core/Src/w25q_impl.c **** //
 384:../Core/Src/w25q_impl.c **** //   cmd.InstructionMode = HAL_OSPI_INSTRUCTION_1_LINE;
 385:../Core/Src/w25q_impl.c **** //   cmd.InstructionSize = HAL_OSPI_INSTRUCTION_8_BITS;
 386:../Core/Src/w25q_impl.c **** //   cmd.InstructionDtrMode = HAL_OSPI_INSTRUCTION_DTR_DISABLE;
 387:../Core/Src/w25q_impl.c **** //
 388:../Core/Src/w25q_impl.c **** //   cmd.Address = addr;
 389:../Core/Src/w25q_impl.c **** //   cmd.AddressMode = HAL_OSPI_ADDRESS_1_LINE;
 390:../Core/Src/w25q_impl.c **** //   cmd.AddressDtrMode = HAL_OSPI_ADDRESS_DTR_DISABLE;
 391:../Core/Src/w25q_impl.c **** //
 392:../Core/Src/w25q_impl.c **** //   cmd.AlternateBytesMode = HAL_OSPI_ALTERNATE_BYTES_NONE;
 393:../Core/Src/w25q_impl.c **** //
 394:../Core/Src/w25q_impl.c **** //   cmd.DataMode = HAL_OSPI_DATA_1_LINE;
 395:../Core/Src/w25q_impl.c **** //   cmd.DataDtrMode = HAL_OSPI_DATA_DTR_DISABLE;
 396:../Core/Src/w25q_impl.c **** //   cmd.NbData = len;
 397:../Core/Src/w25q_impl.c **** //
 398:../Core/Src/w25q_impl.c **** //   cmd.DummyCycles = 0;
 399:../Core/Src/w25q_impl.c **** //   cmd.DQSMode = HAL_OSPI_DQS_DISABLE;
 400:../Core/Src/w25q_impl.c **** //   cmd.SIOOMode = HAL_OSPI_SIOO_INST_EVERY_CMD;
 401:../Core/Src/w25q_impl.c **** //
 402:../Core/Src/w25q_impl.c **** //   if (HAL_OSPI_Command(&flash_spi, &cmd, HAL_OSPI_TIMEOUT_DEFAULT_VALUE) !=
 403:../Core/Src/w25q_impl.c **** //       HAL_OK) {
 404:../Core/Src/w25q_impl.c **** //     return W25Q_ERR_SPI;
 405:../Core/Src/w25q_impl.c **** //   }
 406:../Core/Src/w25q_impl.c **** //
 407:../Core/Src/w25q_impl.c **** //   if (HAL_OSPI_Transmit(&flash_spi, buf, HAL_OSPI_TIMEOUT_DEFAULT_VALUE) !=
 408:../Core/Src/w25q_impl.c **** //       HAL_OK) {
 409:../Core/Src/w25q_impl.c **** //     return W25Q_ERR_SPI;
 410:../Core/Src/w25q_impl.c **** //   }
 411:../Core/Src/w25q_impl.c **** //
 412:../Core/Src/w25q_impl.c **** //   return W25Q_ERR_OK;
 413:../Core/Src/w25q_impl.c **** // }
 414:../Core/Src/w25q_impl.c **** 
 415:../Core/Src/w25q_impl.c **** enum w25q_err w25q_write_raw(struct w25q_device *device, uint8_t *buf,
 416:../Core/Src/w25q_impl.c ****                              uint32_t len, uint32_t addr) {
 965              		.loc 1 416 59 is_stmt 1 view -0
 966              		.cfi_startproc
 967              		@ args = 0, pretend = 0, frame = 80
 968              		@ frame_needed = 0, uses_anonymous_args = 0
 969              		.loc 1 416 59 is_stmt 0 view .LVU273
 970 0000 F0B5     		push	{r4, r5, r6, r7, lr}
 971              	.LCFI25:
 972              		.cfi_def_cfa_offset 20
 973              		.cfi_offset 4, -20
ARM GAS  /tmp/ccCWBsCj.s 			page 26


 974              		.cfi_offset 5, -16
 975              		.cfi_offset 6, -12
 976              		.cfi_offset 7, -8
 977              		.cfi_offset 14, -4
 978 0002 95B0     		sub	sp, sp, #84
 979              	.LCFI26:
 980              		.cfi_def_cfa_offset 104
 981 0004 0446     		mov	r4, r0
 982 0006 0E46     		mov	r6, r1
 983 0008 1546     		mov	r5, r2
 984 000a 1F46     		mov	r7, r3
 417:../Core/Src/w25q_impl.c ****   if (len > 256 || len == 0) {
 985              		.loc 1 417 3 is_stmt 1 view .LVU274
 986              		.loc 1 417 17 is_stmt 0 view .LVU275
 987 000c 013A     		subs	r2, r2, #1
 988              	.LVL70:
 989              		.loc 1 417 6 view .LVU276
 990 000e FF2A     		cmp	r2, #255
 991 0010 3BD8     		bhi	.L68
 992              	.LVL71:
 993              	.L67:
 418:../Core/Src/w25q_impl.c ****     return W25Q_ERR_PARAM;
 419:../Core/Src/w25q_impl.c ****   }
 420:../Core/Src/w25q_impl.c **** 
 421:../Core/Src/w25q_impl.c ****   while (w25q_is_busy(device) == W25Q_ERR_BUSY)
 422:../Core/Src/w25q_impl.c ****     ;
 994              		.loc 1 422 5 is_stmt 1 discriminator 1 view .LVU277
 421:../Core/Src/w25q_impl.c ****     ;
 995              		.loc 1 421 9 discriminator 1 view .LVU278
 421:../Core/Src/w25q_impl.c ****     ;
 996              		.loc 1 421 10 is_stmt 0 discriminator 1 view .LVU279
 997 0012 2046     		mov	r0, r4
 998 0014 FFF7FEFF 		bl	w25q_is_busy
 999              	.LVL72:
 421:../Core/Src/w25q_impl.c ****     ;
 1000              		.loc 1 421 9 discriminator 1 view .LVU280
 1001 0018 0128     		cmp	r0, #1
 1002 001a FAD0     		beq	.L67
 423:../Core/Src/w25q_impl.c **** 
 424:../Core/Src/w25q_impl.c ****   enum w25q_err err = w25q_write_enable(device, 1);
 1003              		.loc 1 424 3 is_stmt 1 view .LVU281
 1004              		.loc 1 424 23 is_stmt 0 view .LVU282
 1005 001c 0121     		movs	r1, #1
 1006 001e 2046     		mov	r0, r4
 1007 0020 FFF7FEFF 		bl	w25q_write_enable
 1008              	.LVL73:
 425:../Core/Src/w25q_impl.c ****   if (err != W25Q_ERR_OK) {
 1009              		.loc 1 425 3 is_stmt 1 view .LVU283
 1010              		.loc 1 425 6 is_stmt 0 view .LVU284
 1011 0024 0446     		mov	r4, r0
 1012              	.LVL74:
 1013              		.loc 1 425 6 view .LVU285
 1014 0026 10B1     		cbz	r0, .L72
 1015              	.LVL75:
 1016              	.L66:
 426:../Core/Src/w25q_impl.c ****     return err;
 427:../Core/Src/w25q_impl.c ****   }
ARM GAS  /tmp/ccCWBsCj.s 			page 27


 428:../Core/Src/w25q_impl.c **** 
 429:../Core/Src/w25q_impl.c ****   OSPI_RegularCmdTypeDef cmd = {0};
 430:../Core/Src/w25q_impl.c **** 
 431:../Core/Src/w25q_impl.c ****   cmd.OperationType = HAL_OSPI_OPTYPE_COMMON_CFG;
 432:../Core/Src/w25q_impl.c **** 
 433:../Core/Src/w25q_impl.c **** #if W25Q_MEM_FLASH_SIZE > 128U
 434:../Core/Src/w25q_impl.c **** 
 435:../Core/Src/w25q_impl.c ****   cmd.Instruction = W25Q_PAGE_PROGRAM_QUAD_INP_4B;
 436:../Core/Src/w25q_impl.c ****   cmd.AddressSize = HAL_OSPI_ADDRESS_32_BITS;
 437:../Core/Src/w25q_impl.c **** 
 438:../Core/Src/w25q_impl.c **** #else
 439:../Core/Src/w25q_impl.c **** 
 440:../Core/Src/w25q_impl.c ****   cmd.Instruction = W25Q_PAGE_PROGRAM_QUAD_INP;
 441:../Core/Src/w25q_impl.c ****   cmd.AddressSize = HAL_OSPI_ADDRESS_24_BITS;
 442:../Core/Src/w25q_impl.c **** 
 443:../Core/Src/w25q_impl.c **** #endif
 444:../Core/Src/w25q_impl.c **** 
 445:../Core/Src/w25q_impl.c ****   cmd.InstructionMode = HAL_OSPI_INSTRUCTION_1_LINE;
 446:../Core/Src/w25q_impl.c ****   cmd.InstructionSize = HAL_OSPI_INSTRUCTION_8_BITS;
 447:../Core/Src/w25q_impl.c ****   cmd.InstructionDtrMode = HAL_OSPI_INSTRUCTION_DTR_DISABLE;
 448:../Core/Src/w25q_impl.c **** 
 449:../Core/Src/w25q_impl.c ****   cmd.Address = addr;
 450:../Core/Src/w25q_impl.c ****   cmd.AddressMode = HAL_OSPI_ADDRESS_1_LINE;
 451:../Core/Src/w25q_impl.c ****   cmd.AddressDtrMode = HAL_OSPI_ADDRESS_DTR_DISABLE;
 452:../Core/Src/w25q_impl.c **** 
 453:../Core/Src/w25q_impl.c ****   cmd.AlternateBytesMode = HAL_OSPI_ALTERNATE_BYTES_NONE;
 454:../Core/Src/w25q_impl.c **** 
 455:../Core/Src/w25q_impl.c ****   cmd.DataMode = HAL_OSPI_DATA_4_LINES;
 456:../Core/Src/w25q_impl.c ****   cmd.DataDtrMode = HAL_OSPI_DATA_DTR_DISABLE;
 457:../Core/Src/w25q_impl.c ****   cmd.NbData = len;
 458:../Core/Src/w25q_impl.c **** 
 459:../Core/Src/w25q_impl.c ****   cmd.DummyCycles = 0;
 460:../Core/Src/w25q_impl.c ****   cmd.DQSMode = HAL_OSPI_DQS_DISABLE;
 461:../Core/Src/w25q_impl.c ****   cmd.SIOOMode = HAL_OSPI_SIOO_INST_EVERY_CMD;
 462:../Core/Src/w25q_impl.c **** 
 463:../Core/Src/w25q_impl.c ****   HAL_GPIO_WritePin(FLASH_CS_GPIO_PORT, FLASH_CS_PIN, GPIO_PIN_RESET);
 464:../Core/Src/w25q_impl.c **** 
 465:../Core/Src/w25q_impl.c ****   if (HAL_OSPI_Command(&flash_spi, &cmd, HAL_OSPI_TIMEOUT_DEFAULT_VALUE) !=
 466:../Core/Src/w25q_impl.c ****       HAL_OK) {
 467:../Core/Src/w25q_impl.c ****     return W25Q_ERR_SPI;
 468:../Core/Src/w25q_impl.c ****   }
 469:../Core/Src/w25q_impl.c **** 
 470:../Core/Src/w25q_impl.c ****   if (HAL_OSPI_Transmit(&flash_spi, buf, HAL_OSPI_TIMEOUT_DEFAULT_VALUE) !=
 471:../Core/Src/w25q_impl.c ****       HAL_OK) {
 472:../Core/Src/w25q_impl.c ****     return W25Q_ERR_SPI;
 473:../Core/Src/w25q_impl.c ****   }
 474:../Core/Src/w25q_impl.c **** 
 475:../Core/Src/w25q_impl.c ****     HAL_GPIO_WritePin(FLASH_CS_GPIO_PORT, FLASH_CS_PIN, GPIO_PIN_SET);
 476:../Core/Src/w25q_impl.c **** 
 477:../Core/Src/w25q_impl.c ****   return W25Q_ERR_OK;
 478:../Core/Src/w25q_impl.c **** }
 1017              		.loc 1 478 1 view .LVU286
 1018 0028 2046     		mov	r0, r4
 1019 002a 15B0     		add	sp, sp, #84
 1020              	.LCFI27:
 1021              		.cfi_remember_state
 1022              		.cfi_def_cfa_offset 20
ARM GAS  /tmp/ccCWBsCj.s 			page 28


 1023              		@ sp needed
 1024 002c F0BD     		pop	{r4, r5, r6, r7, pc}
 1025              	.LVL76:
 1026              	.L72:
 1027              	.LCFI28:
 1028              		.cfi_restore_state
 429:../Core/Src/w25q_impl.c **** 
 1029              		.loc 1 429 3 is_stmt 1 view .LVU287
 429:../Core/Src/w25q_impl.c **** 
 1030              		.loc 1 429 26 is_stmt 0 view .LVU288
 1031 002e 5022     		movs	r2, #80
 1032 0030 0021     		movs	r1, #0
 1033 0032 6846     		mov	r0, sp
 1034              	.LVL77:
 429:../Core/Src/w25q_impl.c **** 
 1035              		.loc 1 429 26 view .LVU289
 1036 0034 FFF7FEFF 		bl	memset
 1037              	.LVL78:
 431:../Core/Src/w25q_impl.c **** 
 1038              		.loc 1 431 3 is_stmt 1 view .LVU290
 440:../Core/Src/w25q_impl.c ****   cmd.AddressSize = HAL_OSPI_ADDRESS_24_BITS;
 1039              		.loc 1 440 3 view .LVU291
 440:../Core/Src/w25q_impl.c ****   cmd.AddressSize = HAL_OSPI_ADDRESS_24_BITS;
 1040              		.loc 1 440 19 is_stmt 0 view .LVU292
 1041 0038 3223     		movs	r3, #50
 1042 003a 0293     		str	r3, [sp, #8]
 441:../Core/Src/w25q_impl.c **** 
 1043              		.loc 1 441 3 is_stmt 1 view .LVU293
 441:../Core/Src/w25q_impl.c **** 
 1044              		.loc 1 441 19 is_stmt 0 view .LVU294
 1045 003c 4FF40053 		mov	r3, #8192
 1046 0040 0893     		str	r3, [sp, #32]
 445:../Core/Src/w25q_impl.c ****   cmd.InstructionSize = HAL_OSPI_INSTRUCTION_8_BITS;
 1047              		.loc 1 445 3 is_stmt 1 view .LVU295
 445:../Core/Src/w25q_impl.c ****   cmd.InstructionSize = HAL_OSPI_INSTRUCTION_8_BITS;
 1048              		.loc 1 445 23 is_stmt 0 view .LVU296
 1049 0042 0123     		movs	r3, #1
 1050 0044 0393     		str	r3, [sp, #12]
 446:../Core/Src/w25q_impl.c ****   cmd.InstructionDtrMode = HAL_OSPI_INSTRUCTION_DTR_DISABLE;
 1051              		.loc 1 446 3 is_stmt 1 view .LVU297
 447:../Core/Src/w25q_impl.c **** 
 1052              		.loc 1 447 3 view .LVU298
 449:../Core/Src/w25q_impl.c ****   cmd.AddressMode = HAL_OSPI_ADDRESS_1_LINE;
 1053              		.loc 1 449 3 view .LVU299
 449:../Core/Src/w25q_impl.c ****   cmd.AddressMode = HAL_OSPI_ADDRESS_1_LINE;
 1054              		.loc 1 449 15 is_stmt 0 view .LVU300
 1055 0046 0697     		str	r7, [sp, #24]
 450:../Core/Src/w25q_impl.c ****   cmd.AddressDtrMode = HAL_OSPI_ADDRESS_DTR_DISABLE;
 1056              		.loc 1 450 3 is_stmt 1 view .LVU301
 450:../Core/Src/w25q_impl.c ****   cmd.AddressDtrMode = HAL_OSPI_ADDRESS_DTR_DISABLE;
 1057              		.loc 1 450 19 is_stmt 0 view .LVU302
 1058 0048 4FF48073 		mov	r3, #256
 1059 004c 0793     		str	r3, [sp, #28]
 451:../Core/Src/w25q_impl.c **** 
 1060              		.loc 1 451 3 is_stmt 1 view .LVU303
 453:../Core/Src/w25q_impl.c **** 
 1061              		.loc 1 453 3 view .LVU304
ARM GAS  /tmp/ccCWBsCj.s 			page 29


 455:../Core/Src/w25q_impl.c ****   cmd.DataDtrMode = HAL_OSPI_DATA_DTR_DISABLE;
 1062              		.loc 1 455 3 view .LVU305
 455:../Core/Src/w25q_impl.c ****   cmd.DataDtrMode = HAL_OSPI_DATA_DTR_DISABLE;
 1063              		.loc 1 455 16 is_stmt 0 view .LVU306
 1064 004e 4FF04073 		mov	r3, #50331648
 1065 0052 0E93     		str	r3, [sp, #56]
 456:../Core/Src/w25q_impl.c ****   cmd.NbData = len;
 1066              		.loc 1 456 3 is_stmt 1 view .LVU307
 457:../Core/Src/w25q_impl.c **** 
 1067              		.loc 1 457 3 view .LVU308
 457:../Core/Src/w25q_impl.c **** 
 1068              		.loc 1 457 14 is_stmt 0 view .LVU309
 1069 0054 0F95     		str	r5, [sp, #60]
 459:../Core/Src/w25q_impl.c ****   cmd.DQSMode = HAL_OSPI_DQS_DISABLE;
 1070              		.loc 1 459 3 is_stmt 1 view .LVU310
 460:../Core/Src/w25q_impl.c ****   cmd.SIOOMode = HAL_OSPI_SIOO_INST_EVERY_CMD;
 1071              		.loc 1 460 3 view .LVU311
 461:../Core/Src/w25q_impl.c **** 
 1072              		.loc 1 461 3 view .LVU312
 463:../Core/Src/w25q_impl.c **** 
 1073              		.loc 1 463 3 view .LVU313
 1074 0056 0022     		movs	r2, #0
 1075 0058 4021     		movs	r1, #64
 1076 005a 0F48     		ldr	r0, .L73
 1077 005c FFF7FEFF 		bl	HAL_GPIO_WritePin
 1078              	.LVL79:
 465:../Core/Src/w25q_impl.c ****       HAL_OK) {
 1079              		.loc 1 465 3 view .LVU314
 465:../Core/Src/w25q_impl.c ****       HAL_OK) {
 1080              		.loc 1 465 7 is_stmt 0 view .LVU315
 1081 0060 41F28832 		movw	r2, #5000
 1082 0064 6946     		mov	r1, sp
 1083 0066 0D48     		ldr	r0, .L73+4
 1084 0068 FFF7FEFF 		bl	HAL_OSPI_Command
 1085              	.LVL80:
 465:../Core/Src/w25q_impl.c ****       HAL_OK) {
 1086              		.loc 1 465 6 view .LVU316
 1087 006c 78B9     		cbnz	r0, .L69
 470:../Core/Src/w25q_impl.c ****       HAL_OK) {
 1088              		.loc 1 470 3 is_stmt 1 view .LVU317
 470:../Core/Src/w25q_impl.c ****       HAL_OK) {
 1089              		.loc 1 470 7 is_stmt 0 view .LVU318
 1090 006e 41F28832 		movw	r2, #5000
 1091 0072 3146     		mov	r1, r6
 1092 0074 0948     		ldr	r0, .L73+4
 1093 0076 FFF7FEFF 		bl	HAL_OSPI_Transmit
 1094              	.LVL81:
 470:../Core/Src/w25q_impl.c ****       HAL_OK) {
 1095              		.loc 1 470 6 view .LVU319
 1096 007a 0446     		mov	r4, r0
 1097 007c 48B9     		cbnz	r0, .L70
 475:../Core/Src/w25q_impl.c **** 
 1098              		.loc 1 475 5 is_stmt 1 view .LVU320
 1099 007e 0122     		movs	r2, #1
 1100 0080 4021     		movs	r1, #64
 1101 0082 0548     		ldr	r0, .L73
 1102 0084 FFF7FEFF 		bl	HAL_GPIO_WritePin
ARM GAS  /tmp/ccCWBsCj.s 			page 30


 1103              	.LVL82:
 477:../Core/Src/w25q_impl.c **** }
 1104              		.loc 1 477 3 view .LVU321
 477:../Core/Src/w25q_impl.c **** }
 1105              		.loc 1 477 10 is_stmt 0 view .LVU322
 1106 0088 CEE7     		b	.L66
 1107              	.LVL83:
 1108              	.L68:
 418:../Core/Src/w25q_impl.c ****   }
 1109              		.loc 1 418 12 view .LVU323
 1110 008a 0224     		movs	r4, #2
 1111 008c CCE7     		b	.L66
 1112              	.LVL84:
 1113              	.L69:
 467:../Core/Src/w25q_impl.c ****   }
 1114              		.loc 1 467 12 view .LVU324
 1115 008e 0424     		movs	r4, #4
 1116 0090 CAE7     		b	.L66
 1117              	.L70:
 472:../Core/Src/w25q_impl.c ****   }
 1118              		.loc 1 472 12 view .LVU325
 1119 0092 0424     		movs	r4, #4
 1120 0094 C8E7     		b	.L66
 1121              	.L74:
 1122 0096 00BF     		.align	2
 1123              	.L73:
 1124 0098 00180258 		.word	1476532224
 1125 009c 00000000 		.word	hospi1
 1126              		.cfi_endproc
 1127              	.LFE155:
 1129              		.section	.text.w25q_erase_sector,"ax",%progbits
 1130              		.align	1
 1131              		.global	w25q_erase_sector
 1132              		.syntax unified
 1133              		.thumb
 1134              		.thumb_func
 1135              		.fpu fpv5-d16
 1137              	w25q_erase_sector:
 1138              	.LVL85:
 1139              	.LFB156:
 479:../Core/Src/w25q_impl.c **** 
 480:../Core/Src/w25q_impl.c **** enum w25q_err w25q_erase_sector(struct w25q_device *device,
 481:../Core/Src/w25q_impl.c ****                                 uint32_t sector_addr) {
 1140              		.loc 1 481 55 is_stmt 1 view -0
 1141              		.cfi_startproc
 1142              		@ args = 0, pretend = 0, frame = 80
 1143              		@ frame_needed = 0, uses_anonymous_args = 0
 1144              		.loc 1 481 55 is_stmt 0 view .LVU327
 1145 0000 70B5     		push	{r4, r5, r6, lr}
 1146              	.LCFI29:
 1147              		.cfi_def_cfa_offset 16
 1148              		.cfi_offset 4, -16
 1149              		.cfi_offset 5, -12
 1150              		.cfi_offset 6, -8
 1151              		.cfi_offset 14, -4
 1152 0002 94B0     		sub	sp, sp, #80
 1153              	.LCFI30:
ARM GAS  /tmp/ccCWBsCj.s 			page 31


 1154              		.cfi_def_cfa_offset 96
 1155 0004 0446     		mov	r4, r0
 1156 0006 0D46     		mov	r5, r1
 482:../Core/Src/w25q_impl.c ****   if (sector_addr >= W25Q_SECTOR_COUNT) {
 1157              		.loc 1 482 3 is_stmt 1 view .LVU328
 1158              		.loc 1 482 6 is_stmt 0 view .LVU329
 1159 0008 B1F5806F 		cmp	r1, #1024
 1160 000c 36D2     		bcs	.L79
 1161              	.LVL86:
 1162              	.L77:
 483:../Core/Src/w25q_impl.c ****     return W25Q_ERR_PARAM;
 484:../Core/Src/w25q_impl.c ****   }
 485:../Core/Src/w25q_impl.c **** 
 486:../Core/Src/w25q_impl.c ****   while (w25q_is_busy(device) == W25Q_ERR_BUSY)
 487:../Core/Src/w25q_impl.c ****     ;
 1163              		.loc 1 487 5 is_stmt 1 discriminator 1 view .LVU330
 486:../Core/Src/w25q_impl.c ****     ;
 1164              		.loc 1 486 9 discriminator 1 view .LVU331
 486:../Core/Src/w25q_impl.c ****     ;
 1165              		.loc 1 486 10 is_stmt 0 discriminator 1 view .LVU332
 1166 000e 2046     		mov	r0, r4
 1167 0010 FFF7FEFF 		bl	w25q_is_busy
 1168              	.LVL87:
 486:../Core/Src/w25q_impl.c ****     ;
 1169              		.loc 1 486 9 discriminator 1 view .LVU333
 1170 0014 0128     		cmp	r0, #1
 1171 0016 FAD0     		beq	.L77
 488:../Core/Src/w25q_impl.c **** 
 489:../Core/Src/w25q_impl.c ****   enum w25q_err err = w25q_write_enable(device, 1);
 1172              		.loc 1 489 3 is_stmt 1 view .LVU334
 1173              		.loc 1 489 23 is_stmt 0 view .LVU335
 1174 0018 0121     		movs	r1, #1
 1175 001a 2046     		mov	r0, r4
 1176 001c FFF7FEFF 		bl	w25q_write_enable
 1177              	.LVL88:
 490:../Core/Src/w25q_impl.c ****   if (err != W25Q_ERR_OK) {
 1178              		.loc 1 490 3 is_stmt 1 view .LVU336
 1179              		.loc 1 490 6 is_stmt 0 view .LVU337
 1180 0020 0646     		mov	r6, r0
 1181 0022 10B1     		cbz	r0, .L82
 1182              	.LVL89:
 1183              	.L76:
 491:../Core/Src/w25q_impl.c ****     return err;
 492:../Core/Src/w25q_impl.c ****   }
 493:../Core/Src/w25q_impl.c **** 
 494:../Core/Src/w25q_impl.c ****   OSPI_RegularCmdTypeDef cmd = {0};
 495:../Core/Src/w25q_impl.c **** 
 496:../Core/Src/w25q_impl.c ****   cmd.OperationType = HAL_OSPI_OPTYPE_COMMON_CFG;
 497:../Core/Src/w25q_impl.c **** 
 498:../Core/Src/w25q_impl.c **** #if W25Q_MEM_FLASH_SIZE > 128U
 499:../Core/Src/w25q_impl.c **** 
 500:../Core/Src/w25q_impl.c ****   cmd.Instruction = W25Q_SECTOR_ERASE_4B;
 501:../Core/Src/w25q_impl.c ****   cmd.AddressSize = HAL_OSPI_ADDRESS_32_BITS;
 502:../Core/Src/w25q_impl.c **** 
 503:../Core/Src/w25q_impl.c **** #else
 504:../Core/Src/w25q_impl.c **** 
 505:../Core/Src/w25q_impl.c ****   cmd.Instruction = W25Q_SECTOR_ERASE;
ARM GAS  /tmp/ccCWBsCj.s 			page 32


 506:../Core/Src/w25q_impl.c ****   cmd.AddressSize = HAL_OSPI_ADDRESS_24_BITS;
 507:../Core/Src/w25q_impl.c **** 
 508:../Core/Src/w25q_impl.c **** #endif
 509:../Core/Src/w25q_impl.c **** 
 510:../Core/Src/w25q_impl.c ****   cmd.InstructionMode = HAL_OSPI_INSTRUCTION_1_LINE;
 511:../Core/Src/w25q_impl.c ****   cmd.InstructionSize = HAL_OSPI_INSTRUCTION_8_BITS;
 512:../Core/Src/w25q_impl.c ****   cmd.InstructionDtrMode = HAL_OSPI_INSTRUCTION_DTR_DISABLE;
 513:../Core/Src/w25q_impl.c **** 
 514:../Core/Src/w25q_impl.c ****   cmd.Address = sector_addr * W25Q_MEM_SECTOR_SIZE << 10;
 515:../Core/Src/w25q_impl.c ****   cmd.AddressMode = HAL_OSPI_ADDRESS_1_LINE;
 516:../Core/Src/w25q_impl.c ****   cmd.AddressDtrMode = HAL_OSPI_ADDRESS_DTR_DISABLE;
 517:../Core/Src/w25q_impl.c **** 
 518:../Core/Src/w25q_impl.c ****   cmd.AlternateBytesMode = HAL_OSPI_ALTERNATE_BYTES_NONE;
 519:../Core/Src/w25q_impl.c **** 
 520:../Core/Src/w25q_impl.c ****   cmd.DataMode = HAL_OSPI_DATA_NONE;
 521:../Core/Src/w25q_impl.c ****   cmd.DataDtrMode = HAL_OSPI_DATA_DTR_DISABLE;
 522:../Core/Src/w25q_impl.c **** 
 523:../Core/Src/w25q_impl.c ****   cmd.DummyCycles = 0;
 524:../Core/Src/w25q_impl.c ****   cmd.DQSMode = HAL_OSPI_DQS_DISABLE;
 525:../Core/Src/w25q_impl.c ****   cmd.SIOOMode = HAL_OSPI_SIOO_INST_EVERY_CMD;
 526:../Core/Src/w25q_impl.c **** 
 527:../Core/Src/w25q_impl.c ****   HAL_GPIO_WritePin(FLASH_CS_GPIO_PORT, FLASH_CS_PIN, GPIO_PIN_RESET);
 528:../Core/Src/w25q_impl.c **** 
 529:../Core/Src/w25q_impl.c ****   if (HAL_OSPI_Command(&flash_spi, &cmd, HAL_OSPI_TIMEOUT_DEFAULT_VALUE) !=
 530:../Core/Src/w25q_impl.c ****       HAL_OK) {
 531:../Core/Src/w25q_impl.c ****     return W25Q_ERR_SPI;
 532:../Core/Src/w25q_impl.c ****   }
 533:../Core/Src/w25q_impl.c **** 
 534:../Core/Src/w25q_impl.c ****   HAL_GPIO_WritePin(FLASH_CS_GPIO_PORT, FLASH_CS_PIN, GPIO_PIN_SET);
 535:../Core/Src/w25q_impl.c **** 
 536:../Core/Src/w25q_impl.c ****   while (w25q_is_busy(device) == W25Q_ERR_BUSY)
 537:../Core/Src/w25q_impl.c ****     ;
 538:../Core/Src/w25q_impl.c **** 
 539:../Core/Src/w25q_impl.c ****   return W25Q_ERR_OK;
 540:../Core/Src/w25q_impl.c **** }
 1184              		.loc 1 540 1 view .LVU338
 1185 0024 3046     		mov	r0, r6
 1186 0026 14B0     		add	sp, sp, #80
 1187              	.LCFI31:
 1188              		.cfi_remember_state
 1189              		.cfi_def_cfa_offset 16
 1190              		@ sp needed
 1191 0028 70BD     		pop	{r4, r5, r6, pc}
 1192              	.LVL90:
 1193              	.L82:
 1194              	.LCFI32:
 1195              		.cfi_restore_state
 494:../Core/Src/w25q_impl.c **** 
 1196              		.loc 1 494 3 is_stmt 1 view .LVU339
 494:../Core/Src/w25q_impl.c **** 
 1197              		.loc 1 494 26 is_stmt 0 view .LVU340
 1198 002a 5022     		movs	r2, #80
 1199 002c 0021     		movs	r1, #0
 1200 002e 6846     		mov	r0, sp
 1201              	.LVL91:
 494:../Core/Src/w25q_impl.c **** 
 1202              		.loc 1 494 26 view .LVU341
ARM GAS  /tmp/ccCWBsCj.s 			page 33


 1203 0030 FFF7FEFF 		bl	memset
 1204              	.LVL92:
 496:../Core/Src/w25q_impl.c **** 
 1205              		.loc 1 496 3 is_stmt 1 view .LVU342
 505:../Core/Src/w25q_impl.c ****   cmd.AddressSize = HAL_OSPI_ADDRESS_24_BITS;
 1206              		.loc 1 505 3 view .LVU343
 505:../Core/Src/w25q_impl.c ****   cmd.AddressSize = HAL_OSPI_ADDRESS_24_BITS;
 1207              		.loc 1 505 19 is_stmt 0 view .LVU344
 1208 0034 2023     		movs	r3, #32
 1209 0036 0293     		str	r3, [sp, #8]
 506:../Core/Src/w25q_impl.c **** 
 1210              		.loc 1 506 3 is_stmt 1 view .LVU345
 506:../Core/Src/w25q_impl.c **** 
 1211              		.loc 1 506 19 is_stmt 0 view .LVU346
 1212 0038 4FF40053 		mov	r3, #8192
 1213 003c 0893     		str	r3, [sp, #32]
 510:../Core/Src/w25q_impl.c ****   cmd.InstructionSize = HAL_OSPI_INSTRUCTION_8_BITS;
 1214              		.loc 1 510 3 is_stmt 1 view .LVU347
 510:../Core/Src/w25q_impl.c ****   cmd.InstructionSize = HAL_OSPI_INSTRUCTION_8_BITS;
 1215              		.loc 1 510 23 is_stmt 0 view .LVU348
 1216 003e 0123     		movs	r3, #1
 1217 0040 0393     		str	r3, [sp, #12]
 511:../Core/Src/w25q_impl.c ****   cmd.InstructionDtrMode = HAL_OSPI_INSTRUCTION_DTR_DISABLE;
 1218              		.loc 1 511 3 is_stmt 1 view .LVU349
 512:../Core/Src/w25q_impl.c **** 
 1219              		.loc 1 512 3 view .LVU350
 514:../Core/Src/w25q_impl.c ****   cmd.AddressMode = HAL_OSPI_ADDRESS_1_LINE;
 1220              		.loc 1 514 3 view .LVU351
 514:../Core/Src/w25q_impl.c ****   cmd.AddressMode = HAL_OSPI_ADDRESS_1_LINE;
 1221              		.loc 1 514 52 is_stmt 0 view .LVU352
 1222 0042 2D03     		lsls	r5, r5, #12
 1223              	.LVL93:
 514:../Core/Src/w25q_impl.c ****   cmd.AddressMode = HAL_OSPI_ADDRESS_1_LINE;
 1224              		.loc 1 514 15 view .LVU353
 1225 0044 0695     		str	r5, [sp, #24]
 515:../Core/Src/w25q_impl.c ****   cmd.AddressDtrMode = HAL_OSPI_ADDRESS_DTR_DISABLE;
 1226              		.loc 1 515 3 is_stmt 1 view .LVU354
 515:../Core/Src/w25q_impl.c ****   cmd.AddressDtrMode = HAL_OSPI_ADDRESS_DTR_DISABLE;
 1227              		.loc 1 515 19 is_stmt 0 view .LVU355
 1228 0046 4FF48073 		mov	r3, #256
 1229 004a 0793     		str	r3, [sp, #28]
 516:../Core/Src/w25q_impl.c **** 
 1230              		.loc 1 516 3 is_stmt 1 view .LVU356
 518:../Core/Src/w25q_impl.c **** 
 1231              		.loc 1 518 3 view .LVU357
 520:../Core/Src/w25q_impl.c ****   cmd.DataDtrMode = HAL_OSPI_DATA_DTR_DISABLE;
 1232              		.loc 1 520 3 view .LVU358
 521:../Core/Src/w25q_impl.c **** 
 1233              		.loc 1 521 3 view .LVU359
 523:../Core/Src/w25q_impl.c ****   cmd.DQSMode = HAL_OSPI_DQS_DISABLE;
 1234              		.loc 1 523 3 view .LVU360
 524:../Core/Src/w25q_impl.c ****   cmd.SIOOMode = HAL_OSPI_SIOO_INST_EVERY_CMD;
 1235              		.loc 1 524 3 view .LVU361
 525:../Core/Src/w25q_impl.c **** 
 1236              		.loc 1 525 3 view .LVU362
 527:../Core/Src/w25q_impl.c **** 
 1237              		.loc 1 527 3 view .LVU363
ARM GAS  /tmp/ccCWBsCj.s 			page 34


 1238 004c 0022     		movs	r2, #0
 1239 004e 4021     		movs	r1, #64
 1240 0050 0C48     		ldr	r0, .L83
 1241 0052 FFF7FEFF 		bl	HAL_GPIO_WritePin
 1242              	.LVL94:
 529:../Core/Src/w25q_impl.c ****       HAL_OK) {
 1243              		.loc 1 529 3 view .LVU364
 529:../Core/Src/w25q_impl.c ****       HAL_OK) {
 1244              		.loc 1 529 7 is_stmt 0 view .LVU365
 1245 0056 41F28832 		movw	r2, #5000
 1246 005a 6946     		mov	r1, sp
 1247 005c 0A48     		ldr	r0, .L83+4
 1248 005e FFF7FEFF 		bl	HAL_OSPI_Command
 1249              	.LVL95:
 529:../Core/Src/w25q_impl.c ****       HAL_OK) {
 1250              		.loc 1 529 6 view .LVU366
 1251 0062 0646     		mov	r6, r0
 1252 0064 60B9     		cbnz	r0, .L80
 534:../Core/Src/w25q_impl.c **** 
 1253              		.loc 1 534 3 is_stmt 1 view .LVU367
 1254 0066 0122     		movs	r2, #1
 1255 0068 4021     		movs	r1, #64
 1256 006a 0648     		ldr	r0, .L83
 1257 006c FFF7FEFF 		bl	HAL_GPIO_WritePin
 1258              	.LVL96:
 536:../Core/Src/w25q_impl.c ****     ;
 1259              		.loc 1 536 3 view .LVU368
 1260              	.L78:
 537:../Core/Src/w25q_impl.c **** 
 1261              		.loc 1 537 5 discriminator 1 view .LVU369
 536:../Core/Src/w25q_impl.c ****     ;
 1262              		.loc 1 536 9 discriminator 1 view .LVU370
 536:../Core/Src/w25q_impl.c ****     ;
 1263              		.loc 1 536 10 is_stmt 0 discriminator 1 view .LVU371
 1264 0070 2046     		mov	r0, r4
 1265 0072 FFF7FEFF 		bl	w25q_is_busy
 1266              	.LVL97:
 536:../Core/Src/w25q_impl.c ****     ;
 1267              		.loc 1 536 9 discriminator 1 view .LVU372
 1268 0076 0128     		cmp	r0, #1
 1269 0078 FAD0     		beq	.L78
 1270 007a D3E7     		b	.L76
 1271              	.LVL98:
 1272              	.L79:
 483:../Core/Src/w25q_impl.c ****   }
 1273              		.loc 1 483 12 view .LVU373
 1274 007c 0226     		movs	r6, #2
 1275 007e D1E7     		b	.L76
 1276              	.LVL99:
 1277              	.L80:
 531:../Core/Src/w25q_impl.c ****   }
 1278              		.loc 1 531 12 view .LVU374
 1279 0080 0426     		movs	r6, #4
 1280 0082 CFE7     		b	.L76
 1281              	.L84:
 1282              		.align	2
 1283              	.L83:
ARM GAS  /tmp/ccCWBsCj.s 			page 35


 1284 0084 00180258 		.word	1476532224
 1285 0088 00000000 		.word	hospi1
 1286              		.cfi_endproc
 1287              	.LFE156:
 1289              		.section	.text.w25q_erase_block,"ax",%progbits
 1290              		.align	1
 1291              		.global	w25q_erase_block
 1292              		.syntax unified
 1293              		.thumb
 1294              		.thumb_func
 1295              		.fpu fpv5-d16
 1297              	w25q_erase_block:
 1298              	.LVL100:
 1299              	.LFB157:
 541:../Core/Src/w25q_impl.c **** 
 542:../Core/Src/w25q_impl.c **** enum w25q_err w25q_erase_block(struct w25q_device *device, uint32_t block_addr,
 543:../Core/Src/w25q_impl.c ****                                uint8_t size) {
 1300              		.loc 1 543 46 is_stmt 1 view -0
 1301              		.cfi_startproc
 1302              		@ args = 0, pretend = 0, frame = 80
 1303              		@ frame_needed = 0, uses_anonymous_args = 0
 1304              		.loc 1 543 46 is_stmt 0 view .LVU376
 1305 0000 F0B5     		push	{r4, r5, r6, r7, lr}
 1306              	.LCFI33:
 1307              		.cfi_def_cfa_offset 20
 1308              		.cfi_offset 4, -20
 1309              		.cfi_offset 5, -16
 1310              		.cfi_offset 6, -12
 1311              		.cfi_offset 7, -8
 1312              		.cfi_offset 14, -4
 1313 0002 95B0     		sub	sp, sp, #84
 1314              	.LCFI34:
 1315              		.cfi_def_cfa_offset 104
 544:../Core/Src/w25q_impl.c ****   if ((size != 32) && (size != 64)) {
 1316              		.loc 1 544 3 is_stmt 1 view .LVU377
 1317              		.loc 1 544 6 is_stmt 0 view .LVU378
 1318 0004 202A     		cmp	r2, #32
 1319 0006 18BF     		it	ne
 1320 0008 402A     		cmpne	r2, #64
 1321 000a 59D1     		bne	.L92
 1322 000c 0446     		mov	r4, r0
 1323 000e 0E46     		mov	r6, r1
 1324 0010 1546     		mov	r5, r2
 545:../Core/Src/w25q_impl.c ****     return W25Q_ERR_PARAM;
 546:../Core/Src/w25q_impl.c ****   }
 547:../Core/Src/w25q_impl.c **** 
 548:../Core/Src/w25q_impl.c ****   if ((size == 64 && block_addr >= W25Q_BLOCK_COUNT) ||
 1325              		.loc 1 548 3 is_stmt 1 view .LVU379
 1326              		.loc 1 548 19 is_stmt 0 view .LVU380
 1327 0012 402A     		cmp	r2, #64
 1328 0014 14BF     		ite	ne
 1329 0016 0023     		movne	r3, #0
 1330 0018 0123     		moveq	r3, #1
 1331 001a 3F29     		cmp	r1, #63
 1332 001c 98BF     		it	ls
 1333 001e 0023     		movls	r3, #0
 1334              		.loc 1 548 6 view .LVU381
ARM GAS  /tmp/ccCWBsCj.s 			page 36


 1335 0020 002B     		cmp	r3, #0
 1336 0022 4FD1     		bne	.L93
 549:../Core/Src/w25q_impl.c ****       (size == 32 && block_addr >= W25Q_BLOCK_COUNT * 2)) {
 1337              		.loc 1 549 19 discriminator 1 view .LVU382
 1338 0024 202A     		cmp	r2, #32
 1339 0026 14BF     		ite	ne
 1340 0028 0023     		movne	r3, #0
 1341 002a 0123     		moveq	r3, #1
 1342 002c 7F29     		cmp	r1, #127
 1343 002e 98BF     		it	ls
 1344 0030 0023     		movls	r3, #0
 548:../Core/Src/w25q_impl.c ****       (size == 32 && block_addr >= W25Q_BLOCK_COUNT * 2)) {
 1345              		.loc 1 548 54 discriminator 1 view .LVU383
 1346 0032 002B     		cmp	r3, #0
 1347 0034 48D1     		bne	.L94
 1348              	.LVL101:
 1349              	.L87:
 550:../Core/Src/w25q_impl.c ****     return W25Q_ERR_PARAM;
 551:../Core/Src/w25q_impl.c ****   }
 552:../Core/Src/w25q_impl.c **** 
 553:../Core/Src/w25q_impl.c ****   while (w25q_is_busy(device) == W25Q_ERR_BUSY)
 554:../Core/Src/w25q_impl.c ****     ;
 1350              		.loc 1 554 5 is_stmt 1 discriminator 1 view .LVU384
 553:../Core/Src/w25q_impl.c ****     ;
 1351              		.loc 1 553 9 discriminator 1 view .LVU385
 553:../Core/Src/w25q_impl.c ****     ;
 1352              		.loc 1 553 10 is_stmt 0 discriminator 1 view .LVU386
 1353 0036 2046     		mov	r0, r4
 1354 0038 FFF7FEFF 		bl	w25q_is_busy
 1355              	.LVL102:
 553:../Core/Src/w25q_impl.c ****     ;
 1356              		.loc 1 553 9 discriminator 1 view .LVU387
 1357 003c 0128     		cmp	r0, #1
 1358 003e FAD0     		beq	.L87
 555:../Core/Src/w25q_impl.c **** 
 556:../Core/Src/w25q_impl.c ****   uint32_t raw_addr = block_addr * W25Q_MEM_SECTOR_SIZE << 14;
 1359              		.loc 1 556 3 is_stmt 1 view .LVU388
 1360              		.loc 1 556 12 is_stmt 0 view .LVU389
 1361 0040 3604     		lsls	r6, r6, #16
 1362              	.LVL103:
 557:../Core/Src/w25q_impl.c **** 
 558:../Core/Src/w25q_impl.c ****   if (size == 32) {
 1363              		.loc 1 558 3 is_stmt 1 view .LVU390
 1364              		.loc 1 558 6 is_stmt 0 view .LVU391
 1365 0042 202D     		cmp	r5, #32
 1366 0044 2ED0     		beq	.L97
 1367              	.L88:
 559:../Core/Src/w25q_impl.c ****     raw_addr >>= 1;
 560:../Core/Src/w25q_impl.c ****   }
 561:../Core/Src/w25q_impl.c **** 
 562:../Core/Src/w25q_impl.c ****   enum w25q_err err = w25q_write_enable(device, 1);
 1368              		.loc 1 562 3 is_stmt 1 view .LVU392
 1369              		.loc 1 562 23 is_stmt 0 view .LVU393
 1370 0046 0121     		movs	r1, #1
 1371 0048 2046     		mov	r0, r4
 1372 004a FFF7FEFF 		bl	w25q_write_enable
 1373              	.LVL104:
ARM GAS  /tmp/ccCWBsCj.s 			page 37


 563:../Core/Src/w25q_impl.c ****   if (err != W25Q_ERR_OK) {
 1374              		.loc 1 563 3 is_stmt 1 view .LVU394
 1375              		.loc 1 563 6 is_stmt 0 view .LVU395
 1376 004e 0746     		mov	r7, r0
 1377 0050 28BB     		cbnz	r0, .L86
 564:../Core/Src/w25q_impl.c ****     return err;
 565:../Core/Src/w25q_impl.c ****   }
 566:../Core/Src/w25q_impl.c **** 
 567:../Core/Src/w25q_impl.c ****   OSPI_RegularCmdTypeDef cmd = {0};
 1378              		.loc 1 567 3 is_stmt 1 view .LVU396
 1379              		.loc 1 567 26 is_stmt 0 view .LVU397
 1380 0052 5022     		movs	r2, #80
 1381 0054 0021     		movs	r1, #0
 1382 0056 6846     		mov	r0, sp
 1383              	.LVL105:
 1384              		.loc 1 567 26 view .LVU398
 1385 0058 FFF7FEFF 		bl	memset
 1386              	.LVL106:
 568:../Core/Src/w25q_impl.c **** 
 569:../Core/Src/w25q_impl.c ****   cmd.OperationType = HAL_OSPI_OPTYPE_COMMON_CFG;
 1387              		.loc 1 569 3 is_stmt 1 view .LVU399
 570:../Core/Src/w25q_impl.c **** 
 571:../Core/Src/w25q_impl.c ****   if (size == 32) {
 1388              		.loc 1 571 3 view .LVU400
 1389              		.loc 1 571 6 is_stmt 0 view .LVU401
 1390 005c 202D     		cmp	r5, #32
 1391 005e 23D0     		beq	.L98
 572:../Core/Src/w25q_impl.c ****     cmd.Instruction = W25Q_32KB_BLOCK_ERASE;
 573:../Core/Src/w25q_impl.c **** 
 574:../Core/Src/w25q_impl.c **** #if W25Q_MEM_FLASH_SIZE > 128U
 575:../Core/Src/w25q_impl.c **** 
 576:../Core/Src/w25q_impl.c ****     cmd.AddressSize = HAL_OSPI_ADDRESS_32_BITS;
 577:../Core/Src/w25q_impl.c **** 
 578:../Core/Src/w25q_impl.c **** #else
 579:../Core/Src/w25q_impl.c **** 
 580:../Core/Src/w25q_impl.c ****     cmd.AddressSize = HAL_OSPI_ADDRESS_24_BITS;
 581:../Core/Src/w25q_impl.c **** 
 582:../Core/Src/w25q_impl.c **** #endif
 583:../Core/Src/w25q_impl.c **** 
 584:../Core/Src/w25q_impl.c ****   } else if (size == 64) {
 1392              		.loc 1 584 10 is_stmt 1 view .LVU402
 1393              		.loc 1 584 13 is_stmt 0 view .LVU403
 1394 0060 402D     		cmp	r5, #64
 1395 0062 27D0     		beq	.L99
 1396              	.L90:
 585:../Core/Src/w25q_impl.c **** 
 586:../Core/Src/w25q_impl.c **** #if W25Q_MEM_FLASH_SIZE > 128U
 587:../Core/Src/w25q_impl.c **** 
 588:../Core/Src/w25q_impl.c ****     cmd.Instruction = W25Q_64KB_BLOCK_ERASE_4B;
 589:../Core/Src/w25q_impl.c ****     cmd.AddressSize = HAL_OSPI_ADDRESS_32_BITS;
 590:../Core/Src/w25q_impl.c **** 
 591:../Core/Src/w25q_impl.c **** #else
 592:../Core/Src/w25q_impl.c **** 
 593:../Core/Src/w25q_impl.c ****     cmd.Instruction = W25Q_64KB_BLOCK_ERASE;
 594:../Core/Src/w25q_impl.c ****     cmd.AddressSize = HAL_OSPI_ADDRESS_24_BITS;
 595:../Core/Src/w25q_impl.c **** 
 596:../Core/Src/w25q_impl.c **** #endif
ARM GAS  /tmp/ccCWBsCj.s 			page 38


 597:../Core/Src/w25q_impl.c ****   }
 598:../Core/Src/w25q_impl.c **** 
 599:../Core/Src/w25q_impl.c ****   cmd.InstructionMode = HAL_OSPI_INSTRUCTION_1_LINE;
 1397              		.loc 1 599 3 is_stmt 1 view .LVU404
 1398              		.loc 1 599 23 is_stmt 0 view .LVU405
 1399 0064 0123     		movs	r3, #1
 1400 0066 0393     		str	r3, [sp, #12]
 600:../Core/Src/w25q_impl.c ****   cmd.InstructionSize = HAL_OSPI_INSTRUCTION_8_BITS;
 1401              		.loc 1 600 3 is_stmt 1 view .LVU406
 601:../Core/Src/w25q_impl.c ****   cmd.InstructionDtrMode = HAL_OSPI_INSTRUCTION_DTR_DISABLE;
 1402              		.loc 1 601 3 view .LVU407
 602:../Core/Src/w25q_impl.c **** 
 603:../Core/Src/w25q_impl.c ****   cmd.Address = raw_addr;
 1403              		.loc 1 603 3 view .LVU408
 1404              		.loc 1 603 15 is_stmt 0 view .LVU409
 1405 0068 0696     		str	r6, [sp, #24]
 604:../Core/Src/w25q_impl.c ****   cmd.AddressMode = HAL_OSPI_ADDRESS_1_LINE;
 1406              		.loc 1 604 3 is_stmt 1 view .LVU410
 1407              		.loc 1 604 19 is_stmt 0 view .LVU411
 1408 006a 4FF48073 		mov	r3, #256
 1409 006e 0793     		str	r3, [sp, #28]
 605:../Core/Src/w25q_impl.c ****   cmd.AddressDtrMode = HAL_OSPI_ADDRESS_DTR_DISABLE;
 1410              		.loc 1 605 3 is_stmt 1 view .LVU412
 606:../Core/Src/w25q_impl.c **** 
 607:../Core/Src/w25q_impl.c ****   cmd.AlternateBytesMode = HAL_OSPI_ALTERNATE_BYTES_NONE;
 1411              		.loc 1 607 3 view .LVU413
 608:../Core/Src/w25q_impl.c **** 
 609:../Core/Src/w25q_impl.c ****   cmd.DataMode = HAL_OSPI_DATA_NONE;
 1412              		.loc 1 609 3 view .LVU414
 610:../Core/Src/w25q_impl.c ****   cmd.DataDtrMode = HAL_OSPI_DATA_DTR_DISABLE;
 1413              		.loc 1 610 3 view .LVU415
 611:../Core/Src/w25q_impl.c **** 
 612:../Core/Src/w25q_impl.c ****   cmd.DummyCycles = 0;
 1414              		.loc 1 612 3 view .LVU416
 613:../Core/Src/w25q_impl.c ****   cmd.DQSMode = HAL_OSPI_DQS_DISABLE;
 1415              		.loc 1 613 3 view .LVU417
 614:../Core/Src/w25q_impl.c ****   cmd.SIOOMode = HAL_OSPI_SIOO_INST_EVERY_CMD;
 1416              		.loc 1 614 3 view .LVU418
 615:../Core/Src/w25q_impl.c **** 
 616:../Core/Src/w25q_impl.c ****   HAL_GPIO_WritePin(FLASH_CS_GPIO_PORT, FLASH_CS_PIN, GPIO_PIN_RESET);
 1417              		.loc 1 616 3 view .LVU419
 1418 0070 0022     		movs	r2, #0
 1419 0072 4021     		movs	r1, #64
 1420 0074 1648     		ldr	r0, .L100
 1421 0076 FFF7FEFF 		bl	HAL_GPIO_WritePin
 1422              	.LVL107:
 617:../Core/Src/w25q_impl.c **** 
 618:../Core/Src/w25q_impl.c ****   if (HAL_OSPI_Command(&flash_spi, &cmd, HAL_OSPI_TIMEOUT_DEFAULT_VALUE) !=
 1423              		.loc 1 618 3 view .LVU420
 1424              		.loc 1 618 7 is_stmt 0 view .LVU421
 1425 007a 41F28832 		movw	r2, #5000
 1426 007e 6946     		mov	r1, sp
 1427 0080 1448     		ldr	r0, .L100+4
 1428 0082 FFF7FEFF 		bl	HAL_OSPI_Command
 1429              	.LVL108:
 1430              		.loc 1 618 6 view .LVU422
 1431 0086 0746     		mov	r7, r0
ARM GAS  /tmp/ccCWBsCj.s 			page 39


 1432 0088 00BB     		cbnz	r0, .L95
 1433              	.L91:
 619:../Core/Src/w25q_impl.c ****       HAL_OK) {
 620:../Core/Src/w25q_impl.c ****     return W25Q_ERR_SPI;
 621:../Core/Src/w25q_impl.c ****   }
 622:../Core/Src/w25q_impl.c **** 
 623:../Core/Src/w25q_impl.c **** 
 624:../Core/Src/w25q_impl.c ****   while (w25q_is_busy(device) == W25Q_ERR_BUSY)
 625:../Core/Src/w25q_impl.c ****     ;
 1434              		.loc 1 625 5 is_stmt 1 discriminator 1 view .LVU423
 624:../Core/Src/w25q_impl.c ****     ;
 1435              		.loc 1 624 9 discriminator 1 view .LVU424
 624:../Core/Src/w25q_impl.c ****     ;
 1436              		.loc 1 624 10 is_stmt 0 discriminator 1 view .LVU425
 1437 008a 2046     		mov	r0, r4
 1438 008c FFF7FEFF 		bl	w25q_is_busy
 1439              	.LVL109:
 624:../Core/Src/w25q_impl.c ****     ;
 1440              		.loc 1 624 9 discriminator 1 view .LVU426
 1441 0090 0128     		cmp	r0, #1
 1442 0092 FAD0     		beq	.L91
 626:../Core/Src/w25q_impl.c **** 
 627:../Core/Src/w25q_impl.c ****   HAL_GPIO_WritePin(FLASH_CS_GPIO_PORT, FLASH_CS_PIN, GPIO_PIN_SET);
 1443              		.loc 1 627 3 is_stmt 1 view .LVU427
 1444 0094 0122     		movs	r2, #1
 1445 0096 4021     		movs	r1, #64
 1446 0098 0D48     		ldr	r0, .L100
 1447 009a FFF7FEFF 		bl	HAL_GPIO_WritePin
 1448              	.LVL110:
 628:../Core/Src/w25q_impl.c **** 
 629:../Core/Src/w25q_impl.c **** 
 630:../Core/Src/w25q_impl.c ****   return W25Q_ERR_OK;
 1449              		.loc 1 630 3 view .LVU428
 1450              	.L86:
 631:../Core/Src/w25q_impl.c **** }
 1451              		.loc 1 631 1 is_stmt 0 view .LVU429
 1452 009e 3846     		mov	r0, r7
 1453 00a0 15B0     		add	sp, sp, #84
 1454              	.LCFI35:
 1455              		.cfi_remember_state
 1456              		.cfi_def_cfa_offset 20
 1457              		@ sp needed
 1458 00a2 F0BD     		pop	{r4, r5, r6, r7, pc}
 1459              	.LVL111:
 1460              	.L97:
 1461              	.LCFI36:
 1462              		.cfi_restore_state
 559:../Core/Src/w25q_impl.c ****   }
 1463              		.loc 1 559 5 is_stmt 1 view .LVU430
 559:../Core/Src/w25q_impl.c ****   }
 1464              		.loc 1 559 14 is_stmt 0 view .LVU431
 1465 00a4 7608     		lsrs	r6, r6, #1
 1466              	.LVL112:
 559:../Core/Src/w25q_impl.c ****   }
 1467              		.loc 1 559 14 view .LVU432
 1468 00a6 CEE7     		b	.L88
 1469              	.L98:
ARM GAS  /tmp/ccCWBsCj.s 			page 40


 572:../Core/Src/w25q_impl.c **** 
 1470              		.loc 1 572 5 is_stmt 1 view .LVU433
 572:../Core/Src/w25q_impl.c **** 
 1471              		.loc 1 572 21 is_stmt 0 view .LVU434
 1472 00a8 5223     		movs	r3, #82
 1473 00aa 0293     		str	r3, [sp, #8]
 580:../Core/Src/w25q_impl.c **** 
 1474              		.loc 1 580 5 is_stmt 1 view .LVU435
 580:../Core/Src/w25q_impl.c **** 
 1475              		.loc 1 580 21 is_stmt 0 view .LVU436
 1476 00ac 4FF40053 		mov	r3, #8192
 1477 00b0 0893     		str	r3, [sp, #32]
 1478 00b2 D7E7     		b	.L90
 1479              	.L99:
 593:../Core/Src/w25q_impl.c ****     cmd.AddressSize = HAL_OSPI_ADDRESS_24_BITS;
 1480              		.loc 1 593 5 is_stmt 1 view .LVU437
 593:../Core/Src/w25q_impl.c ****     cmd.AddressSize = HAL_OSPI_ADDRESS_24_BITS;
 1481              		.loc 1 593 21 is_stmt 0 view .LVU438
 1482 00b4 D823     		movs	r3, #216
 1483 00b6 0293     		str	r3, [sp, #8]
 594:../Core/Src/w25q_impl.c **** 
 1484              		.loc 1 594 5 is_stmt 1 view .LVU439
 594:../Core/Src/w25q_impl.c **** 
 1485              		.loc 1 594 21 is_stmt 0 view .LVU440
 1486 00b8 4FF40053 		mov	r3, #8192
 1487 00bc 0893     		str	r3, [sp, #32]
 1488 00be D1E7     		b	.L90
 1489              	.LVL113:
 1490              	.L92:
 545:../Core/Src/w25q_impl.c ****   }
 1491              		.loc 1 545 12 view .LVU441
 1492 00c0 0227     		movs	r7, #2
 1493 00c2 ECE7     		b	.L86
 1494              	.L93:
 550:../Core/Src/w25q_impl.c ****   }
 1495              		.loc 1 550 12 view .LVU442
 1496 00c4 0227     		movs	r7, #2
 1497 00c6 EAE7     		b	.L86
 1498              	.L94:
 1499 00c8 0227     		movs	r7, #2
 1500 00ca E8E7     		b	.L86
 1501              	.LVL114:
 1502              	.L95:
 620:../Core/Src/w25q_impl.c ****   }
 1503              		.loc 1 620 12 view .LVU443
 1504 00cc 0427     		movs	r7, #4
 1505 00ce E6E7     		b	.L86
 1506              	.L101:
 1507              		.align	2
 1508              	.L100:
 1509 00d0 00180258 		.word	1476532224
 1510 00d4 00000000 		.word	hospi1
 1511              		.cfi_endproc
 1512              	.LFE157:
 1514              		.section	.text.w25q_erase_chip,"ax",%progbits
 1515              		.align	1
 1516              		.global	w25q_erase_chip
ARM GAS  /tmp/ccCWBsCj.s 			page 41


 1517              		.syntax unified
 1518              		.thumb
 1519              		.thumb_func
 1520              		.fpu fpv5-d16
 1522              	w25q_erase_chip:
 1523              	.LVL115:
 1524              	.LFB158:
 632:../Core/Src/w25q_impl.c **** 
 633:../Core/Src/w25q_impl.c **** enum w25q_err w25q_erase_chip(struct w25q_device *device) {
 1525              		.loc 1 633 59 is_stmt 1 view -0
 1526              		.cfi_startproc
 1527              		@ args = 0, pretend = 0, frame = 80
 1528              		@ frame_needed = 0, uses_anonymous_args = 0
 1529              		.loc 1 633 59 is_stmt 0 view .LVU445
 1530 0000 30B5     		push	{r4, r5, lr}
 1531              	.LCFI37:
 1532              		.cfi_def_cfa_offset 12
 1533              		.cfi_offset 4, -12
 1534              		.cfi_offset 5, -8
 1535              		.cfi_offset 14, -4
 1536 0002 95B0     		sub	sp, sp, #84
 1537              	.LCFI38:
 1538              		.cfi_def_cfa_offset 96
 1539 0004 0446     		mov	r4, r0
 634:../Core/Src/w25q_impl.c ****   while (w25q_is_busy(device) == W25Q_ERR_BUSY)
 1540              		.loc 1 634 3 is_stmt 1 view .LVU446
 1541              	.LVL116:
 1542              	.L103:
 635:../Core/Src/w25q_impl.c ****     ;
 1543              		.loc 1 635 5 discriminator 1 view .LVU447
 634:../Core/Src/w25q_impl.c ****   while (w25q_is_busy(device) == W25Q_ERR_BUSY)
 1544              		.loc 1 634 9 discriminator 1 view .LVU448
 634:../Core/Src/w25q_impl.c ****   while (w25q_is_busy(device) == W25Q_ERR_BUSY)
 1545              		.loc 1 634 10 is_stmt 0 discriminator 1 view .LVU449
 1546 0006 2046     		mov	r0, r4
 1547 0008 FFF7FEFF 		bl	w25q_is_busy
 1548              	.LVL117:
 634:../Core/Src/w25q_impl.c ****   while (w25q_is_busy(device) == W25Q_ERR_BUSY)
 1549              		.loc 1 634 9 discriminator 1 view .LVU450
 1550 000c 0128     		cmp	r0, #1
 1551 000e FAD0     		beq	.L103
 636:../Core/Src/w25q_impl.c **** 
 637:../Core/Src/w25q_impl.c ****   enum w25q_err err = w25q_write_enable(device, 1);
 1552              		.loc 1 637 3 is_stmt 1 view .LVU451
 1553              		.loc 1 637 23 is_stmt 0 view .LVU452
 1554 0010 0121     		movs	r1, #1
 1555 0012 2046     		mov	r0, r4
 1556 0014 FFF7FEFF 		bl	w25q_write_enable
 1557              	.LVL118:
 638:../Core/Src/w25q_impl.c ****   if (err != W25Q_ERR_OK) {
 1558              		.loc 1 638 3 is_stmt 1 view .LVU453
 1559              		.loc 1 638 6 is_stmt 0 view .LVU454
 1560 0018 0546     		mov	r5, r0
 1561 001a 10B1     		cbz	r0, .L108
 1562              	.LVL119:
 1563              	.L104:
 639:../Core/Src/w25q_impl.c ****     return err;
ARM GAS  /tmp/ccCWBsCj.s 			page 42


 640:../Core/Src/w25q_impl.c ****   }
 641:../Core/Src/w25q_impl.c **** 
 642:../Core/Src/w25q_impl.c ****   OSPI_RegularCmdTypeDef cmd = {0};
 643:../Core/Src/w25q_impl.c **** 
 644:../Core/Src/w25q_impl.c ****   cmd.OperationType = HAL_OSPI_OPTYPE_COMMON_CFG;
 645:../Core/Src/w25q_impl.c **** 
 646:../Core/Src/w25q_impl.c ****   cmd.Instruction = W25Q_CHIP_ERASE;
 647:../Core/Src/w25q_impl.c ****   cmd.InstructionMode = HAL_OSPI_INSTRUCTION_1_LINE;
 648:../Core/Src/w25q_impl.c ****   cmd.InstructionSize = HAL_OSPI_INSTRUCTION_8_BITS;
 649:../Core/Src/w25q_impl.c ****   cmd.InstructionDtrMode = HAL_OSPI_INSTRUCTION_DTR_DISABLE;
 650:../Core/Src/w25q_impl.c **** 
 651:../Core/Src/w25q_impl.c ****   cmd.AddressMode = HAL_OSPI_ADDRESS_NONE;
 652:../Core/Src/w25q_impl.c ****   cmd.AddressDtrMode = HAL_OSPI_ADDRESS_DTR_DISABLE;
 653:../Core/Src/w25q_impl.c **** 
 654:../Core/Src/w25q_impl.c ****   cmd.AlternateBytesMode = HAL_OSPI_ALTERNATE_BYTES_NONE;
 655:../Core/Src/w25q_impl.c **** 
 656:../Core/Src/w25q_impl.c ****   cmd.DataMode = HAL_OSPI_DATA_NONE;
 657:../Core/Src/w25q_impl.c ****   cmd.DataDtrMode = HAL_OSPI_DATA_DTR_DISABLE;
 658:../Core/Src/w25q_impl.c **** 
 659:../Core/Src/w25q_impl.c ****   cmd.DummyCycles = 0;
 660:../Core/Src/w25q_impl.c ****   cmd.DQSMode = HAL_OSPI_DQS_DISABLE;
 661:../Core/Src/w25q_impl.c ****   cmd.SIOOMode = HAL_OSPI_SIOO_INST_EVERY_CMD;
 662:../Core/Src/w25q_impl.c **** 
 663:../Core/Src/w25q_impl.c ****   HAL_GPIO_WritePin(FLASH_CS_GPIO_PORT, FLASH_CS_PIN, GPIO_PIN_RESET);
 664:../Core/Src/w25q_impl.c **** 
 665:../Core/Src/w25q_impl.c ****   if (HAL_OSPI_Command(&flash_spi, &cmd, HAL_OSPI_TIMEOUT_DEFAULT_VALUE) !=
 666:../Core/Src/w25q_impl.c ****       HAL_OK) {
 667:../Core/Src/w25q_impl.c ****     return W25Q_ERR_SPI;
 668:../Core/Src/w25q_impl.c ****   }
 669:../Core/Src/w25q_impl.c **** 
 670:../Core/Src/w25q_impl.c ****   while (w25q_is_busy(device) == W25Q_ERR_BUSY)
 671:../Core/Src/w25q_impl.c ****     ;
 672:../Core/Src/w25q_impl.c **** 
 673:../Core/Src/w25q_impl.c ****   HAL_GPIO_WritePin(FLASH_CS_GPIO_PORT, FLASH_CS_PIN, GPIO_PIN_SET);
 674:../Core/Src/w25q_impl.c **** 
 675:../Core/Src/w25q_impl.c **** 
 676:../Core/Src/w25q_impl.c ****   return W25Q_ERR_OK;
 677:../Core/Src/w25q_impl.c **** }
 1564              		.loc 1 677 1 view .LVU455
 1565 001c 2846     		mov	r0, r5
 1566 001e 15B0     		add	sp, sp, #84
 1567              	.LCFI39:
 1568              		.cfi_remember_state
 1569              		.cfi_def_cfa_offset 12
 1570              		@ sp needed
 1571 0020 30BD     		pop	{r4, r5, pc}
 1572              	.LVL120:
 1573              	.L108:
 1574              	.LCFI40:
 1575              		.cfi_restore_state
 642:../Core/Src/w25q_impl.c **** 
 1576              		.loc 1 642 3 is_stmt 1 view .LVU456
 642:../Core/Src/w25q_impl.c **** 
 1577              		.loc 1 642 26 is_stmt 0 view .LVU457
 1578 0022 5022     		movs	r2, #80
 1579 0024 0021     		movs	r1, #0
 1580 0026 6846     		mov	r0, sp
ARM GAS  /tmp/ccCWBsCj.s 			page 43


 1581              	.LVL121:
 642:../Core/Src/w25q_impl.c **** 
 1582              		.loc 1 642 26 view .LVU458
 1583 0028 FFF7FEFF 		bl	memset
 1584              	.LVL122:
 644:../Core/Src/w25q_impl.c **** 
 1585              		.loc 1 644 3 is_stmt 1 view .LVU459
 646:../Core/Src/w25q_impl.c ****   cmd.InstructionMode = HAL_OSPI_INSTRUCTION_1_LINE;
 1586              		.loc 1 646 3 view .LVU460
 646:../Core/Src/w25q_impl.c ****   cmd.InstructionMode = HAL_OSPI_INSTRUCTION_1_LINE;
 1587              		.loc 1 646 19 is_stmt 0 view .LVU461
 1588 002c C723     		movs	r3, #199
 1589 002e 0293     		str	r3, [sp, #8]
 647:../Core/Src/w25q_impl.c ****   cmd.InstructionSize = HAL_OSPI_INSTRUCTION_8_BITS;
 1590              		.loc 1 647 3 is_stmt 1 view .LVU462
 647:../Core/Src/w25q_impl.c ****   cmd.InstructionSize = HAL_OSPI_INSTRUCTION_8_BITS;
 1591              		.loc 1 647 23 is_stmt 0 view .LVU463
 1592 0030 0123     		movs	r3, #1
 1593 0032 0393     		str	r3, [sp, #12]
 648:../Core/Src/w25q_impl.c ****   cmd.InstructionDtrMode = HAL_OSPI_INSTRUCTION_DTR_DISABLE;
 1594              		.loc 1 648 3 is_stmt 1 view .LVU464
 649:../Core/Src/w25q_impl.c **** 
 1595              		.loc 1 649 3 view .LVU465
 651:../Core/Src/w25q_impl.c ****   cmd.AddressDtrMode = HAL_OSPI_ADDRESS_DTR_DISABLE;
 1596              		.loc 1 651 3 view .LVU466
 652:../Core/Src/w25q_impl.c **** 
 1597              		.loc 1 652 3 view .LVU467
 654:../Core/Src/w25q_impl.c **** 
 1598              		.loc 1 654 3 view .LVU468
 656:../Core/Src/w25q_impl.c ****   cmd.DataDtrMode = HAL_OSPI_DATA_DTR_DISABLE;
 1599              		.loc 1 656 3 view .LVU469
 657:../Core/Src/w25q_impl.c **** 
 1600              		.loc 1 657 3 view .LVU470
 659:../Core/Src/w25q_impl.c ****   cmd.DQSMode = HAL_OSPI_DQS_DISABLE;
 1601              		.loc 1 659 3 view .LVU471
 660:../Core/Src/w25q_impl.c ****   cmd.SIOOMode = HAL_OSPI_SIOO_INST_EVERY_CMD;
 1602              		.loc 1 660 3 view .LVU472
 661:../Core/Src/w25q_impl.c **** 
 1603              		.loc 1 661 3 view .LVU473
 663:../Core/Src/w25q_impl.c **** 
 1604              		.loc 1 663 3 view .LVU474
 1605 0034 0022     		movs	r2, #0
 1606 0036 4021     		movs	r1, #64
 1607 0038 0B48     		ldr	r0, .L109
 1608 003a FFF7FEFF 		bl	HAL_GPIO_WritePin
 1609              	.LVL123:
 665:../Core/Src/w25q_impl.c ****       HAL_OK) {
 1610              		.loc 1 665 3 view .LVU475
 665:../Core/Src/w25q_impl.c ****       HAL_OK) {
 1611              		.loc 1 665 7 is_stmt 0 view .LVU476
 1612 003e 41F28832 		movw	r2, #5000
 1613 0042 6946     		mov	r1, sp
 1614 0044 0948     		ldr	r0, .L109+4
 1615 0046 FFF7FEFF 		bl	HAL_OSPI_Command
 1616              	.LVL124:
 665:../Core/Src/w25q_impl.c ****       HAL_OK) {
 1617              		.loc 1 665 6 view .LVU477
ARM GAS  /tmp/ccCWBsCj.s 			page 44


 1618 004a 0546     		mov	r5, r0
 1619 004c 50B9     		cbnz	r0, .L106
 1620              	.L105:
 671:../Core/Src/w25q_impl.c **** 
 1621              		.loc 1 671 5 is_stmt 1 discriminator 1 view .LVU478
 670:../Core/Src/w25q_impl.c ****     ;
 1622              		.loc 1 670 9 discriminator 1 view .LVU479
 670:../Core/Src/w25q_impl.c ****     ;
 1623              		.loc 1 670 10 is_stmt 0 discriminator 1 view .LVU480
 1624 004e 2046     		mov	r0, r4
 1625 0050 FFF7FEFF 		bl	w25q_is_busy
 1626              	.LVL125:
 670:../Core/Src/w25q_impl.c ****     ;
 1627              		.loc 1 670 9 discriminator 1 view .LVU481
 1628 0054 0128     		cmp	r0, #1
 1629 0056 FAD0     		beq	.L105
 673:../Core/Src/w25q_impl.c **** 
 1630              		.loc 1 673 3 is_stmt 1 view .LVU482
 1631 0058 0122     		movs	r2, #1
 1632 005a 4021     		movs	r1, #64
 1633 005c 0248     		ldr	r0, .L109
 1634 005e FFF7FEFF 		bl	HAL_GPIO_WritePin
 1635              	.LVL126:
 676:../Core/Src/w25q_impl.c **** }
 1636              		.loc 1 676 3 view .LVU483
 676:../Core/Src/w25q_impl.c **** }
 1637              		.loc 1 676 10 is_stmt 0 view .LVU484
 1638 0062 DBE7     		b	.L104
 1639              	.L106:
 667:../Core/Src/w25q_impl.c ****   }
 1640              		.loc 1 667 12 view .LVU485
 1641 0064 0425     		movs	r5, #4
 1642 0066 D9E7     		b	.L104
 1643              	.L110:
 1644              		.align	2
 1645              	.L109:
 1646 0068 00180258 		.word	1476532224
 1647 006c 00000000 		.word	hospi1
 1648              		.cfi_endproc
 1649              	.LFE158:
 1651              		.section	.text.w25q_reset,"ax",%progbits
 1652              		.align	1
 1653              		.global	w25q_reset
 1654              		.syntax unified
 1655              		.thumb
 1656              		.thumb_func
 1657              		.fpu fpv5-d16
 1659              	w25q_reset:
 1660              	.LVL127:
 1661              	.LFB159:
 678:../Core/Src/w25q_impl.c **** 
 679:../Core/Src/w25q_impl.c **** enum w25q_err w25q_reset(struct w25q_device *device) {
 1662              		.loc 1 679 54 is_stmt 1 view -0
 1663              		.cfi_startproc
 1664              		@ args = 0, pretend = 0, frame = 80
 1665              		@ frame_needed = 0, uses_anonymous_args = 0
 1666              		.loc 1 679 54 is_stmt 0 view .LVU487
ARM GAS  /tmp/ccCWBsCj.s 			page 45


 1667 0000 30B5     		push	{r4, r5, lr}
 1668              	.LCFI41:
 1669              		.cfi_def_cfa_offset 12
 1670              		.cfi_offset 4, -12
 1671              		.cfi_offset 5, -8
 1672              		.cfi_offset 14, -4
 1673 0002 95B0     		sub	sp, sp, #84
 1674              	.LCFI42:
 1675              		.cfi_def_cfa_offset 96
 1676 0004 0446     		mov	r4, r0
 680:../Core/Src/w25q_impl.c ****   enum w25q_err err;
 1677              		.loc 1 680 3 is_stmt 1 view .LVU488
 681:../Core/Src/w25q_impl.c **** 
 682:../Core/Src/w25q_impl.c ****   err = w25q_update_status_struct(device);
 1678              		.loc 1 682 3 view .LVU489
 1679              		.loc 1 682 9 is_stmt 0 view .LVU490
 1680 0006 FFF7FEFF 		bl	w25q_update_status_struct
 1681              	.LVL128:
 683:../Core/Src/w25q_impl.c ****   if (err != W25Q_ERR_OK) {
 1682              		.loc 1 683 3 is_stmt 1 view .LVU491
 1683              		.loc 1 683 6 is_stmt 0 view .LVU492
 1684 000a 0546     		mov	r5, r0
 1685 000c A0BB     		cbnz	r0, .L112
 684:../Core/Src/w25q_impl.c ****     return err;
 685:../Core/Src/w25q_impl.c ****   }
 686:../Core/Src/w25q_impl.c **** 
 687:../Core/Src/w25q_impl.c ****   if (device->status.BUSY || device->status.SUS) {
 1686              		.loc 1 687 3 is_stmt 1 view .LVU493
 1687              		.loc 1 687 27 is_stmt 0 view .LVU494
 1688 000e A388     		ldrh	r3, [r4, #4]
 1689 0010 23F4FF43 		bic	r3, r3, #32640
 1690 0014 23F07E03 		bic	r3, r3, #126
 1691 0018 9BB2     		uxth	r3, r3
 1692              		.loc 1 687 6 view .LVU495
 1693 001a 83BB     		cbnz	r3, .L114
 1694              	.LVL129:
 1695              	.L113:
 688:../Core/Src/w25q_impl.c ****     return W25Q_ERR_CHIP;
 689:../Core/Src/w25q_impl.c ****   }
 690:../Core/Src/w25q_impl.c **** 
 691:../Core/Src/w25q_impl.c ****   while (w25q_is_busy(device) == W25Q_ERR_BUSY)
 692:../Core/Src/w25q_impl.c ****     ;
 1696              		.loc 1 692 5 is_stmt 1 discriminator 1 view .LVU496
 691:../Core/Src/w25q_impl.c ****     ;
 1697              		.loc 1 691 9 discriminator 1 view .LVU497
 691:../Core/Src/w25q_impl.c ****     ;
 1698              		.loc 1 691 10 is_stmt 0 discriminator 1 view .LVU498
 1699 001c 2046     		mov	r0, r4
 1700 001e FFF7FEFF 		bl	w25q_is_busy
 1701              	.LVL130:
 691:../Core/Src/w25q_impl.c ****     ;
 1702              		.loc 1 691 9 discriminator 1 view .LVU499
 1703 0022 0128     		cmp	r0, #1
 1704 0024 FAD0     		beq	.L113
 693:../Core/Src/w25q_impl.c **** 
 694:../Core/Src/w25q_impl.c ****   // if (device->status.SUS) {
 695:../Core/Src/w25q_impl.c ****   //   w25q_write_resume();
ARM GAS  /tmp/ccCWBsCj.s 			page 46


 696:../Core/Src/w25q_impl.c ****   // }
 697:../Core/Src/w25q_impl.c **** 
 698:../Core/Src/w25q_impl.c ****   OSPI_RegularCmdTypeDef cmd = {0};
 1705              		.loc 1 698 3 is_stmt 1 view .LVU500
 1706              		.loc 1 698 26 is_stmt 0 view .LVU501
 1707 0026 5022     		movs	r2, #80
 1708 0028 0021     		movs	r1, #0
 1709 002a 6846     		mov	r0, sp
 1710 002c FFF7FEFF 		bl	memset
 1711              	.LVL131:
 699:../Core/Src/w25q_impl.c **** 
 700:../Core/Src/w25q_impl.c ****   cmd.OperationType = HAL_OSPI_OPTYPE_COMMON_CFG;
 1712              		.loc 1 700 3 is_stmt 1 view .LVU502
 701:../Core/Src/w25q_impl.c **** 
 702:../Core/Src/w25q_impl.c ****   cmd.Instruction = W25Q_ENABLE_RST;
 1713              		.loc 1 702 3 view .LVU503
 1714              		.loc 1 702 19 is_stmt 0 view .LVU504
 1715 0030 6623     		movs	r3, #102
 1716 0032 0293     		str	r3, [sp, #8]
 703:../Core/Src/w25q_impl.c ****   cmd.InstructionMode = HAL_OSPI_INSTRUCTION_1_LINE;
 1717              		.loc 1 703 3 is_stmt 1 view .LVU505
 1718              		.loc 1 703 23 is_stmt 0 view .LVU506
 1719 0034 0123     		movs	r3, #1
 1720 0036 0393     		str	r3, [sp, #12]
 704:../Core/Src/w25q_impl.c ****   cmd.InstructionSize = HAL_OSPI_INSTRUCTION_8_BITS;
 1721              		.loc 1 704 3 is_stmt 1 view .LVU507
 705:../Core/Src/w25q_impl.c ****   cmd.InstructionDtrMode = HAL_OSPI_INSTRUCTION_DTR_DISABLE;
 1722              		.loc 1 705 3 view .LVU508
 706:../Core/Src/w25q_impl.c **** 
 707:../Core/Src/w25q_impl.c ****   cmd.AddressMode = HAL_OSPI_ADDRESS_NONE;
 1723              		.loc 1 707 3 view .LVU509
 708:../Core/Src/w25q_impl.c ****   cmd.AddressDtrMode = HAL_OSPI_ADDRESS_DTR_DISABLE;
 1724              		.loc 1 708 3 view .LVU510
 709:../Core/Src/w25q_impl.c **** 
 710:../Core/Src/w25q_impl.c ****   cmd.AlternateBytesMode = HAL_OSPI_ALTERNATE_BYTES_NONE;
 1725              		.loc 1 710 3 view .LVU511
 711:../Core/Src/w25q_impl.c **** 
 712:../Core/Src/w25q_impl.c ****   cmd.DataMode = HAL_OSPI_DATA_NONE;
 1726              		.loc 1 712 3 view .LVU512
 713:../Core/Src/w25q_impl.c ****   cmd.DataDtrMode = HAL_OSPI_DATA_DTR_DISABLE;
 1727              		.loc 1 713 3 view .LVU513
 714:../Core/Src/w25q_impl.c **** 
 715:../Core/Src/w25q_impl.c ****   cmd.DummyCycles = 0;
 1728              		.loc 1 715 3 view .LVU514
 716:../Core/Src/w25q_impl.c ****   cmd.DQSMode = HAL_OSPI_DQS_DISABLE;
 1729              		.loc 1 716 3 view .LVU515
 717:../Core/Src/w25q_impl.c ****   cmd.SIOOMode = HAL_OSPI_SIOO_INST_EVERY_CMD;
 1730              		.loc 1 717 3 view .LVU516
 718:../Core/Src/w25q_impl.c **** 
 719:../Core/Src/w25q_impl.c ****   HAL_GPIO_WritePin(FLASH_CS_GPIO_PORT, FLASH_CS_PIN, GPIO_PIN_RESET);
 1731              		.loc 1 719 3 view .LVU517
 1732 0038 0022     		movs	r2, #0
 1733 003a 4021     		movs	r1, #64
 1734 003c 1348     		ldr	r0, .L118
 1735 003e FFF7FEFF 		bl	HAL_GPIO_WritePin
 1736              	.LVL132:
 720:../Core/Src/w25q_impl.c **** 
ARM GAS  /tmp/ccCWBsCj.s 			page 47


 721:../Core/Src/w25q_impl.c ****   if (HAL_OSPI_Command(&flash_spi, &cmd, HAL_OSPI_TIMEOUT_DEFAULT_VALUE) !=
 1737              		.loc 1 721 3 view .LVU518
 1738              		.loc 1 721 7 is_stmt 0 view .LVU519
 1739 0042 41F28832 		movw	r2, #5000
 1740 0046 6946     		mov	r1, sp
 1741 0048 1148     		ldr	r0, .L118+4
 1742 004a FFF7FEFF 		bl	HAL_OSPI_Command
 1743              	.LVL133:
 1744              		.loc 1 721 6 view .LVU520
 1745 004e C0B9     		cbnz	r0, .L115
 722:../Core/Src/w25q_impl.c ****       HAL_OK) {
 723:../Core/Src/w25q_impl.c ****     return W25Q_ERR_SPI;
 724:../Core/Src/w25q_impl.c ****   }
 725:../Core/Src/w25q_impl.c **** 
 726:../Core/Src/w25q_impl.c ****   w25q_delay(1);
 1746              		.loc 1 726 3 is_stmt 1 view .LVU521
 1747 0050 0120     		movs	r0, #1
 1748 0052 FFF7FEFF 		bl	w25q_delay
 1749              	.LVL134:
 727:../Core/Src/w25q_impl.c **** 
 728:../Core/Src/w25q_impl.c ****   cmd.Instruction = W25Q_RESET;
 1750              		.loc 1 728 3 view .LVU522
 1751              		.loc 1 728 19 is_stmt 0 view .LVU523
 1752 0056 9923     		movs	r3, #153
 1753 0058 0293     		str	r3, [sp, #8]
 729:../Core/Src/w25q_impl.c **** 
 730:../Core/Src/w25q_impl.c ****   if (HAL_OSPI_Command(&flash_spi, &cmd, HAL_OSPI_TIMEOUT_DEFAULT_VALUE) !=
 1754              		.loc 1 730 3 is_stmt 1 view .LVU524
 1755              		.loc 1 730 7 is_stmt 0 view .LVU525
 1756 005a 41F28832 		movw	r2, #5000
 1757 005e 6946     		mov	r1, sp
 1758 0060 0B48     		ldr	r0, .L118+4
 1759 0062 FFF7FEFF 		bl	HAL_OSPI_Command
 1760              	.LVL135:
 1761              		.loc 1 730 6 view .LVU526
 1762 0066 70B9     		cbnz	r0, .L116
 731:../Core/Src/w25q_impl.c ****       HAL_OK) {
 732:../Core/Src/w25q_impl.c ****     return W25Q_ERR_SPI;
 733:../Core/Src/w25q_impl.c ****   }
 734:../Core/Src/w25q_impl.c **** 
 735:../Core/Src/w25q_impl.c ****     HAL_GPIO_WritePin(FLASH_CS_GPIO_PORT, FLASH_CS_PIN, GPIO_PIN_SET);
 1763              		.loc 1 735 5 is_stmt 1 view .LVU527
 1764 0068 0122     		movs	r2, #1
 1765 006a 4021     		movs	r1, #64
 1766 006c 0748     		ldr	r0, .L118
 1767 006e FFF7FEFF 		bl	HAL_GPIO_WritePin
 1768              	.LVL136:
 736:../Core/Src/w25q_impl.c **** 
 737:../Core/Src/w25q_impl.c ****   w25q_delay(5);
 1769              		.loc 1 737 3 view .LVU528
 1770 0072 0520     		movs	r0, #5
 1771 0074 FFF7FEFF 		bl	w25q_delay
 1772              	.LVL137:
 738:../Core/Src/w25q_impl.c **** 
 739:../Core/Src/w25q_impl.c ****   return err;
 1773              		.loc 1 739 3 view .LVU529
 1774              	.L112:
ARM GAS  /tmp/ccCWBsCj.s 			page 48


 740:../Core/Src/w25q_impl.c **** }...
 1775              		.loc 1 740 1 is_stmt 0 view .LVU530
 1776 0078 2846     		mov	r0, r5
 1777 007a 15B0     		add	sp, sp, #84
 1778              	.LCFI43:
 1779              		.cfi_remember_state
 1780              		.cfi_def_cfa_offset 12
 1781              		@ sp needed
 1782 007c 30BD     		pop	{r4, r5, pc}
 1783              	.LVL138:
 1784              	.L114:
 1785              	.LCFI44:
 1786              		.cfi_restore_state
 688:../Core/Src/w25q_impl.c ****     return W25Q_ERR_CHIP;
 1787              		.loc 1 688 12 view .LVU531
 1788 007e 0325     		movs	r5, #3
 1789 0080 FAE7     		b	.L112
 1790              	.LVL139:
 1791              	.L115:
 723:../Core/Src/w25q_impl.c ****     return W25Q_ERR_SPI;
 1792              		.loc 1 723 12 view .LVU532
 1793 0082 0425     		movs	r5, #4
 1794 0084 F8E7     		b	.L112
 1795              	.L116:
 732:../Core/Src/w25q_impl.c ****     return W25Q_ERR_SPI;
 1796              		.loc 1 732 12 view .LVU533
 1797 0086 0425     		movs	r5, #4
 1798 0088 F6E7     		b	.L112
 1799              	.L119:
 1800 008a 00BF     		.align	2
 1801              	.L118:
 1802 008c 00180258 		.word	1476532224
 1803 0090 00000000 		.word	hospi1
 1804              		.cfi_endproc
 1805              	.LFE159:
 1807              		.text
 1808              	.Letext0:
 1809              		.file 2 "/usr/lib/gcc/arm-none-eabi/10.3.1/include/stdint.h"
 1810              		.file 3 "Drivers/CMSIS/Device/ST/STM32H7xx/Include/stm32h725xx.h"
 1811              		.file 4 "Drivers/STM32H7xx_HAL_Driver/Inc/stm32h7xx_hal_def.h"
 1812              		.file 5 "Drivers/STM32H7xx_HAL_Driver/Inc/stm32h7xx_hal_gpio.h"
 1813              		.file 6 "Drivers/STM32H7xx_HAL_Driver/Inc/stm32h7xx_hal_dma.h"
 1814              		.file 7 "Drivers/STM32H7xx_HAL_Driver/Inc/stm32h7xx_hal_mdma.h"
 1815              		.file 8 "Drivers/STM32H7xx_HAL_Driver/Inc/stm32h7xx_hal_ospi.h"
 1816              		.file 9 "Drivers/STM32H7xx_HAL_Driver/Inc/stm32h7xx_hal_uart.h"
 1817              		.file 10 "../Core/Include/w25q.h"
 1818              		.file 11 "../Core/Include/globals.h"
 1819              		.file 12 "../Core/FreeRTOS-Kernel/include/task.h"
 1820              		.file 13 "<built-in>"
ARM GAS  /tmp/ccCWBsCj.s 			page 49

