ARM GAS  /tmp/ccw4nXlO.s 			page 1


   1              		.cpu cortex-m7
   2              		.arch armv7e-m
   3              		.fpu fpv5-d16
   4              		.eabi_attribute 28, 1
   5              		.eabi_attribute 20, 1
   6              		.eabi_attribute 21, 1
   7              		.eabi_attribute 23, 3
   8              		.eabi_attribute 24, 1
   9              		.eabi_attribute 25, 1
  10              		.eabi_attribute 26, 1
  11              		.eabi_attribute 30, 1
  12              		.eabi_attribute 34, 1
  13              		.eabi_attribute 18, 4
  14              		.file	"stm32h7xx_hal_msp.c"
  15              		.text
  16              	.Ltext0:
  17              		.cfi_sections	.debug_frame
  18              		.file 1 "Core/Src/stm32h7xx_hal_msp.c"
  19              		.section	.text.HAL_MspInit,"ax",%progbits
  20              		.align	1
  21              		.global	HAL_MspInit
  22              		.syntax unified
  23              		.thumb
  24              		.thumb_func
  26              	HAL_MspInit:
  27              	.LFB144:
   1:Core/Src/stm32h7xx_hal_msp.c **** /* USER CODE BEGIN Header */
   2:Core/Src/stm32h7xx_hal_msp.c **** /**
   3:Core/Src/stm32h7xx_hal_msp.c ****   ******************************************************************************
   4:Core/Src/stm32h7xx_hal_msp.c ****   * @file         stm32h7xx_hal_msp.c
   5:Core/Src/stm32h7xx_hal_msp.c ****   * @brief        This file provides code for the MSP Initialization
   6:Core/Src/stm32h7xx_hal_msp.c ****   *               and de-Initialization codes.
   7:Core/Src/stm32h7xx_hal_msp.c ****   ******************************************************************************
   8:Core/Src/stm32h7xx_hal_msp.c ****   * @attention
   9:Core/Src/stm32h7xx_hal_msp.c ****   *
  10:Core/Src/stm32h7xx_hal_msp.c ****   * Copyright (c) 2024 STMicroelectronics.
  11:Core/Src/stm32h7xx_hal_msp.c ****   * All rights reserved.
  12:Core/Src/stm32h7xx_hal_msp.c ****   *
  13:Core/Src/stm32h7xx_hal_msp.c ****   * This software is licensed under terms that can be found in the LICENSE file
  14:Core/Src/stm32h7xx_hal_msp.c ****   * in the root directory of this software component.
  15:Core/Src/stm32h7xx_hal_msp.c ****   * If no LICENSE file comes with this software, it is provided AS-IS.
  16:Core/Src/stm32h7xx_hal_msp.c ****   *
  17:Core/Src/stm32h7xx_hal_msp.c ****   ******************************************************************************
  18:Core/Src/stm32h7xx_hal_msp.c ****   */
  19:Core/Src/stm32h7xx_hal_msp.c **** /* USER CODE END Header */
  20:Core/Src/stm32h7xx_hal_msp.c **** 
  21:Core/Src/stm32h7xx_hal_msp.c **** /* Includes ------------------------------------------------------------------*/
  22:Core/Src/stm32h7xx_hal_msp.c **** #include "main.h"
  23:Core/Src/stm32h7xx_hal_msp.c **** 
  24:Core/Src/stm32h7xx_hal_msp.c **** /* USER CODE BEGIN Includes */
  25:Core/Src/stm32h7xx_hal_msp.c **** 
  26:Core/Src/stm32h7xx_hal_msp.c **** /* USER CODE END Includes */
  27:Core/Src/stm32h7xx_hal_msp.c **** 
  28:Core/Src/stm32h7xx_hal_msp.c **** /* Private typedef -----------------------------------------------------------*/
  29:Core/Src/stm32h7xx_hal_msp.c **** /* USER CODE BEGIN TD */
  30:Core/Src/stm32h7xx_hal_msp.c **** 
  31:Core/Src/stm32h7xx_hal_msp.c **** /* USER CODE END TD */
ARM GAS  /tmp/ccw4nXlO.s 			page 2


  32:Core/Src/stm32h7xx_hal_msp.c **** 
  33:Core/Src/stm32h7xx_hal_msp.c **** /* Private define ------------------------------------------------------------*/
  34:Core/Src/stm32h7xx_hal_msp.c **** /* USER CODE BEGIN Define */
  35:Core/Src/stm32h7xx_hal_msp.c **** 
  36:Core/Src/stm32h7xx_hal_msp.c **** /* USER CODE END Define */
  37:Core/Src/stm32h7xx_hal_msp.c **** 
  38:Core/Src/stm32h7xx_hal_msp.c **** /* Private macro -------------------------------------------------------------*/
  39:Core/Src/stm32h7xx_hal_msp.c **** /* USER CODE BEGIN Macro */
  40:Core/Src/stm32h7xx_hal_msp.c **** 
  41:Core/Src/stm32h7xx_hal_msp.c **** /* USER CODE END Macro */
  42:Core/Src/stm32h7xx_hal_msp.c **** 
  43:Core/Src/stm32h7xx_hal_msp.c **** /* Private variables ---------------------------------------------------------*/
  44:Core/Src/stm32h7xx_hal_msp.c **** /* USER CODE BEGIN PV */
  45:Core/Src/stm32h7xx_hal_msp.c **** 
  46:Core/Src/stm32h7xx_hal_msp.c **** /* USER CODE END PV */
  47:Core/Src/stm32h7xx_hal_msp.c **** 
  48:Core/Src/stm32h7xx_hal_msp.c **** /* Private function prototypes -----------------------------------------------*/
  49:Core/Src/stm32h7xx_hal_msp.c **** /* USER CODE BEGIN PFP */
  50:Core/Src/stm32h7xx_hal_msp.c **** 
  51:Core/Src/stm32h7xx_hal_msp.c **** /* USER CODE END PFP */
  52:Core/Src/stm32h7xx_hal_msp.c **** 
  53:Core/Src/stm32h7xx_hal_msp.c **** /* External functions --------------------------------------------------------*/
  54:Core/Src/stm32h7xx_hal_msp.c **** /* USER CODE BEGIN ExternalFunctions */
  55:Core/Src/stm32h7xx_hal_msp.c **** 
  56:Core/Src/stm32h7xx_hal_msp.c **** /* USER CODE END ExternalFunctions */
  57:Core/Src/stm32h7xx_hal_msp.c **** 
  58:Core/Src/stm32h7xx_hal_msp.c **** /* USER CODE BEGIN 0 */
  59:Core/Src/stm32h7xx_hal_msp.c **** 
  60:Core/Src/stm32h7xx_hal_msp.c **** /* USER CODE END 0 */
  61:Core/Src/stm32h7xx_hal_msp.c **** /**
  62:Core/Src/stm32h7xx_hal_msp.c ****   * Initializes the Global MSP.
  63:Core/Src/stm32h7xx_hal_msp.c ****   */
  64:Core/Src/stm32h7xx_hal_msp.c **** void HAL_MspInit(void)
  65:Core/Src/stm32h7xx_hal_msp.c **** {
  28              		.loc 1 65 1 view -0
  29              		.cfi_startproc
  30              		@ args = 0, pretend = 0, frame = 8
  31              		@ frame_needed = 0, uses_anonymous_args = 0
  32              		@ link register save eliminated.
  33 0000 82B0     		sub	sp, sp, #8
  34              		.cfi_def_cfa_offset 8
  66:Core/Src/stm32h7xx_hal_msp.c ****   /* USER CODE BEGIN MspInit 0 */
  67:Core/Src/stm32h7xx_hal_msp.c **** 
  68:Core/Src/stm32h7xx_hal_msp.c ****   /* USER CODE END MspInit 0 */
  69:Core/Src/stm32h7xx_hal_msp.c **** 
  70:Core/Src/stm32h7xx_hal_msp.c ****   __HAL_RCC_SYSCFG_CLK_ENABLE();
  35              		.loc 1 70 3 view .LVU1
  36              	.LBB2:
  37              		.loc 1 70 3 view .LVU2
  38              		.loc 1 70 3 view .LVU3
  39 0002 074B     		ldr	r3, .L3
  40 0004 D3F8F420 		ldr	r2, [r3, #244]
  41 0008 42F00202 		orr	r2, r2, #2
  42 000c C3F8F420 		str	r2, [r3, #244]
  43              		.loc 1 70 3 view .LVU4
  44 0010 D3F8F430 		ldr	r3, [r3, #244]
  45 0014 03F00203 		and	r3, r3, #2
ARM GAS  /tmp/ccw4nXlO.s 			page 3


  46 0018 0193     		str	r3, [sp, #4]
  47              		.loc 1 70 3 view .LVU5
  48 001a 019B     		ldr	r3, [sp, #4]
  49              	.LBE2:
  50              		.loc 1 70 3 view .LVU6
  71:Core/Src/stm32h7xx_hal_msp.c **** 
  72:Core/Src/stm32h7xx_hal_msp.c ****   /* System interrupt init*/
  73:Core/Src/stm32h7xx_hal_msp.c **** 
  74:Core/Src/stm32h7xx_hal_msp.c ****   /* USER CODE BEGIN MspInit 1 */
  75:Core/Src/stm32h7xx_hal_msp.c **** 
  76:Core/Src/stm32h7xx_hal_msp.c ****   /* USER CODE END MspInit 1 */
  77:Core/Src/stm32h7xx_hal_msp.c **** }
  51              		.loc 1 77 1 is_stmt 0 view .LVU7
  52 001c 02B0     		add	sp, sp, #8
  53              		.cfi_def_cfa_offset 0
  54              		@ sp needed
  55 001e 7047     		bx	lr
  56              	.L4:
  57              		.align	2
  58              	.L3:
  59 0020 00440258 		.word	1476543488
  60              		.cfi_endproc
  61              	.LFE144:
  63              		.section	.text.HAL_I2C_MspInit,"ax",%progbits
  64              		.align	1
  65              		.global	HAL_I2C_MspInit
  66              		.syntax unified
  67              		.thumb
  68              		.thumb_func
  70              	HAL_I2C_MspInit:
  71              	.LVL0:
  72              	.LFB145:
  78:Core/Src/stm32h7xx_hal_msp.c **** 
  79:Core/Src/stm32h7xx_hal_msp.c **** /**
  80:Core/Src/stm32h7xx_hal_msp.c **** * @brief I2C MSP Initialization
  81:Core/Src/stm32h7xx_hal_msp.c **** * This function configures the hardware resources used in this example
  82:Core/Src/stm32h7xx_hal_msp.c **** * @param hi2c: I2C handle pointer
  83:Core/Src/stm32h7xx_hal_msp.c **** * @retval None
  84:Core/Src/stm32h7xx_hal_msp.c **** */
  85:Core/Src/stm32h7xx_hal_msp.c **** void HAL_I2C_MspInit(I2C_HandleTypeDef* hi2c)
  86:Core/Src/stm32h7xx_hal_msp.c **** {
  73              		.loc 1 86 1 is_stmt 1 view -0
  74              		.cfi_startproc
  75              		@ args = 0, pretend = 0, frame = 216
  76              		@ frame_needed = 0, uses_anonymous_args = 0
  77              		.loc 1 86 1 is_stmt 0 view .LVU9
  78 0000 10B5     		push	{r4, lr}
  79              		.cfi_def_cfa_offset 8
  80              		.cfi_offset 4, -8
  81              		.cfi_offset 14, -4
  82 0002 B6B0     		sub	sp, sp, #216
  83              		.cfi_def_cfa_offset 224
  84 0004 0446     		mov	r4, r0
  87:Core/Src/stm32h7xx_hal_msp.c ****   GPIO_InitTypeDef GPIO_InitStruct = {0};
  85              		.loc 1 87 3 is_stmt 1 view .LVU10
  86              		.loc 1 87 20 is_stmt 0 view .LVU11
  87 0006 0021     		movs	r1, #0
ARM GAS  /tmp/ccw4nXlO.s 			page 4


  88 0008 3191     		str	r1, [sp, #196]
  89 000a 3291     		str	r1, [sp, #200]
  90 000c 3391     		str	r1, [sp, #204]
  91 000e 3491     		str	r1, [sp, #208]
  92 0010 3591     		str	r1, [sp, #212]
  88:Core/Src/stm32h7xx_hal_msp.c ****   RCC_PeriphCLKInitTypeDef PeriphClkInitStruct = {0};
  93              		.loc 1 88 3 is_stmt 1 view .LVU12
  94              		.loc 1 88 28 is_stmt 0 view .LVU13
  95 0012 B822     		movs	r2, #184
  96 0014 02A8     		add	r0, sp, #8
  97              	.LVL1:
  98              		.loc 1 88 28 view .LVU14
  99 0016 FFF7FEFF 		bl	memset
 100              	.LVL2:
  89:Core/Src/stm32h7xx_hal_msp.c ****   if(hi2c->Instance==I2C4)
 101              		.loc 1 89 3 is_stmt 1 view .LVU15
 102              		.loc 1 89 10 is_stmt 0 view .LVU16
 103 001a 2268     		ldr	r2, [r4]
 104              		.loc 1 89 5 view .LVU17
 105 001c 1B4B     		ldr	r3, .L11
 106 001e 9A42     		cmp	r2, r3
 107 0020 01D0     		beq	.L9
 108              	.LVL3:
 109              	.L5:
  90:Core/Src/stm32h7xx_hal_msp.c ****   {
  91:Core/Src/stm32h7xx_hal_msp.c ****   /* USER CODE BEGIN I2C4_MspInit 0 */
  92:Core/Src/stm32h7xx_hal_msp.c **** 
  93:Core/Src/stm32h7xx_hal_msp.c ****   /* USER CODE END I2C4_MspInit 0 */
  94:Core/Src/stm32h7xx_hal_msp.c **** 
  95:Core/Src/stm32h7xx_hal_msp.c ****   /** Initializes the peripherals clock
  96:Core/Src/stm32h7xx_hal_msp.c ****   */
  97:Core/Src/stm32h7xx_hal_msp.c ****     PeriphClkInitStruct.PeriphClockSelection = RCC_PERIPHCLK_I2C4;
  98:Core/Src/stm32h7xx_hal_msp.c ****     PeriphClkInitStruct.I2c4ClockSelection = RCC_I2C4CLKSOURCE_D3PCLK1;
  99:Core/Src/stm32h7xx_hal_msp.c ****     if (HAL_RCCEx_PeriphCLKConfig(&PeriphClkInitStruct) != HAL_OK)
 100:Core/Src/stm32h7xx_hal_msp.c ****     {
 101:Core/Src/stm32h7xx_hal_msp.c ****       Error_Handler();
 102:Core/Src/stm32h7xx_hal_msp.c ****     }
 103:Core/Src/stm32h7xx_hal_msp.c **** 
 104:Core/Src/stm32h7xx_hal_msp.c ****     __HAL_RCC_GPIOD_CLK_ENABLE();
 105:Core/Src/stm32h7xx_hal_msp.c ****     /**I2C4 GPIO Configuration
 106:Core/Src/stm32h7xx_hal_msp.c ****     PD12     ------> I2C4_SCL
 107:Core/Src/stm32h7xx_hal_msp.c ****     PD13     ------> I2C4_SDA
 108:Core/Src/stm32h7xx_hal_msp.c ****     */
 109:Core/Src/stm32h7xx_hal_msp.c ****     GPIO_InitStruct.Pin = GPIO_PIN_12|GPIO_PIN_13;
 110:Core/Src/stm32h7xx_hal_msp.c ****     GPIO_InitStruct.Mode = GPIO_MODE_AF_OD;
 111:Core/Src/stm32h7xx_hal_msp.c ****     GPIO_InitStruct.Pull = GPIO_NOPULL;
 112:Core/Src/stm32h7xx_hal_msp.c ****     GPIO_InitStruct.Speed = GPIO_SPEED_FREQ_LOW;
 113:Core/Src/stm32h7xx_hal_msp.c ****     GPIO_InitStruct.Alternate = GPIO_AF4_I2C4;
 114:Core/Src/stm32h7xx_hal_msp.c ****     HAL_GPIO_Init(GPIOD, &GPIO_InitStruct);
 115:Core/Src/stm32h7xx_hal_msp.c **** 
 116:Core/Src/stm32h7xx_hal_msp.c ****     /* Peripheral clock enable */
 117:Core/Src/stm32h7xx_hal_msp.c ****     __HAL_RCC_I2C4_CLK_ENABLE();
 118:Core/Src/stm32h7xx_hal_msp.c ****   /* USER CODE BEGIN I2C4_MspInit 1 */
 119:Core/Src/stm32h7xx_hal_msp.c **** 
 120:Core/Src/stm32h7xx_hal_msp.c ****   /* USER CODE END I2C4_MspInit 1 */
 121:Core/Src/stm32h7xx_hal_msp.c ****   }
 122:Core/Src/stm32h7xx_hal_msp.c **** 
ARM GAS  /tmp/ccw4nXlO.s 			page 5


 123:Core/Src/stm32h7xx_hal_msp.c **** }
 110              		.loc 1 123 1 view .LVU18
 111 0022 36B0     		add	sp, sp, #216
 112              		.cfi_remember_state
 113              		.cfi_def_cfa_offset 8
 114              		@ sp needed
 115 0024 10BD     		pop	{r4, pc}
 116              	.LVL4:
 117              	.L9:
 118              		.cfi_restore_state
  97:Core/Src/stm32h7xx_hal_msp.c ****     PeriphClkInitStruct.I2c4ClockSelection = RCC_I2C4CLKSOURCE_D3PCLK1;
 119              		.loc 1 97 5 is_stmt 1 view .LVU19
  97:Core/Src/stm32h7xx_hal_msp.c ****     PeriphClkInitStruct.I2c4ClockSelection = RCC_I2C4CLKSOURCE_D3PCLK1;
 120              		.loc 1 97 46 is_stmt 0 view .LVU20
 121 0026 1022     		movs	r2, #16
 122 0028 0023     		movs	r3, #0
 123 002a CDE90223 		strd	r2, [sp, #8]
  98:Core/Src/stm32h7xx_hal_msp.c ****     if (HAL_RCCEx_PeriphCLKConfig(&PeriphClkInitStruct) != HAL_OK)
 124              		.loc 1 98 5 is_stmt 1 view .LVU21
  99:Core/Src/stm32h7xx_hal_msp.c ****     {
 125              		.loc 1 99 5 view .LVU22
  99:Core/Src/stm32h7xx_hal_msp.c ****     {
 126              		.loc 1 99 9 is_stmt 0 view .LVU23
 127 002e 02A8     		add	r0, sp, #8
 128 0030 FFF7FEFF 		bl	HAL_RCCEx_PeriphCLKConfig
 129              	.LVL5:
  99:Core/Src/stm32h7xx_hal_msp.c ****     {
 130              		.loc 1 99 8 discriminator 1 view .LVU24
 131 0034 38BB     		cbnz	r0, .L10
 132              	.L7:
 104:Core/Src/stm32h7xx_hal_msp.c ****     /**I2C4 GPIO Configuration
 133              		.loc 1 104 5 is_stmt 1 view .LVU25
 134              	.LBB3:
 104:Core/Src/stm32h7xx_hal_msp.c ****     /**I2C4 GPIO Configuration
 135              		.loc 1 104 5 view .LVU26
 104:Core/Src/stm32h7xx_hal_msp.c ****     /**I2C4 GPIO Configuration
 136              		.loc 1 104 5 view .LVU27
 137 0036 164C     		ldr	r4, .L11+4
 138              	.LVL6:
 104:Core/Src/stm32h7xx_hal_msp.c ****     /**I2C4 GPIO Configuration
 139              		.loc 1 104 5 is_stmt 0 view .LVU28
 140 0038 D4F8E030 		ldr	r3, [r4, #224]
 141 003c 43F00803 		orr	r3, r3, #8
 142 0040 C4F8E030 		str	r3, [r4, #224]
 104:Core/Src/stm32h7xx_hal_msp.c ****     /**I2C4 GPIO Configuration
 143              		.loc 1 104 5 is_stmt 1 view .LVU29
 144 0044 D4F8E030 		ldr	r3, [r4, #224]
 145 0048 03F00803 		and	r3, r3, #8
 146 004c 0093     		str	r3, [sp]
 104:Core/Src/stm32h7xx_hal_msp.c ****     /**I2C4 GPIO Configuration
 147              		.loc 1 104 5 view .LVU30
 148 004e 009B     		ldr	r3, [sp]
 149              	.LBE3:
 104:Core/Src/stm32h7xx_hal_msp.c ****     /**I2C4 GPIO Configuration
 150              		.loc 1 104 5 view .LVU31
 109:Core/Src/stm32h7xx_hal_msp.c ****     GPIO_InitStruct.Mode = GPIO_MODE_AF_OD;
 151              		.loc 1 109 5 view .LVU32
ARM GAS  /tmp/ccw4nXlO.s 			page 6


 109:Core/Src/stm32h7xx_hal_msp.c ****     GPIO_InitStruct.Mode = GPIO_MODE_AF_OD;
 152              		.loc 1 109 25 is_stmt 0 view .LVU33
 153 0050 4FF44053 		mov	r3, #12288
 154 0054 3193     		str	r3, [sp, #196]
 110:Core/Src/stm32h7xx_hal_msp.c ****     GPIO_InitStruct.Pull = GPIO_NOPULL;
 155              		.loc 1 110 5 is_stmt 1 view .LVU34
 110:Core/Src/stm32h7xx_hal_msp.c ****     GPIO_InitStruct.Pull = GPIO_NOPULL;
 156              		.loc 1 110 26 is_stmt 0 view .LVU35
 157 0056 1223     		movs	r3, #18
 158 0058 3293     		str	r3, [sp, #200]
 111:Core/Src/stm32h7xx_hal_msp.c ****     GPIO_InitStruct.Speed = GPIO_SPEED_FREQ_LOW;
 159              		.loc 1 111 5 is_stmt 1 view .LVU36
 111:Core/Src/stm32h7xx_hal_msp.c ****     GPIO_InitStruct.Speed = GPIO_SPEED_FREQ_LOW;
 160              		.loc 1 111 26 is_stmt 0 view .LVU37
 161 005a 0023     		movs	r3, #0
 162 005c 3393     		str	r3, [sp, #204]
 112:Core/Src/stm32h7xx_hal_msp.c ****     GPIO_InitStruct.Alternate = GPIO_AF4_I2C4;
 163              		.loc 1 112 5 is_stmt 1 view .LVU38
 112:Core/Src/stm32h7xx_hal_msp.c ****     GPIO_InitStruct.Alternate = GPIO_AF4_I2C4;
 164              		.loc 1 112 27 is_stmt 0 view .LVU39
 165 005e 3493     		str	r3, [sp, #208]
 113:Core/Src/stm32h7xx_hal_msp.c ****     HAL_GPIO_Init(GPIOD, &GPIO_InitStruct);
 166              		.loc 1 113 5 is_stmt 1 view .LVU40
 113:Core/Src/stm32h7xx_hal_msp.c ****     HAL_GPIO_Init(GPIOD, &GPIO_InitStruct);
 167              		.loc 1 113 31 is_stmt 0 view .LVU41
 168 0060 0423     		movs	r3, #4
 169 0062 3593     		str	r3, [sp, #212]
 114:Core/Src/stm32h7xx_hal_msp.c **** 
 170              		.loc 1 114 5 is_stmt 1 view .LVU42
 171 0064 31A9     		add	r1, sp, #196
 172 0066 0B48     		ldr	r0, .L11+8
 173 0068 FFF7FEFF 		bl	HAL_GPIO_Init
 174              	.LVL7:
 117:Core/Src/stm32h7xx_hal_msp.c ****   /* USER CODE BEGIN I2C4_MspInit 1 */
 175              		.loc 1 117 5 view .LVU43
 176              	.LBB4:
 117:Core/Src/stm32h7xx_hal_msp.c ****   /* USER CODE BEGIN I2C4_MspInit 1 */
 177              		.loc 1 117 5 view .LVU44
 117:Core/Src/stm32h7xx_hal_msp.c ****   /* USER CODE BEGIN I2C4_MspInit 1 */
 178              		.loc 1 117 5 view .LVU45
 179 006c D4F8F430 		ldr	r3, [r4, #244]
 180 0070 43F08003 		orr	r3, r3, #128
 181 0074 C4F8F430 		str	r3, [r4, #244]
 117:Core/Src/stm32h7xx_hal_msp.c ****   /* USER CODE BEGIN I2C4_MspInit 1 */
 182              		.loc 1 117 5 view .LVU46
 183 0078 D4F8F430 		ldr	r3, [r4, #244]
 184 007c 03F08003 		and	r3, r3, #128
 185 0080 0193     		str	r3, [sp, #4]
 117:Core/Src/stm32h7xx_hal_msp.c ****   /* USER CODE BEGIN I2C4_MspInit 1 */
 186              		.loc 1 117 5 view .LVU47
 187 0082 019B     		ldr	r3, [sp, #4]
 188              	.LBE4:
 117:Core/Src/stm32h7xx_hal_msp.c ****   /* USER CODE BEGIN I2C4_MspInit 1 */
 189              		.loc 1 117 5 discriminator 1 view .LVU48
 190              		.loc 1 123 1 is_stmt 0 view .LVU49
 191 0084 CDE7     		b	.L5
 192              	.LVL8:
ARM GAS  /tmp/ccw4nXlO.s 			page 7


 193              	.L10:
 101:Core/Src/stm32h7xx_hal_msp.c ****     }
 194              		.loc 1 101 7 is_stmt 1 view .LVU50
 195 0086 FFF7FEFF 		bl	Error_Handler
 196              	.LVL9:
 197 008a D4E7     		b	.L7
 198              	.L12:
 199              		.align	2
 200              	.L11:
 201 008c 001C0058 		.word	1476402176
 202 0090 00440258 		.word	1476543488
 203 0094 000C0258 		.word	1476529152
 204              		.cfi_endproc
 205              	.LFE145:
 207              		.section	.text.HAL_I2C_MspDeInit,"ax",%progbits
 208              		.align	1
 209              		.global	HAL_I2C_MspDeInit
 210              		.syntax unified
 211              		.thumb
 212              		.thumb_func
 214              	HAL_I2C_MspDeInit:
 215              	.LVL10:
 216              	.LFB146:
 124:Core/Src/stm32h7xx_hal_msp.c **** 
 125:Core/Src/stm32h7xx_hal_msp.c **** /**
 126:Core/Src/stm32h7xx_hal_msp.c **** * @brief I2C MSP De-Initialization
 127:Core/Src/stm32h7xx_hal_msp.c **** * This function freeze the hardware resources used in this example
 128:Core/Src/stm32h7xx_hal_msp.c **** * @param hi2c: I2C handle pointer
 129:Core/Src/stm32h7xx_hal_msp.c **** * @retval None
 130:Core/Src/stm32h7xx_hal_msp.c **** */
 131:Core/Src/stm32h7xx_hal_msp.c **** void HAL_I2C_MspDeInit(I2C_HandleTypeDef* hi2c)
 132:Core/Src/stm32h7xx_hal_msp.c **** {
 217              		.loc 1 132 1 view -0
 218              		.cfi_startproc
 219              		@ args = 0, pretend = 0, frame = 0
 220              		@ frame_needed = 0, uses_anonymous_args = 0
 133:Core/Src/stm32h7xx_hal_msp.c ****   if(hi2c->Instance==I2C4)
 221              		.loc 1 133 3 view .LVU52
 222              		.loc 1 133 10 is_stmt 0 view .LVU53
 223 0000 0268     		ldr	r2, [r0]
 224              		.loc 1 133 5 view .LVU54
 225 0002 0C4B     		ldr	r3, .L20
 226 0004 9A42     		cmp	r2, r3
 227 0006 00D0     		beq	.L19
 228 0008 7047     		bx	lr
 229              	.L19:
 132:Core/Src/stm32h7xx_hal_msp.c ****   if(hi2c->Instance==I2C4)
 230              		.loc 1 132 1 view .LVU55
 231 000a 10B5     		push	{r4, lr}
 232              		.cfi_def_cfa_offset 8
 233              		.cfi_offset 4, -8
 234              		.cfi_offset 14, -4
 134:Core/Src/stm32h7xx_hal_msp.c ****   {
 135:Core/Src/stm32h7xx_hal_msp.c ****   /* USER CODE BEGIN I2C4_MspDeInit 0 */
 136:Core/Src/stm32h7xx_hal_msp.c **** 
 137:Core/Src/stm32h7xx_hal_msp.c ****   /* USER CODE END I2C4_MspDeInit 0 */
 138:Core/Src/stm32h7xx_hal_msp.c ****     /* Peripheral clock disable */
ARM GAS  /tmp/ccw4nXlO.s 			page 8


 139:Core/Src/stm32h7xx_hal_msp.c ****     __HAL_RCC_I2C4_CLK_DISABLE();
 235              		.loc 1 139 5 is_stmt 1 view .LVU56
 236 000c 0A4A     		ldr	r2, .L20+4
 237 000e D2F8F430 		ldr	r3, [r2, #244]
 238 0012 23F08003 		bic	r3, r3, #128
 239 0016 C2F8F430 		str	r3, [r2, #244]
 140:Core/Src/stm32h7xx_hal_msp.c **** 
 141:Core/Src/stm32h7xx_hal_msp.c ****     /**I2C4 GPIO Configuration
 142:Core/Src/stm32h7xx_hal_msp.c ****     PD12     ------> I2C4_SCL
 143:Core/Src/stm32h7xx_hal_msp.c ****     PD13     ------> I2C4_SDA
 144:Core/Src/stm32h7xx_hal_msp.c ****     */
 145:Core/Src/stm32h7xx_hal_msp.c ****     HAL_GPIO_DeInit(GPIOD, GPIO_PIN_12);
 240              		.loc 1 145 5 view .LVU57
 241 001a 084C     		ldr	r4, .L20+8
 242 001c 4FF48051 		mov	r1, #4096
 243 0020 2046     		mov	r0, r4
 244              	.LVL11:
 245              		.loc 1 145 5 is_stmt 0 view .LVU58
 246 0022 FFF7FEFF 		bl	HAL_GPIO_DeInit
 247              	.LVL12:
 146:Core/Src/stm32h7xx_hal_msp.c **** 
 147:Core/Src/stm32h7xx_hal_msp.c ****     HAL_GPIO_DeInit(GPIOD, GPIO_PIN_13);
 248              		.loc 1 147 5 is_stmt 1 view .LVU59
 249 0026 4FF40051 		mov	r1, #8192
 250 002a 2046     		mov	r0, r4
 251 002c FFF7FEFF 		bl	HAL_GPIO_DeInit
 252              	.LVL13:
 148:Core/Src/stm32h7xx_hal_msp.c **** 
 149:Core/Src/stm32h7xx_hal_msp.c ****   /* USER CODE BEGIN I2C4_MspDeInit 1 */
 150:Core/Src/stm32h7xx_hal_msp.c **** 
 151:Core/Src/stm32h7xx_hal_msp.c ****   /* USER CODE END I2C4_MspDeInit 1 */
 152:Core/Src/stm32h7xx_hal_msp.c ****   }
 153:Core/Src/stm32h7xx_hal_msp.c **** 
 154:Core/Src/stm32h7xx_hal_msp.c **** }
 253              		.loc 1 154 1 is_stmt 0 view .LVU60
 254 0030 10BD     		pop	{r4, pc}
 255              	.L21:
 256 0032 00BF     		.align	2
 257              	.L20:
 258 0034 001C0058 		.word	1476402176
 259 0038 00440258 		.word	1476543488
 260 003c 000C0258 		.word	1476529152
 261              		.cfi_endproc
 262              	.LFE146:
 264              		.section	.text.HAL_SPI_MspInit,"ax",%progbits
 265              		.align	1
 266              		.global	HAL_SPI_MspInit
 267              		.syntax unified
 268              		.thumb
 269              		.thumb_func
 271              	HAL_SPI_MspInit:
 272              	.LVL14:
 273              	.LFB147:
 155:Core/Src/stm32h7xx_hal_msp.c **** 
 156:Core/Src/stm32h7xx_hal_msp.c **** /**
 157:Core/Src/stm32h7xx_hal_msp.c **** * @brief SPI MSP Initialization
 158:Core/Src/stm32h7xx_hal_msp.c **** * This function configures the hardware resources used in this example
ARM GAS  /tmp/ccw4nXlO.s 			page 9


 159:Core/Src/stm32h7xx_hal_msp.c **** * @param hspi: SPI handle pointer
 160:Core/Src/stm32h7xx_hal_msp.c **** * @retval None
 161:Core/Src/stm32h7xx_hal_msp.c **** */
 162:Core/Src/stm32h7xx_hal_msp.c **** void HAL_SPI_MspInit(SPI_HandleTypeDef* hspi)
 163:Core/Src/stm32h7xx_hal_msp.c **** {
 274              		.loc 1 163 1 is_stmt 1 view -0
 275              		.cfi_startproc
 276              		@ args = 0, pretend = 0, frame = 256
 277              		@ frame_needed = 0, uses_anonymous_args = 0
 278              		.loc 1 163 1 is_stmt 0 view .LVU62
 279 0000 70B5     		push	{r4, r5, r6, lr}
 280              		.cfi_def_cfa_offset 16
 281              		.cfi_offset 4, -16
 282              		.cfi_offset 5, -12
 283              		.cfi_offset 6, -8
 284              		.cfi_offset 14, -4
 285 0002 C0B0     		sub	sp, sp, #256
 286              		.cfi_def_cfa_offset 272
 287 0004 0446     		mov	r4, r0
 164:Core/Src/stm32h7xx_hal_msp.c ****   GPIO_InitTypeDef GPIO_InitStruct = {0};
 288              		.loc 1 164 3 is_stmt 1 view .LVU63
 289              		.loc 1 164 20 is_stmt 0 view .LVU64
 290 0006 0021     		movs	r1, #0
 291 0008 3B91     		str	r1, [sp, #236]
 292 000a 3C91     		str	r1, [sp, #240]
 293 000c 3D91     		str	r1, [sp, #244]
 294 000e 3E91     		str	r1, [sp, #248]
 295 0010 3F91     		str	r1, [sp, #252]
 165:Core/Src/stm32h7xx_hal_msp.c ****   RCC_PeriphCLKInitTypeDef PeriphClkInitStruct = {0};
 296              		.loc 1 165 3 is_stmt 1 view .LVU65
 297              		.loc 1 165 28 is_stmt 0 view .LVU66
 298 0012 B822     		movs	r2, #184
 299 0014 0CA8     		add	r0, sp, #48
 300              	.LVL15:
 301              		.loc 1 165 28 view .LVU67
 302 0016 FFF7FEFF 		bl	memset
 303              	.LVL16:
 166:Core/Src/stm32h7xx_hal_msp.c ****   if(hspi->Instance==SPI2)
 304              		.loc 1 166 3 is_stmt 1 view .LVU68
 305              		.loc 1 166 10 is_stmt 0 view .LVU69
 306 001a 2368     		ldr	r3, [r4]
 307              		.loc 1 166 5 view .LVU70
 308 001c 974A     		ldr	r2, .L40
 309 001e 9342     		cmp	r3, r2
 310 0020 0CD0     		beq	.L32
 167:Core/Src/stm32h7xx_hal_msp.c ****   {
 168:Core/Src/stm32h7xx_hal_msp.c ****   /* USER CODE BEGIN SPI2_MspInit 0 */
 169:Core/Src/stm32h7xx_hal_msp.c **** 
 170:Core/Src/stm32h7xx_hal_msp.c ****   /* USER CODE END SPI2_MspInit 0 */
 171:Core/Src/stm32h7xx_hal_msp.c **** 
 172:Core/Src/stm32h7xx_hal_msp.c ****   /** Initializes the peripherals clock
 173:Core/Src/stm32h7xx_hal_msp.c ****   */
 174:Core/Src/stm32h7xx_hal_msp.c ****     PeriphClkInitStruct.PeriphClockSelection = RCC_PERIPHCLK_SPI2;
 175:Core/Src/stm32h7xx_hal_msp.c ****     PeriphClkInitStruct.Spi123ClockSelection = RCC_SPI123CLKSOURCE_PLL;
 176:Core/Src/stm32h7xx_hal_msp.c ****     if (HAL_RCCEx_PeriphCLKConfig(&PeriphClkInitStruct) != HAL_OK)
 177:Core/Src/stm32h7xx_hal_msp.c ****     {
 178:Core/Src/stm32h7xx_hal_msp.c ****       Error_Handler();
ARM GAS  /tmp/ccw4nXlO.s 			page 10


 179:Core/Src/stm32h7xx_hal_msp.c ****     }
 180:Core/Src/stm32h7xx_hal_msp.c **** 
 181:Core/Src/stm32h7xx_hal_msp.c ****     /* Peripheral clock enable */
 182:Core/Src/stm32h7xx_hal_msp.c ****     __HAL_RCC_SPI2_CLK_ENABLE();
 183:Core/Src/stm32h7xx_hal_msp.c **** 
 184:Core/Src/stm32h7xx_hal_msp.c ****     __HAL_RCC_GPIOC_CLK_ENABLE();
 185:Core/Src/stm32h7xx_hal_msp.c ****     __HAL_RCC_GPIOB_CLK_ENABLE();
 186:Core/Src/stm32h7xx_hal_msp.c ****     /**SPI2 GPIO Configuration
 187:Core/Src/stm32h7xx_hal_msp.c ****     PC1     ------> SPI2_MOSI
 188:Core/Src/stm32h7xx_hal_msp.c ****     PC2_C     ------> SPI2_MISO
 189:Core/Src/stm32h7xx_hal_msp.c ****     PB12     ------> SPI2_NSS
 190:Core/Src/stm32h7xx_hal_msp.c ****     PB13     ------> SPI2_SCK
 191:Core/Src/stm32h7xx_hal_msp.c ****     */
 192:Core/Src/stm32h7xx_hal_msp.c ****     GPIO_InitStruct.Pin = GPIO_PIN_1|GPIO_PIN_2;
 193:Core/Src/stm32h7xx_hal_msp.c ****     GPIO_InitStruct.Mode = GPIO_MODE_AF_PP;
 194:Core/Src/stm32h7xx_hal_msp.c ****     GPIO_InitStruct.Pull = GPIO_NOPULL;
 195:Core/Src/stm32h7xx_hal_msp.c ****     GPIO_InitStruct.Speed = GPIO_SPEED_FREQ_LOW;
 196:Core/Src/stm32h7xx_hal_msp.c ****     GPIO_InitStruct.Alternate = GPIO_AF5_SPI2;
 197:Core/Src/stm32h7xx_hal_msp.c ****     HAL_GPIO_Init(GPIOC, &GPIO_InitStruct);
 198:Core/Src/stm32h7xx_hal_msp.c **** 
 199:Core/Src/stm32h7xx_hal_msp.c ****     GPIO_InitStruct.Pin = GPIO_PIN_12|GPIO_PIN_13;
 200:Core/Src/stm32h7xx_hal_msp.c ****     GPIO_InitStruct.Mode = GPIO_MODE_AF_PP;
 201:Core/Src/stm32h7xx_hal_msp.c ****     GPIO_InitStruct.Pull = GPIO_NOPULL;
 202:Core/Src/stm32h7xx_hal_msp.c ****     GPIO_InitStruct.Speed = GPIO_SPEED_FREQ_LOW;
 203:Core/Src/stm32h7xx_hal_msp.c ****     GPIO_InitStruct.Alternate = GPIO_AF5_SPI2;
 204:Core/Src/stm32h7xx_hal_msp.c ****     HAL_GPIO_Init(GPIOB, &GPIO_InitStruct);
 205:Core/Src/stm32h7xx_hal_msp.c **** 
 206:Core/Src/stm32h7xx_hal_msp.c ****   /* USER CODE BEGIN SPI2_MspInit 1 */
 207:Core/Src/stm32h7xx_hal_msp.c **** 
 208:Core/Src/stm32h7xx_hal_msp.c ****   /* USER CODE END SPI2_MspInit 1 */
 209:Core/Src/stm32h7xx_hal_msp.c ****   }
 210:Core/Src/stm32h7xx_hal_msp.c ****   else if(hspi->Instance==SPI3)
 311              		.loc 1 210 8 is_stmt 1 view .LVU71
 312              		.loc 1 210 10 is_stmt 0 view .LVU72
 313 0022 974A     		ldr	r2, .L40+4
 314 0024 9342     		cmp	r3, r2
 315 0026 54D0     		beq	.L33
 211:Core/Src/stm32h7xx_hal_msp.c ****   {
 212:Core/Src/stm32h7xx_hal_msp.c ****   /* USER CODE BEGIN SPI3_MspInit 0 */
 213:Core/Src/stm32h7xx_hal_msp.c **** 
 214:Core/Src/stm32h7xx_hal_msp.c ****   /* USER CODE END SPI3_MspInit 0 */
 215:Core/Src/stm32h7xx_hal_msp.c **** 
 216:Core/Src/stm32h7xx_hal_msp.c ****   /** Initializes the peripherals clock
 217:Core/Src/stm32h7xx_hal_msp.c ****   */
 218:Core/Src/stm32h7xx_hal_msp.c ****     PeriphClkInitStruct.PeriphClockSelection = RCC_PERIPHCLK_SPI3;
 219:Core/Src/stm32h7xx_hal_msp.c ****     PeriphClkInitStruct.Spi123ClockSelection = RCC_SPI123CLKSOURCE_PLL;
 220:Core/Src/stm32h7xx_hal_msp.c ****     if (HAL_RCCEx_PeriphCLKConfig(&PeriphClkInitStruct) != HAL_OK)
 221:Core/Src/stm32h7xx_hal_msp.c ****     {
 222:Core/Src/stm32h7xx_hal_msp.c ****       Error_Handler();
 223:Core/Src/stm32h7xx_hal_msp.c ****     }
 224:Core/Src/stm32h7xx_hal_msp.c **** 
 225:Core/Src/stm32h7xx_hal_msp.c ****     /* Peripheral clock enable */
 226:Core/Src/stm32h7xx_hal_msp.c ****     __HAL_RCC_SPI3_CLK_ENABLE();
 227:Core/Src/stm32h7xx_hal_msp.c **** 
 228:Core/Src/stm32h7xx_hal_msp.c ****     __HAL_RCC_GPIOA_CLK_ENABLE();
 229:Core/Src/stm32h7xx_hal_msp.c ****     __HAL_RCC_GPIOB_CLK_ENABLE();
 230:Core/Src/stm32h7xx_hal_msp.c ****     __HAL_RCC_GPIOC_CLK_ENABLE();
ARM GAS  /tmp/ccw4nXlO.s 			page 11


 231:Core/Src/stm32h7xx_hal_msp.c ****     /**SPI3 GPIO Configuration
 232:Core/Src/stm32h7xx_hal_msp.c ****     PA4     ------> SPI3_NSS
 233:Core/Src/stm32h7xx_hal_msp.c ****     PB2     ------> SPI3_MOSI
 234:Core/Src/stm32h7xx_hal_msp.c ****     PC10     ------> SPI3_SCK
 235:Core/Src/stm32h7xx_hal_msp.c ****     PC11     ------> SPI3_MISO
 236:Core/Src/stm32h7xx_hal_msp.c ****     */
 237:Core/Src/stm32h7xx_hal_msp.c ****     GPIO_InitStruct.Pin = GPIO_PIN_4;
 238:Core/Src/stm32h7xx_hal_msp.c ****     GPIO_InitStruct.Mode = GPIO_MODE_AF_PP;
 239:Core/Src/stm32h7xx_hal_msp.c ****     GPIO_InitStruct.Pull = GPIO_NOPULL;
 240:Core/Src/stm32h7xx_hal_msp.c ****     GPIO_InitStruct.Speed = GPIO_SPEED_FREQ_LOW;
 241:Core/Src/stm32h7xx_hal_msp.c ****     GPIO_InitStruct.Alternate = GPIO_AF6_SPI3;
 242:Core/Src/stm32h7xx_hal_msp.c ****     HAL_GPIO_Init(GPIOA, &GPIO_InitStruct);
 243:Core/Src/stm32h7xx_hal_msp.c **** 
 244:Core/Src/stm32h7xx_hal_msp.c ****     GPIO_InitStruct.Pin = GPIO_PIN_2;
 245:Core/Src/stm32h7xx_hal_msp.c ****     GPIO_InitStruct.Mode = GPIO_MODE_AF_PP;
 246:Core/Src/stm32h7xx_hal_msp.c ****     GPIO_InitStruct.Pull = GPIO_NOPULL;
 247:Core/Src/stm32h7xx_hal_msp.c ****     GPIO_InitStruct.Speed = GPIO_SPEED_FREQ_LOW;
 248:Core/Src/stm32h7xx_hal_msp.c ****     GPIO_InitStruct.Alternate = GPIO_AF7_SPI3;
 249:Core/Src/stm32h7xx_hal_msp.c ****     HAL_GPIO_Init(GPIOB, &GPIO_InitStruct);
 250:Core/Src/stm32h7xx_hal_msp.c **** 
 251:Core/Src/stm32h7xx_hal_msp.c ****     GPIO_InitStruct.Pin = GPIO_PIN_10|GPIO_PIN_11;
 252:Core/Src/stm32h7xx_hal_msp.c ****     GPIO_InitStruct.Mode = GPIO_MODE_AF_PP;
 253:Core/Src/stm32h7xx_hal_msp.c ****     GPIO_InitStruct.Pull = GPIO_NOPULL;
 254:Core/Src/stm32h7xx_hal_msp.c ****     GPIO_InitStruct.Speed = GPIO_SPEED_FREQ_LOW;
 255:Core/Src/stm32h7xx_hal_msp.c ****     GPIO_InitStruct.Alternate = GPIO_AF6_SPI3;
 256:Core/Src/stm32h7xx_hal_msp.c ****     HAL_GPIO_Init(GPIOC, &GPIO_InitStruct);
 257:Core/Src/stm32h7xx_hal_msp.c **** 
 258:Core/Src/stm32h7xx_hal_msp.c ****   /* USER CODE BEGIN SPI3_MspInit 1 */
 259:Core/Src/stm32h7xx_hal_msp.c **** 
 260:Core/Src/stm32h7xx_hal_msp.c ****   /* USER CODE END SPI3_MspInit 1 */
 261:Core/Src/stm32h7xx_hal_msp.c ****   }
 262:Core/Src/stm32h7xx_hal_msp.c ****   else if(hspi->Instance==SPI4)
 316              		.loc 1 262 8 is_stmt 1 view .LVU73
 317              		.loc 1 262 10 is_stmt 0 view .LVU74
 318 0028 964A     		ldr	r2, .L40+8
 319 002a 9342     		cmp	r3, r2
 320 002c 00F0B380 		beq	.L34
 263:Core/Src/stm32h7xx_hal_msp.c ****   {
 264:Core/Src/stm32h7xx_hal_msp.c ****   /* USER CODE BEGIN SPI4_MspInit 0 */
 265:Core/Src/stm32h7xx_hal_msp.c **** 
 266:Core/Src/stm32h7xx_hal_msp.c ****   /* USER CODE END SPI4_MspInit 0 */
 267:Core/Src/stm32h7xx_hal_msp.c **** 
 268:Core/Src/stm32h7xx_hal_msp.c ****   /** Initializes the peripherals clock
 269:Core/Src/stm32h7xx_hal_msp.c ****   */
 270:Core/Src/stm32h7xx_hal_msp.c ****     PeriphClkInitStruct.PeriphClockSelection = RCC_PERIPHCLK_SPI4;
 271:Core/Src/stm32h7xx_hal_msp.c ****     PeriphClkInitStruct.Spi45ClockSelection = RCC_SPI45CLKSOURCE_D2PCLK1;
 272:Core/Src/stm32h7xx_hal_msp.c ****     if (HAL_RCCEx_PeriphCLKConfig(&PeriphClkInitStruct) != HAL_OK)
 273:Core/Src/stm32h7xx_hal_msp.c ****     {
 274:Core/Src/stm32h7xx_hal_msp.c ****       Error_Handler();
 275:Core/Src/stm32h7xx_hal_msp.c ****     }
 276:Core/Src/stm32h7xx_hal_msp.c **** 
 277:Core/Src/stm32h7xx_hal_msp.c ****     /* Peripheral clock enable */
 278:Core/Src/stm32h7xx_hal_msp.c ****     __HAL_RCC_SPI4_CLK_ENABLE();
 279:Core/Src/stm32h7xx_hal_msp.c **** 
 280:Core/Src/stm32h7xx_hal_msp.c ****     __HAL_RCC_GPIOE_CLK_ENABLE();
 281:Core/Src/stm32h7xx_hal_msp.c ****     /**SPI4 GPIO Configuration
 282:Core/Src/stm32h7xx_hal_msp.c ****     PE2     ------> SPI4_SCK
ARM GAS  /tmp/ccw4nXlO.s 			page 12


 283:Core/Src/stm32h7xx_hal_msp.c ****     PE4     ------> SPI4_NSS
 284:Core/Src/stm32h7xx_hal_msp.c ****     PE5     ------> SPI4_MISO
 285:Core/Src/stm32h7xx_hal_msp.c ****     PE6     ------> SPI4_MOSI
 286:Core/Src/stm32h7xx_hal_msp.c ****     */
 287:Core/Src/stm32h7xx_hal_msp.c ****     GPIO_InitStruct.Pin = GPIO_PIN_2|GPIO_PIN_4|GPIO_PIN_5|GPIO_PIN_6;
 288:Core/Src/stm32h7xx_hal_msp.c ****     GPIO_InitStruct.Mode = GPIO_MODE_AF_PP;
 289:Core/Src/stm32h7xx_hal_msp.c ****     GPIO_InitStruct.Pull = GPIO_NOPULL;
 290:Core/Src/stm32h7xx_hal_msp.c ****     GPIO_InitStruct.Speed = GPIO_SPEED_FREQ_LOW;
 291:Core/Src/stm32h7xx_hal_msp.c ****     GPIO_InitStruct.Alternate = GPIO_AF5_SPI4;
 292:Core/Src/stm32h7xx_hal_msp.c ****     HAL_GPIO_Init(GPIOE, &GPIO_InitStruct);
 293:Core/Src/stm32h7xx_hal_msp.c **** 
 294:Core/Src/stm32h7xx_hal_msp.c ****   /* USER CODE BEGIN SPI4_MspInit 1 */
 295:Core/Src/stm32h7xx_hal_msp.c **** 
 296:Core/Src/stm32h7xx_hal_msp.c ****   /* USER CODE END SPI4_MspInit 1 */
 297:Core/Src/stm32h7xx_hal_msp.c ****   }
 298:Core/Src/stm32h7xx_hal_msp.c ****   else if(hspi->Instance==SPI6)
 321              		.loc 1 298 8 is_stmt 1 view .LVU75
 322              		.loc 1 298 10 is_stmt 0 view .LVU76
 323 0030 954A     		ldr	r2, .L40+12
 324 0032 9342     		cmp	r3, r2
 325 0034 00F0E280 		beq	.L35
 326              	.LVL17:
 327              	.L22:
 299:Core/Src/stm32h7xx_hal_msp.c ****   {
 300:Core/Src/stm32h7xx_hal_msp.c ****   /* USER CODE BEGIN SPI6_MspInit 0 */
 301:Core/Src/stm32h7xx_hal_msp.c **** 
 302:Core/Src/stm32h7xx_hal_msp.c ****   /* USER CODE END SPI6_MspInit 0 */
 303:Core/Src/stm32h7xx_hal_msp.c **** 
 304:Core/Src/stm32h7xx_hal_msp.c ****   /** Initializes the peripherals clock
 305:Core/Src/stm32h7xx_hal_msp.c ****   */
 306:Core/Src/stm32h7xx_hal_msp.c ****     PeriphClkInitStruct.PeriphClockSelection = RCC_PERIPHCLK_SPI6;
 307:Core/Src/stm32h7xx_hal_msp.c ****     PeriphClkInitStruct.Spi6ClockSelection = RCC_SPI6CLKSOURCE_D3PCLK1;
 308:Core/Src/stm32h7xx_hal_msp.c ****     if (HAL_RCCEx_PeriphCLKConfig(&PeriphClkInitStruct) != HAL_OK)
 309:Core/Src/stm32h7xx_hal_msp.c ****     {
 310:Core/Src/stm32h7xx_hal_msp.c ****       Error_Handler();
 311:Core/Src/stm32h7xx_hal_msp.c ****     }
 312:Core/Src/stm32h7xx_hal_msp.c **** 
 313:Core/Src/stm32h7xx_hal_msp.c ****     /* Peripheral clock enable */
 314:Core/Src/stm32h7xx_hal_msp.c ****     __HAL_RCC_SPI6_CLK_ENABLE();
 315:Core/Src/stm32h7xx_hal_msp.c **** 
 316:Core/Src/stm32h7xx_hal_msp.c ****     __HAL_RCC_GPIOA_CLK_ENABLE();
 317:Core/Src/stm32h7xx_hal_msp.c ****     /**SPI6 GPIO Configuration
 318:Core/Src/stm32h7xx_hal_msp.c ****     PA0     ------> SPI6_NSS
 319:Core/Src/stm32h7xx_hal_msp.c ****     PA5     ------> SPI6_SCK
 320:Core/Src/stm32h7xx_hal_msp.c ****     PA6     ------> SPI6_MISO
 321:Core/Src/stm32h7xx_hal_msp.c ****     PA7     ------> SPI6_MOSI
 322:Core/Src/stm32h7xx_hal_msp.c ****     */
 323:Core/Src/stm32h7xx_hal_msp.c ****     GPIO_InitStruct.Pin = GPIO_PIN_0;
 324:Core/Src/stm32h7xx_hal_msp.c ****     GPIO_InitStruct.Mode = GPIO_MODE_AF_PP;
 325:Core/Src/stm32h7xx_hal_msp.c ****     GPIO_InitStruct.Pull = GPIO_NOPULL;
 326:Core/Src/stm32h7xx_hal_msp.c ****     GPIO_InitStruct.Speed = GPIO_SPEED_FREQ_LOW;
 327:Core/Src/stm32h7xx_hal_msp.c ****     GPIO_InitStruct.Alternate = GPIO_AF5_SPI6;
 328:Core/Src/stm32h7xx_hal_msp.c ****     HAL_GPIO_Init(GPIOA, &GPIO_InitStruct);
 329:Core/Src/stm32h7xx_hal_msp.c **** 
 330:Core/Src/stm32h7xx_hal_msp.c ****     GPIO_InitStruct.Pin = GPIO_PIN_5|GPIO_PIN_6|GPIO_PIN_7;
 331:Core/Src/stm32h7xx_hal_msp.c ****     GPIO_InitStruct.Mode = GPIO_MODE_AF_PP;
 332:Core/Src/stm32h7xx_hal_msp.c ****     GPIO_InitStruct.Pull = GPIO_NOPULL;
ARM GAS  /tmp/ccw4nXlO.s 			page 13


 333:Core/Src/stm32h7xx_hal_msp.c ****     GPIO_InitStruct.Speed = GPIO_SPEED_FREQ_LOW;
 334:Core/Src/stm32h7xx_hal_msp.c ****     GPIO_InitStruct.Alternate = GPIO_AF8_SPI6;
 335:Core/Src/stm32h7xx_hal_msp.c ****     HAL_GPIO_Init(GPIOA, &GPIO_InitStruct);
 336:Core/Src/stm32h7xx_hal_msp.c **** 
 337:Core/Src/stm32h7xx_hal_msp.c ****   /* USER CODE BEGIN SPI6_MspInit 1 */
 338:Core/Src/stm32h7xx_hal_msp.c **** 
 339:Core/Src/stm32h7xx_hal_msp.c ****   /* USER CODE END SPI6_MspInit 1 */
 340:Core/Src/stm32h7xx_hal_msp.c ****   }
 341:Core/Src/stm32h7xx_hal_msp.c **** 
 342:Core/Src/stm32h7xx_hal_msp.c **** }
 328              		.loc 1 342 1 view .LVU77
 329 0038 40B0     		add	sp, sp, #256
 330              		.cfi_remember_state
 331              		.cfi_def_cfa_offset 16
 332              		@ sp needed
 333 003a 70BD     		pop	{r4, r5, r6, pc}
 334              	.LVL18:
 335              	.L32:
 336              		.cfi_restore_state
 174:Core/Src/stm32h7xx_hal_msp.c ****     PeriphClkInitStruct.Spi123ClockSelection = RCC_SPI123CLKSOURCE_PLL;
 337              		.loc 1 174 5 is_stmt 1 view .LVU78
 174:Core/Src/stm32h7xx_hal_msp.c ****     PeriphClkInitStruct.Spi123ClockSelection = RCC_SPI123CLKSOURCE_PLL;
 338              		.loc 1 174 46 is_stmt 0 view .LVU79
 339 003c 4FF48052 		mov	r2, #4096
 340 0040 0023     		movs	r3, #0
 341 0042 CDE90C23 		strd	r2, [sp, #48]
 175:Core/Src/stm32h7xx_hal_msp.c ****     if (HAL_RCCEx_PeriphCLKConfig(&PeriphClkInitStruct) != HAL_OK)
 342              		.loc 1 175 5 is_stmt 1 view .LVU80
 176:Core/Src/stm32h7xx_hal_msp.c ****     {
 343              		.loc 1 176 5 view .LVU81
 176:Core/Src/stm32h7xx_hal_msp.c ****     {
 344              		.loc 1 176 9 is_stmt 0 view .LVU82
 345 0046 0CA8     		add	r0, sp, #48
 346 0048 FFF7FEFF 		bl	HAL_RCCEx_PeriphCLKConfig
 347              	.LVL19:
 176:Core/Src/stm32h7xx_hal_msp.c ****     {
 348              		.loc 1 176 8 discriminator 1 view .LVU83
 349 004c 0028     		cmp	r0, #0
 350 004e 3DD1     		bne	.L36
 351              	.L24:
 182:Core/Src/stm32h7xx_hal_msp.c **** 
 352              		.loc 1 182 5 is_stmt 1 view .LVU84
 353              	.LBB5:
 182:Core/Src/stm32h7xx_hal_msp.c **** 
 354              		.loc 1 182 5 view .LVU85
 182:Core/Src/stm32h7xx_hal_msp.c **** 
 355              		.loc 1 182 5 view .LVU86
 356 0050 8E4B     		ldr	r3, .L40+16
 357 0052 D3F8E820 		ldr	r2, [r3, #232]
 358 0056 42F48042 		orr	r2, r2, #16384
 359 005a C3F8E820 		str	r2, [r3, #232]
 182:Core/Src/stm32h7xx_hal_msp.c **** 
 360              		.loc 1 182 5 view .LVU87
 361 005e D3F8E820 		ldr	r2, [r3, #232]
 362 0062 02F48042 		and	r2, r2, #16384
 363 0066 0192     		str	r2, [sp, #4]
 182:Core/Src/stm32h7xx_hal_msp.c **** 
ARM GAS  /tmp/ccw4nXlO.s 			page 14


 364              		.loc 1 182 5 view .LVU88
 365 0068 019A     		ldr	r2, [sp, #4]
 366              	.LBE5:
 182:Core/Src/stm32h7xx_hal_msp.c **** 
 367              		.loc 1 182 5 view .LVU89
 184:Core/Src/stm32h7xx_hal_msp.c ****     __HAL_RCC_GPIOB_CLK_ENABLE();
 368              		.loc 1 184 5 view .LVU90
 369              	.LBB6:
 184:Core/Src/stm32h7xx_hal_msp.c ****     __HAL_RCC_GPIOB_CLK_ENABLE();
 370              		.loc 1 184 5 view .LVU91
 184:Core/Src/stm32h7xx_hal_msp.c ****     __HAL_RCC_GPIOB_CLK_ENABLE();
 371              		.loc 1 184 5 view .LVU92
 372 006a D3F8E020 		ldr	r2, [r3, #224]
 373 006e 42F00402 		orr	r2, r2, #4
 374 0072 C3F8E020 		str	r2, [r3, #224]
 184:Core/Src/stm32h7xx_hal_msp.c ****     __HAL_RCC_GPIOB_CLK_ENABLE();
 375              		.loc 1 184 5 view .LVU93
 376 0076 D3F8E020 		ldr	r2, [r3, #224]
 377 007a 02F00402 		and	r2, r2, #4
 378 007e 0292     		str	r2, [sp, #8]
 184:Core/Src/stm32h7xx_hal_msp.c ****     __HAL_RCC_GPIOB_CLK_ENABLE();
 379              		.loc 1 184 5 view .LVU94
 380 0080 029A     		ldr	r2, [sp, #8]
 381              	.LBE6:
 184:Core/Src/stm32h7xx_hal_msp.c ****     __HAL_RCC_GPIOB_CLK_ENABLE();
 382              		.loc 1 184 5 view .LVU95
 185:Core/Src/stm32h7xx_hal_msp.c ****     /**SPI2 GPIO Configuration
 383              		.loc 1 185 5 view .LVU96
 384              	.LBB7:
 185:Core/Src/stm32h7xx_hal_msp.c ****     /**SPI2 GPIO Configuration
 385              		.loc 1 185 5 view .LVU97
 185:Core/Src/stm32h7xx_hal_msp.c ****     /**SPI2 GPIO Configuration
 386              		.loc 1 185 5 view .LVU98
 387 0082 D3F8E020 		ldr	r2, [r3, #224]
 388 0086 42F00202 		orr	r2, r2, #2
 389 008a C3F8E020 		str	r2, [r3, #224]
 185:Core/Src/stm32h7xx_hal_msp.c ****     /**SPI2 GPIO Configuration
 390              		.loc 1 185 5 view .LVU99
 391 008e D3F8E030 		ldr	r3, [r3, #224]
 392 0092 03F00203 		and	r3, r3, #2
 393 0096 0393     		str	r3, [sp, #12]
 185:Core/Src/stm32h7xx_hal_msp.c ****     /**SPI2 GPIO Configuration
 394              		.loc 1 185 5 view .LVU100
 395 0098 039B     		ldr	r3, [sp, #12]
 396              	.LBE7:
 185:Core/Src/stm32h7xx_hal_msp.c ****     /**SPI2 GPIO Configuration
 397              		.loc 1 185 5 view .LVU101
 192:Core/Src/stm32h7xx_hal_msp.c ****     GPIO_InitStruct.Mode = GPIO_MODE_AF_PP;
 398              		.loc 1 192 5 view .LVU102
 192:Core/Src/stm32h7xx_hal_msp.c ****     GPIO_InitStruct.Mode = GPIO_MODE_AF_PP;
 399              		.loc 1 192 25 is_stmt 0 view .LVU103
 400 009a 0623     		movs	r3, #6
 401 009c 3B93     		str	r3, [sp, #236]
 193:Core/Src/stm32h7xx_hal_msp.c ****     GPIO_InitStruct.Pull = GPIO_NOPULL;
 402              		.loc 1 193 5 is_stmt 1 view .LVU104
 193:Core/Src/stm32h7xx_hal_msp.c ****     GPIO_InitStruct.Pull = GPIO_NOPULL;
 403              		.loc 1 193 26 is_stmt 0 view .LVU105
ARM GAS  /tmp/ccw4nXlO.s 			page 15


 404 009e 0226     		movs	r6, #2
 405 00a0 3C96     		str	r6, [sp, #240]
 194:Core/Src/stm32h7xx_hal_msp.c ****     GPIO_InitStruct.Speed = GPIO_SPEED_FREQ_LOW;
 406              		.loc 1 194 5 is_stmt 1 view .LVU106
 194:Core/Src/stm32h7xx_hal_msp.c ****     GPIO_InitStruct.Speed = GPIO_SPEED_FREQ_LOW;
 407              		.loc 1 194 26 is_stmt 0 view .LVU107
 408 00a2 0024     		movs	r4, #0
 409              	.LVL20:
 194:Core/Src/stm32h7xx_hal_msp.c ****     GPIO_InitStruct.Speed = GPIO_SPEED_FREQ_LOW;
 410              		.loc 1 194 26 view .LVU108
 411 00a4 3D94     		str	r4, [sp, #244]
 195:Core/Src/stm32h7xx_hal_msp.c ****     GPIO_InitStruct.Alternate = GPIO_AF5_SPI2;
 412              		.loc 1 195 5 is_stmt 1 view .LVU109
 195:Core/Src/stm32h7xx_hal_msp.c ****     GPIO_InitStruct.Alternate = GPIO_AF5_SPI2;
 413              		.loc 1 195 27 is_stmt 0 view .LVU110
 414 00a6 3E94     		str	r4, [sp, #248]
 196:Core/Src/stm32h7xx_hal_msp.c ****     HAL_GPIO_Init(GPIOC, &GPIO_InitStruct);
 415              		.loc 1 196 5 is_stmt 1 view .LVU111
 196:Core/Src/stm32h7xx_hal_msp.c ****     HAL_GPIO_Init(GPIOC, &GPIO_InitStruct);
 416              		.loc 1 196 31 is_stmt 0 view .LVU112
 417 00a8 0525     		movs	r5, #5
 418 00aa 3F95     		str	r5, [sp, #252]
 197:Core/Src/stm32h7xx_hal_msp.c **** 
 419              		.loc 1 197 5 is_stmt 1 view .LVU113
 420 00ac 3BA9     		add	r1, sp, #236
 421 00ae 7848     		ldr	r0, .L40+20
 422 00b0 FFF7FEFF 		bl	HAL_GPIO_Init
 423              	.LVL21:
 199:Core/Src/stm32h7xx_hal_msp.c ****     GPIO_InitStruct.Mode = GPIO_MODE_AF_PP;
 424              		.loc 1 199 5 view .LVU114
 199:Core/Src/stm32h7xx_hal_msp.c ****     GPIO_InitStruct.Mode = GPIO_MODE_AF_PP;
 425              		.loc 1 199 25 is_stmt 0 view .LVU115
 426 00b4 4FF44053 		mov	r3, #12288
 427 00b8 3B93     		str	r3, [sp, #236]
 200:Core/Src/stm32h7xx_hal_msp.c ****     GPIO_InitStruct.Pull = GPIO_NOPULL;
 428              		.loc 1 200 5 is_stmt 1 view .LVU116
 200:Core/Src/stm32h7xx_hal_msp.c ****     GPIO_InitStruct.Pull = GPIO_NOPULL;
 429              		.loc 1 200 26 is_stmt 0 view .LVU117
 430 00ba 3C96     		str	r6, [sp, #240]
 201:Core/Src/stm32h7xx_hal_msp.c ****     GPIO_InitStruct.Speed = GPIO_SPEED_FREQ_LOW;
 431              		.loc 1 201 5 is_stmt 1 view .LVU118
 201:Core/Src/stm32h7xx_hal_msp.c ****     GPIO_InitStruct.Speed = GPIO_SPEED_FREQ_LOW;
 432              		.loc 1 201 26 is_stmt 0 view .LVU119
 433 00bc 3D94     		str	r4, [sp, #244]
 202:Core/Src/stm32h7xx_hal_msp.c ****     GPIO_InitStruct.Alternate = GPIO_AF5_SPI2;
 434              		.loc 1 202 5 is_stmt 1 view .LVU120
 202:Core/Src/stm32h7xx_hal_msp.c ****     GPIO_InitStruct.Alternate = GPIO_AF5_SPI2;
 435              		.loc 1 202 27 is_stmt 0 view .LVU121
 436 00be 3E94     		str	r4, [sp, #248]
 203:Core/Src/stm32h7xx_hal_msp.c ****     HAL_GPIO_Init(GPIOB, &GPIO_InitStruct);
 437              		.loc 1 203 5 is_stmt 1 view .LVU122
 203:Core/Src/stm32h7xx_hal_msp.c ****     HAL_GPIO_Init(GPIOB, &GPIO_InitStruct);
 438              		.loc 1 203 31 is_stmt 0 view .LVU123
 439 00c0 3F95     		str	r5, [sp, #252]
 204:Core/Src/stm32h7xx_hal_msp.c **** 
 440              		.loc 1 204 5 is_stmt 1 view .LVU124
 441 00c2 3BA9     		add	r1, sp, #236
ARM GAS  /tmp/ccw4nXlO.s 			page 16


 442 00c4 7348     		ldr	r0, .L40+24
 443 00c6 FFF7FEFF 		bl	HAL_GPIO_Init
 444              	.LVL22:
 445 00ca B5E7     		b	.L22
 446              	.LVL23:
 447              	.L36:
 178:Core/Src/stm32h7xx_hal_msp.c ****     }
 448              		.loc 1 178 7 view .LVU125
 449 00cc FFF7FEFF 		bl	Error_Handler
 450              	.LVL24:
 451 00d0 BEE7     		b	.L24
 452              	.L33:
 218:Core/Src/stm32h7xx_hal_msp.c ****     PeriphClkInitStruct.Spi123ClockSelection = RCC_SPI123CLKSOURCE_PLL;
 453              		.loc 1 218 5 view .LVU126
 218:Core/Src/stm32h7xx_hal_msp.c ****     PeriphClkInitStruct.Spi123ClockSelection = RCC_SPI123CLKSOURCE_PLL;
 454              		.loc 1 218 46 is_stmt 0 view .LVU127
 455 00d2 4FF48052 		mov	r2, #4096
 456 00d6 0023     		movs	r3, #0
 457 00d8 CDE90C23 		strd	r2, [sp, #48]
 219:Core/Src/stm32h7xx_hal_msp.c ****     if (HAL_RCCEx_PeriphCLKConfig(&PeriphClkInitStruct) != HAL_OK)
 458              		.loc 1 219 5 is_stmt 1 view .LVU128
 220:Core/Src/stm32h7xx_hal_msp.c ****     {
 459              		.loc 1 220 5 view .LVU129
 220:Core/Src/stm32h7xx_hal_msp.c ****     {
 460              		.loc 1 220 9 is_stmt 0 view .LVU130
 461 00dc 0CA8     		add	r0, sp, #48
 462 00de FFF7FEFF 		bl	HAL_RCCEx_PeriphCLKConfig
 463              	.LVL25:
 220:Core/Src/stm32h7xx_hal_msp.c ****     {
 464              		.loc 1 220 8 discriminator 1 view .LVU131
 465 00e2 0028     		cmp	r0, #0
 466 00e4 54D1     		bne	.L37
 467              	.L27:
 226:Core/Src/stm32h7xx_hal_msp.c **** 
 468              		.loc 1 226 5 is_stmt 1 view .LVU132
 469              	.LBB8:
 226:Core/Src/stm32h7xx_hal_msp.c **** 
 470              		.loc 1 226 5 view .LVU133
 226:Core/Src/stm32h7xx_hal_msp.c **** 
 471              		.loc 1 226 5 view .LVU134
 472 00e6 694B     		ldr	r3, .L40+16
 473 00e8 D3F8E820 		ldr	r2, [r3, #232]
 474 00ec 42F40042 		orr	r2, r2, #32768
 475 00f0 C3F8E820 		str	r2, [r3, #232]
 226:Core/Src/stm32h7xx_hal_msp.c **** 
 476              		.loc 1 226 5 view .LVU135
 477 00f4 D3F8E820 		ldr	r2, [r3, #232]
 478 00f8 02F40042 		and	r2, r2, #32768
 479 00fc 0492     		str	r2, [sp, #16]
 226:Core/Src/stm32h7xx_hal_msp.c **** 
 480              		.loc 1 226 5 view .LVU136
 481 00fe 049A     		ldr	r2, [sp, #16]
 482              	.LBE8:
 226:Core/Src/stm32h7xx_hal_msp.c **** 
 483              		.loc 1 226 5 view .LVU137
 228:Core/Src/stm32h7xx_hal_msp.c ****     __HAL_RCC_GPIOB_CLK_ENABLE();
 484              		.loc 1 228 5 view .LVU138
ARM GAS  /tmp/ccw4nXlO.s 			page 17


 485              	.LBB9:
 228:Core/Src/stm32h7xx_hal_msp.c ****     __HAL_RCC_GPIOB_CLK_ENABLE();
 486              		.loc 1 228 5 view .LVU139
 228:Core/Src/stm32h7xx_hal_msp.c ****     __HAL_RCC_GPIOB_CLK_ENABLE();
 487              		.loc 1 228 5 view .LVU140
 488 0100 D3F8E020 		ldr	r2, [r3, #224]
 489 0104 42F00102 		orr	r2, r2, #1
 490 0108 C3F8E020 		str	r2, [r3, #224]
 228:Core/Src/stm32h7xx_hal_msp.c ****     __HAL_RCC_GPIOB_CLK_ENABLE();
 491              		.loc 1 228 5 view .LVU141
 492 010c D3F8E020 		ldr	r2, [r3, #224]
 493 0110 02F00102 		and	r2, r2, #1
 494 0114 0592     		str	r2, [sp, #20]
 228:Core/Src/stm32h7xx_hal_msp.c ****     __HAL_RCC_GPIOB_CLK_ENABLE();
 495              		.loc 1 228 5 view .LVU142
 496 0116 059A     		ldr	r2, [sp, #20]
 497              	.LBE9:
 228:Core/Src/stm32h7xx_hal_msp.c ****     __HAL_RCC_GPIOB_CLK_ENABLE();
 498              		.loc 1 228 5 view .LVU143
 229:Core/Src/stm32h7xx_hal_msp.c ****     __HAL_RCC_GPIOC_CLK_ENABLE();
 499              		.loc 1 229 5 view .LVU144
 500              	.LBB10:
 229:Core/Src/stm32h7xx_hal_msp.c ****     __HAL_RCC_GPIOC_CLK_ENABLE();
 501              		.loc 1 229 5 view .LVU145
 229:Core/Src/stm32h7xx_hal_msp.c ****     __HAL_RCC_GPIOC_CLK_ENABLE();
 502              		.loc 1 229 5 view .LVU146
 503 0118 D3F8E020 		ldr	r2, [r3, #224]
 504 011c 42F00202 		orr	r2, r2, #2
 505 0120 C3F8E020 		str	r2, [r3, #224]
 229:Core/Src/stm32h7xx_hal_msp.c ****     __HAL_RCC_GPIOC_CLK_ENABLE();
 506              		.loc 1 229 5 view .LVU147
 507 0124 D3F8E020 		ldr	r2, [r3, #224]
 508 0128 02F00202 		and	r2, r2, #2
 509 012c 0692     		str	r2, [sp, #24]
 229:Core/Src/stm32h7xx_hal_msp.c ****     __HAL_RCC_GPIOC_CLK_ENABLE();
 510              		.loc 1 229 5 view .LVU148
 511 012e 069A     		ldr	r2, [sp, #24]
 512              	.LBE10:
 229:Core/Src/stm32h7xx_hal_msp.c ****     __HAL_RCC_GPIOC_CLK_ENABLE();
 513              		.loc 1 229 5 view .LVU149
 230:Core/Src/stm32h7xx_hal_msp.c ****     /**SPI3 GPIO Configuration
 514              		.loc 1 230 5 view .LVU150
 515              	.LBB11:
 230:Core/Src/stm32h7xx_hal_msp.c ****     /**SPI3 GPIO Configuration
 516              		.loc 1 230 5 view .LVU151
 230:Core/Src/stm32h7xx_hal_msp.c ****     /**SPI3 GPIO Configuration
 517              		.loc 1 230 5 view .LVU152
 518 0130 D3F8E020 		ldr	r2, [r3, #224]
 519 0134 42F00402 		orr	r2, r2, #4
 520 0138 C3F8E020 		str	r2, [r3, #224]
 230:Core/Src/stm32h7xx_hal_msp.c ****     /**SPI3 GPIO Configuration
 521              		.loc 1 230 5 view .LVU153
 522 013c D3F8E030 		ldr	r3, [r3, #224]
 523 0140 03F00403 		and	r3, r3, #4
 524 0144 0793     		str	r3, [sp, #28]
 230:Core/Src/stm32h7xx_hal_msp.c ****     /**SPI3 GPIO Configuration
 525              		.loc 1 230 5 view .LVU154
ARM GAS  /tmp/ccw4nXlO.s 			page 18


 526 0146 079B     		ldr	r3, [sp, #28]
 527              	.LBE11:
 230:Core/Src/stm32h7xx_hal_msp.c ****     /**SPI3 GPIO Configuration
 528              		.loc 1 230 5 view .LVU155
 237:Core/Src/stm32h7xx_hal_msp.c ****     GPIO_InitStruct.Mode = GPIO_MODE_AF_PP;
 529              		.loc 1 237 5 view .LVU156
 237:Core/Src/stm32h7xx_hal_msp.c ****     GPIO_InitStruct.Mode = GPIO_MODE_AF_PP;
 530              		.loc 1 237 25 is_stmt 0 view .LVU157
 531 0148 1023     		movs	r3, #16
 532 014a 3B93     		str	r3, [sp, #236]
 238:Core/Src/stm32h7xx_hal_msp.c ****     GPIO_InitStruct.Pull = GPIO_NOPULL;
 533              		.loc 1 238 5 is_stmt 1 view .LVU158
 238:Core/Src/stm32h7xx_hal_msp.c ****     GPIO_InitStruct.Pull = GPIO_NOPULL;
 534              		.loc 1 238 26 is_stmt 0 view .LVU159
 535 014c 0225     		movs	r5, #2
 536 014e 3C95     		str	r5, [sp, #240]
 239:Core/Src/stm32h7xx_hal_msp.c ****     GPIO_InitStruct.Speed = GPIO_SPEED_FREQ_LOW;
 537              		.loc 1 239 5 is_stmt 1 view .LVU160
 239:Core/Src/stm32h7xx_hal_msp.c ****     GPIO_InitStruct.Speed = GPIO_SPEED_FREQ_LOW;
 538              		.loc 1 239 26 is_stmt 0 view .LVU161
 539 0150 0024     		movs	r4, #0
 540              	.LVL26:
 239:Core/Src/stm32h7xx_hal_msp.c ****     GPIO_InitStruct.Speed = GPIO_SPEED_FREQ_LOW;
 541              		.loc 1 239 26 view .LVU162
 542 0152 3D94     		str	r4, [sp, #244]
 240:Core/Src/stm32h7xx_hal_msp.c ****     GPIO_InitStruct.Alternate = GPIO_AF6_SPI3;
 543              		.loc 1 240 5 is_stmt 1 view .LVU163
 240:Core/Src/stm32h7xx_hal_msp.c ****     GPIO_InitStruct.Alternate = GPIO_AF6_SPI3;
 544              		.loc 1 240 27 is_stmt 0 view .LVU164
 545 0154 3E94     		str	r4, [sp, #248]
 241:Core/Src/stm32h7xx_hal_msp.c ****     HAL_GPIO_Init(GPIOA, &GPIO_InitStruct);
 546              		.loc 1 241 5 is_stmt 1 view .LVU165
 241:Core/Src/stm32h7xx_hal_msp.c ****     HAL_GPIO_Init(GPIOA, &GPIO_InitStruct);
 547              		.loc 1 241 31 is_stmt 0 view .LVU166
 548 0156 0626     		movs	r6, #6
 549 0158 3F96     		str	r6, [sp, #252]
 242:Core/Src/stm32h7xx_hal_msp.c **** 
 550              		.loc 1 242 5 is_stmt 1 view .LVU167
 551 015a 3BA9     		add	r1, sp, #236
 552 015c 4E48     		ldr	r0, .L40+28
 553 015e FFF7FEFF 		bl	HAL_GPIO_Init
 554              	.LVL27:
 244:Core/Src/stm32h7xx_hal_msp.c ****     GPIO_InitStruct.Mode = GPIO_MODE_AF_PP;
 555              		.loc 1 244 5 view .LVU168
 244:Core/Src/stm32h7xx_hal_msp.c ****     GPIO_InitStruct.Mode = GPIO_MODE_AF_PP;
 556              		.loc 1 244 25 is_stmt 0 view .LVU169
 557 0162 0423     		movs	r3, #4
 558 0164 3B93     		str	r3, [sp, #236]
 245:Core/Src/stm32h7xx_hal_msp.c ****     GPIO_InitStruct.Pull = GPIO_NOPULL;
 559              		.loc 1 245 5 is_stmt 1 view .LVU170
 245:Core/Src/stm32h7xx_hal_msp.c ****     GPIO_InitStruct.Pull = GPIO_NOPULL;
 560              		.loc 1 245 26 is_stmt 0 view .LVU171
 561 0166 3C95     		str	r5, [sp, #240]
 246:Core/Src/stm32h7xx_hal_msp.c ****     GPIO_InitStruct.Speed = GPIO_SPEED_FREQ_LOW;
 562              		.loc 1 246 5 is_stmt 1 view .LVU172
 246:Core/Src/stm32h7xx_hal_msp.c ****     GPIO_InitStruct.Speed = GPIO_SPEED_FREQ_LOW;
 563              		.loc 1 246 26 is_stmt 0 view .LVU173
ARM GAS  /tmp/ccw4nXlO.s 			page 19


 564 0168 3D94     		str	r4, [sp, #244]
 247:Core/Src/stm32h7xx_hal_msp.c ****     GPIO_InitStruct.Alternate = GPIO_AF7_SPI3;
 565              		.loc 1 247 5 is_stmt 1 view .LVU174
 247:Core/Src/stm32h7xx_hal_msp.c ****     GPIO_InitStruct.Alternate = GPIO_AF7_SPI3;
 566              		.loc 1 247 27 is_stmt 0 view .LVU175
 567 016a 3E94     		str	r4, [sp, #248]
 248:Core/Src/stm32h7xx_hal_msp.c ****     HAL_GPIO_Init(GPIOB, &GPIO_InitStruct);
 568              		.loc 1 248 5 is_stmt 1 view .LVU176
 248:Core/Src/stm32h7xx_hal_msp.c ****     HAL_GPIO_Init(GPIOB, &GPIO_InitStruct);
 569              		.loc 1 248 31 is_stmt 0 view .LVU177
 570 016c 0723     		movs	r3, #7
 571 016e 3F93     		str	r3, [sp, #252]
 249:Core/Src/stm32h7xx_hal_msp.c **** 
 572              		.loc 1 249 5 is_stmt 1 view .LVU178
 573 0170 3BA9     		add	r1, sp, #236
 574 0172 4848     		ldr	r0, .L40+24
 575 0174 FFF7FEFF 		bl	HAL_GPIO_Init
 576              	.LVL28:
 251:Core/Src/stm32h7xx_hal_msp.c ****     GPIO_InitStruct.Mode = GPIO_MODE_AF_PP;
 577              		.loc 1 251 5 view .LVU179
 251:Core/Src/stm32h7xx_hal_msp.c ****     GPIO_InitStruct.Mode = GPIO_MODE_AF_PP;
 578              		.loc 1 251 25 is_stmt 0 view .LVU180
 579 0178 4FF44063 		mov	r3, #3072
 580 017c 3B93     		str	r3, [sp, #236]
 252:Core/Src/stm32h7xx_hal_msp.c ****     GPIO_InitStruct.Pull = GPIO_NOPULL;
 581              		.loc 1 252 5 is_stmt 1 view .LVU181
 252:Core/Src/stm32h7xx_hal_msp.c ****     GPIO_InitStruct.Pull = GPIO_NOPULL;
 582              		.loc 1 252 26 is_stmt 0 view .LVU182
 583 017e 3C95     		str	r5, [sp, #240]
 253:Core/Src/stm32h7xx_hal_msp.c ****     GPIO_InitStruct.Speed = GPIO_SPEED_FREQ_LOW;
 584              		.loc 1 253 5 is_stmt 1 view .LVU183
 253:Core/Src/stm32h7xx_hal_msp.c ****     GPIO_InitStruct.Speed = GPIO_SPEED_FREQ_LOW;
 585              		.loc 1 253 26 is_stmt 0 view .LVU184
 586 0180 3D94     		str	r4, [sp, #244]
 254:Core/Src/stm32h7xx_hal_msp.c ****     GPIO_InitStruct.Alternate = GPIO_AF6_SPI3;
 587              		.loc 1 254 5 is_stmt 1 view .LVU185
 254:Core/Src/stm32h7xx_hal_msp.c ****     GPIO_InitStruct.Alternate = GPIO_AF6_SPI3;
 588              		.loc 1 254 27 is_stmt 0 view .LVU186
 589 0182 3E94     		str	r4, [sp, #248]
 255:Core/Src/stm32h7xx_hal_msp.c ****     HAL_GPIO_Init(GPIOC, &GPIO_InitStruct);
 590              		.loc 1 255 5 is_stmt 1 view .LVU187
 255:Core/Src/stm32h7xx_hal_msp.c ****     HAL_GPIO_Init(GPIOC, &GPIO_InitStruct);
 591              		.loc 1 255 31 is_stmt 0 view .LVU188
 592 0184 3F96     		str	r6, [sp, #252]
 256:Core/Src/stm32h7xx_hal_msp.c **** 
 593              		.loc 1 256 5 is_stmt 1 view .LVU189
 594 0186 3BA9     		add	r1, sp, #236
 595 0188 4148     		ldr	r0, .L40+20
 596 018a FFF7FEFF 		bl	HAL_GPIO_Init
 597              	.LVL29:
 598 018e 53E7     		b	.L22
 599              	.LVL30:
 600              	.L37:
 222:Core/Src/stm32h7xx_hal_msp.c ****     }
 601              		.loc 1 222 7 view .LVU190
 602 0190 FFF7FEFF 		bl	Error_Handler
 603              	.LVL31:
ARM GAS  /tmp/ccw4nXlO.s 			page 20


 604 0194 A7E7     		b	.L27
 605              	.L34:
 270:Core/Src/stm32h7xx_hal_msp.c ****     PeriphClkInitStruct.Spi45ClockSelection = RCC_SPI45CLKSOURCE_D2PCLK1;
 606              		.loc 1 270 5 view .LVU191
 270:Core/Src/stm32h7xx_hal_msp.c ****     PeriphClkInitStruct.Spi45ClockSelection = RCC_SPI45CLKSOURCE_D2PCLK1;
 607              		.loc 1 270 46 is_stmt 0 view .LVU192
 608 0196 4FF40052 		mov	r2, #8192
 609 019a 0023     		movs	r3, #0
 610 019c CDE90C23 		strd	r2, [sp, #48]
 271:Core/Src/stm32h7xx_hal_msp.c ****     if (HAL_RCCEx_PeriphCLKConfig(&PeriphClkInitStruct) != HAL_OK)
 611              		.loc 1 271 5 is_stmt 1 view .LVU193
 272:Core/Src/stm32h7xx_hal_msp.c ****     {
 612              		.loc 1 272 5 view .LVU194
 272:Core/Src/stm32h7xx_hal_msp.c ****     {
 613              		.loc 1 272 9 is_stmt 0 view .LVU195
 614 01a0 0CA8     		add	r0, sp, #48
 615 01a2 FFF7FEFF 		bl	HAL_RCCEx_PeriphCLKConfig
 616              	.LVL32:
 272:Core/Src/stm32h7xx_hal_msp.c ****     {
 617              		.loc 1 272 8 discriminator 1 view .LVU196
 618 01a6 30BB     		cbnz	r0, .L38
 619              	.L29:
 278:Core/Src/stm32h7xx_hal_msp.c **** 
 620              		.loc 1 278 5 is_stmt 1 view .LVU197
 621              	.LBB12:
 278:Core/Src/stm32h7xx_hal_msp.c **** 
 622              		.loc 1 278 5 view .LVU198
 278:Core/Src/stm32h7xx_hal_msp.c **** 
 623              		.loc 1 278 5 view .LVU199
 624 01a8 384B     		ldr	r3, .L40+16
 625 01aa D3F8F020 		ldr	r2, [r3, #240]
 626 01ae 42F40052 		orr	r2, r2, #8192
 627 01b2 C3F8F020 		str	r2, [r3, #240]
 278:Core/Src/stm32h7xx_hal_msp.c **** 
 628              		.loc 1 278 5 view .LVU200
 629 01b6 D3F8F020 		ldr	r2, [r3, #240]
 630 01ba 02F40052 		and	r2, r2, #8192
 631 01be 0892     		str	r2, [sp, #32]
 278:Core/Src/stm32h7xx_hal_msp.c **** 
 632              		.loc 1 278 5 view .LVU201
 633 01c0 089A     		ldr	r2, [sp, #32]
 634              	.LBE12:
 278:Core/Src/stm32h7xx_hal_msp.c **** 
 635              		.loc 1 278 5 view .LVU202
 280:Core/Src/stm32h7xx_hal_msp.c ****     /**SPI4 GPIO Configuration
 636              		.loc 1 280 5 view .LVU203
 637              	.LBB13:
 280:Core/Src/stm32h7xx_hal_msp.c ****     /**SPI4 GPIO Configuration
 638              		.loc 1 280 5 view .LVU204
 280:Core/Src/stm32h7xx_hal_msp.c ****     /**SPI4 GPIO Configuration
 639              		.loc 1 280 5 view .LVU205
 640 01c2 D3F8E020 		ldr	r2, [r3, #224]
 641 01c6 42F01002 		orr	r2, r2, #16
 642 01ca C3F8E020 		str	r2, [r3, #224]
 280:Core/Src/stm32h7xx_hal_msp.c ****     /**SPI4 GPIO Configuration
 643              		.loc 1 280 5 view .LVU206
 644 01ce D3F8E030 		ldr	r3, [r3, #224]
ARM GAS  /tmp/ccw4nXlO.s 			page 21


 645 01d2 03F01003 		and	r3, r3, #16
 646 01d6 0993     		str	r3, [sp, #36]
 280:Core/Src/stm32h7xx_hal_msp.c ****     /**SPI4 GPIO Configuration
 647              		.loc 1 280 5 view .LVU207
 648 01d8 099B     		ldr	r3, [sp, #36]
 649              	.LBE13:
 280:Core/Src/stm32h7xx_hal_msp.c ****     /**SPI4 GPIO Configuration
 650              		.loc 1 280 5 view .LVU208
 287:Core/Src/stm32h7xx_hal_msp.c ****     GPIO_InitStruct.Mode = GPIO_MODE_AF_PP;
 651              		.loc 1 287 5 view .LVU209
 287:Core/Src/stm32h7xx_hal_msp.c ****     GPIO_InitStruct.Mode = GPIO_MODE_AF_PP;
 652              		.loc 1 287 25 is_stmt 0 view .LVU210
 653 01da 7423     		movs	r3, #116
 654 01dc 3B93     		str	r3, [sp, #236]
 288:Core/Src/stm32h7xx_hal_msp.c ****     GPIO_InitStruct.Pull = GPIO_NOPULL;
 655              		.loc 1 288 5 is_stmt 1 view .LVU211
 288:Core/Src/stm32h7xx_hal_msp.c ****     GPIO_InitStruct.Pull = GPIO_NOPULL;
 656              		.loc 1 288 26 is_stmt 0 view .LVU212
 657 01de 0223     		movs	r3, #2
 658 01e0 3C93     		str	r3, [sp, #240]
 289:Core/Src/stm32h7xx_hal_msp.c ****     GPIO_InitStruct.Speed = GPIO_SPEED_FREQ_LOW;
 659              		.loc 1 289 5 is_stmt 1 view .LVU213
 289:Core/Src/stm32h7xx_hal_msp.c ****     GPIO_InitStruct.Speed = GPIO_SPEED_FREQ_LOW;
 660              		.loc 1 289 26 is_stmt 0 view .LVU214
 661 01e2 0023     		movs	r3, #0
 662 01e4 3D93     		str	r3, [sp, #244]
 290:Core/Src/stm32h7xx_hal_msp.c ****     GPIO_InitStruct.Alternate = GPIO_AF5_SPI4;
 663              		.loc 1 290 5 is_stmt 1 view .LVU215
 290:Core/Src/stm32h7xx_hal_msp.c ****     GPIO_InitStruct.Alternate = GPIO_AF5_SPI4;
 664              		.loc 1 290 27 is_stmt 0 view .LVU216
 665 01e6 3E93     		str	r3, [sp, #248]
 291:Core/Src/stm32h7xx_hal_msp.c ****     HAL_GPIO_Init(GPIOE, &GPIO_InitStruct);
 666              		.loc 1 291 5 is_stmt 1 view .LVU217
 291:Core/Src/stm32h7xx_hal_msp.c ****     HAL_GPIO_Init(GPIOE, &GPIO_InitStruct);
 667              		.loc 1 291 31 is_stmt 0 view .LVU218
 668 01e8 0523     		movs	r3, #5
 669 01ea 3F93     		str	r3, [sp, #252]
 292:Core/Src/stm32h7xx_hal_msp.c **** 
 670              		.loc 1 292 5 is_stmt 1 view .LVU219
 671 01ec 3BA9     		add	r1, sp, #236
 672 01ee 2B48     		ldr	r0, .L40+32
 673 01f0 FFF7FEFF 		bl	HAL_GPIO_Init
 674              	.LVL33:
 675 01f4 20E7     		b	.L22
 676              	.L38:
 274:Core/Src/stm32h7xx_hal_msp.c ****     }
 677              		.loc 1 274 7 view .LVU220
 678 01f6 FFF7FEFF 		bl	Error_Handler
 679              	.LVL34:
 680 01fa D5E7     		b	.L29
 681              	.L35:
 306:Core/Src/stm32h7xx_hal_msp.c ****     PeriphClkInitStruct.Spi6ClockSelection = RCC_SPI6CLKSOURCE_D3PCLK1;
 682              		.loc 1 306 5 view .LVU221
 306:Core/Src/stm32h7xx_hal_msp.c ****     PeriphClkInitStruct.Spi6ClockSelection = RCC_SPI6CLKSOURCE_D3PCLK1;
 683              		.loc 1 306 46 is_stmt 0 view .LVU222
 684 01fc 4FF48042 		mov	r2, #16384
 685 0200 0023     		movs	r3, #0
ARM GAS  /tmp/ccw4nXlO.s 			page 22


 686 0202 CDE90C23 		strd	r2, [sp, #48]
 307:Core/Src/stm32h7xx_hal_msp.c ****     if (HAL_RCCEx_PeriphCLKConfig(&PeriphClkInitStruct) != HAL_OK)
 687              		.loc 1 307 5 is_stmt 1 view .LVU223
 308:Core/Src/stm32h7xx_hal_msp.c ****     {
 688              		.loc 1 308 5 view .LVU224
 308:Core/Src/stm32h7xx_hal_msp.c ****     {
 689              		.loc 1 308 9 is_stmt 0 view .LVU225
 690 0206 0CA8     		add	r0, sp, #48
 691 0208 FFF7FEFF 		bl	HAL_RCCEx_PeriphCLKConfig
 692              	.LVL35:
 308:Core/Src/stm32h7xx_hal_msp.c ****     {
 693              		.loc 1 308 8 discriminator 1 view .LVU226
 694 020c 0028     		cmp	r0, #0
 695 020e 32D1     		bne	.L39
 696              	.L30:
 314:Core/Src/stm32h7xx_hal_msp.c **** 
 697              		.loc 1 314 5 is_stmt 1 view .LVU227
 698              	.LBB14:
 314:Core/Src/stm32h7xx_hal_msp.c **** 
 699              		.loc 1 314 5 view .LVU228
 314:Core/Src/stm32h7xx_hal_msp.c **** 
 700              		.loc 1 314 5 view .LVU229
 701 0210 1E4B     		ldr	r3, .L40+16
 702 0212 D3F8F420 		ldr	r2, [r3, #244]
 703 0216 42F02002 		orr	r2, r2, #32
 704 021a C3F8F420 		str	r2, [r3, #244]
 314:Core/Src/stm32h7xx_hal_msp.c **** 
 705              		.loc 1 314 5 view .LVU230
 706 021e D3F8F420 		ldr	r2, [r3, #244]
 707 0222 02F02002 		and	r2, r2, #32
 708 0226 0A92     		str	r2, [sp, #40]
 314:Core/Src/stm32h7xx_hal_msp.c **** 
 709              		.loc 1 314 5 view .LVU231
 710 0228 0A9A     		ldr	r2, [sp, #40]
 711              	.LBE14:
 314:Core/Src/stm32h7xx_hal_msp.c **** 
 712              		.loc 1 314 5 view .LVU232
 316:Core/Src/stm32h7xx_hal_msp.c ****     /**SPI6 GPIO Configuration
 713              		.loc 1 316 5 view .LVU233
 714              	.LBB15:
 316:Core/Src/stm32h7xx_hal_msp.c ****     /**SPI6 GPIO Configuration
 715              		.loc 1 316 5 view .LVU234
 316:Core/Src/stm32h7xx_hal_msp.c ****     /**SPI6 GPIO Configuration
 716              		.loc 1 316 5 view .LVU235
 717 022a D3F8E020 		ldr	r2, [r3, #224]
 718 022e 42F00102 		orr	r2, r2, #1
 719 0232 C3F8E020 		str	r2, [r3, #224]
 316:Core/Src/stm32h7xx_hal_msp.c ****     /**SPI6 GPIO Configuration
 720              		.loc 1 316 5 view .LVU236
 721 0236 D3F8E030 		ldr	r3, [r3, #224]
 722 023a 03F00103 		and	r3, r3, #1
 723 023e 0B93     		str	r3, [sp, #44]
 316:Core/Src/stm32h7xx_hal_msp.c ****     /**SPI6 GPIO Configuration
 724              		.loc 1 316 5 view .LVU237
 725 0240 0B9B     		ldr	r3, [sp, #44]
 726              	.LBE15:
 316:Core/Src/stm32h7xx_hal_msp.c ****     /**SPI6 GPIO Configuration
ARM GAS  /tmp/ccw4nXlO.s 			page 23


 727              		.loc 1 316 5 view .LVU238
 323:Core/Src/stm32h7xx_hal_msp.c ****     GPIO_InitStruct.Mode = GPIO_MODE_AF_PP;
 728              		.loc 1 323 5 view .LVU239
 323:Core/Src/stm32h7xx_hal_msp.c ****     GPIO_InitStruct.Mode = GPIO_MODE_AF_PP;
 729              		.loc 1 323 25 is_stmt 0 view .LVU240
 730 0242 0123     		movs	r3, #1
 731 0244 3B93     		str	r3, [sp, #236]
 324:Core/Src/stm32h7xx_hal_msp.c ****     GPIO_InitStruct.Pull = GPIO_NOPULL;
 732              		.loc 1 324 5 is_stmt 1 view .LVU241
 324:Core/Src/stm32h7xx_hal_msp.c ****     GPIO_InitStruct.Pull = GPIO_NOPULL;
 733              		.loc 1 324 26 is_stmt 0 view .LVU242
 734 0246 0226     		movs	r6, #2
 735 0248 3C96     		str	r6, [sp, #240]
 325:Core/Src/stm32h7xx_hal_msp.c ****     GPIO_InitStruct.Speed = GPIO_SPEED_FREQ_LOW;
 736              		.loc 1 325 5 is_stmt 1 view .LVU243
 325:Core/Src/stm32h7xx_hal_msp.c ****     GPIO_InitStruct.Speed = GPIO_SPEED_FREQ_LOW;
 737              		.loc 1 325 26 is_stmt 0 view .LVU244
 738 024a 0024     		movs	r4, #0
 739              	.LVL36:
 325:Core/Src/stm32h7xx_hal_msp.c ****     GPIO_InitStruct.Speed = GPIO_SPEED_FREQ_LOW;
 740              		.loc 1 325 26 view .LVU245
 741 024c 3D94     		str	r4, [sp, #244]
 326:Core/Src/stm32h7xx_hal_msp.c ****     GPIO_InitStruct.Alternate = GPIO_AF5_SPI6;
 742              		.loc 1 326 5 is_stmt 1 view .LVU246
 326:Core/Src/stm32h7xx_hal_msp.c ****     GPIO_InitStruct.Alternate = GPIO_AF5_SPI6;
 743              		.loc 1 326 27 is_stmt 0 view .LVU247
 744 024e 3E94     		str	r4, [sp, #248]
 327:Core/Src/stm32h7xx_hal_msp.c ****     HAL_GPIO_Init(GPIOA, &GPIO_InitStruct);
 745              		.loc 1 327 5 is_stmt 1 view .LVU248
 327:Core/Src/stm32h7xx_hal_msp.c ****     HAL_GPIO_Init(GPIOA, &GPIO_InitStruct);
 746              		.loc 1 327 31 is_stmt 0 view .LVU249
 747 0250 0523     		movs	r3, #5
 748 0252 3F93     		str	r3, [sp, #252]
 328:Core/Src/stm32h7xx_hal_msp.c **** 
 749              		.loc 1 328 5 is_stmt 1 view .LVU250
 750 0254 104D     		ldr	r5, .L40+28
 751 0256 3BA9     		add	r1, sp, #236
 752 0258 2846     		mov	r0, r5
 753 025a FFF7FEFF 		bl	HAL_GPIO_Init
 754              	.LVL37:
 330:Core/Src/stm32h7xx_hal_msp.c ****     GPIO_InitStruct.Mode = GPIO_MODE_AF_PP;
 755              		.loc 1 330 5 view .LVU251
 330:Core/Src/stm32h7xx_hal_msp.c ****     GPIO_InitStruct.Mode = GPIO_MODE_AF_PP;
 756              		.loc 1 330 25 is_stmt 0 view .LVU252
 757 025e E023     		movs	r3, #224
 758 0260 3B93     		str	r3, [sp, #236]
 331:Core/Src/stm32h7xx_hal_msp.c ****     GPIO_InitStruct.Pull = GPIO_NOPULL;
 759              		.loc 1 331 5 is_stmt 1 view .LVU253
 331:Core/Src/stm32h7xx_hal_msp.c ****     GPIO_InitStruct.Pull = GPIO_NOPULL;
 760              		.loc 1 331 26 is_stmt 0 view .LVU254
 761 0262 3C96     		str	r6, [sp, #240]
 332:Core/Src/stm32h7xx_hal_msp.c ****     GPIO_InitStruct.Speed = GPIO_SPEED_FREQ_LOW;
 762              		.loc 1 332 5 is_stmt 1 view .LVU255
 332:Core/Src/stm32h7xx_hal_msp.c ****     GPIO_InitStruct.Speed = GPIO_SPEED_FREQ_LOW;
 763              		.loc 1 332 26 is_stmt 0 view .LVU256
 764 0264 3D94     		str	r4, [sp, #244]
 333:Core/Src/stm32h7xx_hal_msp.c ****     GPIO_InitStruct.Alternate = GPIO_AF8_SPI6;
ARM GAS  /tmp/ccw4nXlO.s 			page 24


 765              		.loc 1 333 5 is_stmt 1 view .LVU257
 333:Core/Src/stm32h7xx_hal_msp.c ****     GPIO_InitStruct.Alternate = GPIO_AF8_SPI6;
 766              		.loc 1 333 27 is_stmt 0 view .LVU258
 767 0266 3E94     		str	r4, [sp, #248]
 334:Core/Src/stm32h7xx_hal_msp.c ****     HAL_GPIO_Init(GPIOA, &GPIO_InitStruct);
 768              		.loc 1 334 5 is_stmt 1 view .LVU259
 334:Core/Src/stm32h7xx_hal_msp.c ****     HAL_GPIO_Init(GPIOA, &GPIO_InitStruct);
 769              		.loc 1 334 31 is_stmt 0 view .LVU260
 770 0268 0823     		movs	r3, #8
 771 026a 3F93     		str	r3, [sp, #252]
 335:Core/Src/stm32h7xx_hal_msp.c **** 
 772              		.loc 1 335 5 is_stmt 1 view .LVU261
 773 026c 3BA9     		add	r1, sp, #236
 774 026e 2846     		mov	r0, r5
 775 0270 FFF7FEFF 		bl	HAL_GPIO_Init
 776              	.LVL38:
 777              		.loc 1 342 1 is_stmt 0 view .LVU262
 778 0274 E0E6     		b	.L22
 779              	.LVL39:
 780              	.L39:
 310:Core/Src/stm32h7xx_hal_msp.c ****     }
 781              		.loc 1 310 7 is_stmt 1 view .LVU263
 782 0276 FFF7FEFF 		bl	Error_Handler
 783              	.LVL40:
 784 027a C9E7     		b	.L30
 785              	.L41:
 786              		.align	2
 787              	.L40:
 788 027c 00380040 		.word	1073756160
 789 0280 003C0040 		.word	1073757184
 790 0284 00340140 		.word	1073820672
 791 0288 00140058 		.word	1476400128
 792 028c 00440258 		.word	1476543488
 793 0290 00080258 		.word	1476528128
 794 0294 00040258 		.word	1476527104
 795 0298 00000258 		.word	1476526080
 796 029c 00100258 		.word	1476530176
 797              		.cfi_endproc
 798              	.LFE147:
 800              		.section	.text.HAL_SPI_MspDeInit,"ax",%progbits
 801              		.align	1
 802              		.global	HAL_SPI_MspDeInit
 803              		.syntax unified
 804              		.thumb
 805              		.thumb_func
 807              	HAL_SPI_MspDeInit:
 808              	.LVL41:
 809              	.LFB148:
 343:Core/Src/stm32h7xx_hal_msp.c **** 
 344:Core/Src/stm32h7xx_hal_msp.c **** /**
 345:Core/Src/stm32h7xx_hal_msp.c **** * @brief SPI MSP De-Initialization
 346:Core/Src/stm32h7xx_hal_msp.c **** * This function freeze the hardware resources used in this example
 347:Core/Src/stm32h7xx_hal_msp.c **** * @param hspi: SPI handle pointer
 348:Core/Src/stm32h7xx_hal_msp.c **** * @retval None
 349:Core/Src/stm32h7xx_hal_msp.c **** */
 350:Core/Src/stm32h7xx_hal_msp.c **** void HAL_SPI_MspDeInit(SPI_HandleTypeDef* hspi)
 351:Core/Src/stm32h7xx_hal_msp.c **** {
ARM GAS  /tmp/ccw4nXlO.s 			page 25


 810              		.loc 1 351 1 view -0
 811              		.cfi_startproc
 812              		@ args = 0, pretend = 0, frame = 0
 813              		@ frame_needed = 0, uses_anonymous_args = 0
 814              		.loc 1 351 1 is_stmt 0 view .LVU265
 815 0000 08B5     		push	{r3, lr}
 816              		.cfi_def_cfa_offset 8
 817              		.cfi_offset 3, -8
 818              		.cfi_offset 14, -4
 352:Core/Src/stm32h7xx_hal_msp.c ****   if(hspi->Instance==SPI2)
 819              		.loc 1 352 3 is_stmt 1 view .LVU266
 820              		.loc 1 352 10 is_stmt 0 view .LVU267
 821 0002 0368     		ldr	r3, [r0]
 822              		.loc 1 352 5 view .LVU268
 823 0004 254A     		ldr	r2, .L52
 824 0006 9342     		cmp	r3, r2
 825 0008 09D0     		beq	.L48
 353:Core/Src/stm32h7xx_hal_msp.c ****   {
 354:Core/Src/stm32h7xx_hal_msp.c ****   /* USER CODE BEGIN SPI2_MspDeInit 0 */
 355:Core/Src/stm32h7xx_hal_msp.c **** 
 356:Core/Src/stm32h7xx_hal_msp.c ****   /* USER CODE END SPI2_MspDeInit 0 */
 357:Core/Src/stm32h7xx_hal_msp.c ****     /* Peripheral clock disable */
 358:Core/Src/stm32h7xx_hal_msp.c ****     __HAL_RCC_SPI2_CLK_DISABLE();
 359:Core/Src/stm32h7xx_hal_msp.c **** 
 360:Core/Src/stm32h7xx_hal_msp.c ****     /**SPI2 GPIO Configuration
 361:Core/Src/stm32h7xx_hal_msp.c ****     PC1     ------> SPI2_MOSI
 362:Core/Src/stm32h7xx_hal_msp.c ****     PC2_C     ------> SPI2_MISO
 363:Core/Src/stm32h7xx_hal_msp.c ****     PB12     ------> SPI2_NSS
 364:Core/Src/stm32h7xx_hal_msp.c ****     PB13     ------> SPI2_SCK
 365:Core/Src/stm32h7xx_hal_msp.c ****     */
 366:Core/Src/stm32h7xx_hal_msp.c ****     HAL_GPIO_DeInit(GPIOC, GPIO_PIN_1|GPIO_PIN_2);
 367:Core/Src/stm32h7xx_hal_msp.c **** 
 368:Core/Src/stm32h7xx_hal_msp.c ****     HAL_GPIO_DeInit(GPIOB, GPIO_PIN_12|GPIO_PIN_13);
 369:Core/Src/stm32h7xx_hal_msp.c **** 
 370:Core/Src/stm32h7xx_hal_msp.c ****   /* USER CODE BEGIN SPI2_MspDeInit 1 */
 371:Core/Src/stm32h7xx_hal_msp.c **** 
 372:Core/Src/stm32h7xx_hal_msp.c ****   /* USER CODE END SPI2_MspDeInit 1 */
 373:Core/Src/stm32h7xx_hal_msp.c ****   }
 374:Core/Src/stm32h7xx_hal_msp.c ****   else if(hspi->Instance==SPI3)
 826              		.loc 1 374 8 is_stmt 1 view .LVU269
 827              		.loc 1 374 10 is_stmt 0 view .LVU270
 828 000a 254A     		ldr	r2, .L52+4
 829 000c 9342     		cmp	r3, r2
 830 000e 17D0     		beq	.L49
 375:Core/Src/stm32h7xx_hal_msp.c ****   {
 376:Core/Src/stm32h7xx_hal_msp.c ****   /* USER CODE BEGIN SPI3_MspDeInit 0 */
 377:Core/Src/stm32h7xx_hal_msp.c **** 
 378:Core/Src/stm32h7xx_hal_msp.c ****   /* USER CODE END SPI3_MspDeInit 0 */
 379:Core/Src/stm32h7xx_hal_msp.c ****     /* Peripheral clock disable */
 380:Core/Src/stm32h7xx_hal_msp.c ****     __HAL_RCC_SPI3_CLK_DISABLE();
 381:Core/Src/stm32h7xx_hal_msp.c **** 
 382:Core/Src/stm32h7xx_hal_msp.c ****     /**SPI3 GPIO Configuration
 383:Core/Src/stm32h7xx_hal_msp.c ****     PA4     ------> SPI3_NSS
 384:Core/Src/stm32h7xx_hal_msp.c ****     PB2     ------> SPI3_MOSI
 385:Core/Src/stm32h7xx_hal_msp.c ****     PC10     ------> SPI3_SCK
 386:Core/Src/stm32h7xx_hal_msp.c ****     PC11     ------> SPI3_MISO
 387:Core/Src/stm32h7xx_hal_msp.c ****     */
ARM GAS  /tmp/ccw4nXlO.s 			page 26


 388:Core/Src/stm32h7xx_hal_msp.c ****     HAL_GPIO_DeInit(GPIOA, GPIO_PIN_4);
 389:Core/Src/stm32h7xx_hal_msp.c **** 
 390:Core/Src/stm32h7xx_hal_msp.c ****     HAL_GPIO_DeInit(GPIOB, GPIO_PIN_2);
 391:Core/Src/stm32h7xx_hal_msp.c **** 
 392:Core/Src/stm32h7xx_hal_msp.c ****     HAL_GPIO_DeInit(GPIOC, GPIO_PIN_10|GPIO_PIN_11);
 393:Core/Src/stm32h7xx_hal_msp.c **** 
 394:Core/Src/stm32h7xx_hal_msp.c ****   /* USER CODE BEGIN SPI3_MspDeInit 1 */
 395:Core/Src/stm32h7xx_hal_msp.c **** 
 396:Core/Src/stm32h7xx_hal_msp.c ****   /* USER CODE END SPI3_MspDeInit 1 */
 397:Core/Src/stm32h7xx_hal_msp.c ****   }
 398:Core/Src/stm32h7xx_hal_msp.c ****   else if(hspi->Instance==SPI4)
 831              		.loc 1 398 8 is_stmt 1 view .LVU271
 832              		.loc 1 398 10 is_stmt 0 view .LVU272
 833 0010 244A     		ldr	r2, .L52+8
 834 0012 9342     		cmp	r3, r2
 835 0014 29D0     		beq	.L50
 399:Core/Src/stm32h7xx_hal_msp.c ****   {
 400:Core/Src/stm32h7xx_hal_msp.c ****   /* USER CODE BEGIN SPI4_MspDeInit 0 */
 401:Core/Src/stm32h7xx_hal_msp.c **** 
 402:Core/Src/stm32h7xx_hal_msp.c ****   /* USER CODE END SPI4_MspDeInit 0 */
 403:Core/Src/stm32h7xx_hal_msp.c ****     /* Peripheral clock disable */
 404:Core/Src/stm32h7xx_hal_msp.c ****     __HAL_RCC_SPI4_CLK_DISABLE();
 405:Core/Src/stm32h7xx_hal_msp.c **** 
 406:Core/Src/stm32h7xx_hal_msp.c ****     /**SPI4 GPIO Configuration
 407:Core/Src/stm32h7xx_hal_msp.c ****     PE2     ------> SPI4_SCK
 408:Core/Src/stm32h7xx_hal_msp.c ****     PE4     ------> SPI4_NSS
 409:Core/Src/stm32h7xx_hal_msp.c ****     PE5     ------> SPI4_MISO
 410:Core/Src/stm32h7xx_hal_msp.c ****     PE6     ------> SPI4_MOSI
 411:Core/Src/stm32h7xx_hal_msp.c ****     */
 412:Core/Src/stm32h7xx_hal_msp.c ****     HAL_GPIO_DeInit(GPIOE, GPIO_PIN_2|GPIO_PIN_4|GPIO_PIN_5|GPIO_PIN_6);
 413:Core/Src/stm32h7xx_hal_msp.c **** 
 414:Core/Src/stm32h7xx_hal_msp.c ****   /* USER CODE BEGIN SPI4_MspDeInit 1 */
 415:Core/Src/stm32h7xx_hal_msp.c **** 
 416:Core/Src/stm32h7xx_hal_msp.c ****   /* USER CODE END SPI4_MspDeInit 1 */
 417:Core/Src/stm32h7xx_hal_msp.c ****   }
 418:Core/Src/stm32h7xx_hal_msp.c ****   else if(hspi->Instance==SPI6)
 836              		.loc 1 418 8 is_stmt 1 view .LVU273
 837              		.loc 1 418 10 is_stmt 0 view .LVU274
 838 0016 244A     		ldr	r2, .L52+12
 839 0018 9342     		cmp	r3, r2
 840 001a 32D0     		beq	.L51
 841              	.LVL42:
 842              	.L42:
 419:Core/Src/stm32h7xx_hal_msp.c ****   {
 420:Core/Src/stm32h7xx_hal_msp.c ****   /* USER CODE BEGIN SPI6_MspDeInit 0 */
 421:Core/Src/stm32h7xx_hal_msp.c **** 
 422:Core/Src/stm32h7xx_hal_msp.c ****   /* USER CODE END SPI6_MspDeInit 0 */
 423:Core/Src/stm32h7xx_hal_msp.c ****     /* Peripheral clock disable */
 424:Core/Src/stm32h7xx_hal_msp.c ****     __HAL_RCC_SPI6_CLK_DISABLE();
 425:Core/Src/stm32h7xx_hal_msp.c **** 
 426:Core/Src/stm32h7xx_hal_msp.c ****     /**SPI6 GPIO Configuration
 427:Core/Src/stm32h7xx_hal_msp.c ****     PA0     ------> SPI6_NSS
 428:Core/Src/stm32h7xx_hal_msp.c ****     PA5     ------> SPI6_SCK
 429:Core/Src/stm32h7xx_hal_msp.c ****     PA6     ------> SPI6_MISO
 430:Core/Src/stm32h7xx_hal_msp.c ****     PA7     ------> SPI6_MOSI
 431:Core/Src/stm32h7xx_hal_msp.c ****     */
 432:Core/Src/stm32h7xx_hal_msp.c ****     HAL_GPIO_DeInit(GPIOA, GPIO_PIN_0|GPIO_PIN_5|GPIO_PIN_6|GPIO_PIN_7);
ARM GAS  /tmp/ccw4nXlO.s 			page 27


 433:Core/Src/stm32h7xx_hal_msp.c **** 
 434:Core/Src/stm32h7xx_hal_msp.c ****   /* USER CODE BEGIN SPI6_MspDeInit 1 */
 435:Core/Src/stm32h7xx_hal_msp.c **** 
 436:Core/Src/stm32h7xx_hal_msp.c ****   /* USER CODE END SPI6_MspDeInit 1 */
 437:Core/Src/stm32h7xx_hal_msp.c ****   }
 438:Core/Src/stm32h7xx_hal_msp.c **** 
 439:Core/Src/stm32h7xx_hal_msp.c **** }
 843              		.loc 1 439 1 view .LVU275
 844 001c 08BD     		pop	{r3, pc}
 845              	.LVL43:
 846              	.L48:
 358:Core/Src/stm32h7xx_hal_msp.c **** 
 847              		.loc 1 358 5 is_stmt 1 view .LVU276
 848 001e 234A     		ldr	r2, .L52+16
 849 0020 D2F8E830 		ldr	r3, [r2, #232]
 850 0024 23F48043 		bic	r3, r3, #16384
 851 0028 C2F8E830 		str	r3, [r2, #232]
 366:Core/Src/stm32h7xx_hal_msp.c **** 
 852              		.loc 1 366 5 view .LVU277
 853 002c 0621     		movs	r1, #6
 854 002e 2048     		ldr	r0, .L52+20
 855              	.LVL44:
 366:Core/Src/stm32h7xx_hal_msp.c **** 
 856              		.loc 1 366 5 is_stmt 0 view .LVU278
 857 0030 FFF7FEFF 		bl	HAL_GPIO_DeInit
 858              	.LVL45:
 368:Core/Src/stm32h7xx_hal_msp.c **** 
 859              		.loc 1 368 5 is_stmt 1 view .LVU279
 860 0034 4FF44051 		mov	r1, #12288
 861 0038 1E48     		ldr	r0, .L52+24
 862 003a FFF7FEFF 		bl	HAL_GPIO_DeInit
 863              	.LVL46:
 864 003e EDE7     		b	.L42
 865              	.LVL47:
 866              	.L49:
 380:Core/Src/stm32h7xx_hal_msp.c **** 
 867              		.loc 1 380 5 view .LVU280
 868 0040 1A4A     		ldr	r2, .L52+16
 869 0042 D2F8E830 		ldr	r3, [r2, #232]
 870 0046 23F40043 		bic	r3, r3, #32768
 871 004a C2F8E830 		str	r3, [r2, #232]
 388:Core/Src/stm32h7xx_hal_msp.c **** 
 872              		.loc 1 388 5 view .LVU281
 873 004e 1021     		movs	r1, #16
 874 0050 1948     		ldr	r0, .L52+28
 875              	.LVL48:
 388:Core/Src/stm32h7xx_hal_msp.c **** 
 876              		.loc 1 388 5 is_stmt 0 view .LVU282
 877 0052 FFF7FEFF 		bl	HAL_GPIO_DeInit
 878              	.LVL49:
 390:Core/Src/stm32h7xx_hal_msp.c **** 
 879              		.loc 1 390 5 is_stmt 1 view .LVU283
 880 0056 0421     		movs	r1, #4
 881 0058 1648     		ldr	r0, .L52+24
 882 005a FFF7FEFF 		bl	HAL_GPIO_DeInit
 883              	.LVL50:
 392:Core/Src/stm32h7xx_hal_msp.c **** 
ARM GAS  /tmp/ccw4nXlO.s 			page 28


 884              		.loc 1 392 5 view .LVU284
 885 005e 4FF44061 		mov	r1, #3072
 886 0062 1348     		ldr	r0, .L52+20
 887 0064 FFF7FEFF 		bl	HAL_GPIO_DeInit
 888              	.LVL51:
 889 0068 D8E7     		b	.L42
 890              	.LVL52:
 891              	.L50:
 404:Core/Src/stm32h7xx_hal_msp.c **** 
 892              		.loc 1 404 5 view .LVU285
 893 006a 104A     		ldr	r2, .L52+16
 894 006c D2F8F030 		ldr	r3, [r2, #240]
 895 0070 23F40053 		bic	r3, r3, #8192
 896 0074 C2F8F030 		str	r3, [r2, #240]
 412:Core/Src/stm32h7xx_hal_msp.c **** 
 897              		.loc 1 412 5 view .LVU286
 898 0078 7421     		movs	r1, #116
 899 007a 1048     		ldr	r0, .L52+32
 900              	.LVL53:
 412:Core/Src/stm32h7xx_hal_msp.c **** 
 901              		.loc 1 412 5 is_stmt 0 view .LVU287
 902 007c FFF7FEFF 		bl	HAL_GPIO_DeInit
 903              	.LVL54:
 904 0080 CCE7     		b	.L42
 905              	.LVL55:
 906              	.L51:
 424:Core/Src/stm32h7xx_hal_msp.c **** 
 907              		.loc 1 424 5 is_stmt 1 view .LVU288
 908 0082 02F50C32 		add	r2, r2, #143360
 909 0086 D2F8F430 		ldr	r3, [r2, #244]
 910 008a 23F02003 		bic	r3, r3, #32
 911 008e C2F8F430 		str	r3, [r2, #244]
 432:Core/Src/stm32h7xx_hal_msp.c **** 
 912              		.loc 1 432 5 view .LVU289
 913 0092 E121     		movs	r1, #225
 914 0094 0848     		ldr	r0, .L52+28
 915              	.LVL56:
 432:Core/Src/stm32h7xx_hal_msp.c **** 
 916              		.loc 1 432 5 is_stmt 0 view .LVU290
 917 0096 FFF7FEFF 		bl	HAL_GPIO_DeInit
 918              	.LVL57:
 919              		.loc 1 439 1 view .LVU291
 920 009a BFE7     		b	.L42
 921              	.L53:
 922              		.align	2
 923              	.L52:
 924 009c 00380040 		.word	1073756160
 925 00a0 003C0040 		.word	1073757184
 926 00a4 00340140 		.word	1073820672
 927 00a8 00140058 		.word	1476400128
 928 00ac 00440258 		.word	1476543488
 929 00b0 00080258 		.word	1476528128
 930 00b4 00040258 		.word	1476527104
 931 00b8 00000258 		.word	1476526080
 932 00bc 00100258 		.word	1476530176
 933              		.cfi_endproc
 934              	.LFE148:
ARM GAS  /tmp/ccw4nXlO.s 			page 29


 936              		.section	.text.HAL_UART_MspInit,"ax",%progbits
 937              		.align	1
 938              		.global	HAL_UART_MspInit
 939              		.syntax unified
 940              		.thumb
 941              		.thumb_func
 943              	HAL_UART_MspInit:
 944              	.LVL58:
 945              	.LFB149:
 440:Core/Src/stm32h7xx_hal_msp.c **** 
 441:Core/Src/stm32h7xx_hal_msp.c **** /**
 442:Core/Src/stm32h7xx_hal_msp.c **** * @brief UART MSP Initialization
 443:Core/Src/stm32h7xx_hal_msp.c **** * This function configures the hardware resources used in this example
 444:Core/Src/stm32h7xx_hal_msp.c **** * @param huart: UART handle pointer
 445:Core/Src/stm32h7xx_hal_msp.c **** * @retval None
 446:Core/Src/stm32h7xx_hal_msp.c **** */
 447:Core/Src/stm32h7xx_hal_msp.c **** void HAL_UART_MspInit(UART_HandleTypeDef* huart)
 448:Core/Src/stm32h7xx_hal_msp.c **** {
 946              		.loc 1 448 1 is_stmt 1 view -0
 947              		.cfi_startproc
 948              		@ args = 0, pretend = 0, frame = 216
 949              		@ frame_needed = 0, uses_anonymous_args = 0
 950              		.loc 1 448 1 is_stmt 0 view .LVU293
 951 0000 10B5     		push	{r4, lr}
 952              		.cfi_def_cfa_offset 8
 953              		.cfi_offset 4, -8
 954              		.cfi_offset 14, -4
 955 0002 B6B0     		sub	sp, sp, #216
 956              		.cfi_def_cfa_offset 224
 957 0004 0446     		mov	r4, r0
 449:Core/Src/stm32h7xx_hal_msp.c ****   GPIO_InitTypeDef GPIO_InitStruct = {0};
 958              		.loc 1 449 3 is_stmt 1 view .LVU294
 959              		.loc 1 449 20 is_stmt 0 view .LVU295
 960 0006 0021     		movs	r1, #0
 961 0008 3191     		str	r1, [sp, #196]
 962 000a 3291     		str	r1, [sp, #200]
 963 000c 3391     		str	r1, [sp, #204]
 964 000e 3491     		str	r1, [sp, #208]
 965 0010 3591     		str	r1, [sp, #212]
 450:Core/Src/stm32h7xx_hal_msp.c ****   RCC_PeriphCLKInitTypeDef PeriphClkInitStruct = {0};
 966              		.loc 1 450 3 is_stmt 1 view .LVU296
 967              		.loc 1 450 28 is_stmt 0 view .LVU297
 968 0012 B822     		movs	r2, #184
 969 0014 02A8     		add	r0, sp, #8
 970              	.LVL59:
 971              		.loc 1 450 28 view .LVU298
 972 0016 FFF7FEFF 		bl	memset
 973              	.LVL60:
 451:Core/Src/stm32h7xx_hal_msp.c ****   if(huart->Instance==USART2)
 974              		.loc 1 451 3 is_stmt 1 view .LVU299
 975              		.loc 1 451 11 is_stmt 0 view .LVU300
 976 001a 2268     		ldr	r2, [r4]
 977              		.loc 1 451 5 view .LVU301
 978 001c 1B4B     		ldr	r3, .L60
 979 001e 9A42     		cmp	r2, r3
 980 0020 01D0     		beq	.L58
 981              	.L54:
ARM GAS  /tmp/ccw4nXlO.s 			page 30


 452:Core/Src/stm32h7xx_hal_msp.c ****   {
 453:Core/Src/stm32h7xx_hal_msp.c ****   /* USER CODE BEGIN USART2_MspInit 0 */
 454:Core/Src/stm32h7xx_hal_msp.c **** 
 455:Core/Src/stm32h7xx_hal_msp.c ****   /* USER CODE END USART2_MspInit 0 */
 456:Core/Src/stm32h7xx_hal_msp.c **** 
 457:Core/Src/stm32h7xx_hal_msp.c ****   /** Initializes the peripherals clock
 458:Core/Src/stm32h7xx_hal_msp.c ****   */
 459:Core/Src/stm32h7xx_hal_msp.c ****     PeriphClkInitStruct.PeriphClockSelection = RCC_PERIPHCLK_USART2;
 460:Core/Src/stm32h7xx_hal_msp.c ****     PeriphClkInitStruct.Usart234578ClockSelection = RCC_USART234578CLKSOURCE_D2PCLK1;
 461:Core/Src/stm32h7xx_hal_msp.c ****     if (HAL_RCCEx_PeriphCLKConfig(&PeriphClkInitStruct) != HAL_OK)
 462:Core/Src/stm32h7xx_hal_msp.c ****     {
 463:Core/Src/stm32h7xx_hal_msp.c ****       Error_Handler();
 464:Core/Src/stm32h7xx_hal_msp.c ****     }
 465:Core/Src/stm32h7xx_hal_msp.c **** 
 466:Core/Src/stm32h7xx_hal_msp.c ****     /* Peripheral clock enable */
 467:Core/Src/stm32h7xx_hal_msp.c ****     __HAL_RCC_USART2_CLK_ENABLE();
 468:Core/Src/stm32h7xx_hal_msp.c **** 
 469:Core/Src/stm32h7xx_hal_msp.c ****     __HAL_RCC_GPIOA_CLK_ENABLE();
 470:Core/Src/stm32h7xx_hal_msp.c ****     /**USART2 GPIO Configuration
 471:Core/Src/stm32h7xx_hal_msp.c ****     PA2     ------> USART2_TX
 472:Core/Src/stm32h7xx_hal_msp.c ****     PA3     ------> USART2_RX
 473:Core/Src/stm32h7xx_hal_msp.c ****     */
 474:Core/Src/stm32h7xx_hal_msp.c ****     GPIO_InitStruct.Pin = GPIO_PIN_2|GPIO_PIN_3;
 475:Core/Src/stm32h7xx_hal_msp.c ****     GPIO_InitStruct.Mode = GPIO_MODE_AF_PP;
 476:Core/Src/stm32h7xx_hal_msp.c ****     GPIO_InitStruct.Pull = GPIO_NOPULL;
 477:Core/Src/stm32h7xx_hal_msp.c ****     GPIO_InitStruct.Speed = GPIO_SPEED_FREQ_LOW;
 478:Core/Src/stm32h7xx_hal_msp.c ****     GPIO_InitStruct.Alternate = GPIO_AF7_USART2;
 479:Core/Src/stm32h7xx_hal_msp.c ****     HAL_GPIO_Init(GPIOA, &GPIO_InitStruct);
 480:Core/Src/stm32h7xx_hal_msp.c **** 
 481:Core/Src/stm32h7xx_hal_msp.c ****   /* USER CODE BEGIN USART2_MspInit 1 */
 482:Core/Src/stm32h7xx_hal_msp.c **** 
 483:Core/Src/stm32h7xx_hal_msp.c ****   /* USER CODE END USART2_MspInit 1 */
 484:Core/Src/stm32h7xx_hal_msp.c ****   }
 485:Core/Src/stm32h7xx_hal_msp.c **** 
 486:Core/Src/stm32h7xx_hal_msp.c **** }
 982              		.loc 1 486 1 view .LVU302
 983 0022 36B0     		add	sp, sp, #216
 984              		.cfi_remember_state
 985              		.cfi_def_cfa_offset 8
 986              		@ sp needed
 987 0024 10BD     		pop	{r4, pc}
 988              	.LVL61:
 989              	.L58:
 990              		.cfi_restore_state
 459:Core/Src/stm32h7xx_hal_msp.c ****     PeriphClkInitStruct.Usart234578ClockSelection = RCC_USART234578CLKSOURCE_D2PCLK1;
 991              		.loc 1 459 5 is_stmt 1 view .LVU303
 459:Core/Src/stm32h7xx_hal_msp.c ****     PeriphClkInitStruct.Usart234578ClockSelection = RCC_USART234578CLKSOURCE_D2PCLK1;
 992              		.loc 1 459 46 is_stmt 0 view .LVU304
 993 0026 0222     		movs	r2, #2
 994 0028 0023     		movs	r3, #0
 995 002a CDE90223 		strd	r2, [sp, #8]
 460:Core/Src/stm32h7xx_hal_msp.c ****     if (HAL_RCCEx_PeriphCLKConfig(&PeriphClkInitStruct) != HAL_OK)
 996              		.loc 1 460 5 is_stmt 1 view .LVU305
 461:Core/Src/stm32h7xx_hal_msp.c ****     {
 997              		.loc 1 461 5 view .LVU306
 461:Core/Src/stm32h7xx_hal_msp.c ****     {
 998              		.loc 1 461 9 is_stmt 0 view .LVU307
ARM GAS  /tmp/ccw4nXlO.s 			page 31


 999 002e 02A8     		add	r0, sp, #8
 1000 0030 FFF7FEFF 		bl	HAL_RCCEx_PeriphCLKConfig
 1001              	.LVL62:
 461:Core/Src/stm32h7xx_hal_msp.c ****     {
 1002              		.loc 1 461 8 discriminator 1 view .LVU308
 1003 0034 30BB     		cbnz	r0, .L59
 1004              	.L56:
 467:Core/Src/stm32h7xx_hal_msp.c **** 
 1005              		.loc 1 467 5 is_stmt 1 view .LVU309
 1006              	.LBB16:
 467:Core/Src/stm32h7xx_hal_msp.c **** 
 1007              		.loc 1 467 5 view .LVU310
 467:Core/Src/stm32h7xx_hal_msp.c **** 
 1008              		.loc 1 467 5 view .LVU311
 1009 0036 164B     		ldr	r3, .L60+4
 1010 0038 D3F8E820 		ldr	r2, [r3, #232]
 1011 003c 42F40032 		orr	r2, r2, #131072
 1012 0040 C3F8E820 		str	r2, [r3, #232]
 467:Core/Src/stm32h7xx_hal_msp.c **** 
 1013              		.loc 1 467 5 view .LVU312
 1014 0044 D3F8E820 		ldr	r2, [r3, #232]
 1015 0048 02F40032 		and	r2, r2, #131072
 1016 004c 0092     		str	r2, [sp]
 467:Core/Src/stm32h7xx_hal_msp.c **** 
 1017              		.loc 1 467 5 view .LVU313
 1018 004e 009A     		ldr	r2, [sp]
 1019              	.LBE16:
 467:Core/Src/stm32h7xx_hal_msp.c **** 
 1020              		.loc 1 467 5 view .LVU314
 469:Core/Src/stm32h7xx_hal_msp.c ****     /**USART2 GPIO Configuration
 1021              		.loc 1 469 5 view .LVU315
 1022              	.LBB17:
 469:Core/Src/stm32h7xx_hal_msp.c ****     /**USART2 GPIO Configuration
 1023              		.loc 1 469 5 view .LVU316
 469:Core/Src/stm32h7xx_hal_msp.c ****     /**USART2 GPIO Configuration
 1024              		.loc 1 469 5 view .LVU317
 1025 0050 D3F8E020 		ldr	r2, [r3, #224]
 1026 0054 42F00102 		orr	r2, r2, #1
 1027 0058 C3F8E020 		str	r2, [r3, #224]
 469:Core/Src/stm32h7xx_hal_msp.c ****     /**USART2 GPIO Configuration
 1028              		.loc 1 469 5 view .LVU318
 1029 005c D3F8E030 		ldr	r3, [r3, #224]
 1030 0060 03F00103 		and	r3, r3, #1
 1031 0064 0193     		str	r3, [sp, #4]
 469:Core/Src/stm32h7xx_hal_msp.c ****     /**USART2 GPIO Configuration
 1032              		.loc 1 469 5 view .LVU319
 1033 0066 019B     		ldr	r3, [sp, #4]
 1034              	.LBE17:
 469:Core/Src/stm32h7xx_hal_msp.c ****     /**USART2 GPIO Configuration
 1035              		.loc 1 469 5 view .LVU320
 474:Core/Src/stm32h7xx_hal_msp.c ****     GPIO_InitStruct.Mode = GPIO_MODE_AF_PP;
 1036              		.loc 1 474 5 view .LVU321
 474:Core/Src/stm32h7xx_hal_msp.c ****     GPIO_InitStruct.Mode = GPIO_MODE_AF_PP;
 1037              		.loc 1 474 25 is_stmt 0 view .LVU322
 1038 0068 0C23     		movs	r3, #12
 1039 006a 3193     		str	r3, [sp, #196]
 475:Core/Src/stm32h7xx_hal_msp.c ****     GPIO_InitStruct.Pull = GPIO_NOPULL;
ARM GAS  /tmp/ccw4nXlO.s 			page 32


 1040              		.loc 1 475 5 is_stmt 1 view .LVU323
 475:Core/Src/stm32h7xx_hal_msp.c ****     GPIO_InitStruct.Pull = GPIO_NOPULL;
 1041              		.loc 1 475 26 is_stmt 0 view .LVU324
 1042 006c 0223     		movs	r3, #2
 1043 006e 3293     		str	r3, [sp, #200]
 476:Core/Src/stm32h7xx_hal_msp.c ****     GPIO_InitStruct.Speed = GPIO_SPEED_FREQ_LOW;
 1044              		.loc 1 476 5 is_stmt 1 view .LVU325
 476:Core/Src/stm32h7xx_hal_msp.c ****     GPIO_InitStruct.Speed = GPIO_SPEED_FREQ_LOW;
 1045              		.loc 1 476 26 is_stmt 0 view .LVU326
 1046 0070 0023     		movs	r3, #0
 1047 0072 3393     		str	r3, [sp, #204]
 477:Core/Src/stm32h7xx_hal_msp.c ****     GPIO_InitStruct.Alternate = GPIO_AF7_USART2;
 1048              		.loc 1 477 5 is_stmt 1 view .LVU327
 477:Core/Src/stm32h7xx_hal_msp.c ****     GPIO_InitStruct.Alternate = GPIO_AF7_USART2;
 1049              		.loc 1 477 27 is_stmt 0 view .LVU328
 1050 0074 3493     		str	r3, [sp, #208]
 478:Core/Src/stm32h7xx_hal_msp.c ****     HAL_GPIO_Init(GPIOA, &GPIO_InitStruct);
 1051              		.loc 1 478 5 is_stmt 1 view .LVU329
 478:Core/Src/stm32h7xx_hal_msp.c ****     HAL_GPIO_Init(GPIOA, &GPIO_InitStruct);
 1052              		.loc 1 478 31 is_stmt 0 view .LVU330
 1053 0076 0723     		movs	r3, #7
 1054 0078 3593     		str	r3, [sp, #212]
 479:Core/Src/stm32h7xx_hal_msp.c **** 
 1055              		.loc 1 479 5 is_stmt 1 view .LVU331
 1056 007a 31A9     		add	r1, sp, #196
 1057 007c 0548     		ldr	r0, .L60+8
 1058 007e FFF7FEFF 		bl	HAL_GPIO_Init
 1059              	.LVL63:
 1060              		.loc 1 486 1 is_stmt 0 view .LVU332
 1061 0082 CEE7     		b	.L54
 1062              	.L59:
 463:Core/Src/stm32h7xx_hal_msp.c ****     }
 1063              		.loc 1 463 7 is_stmt 1 view .LVU333
 1064 0084 FFF7FEFF 		bl	Error_Handler
 1065              	.LVL64:
 1066 0088 D5E7     		b	.L56
 1067              	.L61:
 1068 008a 00BF     		.align	2
 1069              	.L60:
 1070 008c 00440040 		.word	1073759232
 1071 0090 00440258 		.word	1476543488
 1072 0094 00000258 		.word	1476526080
 1073              		.cfi_endproc
 1074              	.LFE149:
 1076              		.section	.text.HAL_UART_MspDeInit,"ax",%progbits
 1077              		.align	1
 1078              		.global	HAL_UART_MspDeInit
 1079              		.syntax unified
 1080              		.thumb
 1081              		.thumb_func
 1083              	HAL_UART_MspDeInit:
 1084              	.LVL65:
 1085              	.LFB150:
 487:Core/Src/stm32h7xx_hal_msp.c **** 
 488:Core/Src/stm32h7xx_hal_msp.c **** /**
 489:Core/Src/stm32h7xx_hal_msp.c **** * @brief UART MSP De-Initialization
 490:Core/Src/stm32h7xx_hal_msp.c **** * This function freeze the hardware resources used in this example
ARM GAS  /tmp/ccw4nXlO.s 			page 33


 491:Core/Src/stm32h7xx_hal_msp.c **** * @param huart: UART handle pointer
 492:Core/Src/stm32h7xx_hal_msp.c **** * @retval None
 493:Core/Src/stm32h7xx_hal_msp.c **** */
 494:Core/Src/stm32h7xx_hal_msp.c **** void HAL_UART_MspDeInit(UART_HandleTypeDef* huart)
 495:Core/Src/stm32h7xx_hal_msp.c **** {
 1086              		.loc 1 495 1 view -0
 1087              		.cfi_startproc
 1088              		@ args = 0, pretend = 0, frame = 0
 1089              		@ frame_needed = 0, uses_anonymous_args = 0
 1090              		.loc 1 495 1 is_stmt 0 view .LVU335
 1091 0000 08B5     		push	{r3, lr}
 1092              		.cfi_def_cfa_offset 8
 1093              		.cfi_offset 3, -8
 1094              		.cfi_offset 14, -4
 496:Core/Src/stm32h7xx_hal_msp.c ****   if(huart->Instance==USART2)
 1095              		.loc 1 496 3 is_stmt 1 view .LVU336
 1096              		.loc 1 496 11 is_stmt 0 view .LVU337
 1097 0002 0268     		ldr	r2, [r0]
 1098              		.loc 1 496 5 view .LVU338
 1099 0004 074B     		ldr	r3, .L66
 1100 0006 9A42     		cmp	r2, r3
 1101 0008 00D0     		beq	.L65
 1102              	.LVL66:
 1103              	.L62:
 497:Core/Src/stm32h7xx_hal_msp.c ****   {
 498:Core/Src/stm32h7xx_hal_msp.c ****   /* USER CODE BEGIN USART2_MspDeInit 0 */
 499:Core/Src/stm32h7xx_hal_msp.c **** 
 500:Core/Src/stm32h7xx_hal_msp.c ****   /* USER CODE END USART2_MspDeInit 0 */
 501:Core/Src/stm32h7xx_hal_msp.c ****     /* Peripheral clock disable */
 502:Core/Src/stm32h7xx_hal_msp.c ****     __HAL_RCC_USART2_CLK_DISABLE();
 503:Core/Src/stm32h7xx_hal_msp.c **** 
 504:Core/Src/stm32h7xx_hal_msp.c ****     /**USART2 GPIO Configuration
 505:Core/Src/stm32h7xx_hal_msp.c ****     PA2     ------> USART2_TX
 506:Core/Src/stm32h7xx_hal_msp.c ****     PA3     ------> USART2_RX
 507:Core/Src/stm32h7xx_hal_msp.c ****     */
 508:Core/Src/stm32h7xx_hal_msp.c ****     HAL_GPIO_DeInit(GPIOA, GPIO_PIN_2|GPIO_PIN_3);
 509:Core/Src/stm32h7xx_hal_msp.c **** 
 510:Core/Src/stm32h7xx_hal_msp.c ****   /* USER CODE BEGIN USART2_MspDeInit 1 */
 511:Core/Src/stm32h7xx_hal_msp.c **** 
 512:Core/Src/stm32h7xx_hal_msp.c ****   /* USER CODE END USART2_MspDeInit 1 */
 513:Core/Src/stm32h7xx_hal_msp.c ****   }
 514:Core/Src/stm32h7xx_hal_msp.c **** 
 515:Core/Src/stm32h7xx_hal_msp.c **** }
 1104              		.loc 1 515 1 view .LVU339
 1105 000a 08BD     		pop	{r3, pc}
 1106              	.LVL67:
 1107              	.L65:
 502:Core/Src/stm32h7xx_hal_msp.c **** 
 1108              		.loc 1 502 5 is_stmt 1 view .LVU340
 1109 000c 064A     		ldr	r2, .L66+4
 1110 000e D2F8E830 		ldr	r3, [r2, #232]
 1111 0012 23F40033 		bic	r3, r3, #131072
 1112 0016 C2F8E830 		str	r3, [r2, #232]
 508:Core/Src/stm32h7xx_hal_msp.c **** 
 1113              		.loc 1 508 5 view .LVU341
 1114 001a 0C21     		movs	r1, #12
 1115 001c 0348     		ldr	r0, .L66+8
ARM GAS  /tmp/ccw4nXlO.s 			page 34


 1116              	.LVL68:
 508:Core/Src/stm32h7xx_hal_msp.c **** 
 1117              		.loc 1 508 5 is_stmt 0 view .LVU342
 1118 001e FFF7FEFF 		bl	HAL_GPIO_DeInit
 1119              	.LVL69:
 1120              		.loc 1 515 1 view .LVU343
 1121 0022 F2E7     		b	.L62
 1122              	.L67:
 1123              		.align	2
 1124              	.L66:
 1125 0024 00440040 		.word	1073759232
 1126 0028 00440258 		.word	1476543488
 1127 002c 00000258 		.word	1476526080
 1128              		.cfi_endproc
 1129              	.LFE150:
 1131              		.section	.text.HAL_PCD_MspInit,"ax",%progbits
 1132              		.align	1
 1133              		.global	HAL_PCD_MspInit
 1134              		.syntax unified
 1135              		.thumb
 1136              		.thumb_func
 1138              	HAL_PCD_MspInit:
 1139              	.LVL70:
 1140              	.LFB151:
 516:Core/Src/stm32h7xx_hal_msp.c **** 
 517:Core/Src/stm32h7xx_hal_msp.c **** /**
 518:Core/Src/stm32h7xx_hal_msp.c **** * @brief PCD MSP Initialization
 519:Core/Src/stm32h7xx_hal_msp.c **** * This function configures the hardware resources used in this example
 520:Core/Src/stm32h7xx_hal_msp.c **** * @param hpcd: PCD handle pointer
 521:Core/Src/stm32h7xx_hal_msp.c **** * @retval None
 522:Core/Src/stm32h7xx_hal_msp.c **** */
 523:Core/Src/stm32h7xx_hal_msp.c **** void HAL_PCD_MspInit(PCD_HandleTypeDef* hpcd)
 524:Core/Src/stm32h7xx_hal_msp.c **** {
 1141              		.loc 1 524 1 is_stmt 1 view -0
 1142              		.cfi_startproc
 1143              		@ args = 0, pretend = 0, frame = 216
 1144              		@ frame_needed = 0, uses_anonymous_args = 0
 1145              		.loc 1 524 1 is_stmt 0 view .LVU345
 1146 0000 70B5     		push	{r4, r5, r6, lr}
 1147              		.cfi_def_cfa_offset 16
 1148              		.cfi_offset 4, -16
 1149              		.cfi_offset 5, -12
 1150              		.cfi_offset 6, -8
 1151              		.cfi_offset 14, -4
 1152 0002 B6B0     		sub	sp, sp, #216
 1153              		.cfi_def_cfa_offset 232
 1154 0004 0446     		mov	r4, r0
 525:Core/Src/stm32h7xx_hal_msp.c ****   GPIO_InitTypeDef GPIO_InitStruct = {0};
 1155              		.loc 1 525 3 is_stmt 1 view .LVU346
 1156              		.loc 1 525 20 is_stmt 0 view .LVU347
 1157 0006 0021     		movs	r1, #0
 1158 0008 3191     		str	r1, [sp, #196]
 1159 000a 3291     		str	r1, [sp, #200]
 1160 000c 3391     		str	r1, [sp, #204]
 1161 000e 3491     		str	r1, [sp, #208]
 1162 0010 3591     		str	r1, [sp, #212]
 526:Core/Src/stm32h7xx_hal_msp.c ****   RCC_PeriphCLKInitTypeDef PeriphClkInitStruct = {0};
ARM GAS  /tmp/ccw4nXlO.s 			page 35


 1163              		.loc 1 526 3 is_stmt 1 view .LVU348
 1164              		.loc 1 526 28 is_stmt 0 view .LVU349
 1165 0012 B822     		movs	r2, #184
 1166 0014 02A8     		add	r0, sp, #8
 1167              	.LVL71:
 1168              		.loc 1 526 28 view .LVU350
 1169 0016 FFF7FEFF 		bl	memset
 1170              	.LVL72:
 527:Core/Src/stm32h7xx_hal_msp.c ****   if(hpcd->Instance==USB_OTG_HS)
 1171              		.loc 1 527 3 is_stmt 1 view .LVU351
 1172              		.loc 1 527 10 is_stmt 0 view .LVU352
 1173 001a 2268     		ldr	r2, [r4]
 1174              		.loc 1 527 5 view .LVU353
 1175 001c 244B     		ldr	r3, .L74
 1176 001e 9A42     		cmp	r2, r3
 1177 0020 01D0     		beq	.L72
 1178              	.LVL73:
 1179              	.L68:
 528:Core/Src/stm32h7xx_hal_msp.c ****   {
 529:Core/Src/stm32h7xx_hal_msp.c ****   /* USER CODE BEGIN USB_OTG_HS_MspInit 0 */
 530:Core/Src/stm32h7xx_hal_msp.c **** 
 531:Core/Src/stm32h7xx_hal_msp.c ****   /* USER CODE END USB_OTG_HS_MspInit 0 */
 532:Core/Src/stm32h7xx_hal_msp.c **** 
 533:Core/Src/stm32h7xx_hal_msp.c ****   /** Initializes the peripherals clock
 534:Core/Src/stm32h7xx_hal_msp.c ****   */
 535:Core/Src/stm32h7xx_hal_msp.c ****     PeriphClkInitStruct.PeriphClockSelection = RCC_PERIPHCLK_USB;
 536:Core/Src/stm32h7xx_hal_msp.c ****     PeriphClkInitStruct.UsbClockSelection = RCC_USBCLKSOURCE_PLL;
 537:Core/Src/stm32h7xx_hal_msp.c ****     if (HAL_RCCEx_PeriphCLKConfig(&PeriphClkInitStruct) != HAL_OK)
 538:Core/Src/stm32h7xx_hal_msp.c ****     {
 539:Core/Src/stm32h7xx_hal_msp.c ****       Error_Handler();
 540:Core/Src/stm32h7xx_hal_msp.c ****     }
 541:Core/Src/stm32h7xx_hal_msp.c **** 
 542:Core/Src/stm32h7xx_hal_msp.c ****   /** Enable USB Voltage detector
 543:Core/Src/stm32h7xx_hal_msp.c ****   */
 544:Core/Src/stm32h7xx_hal_msp.c ****     HAL_PWREx_EnableUSBVoltageDetector();
 545:Core/Src/stm32h7xx_hal_msp.c **** 
 546:Core/Src/stm32h7xx_hal_msp.c ****     __HAL_RCC_GPIOA_CLK_ENABLE();
 547:Core/Src/stm32h7xx_hal_msp.c ****     /**USB_OTG_HS GPIO Configuration
 548:Core/Src/stm32h7xx_hal_msp.c ****     PA8     ------> USB_OTG_HS_SOF
 549:Core/Src/stm32h7xx_hal_msp.c ****     PA9     ------> USB_OTG_HS_VBUS
 550:Core/Src/stm32h7xx_hal_msp.c ****     */
 551:Core/Src/stm32h7xx_hal_msp.c ****     GPIO_InitStruct.Pin = GPIO_PIN_8;
 552:Core/Src/stm32h7xx_hal_msp.c ****     GPIO_InitStruct.Mode = GPIO_MODE_AF_PP;
 553:Core/Src/stm32h7xx_hal_msp.c ****     GPIO_InitStruct.Pull = GPIO_NOPULL;
 554:Core/Src/stm32h7xx_hal_msp.c ****     GPIO_InitStruct.Speed = GPIO_SPEED_FREQ_LOW;
 555:Core/Src/stm32h7xx_hal_msp.c ****     GPIO_InitStruct.Alternate = GPIO_AF10_OTG1_HS;
 556:Core/Src/stm32h7xx_hal_msp.c ****     HAL_GPIO_Init(GPIOA, &GPIO_InitStruct);
 557:Core/Src/stm32h7xx_hal_msp.c **** 
 558:Core/Src/stm32h7xx_hal_msp.c ****     GPIO_InitStruct.Pin = GPIO_PIN_9;
 559:Core/Src/stm32h7xx_hal_msp.c ****     GPIO_InitStruct.Mode = GPIO_MODE_INPUT;
 560:Core/Src/stm32h7xx_hal_msp.c ****     GPIO_InitStruct.Pull = GPIO_NOPULL;
 561:Core/Src/stm32h7xx_hal_msp.c ****     HAL_GPIO_Init(GPIOA, &GPIO_InitStruct);
 562:Core/Src/stm32h7xx_hal_msp.c **** 
 563:Core/Src/stm32h7xx_hal_msp.c ****     /* Peripheral clock enable */
 564:Core/Src/stm32h7xx_hal_msp.c ****     __HAL_RCC_USB_OTG_HS_CLK_ENABLE();
 565:Core/Src/stm32h7xx_hal_msp.c ****   /* USER CODE BEGIN USB_OTG_HS_MspInit 1 */
 566:Core/Src/stm32h7xx_hal_msp.c **** 
ARM GAS  /tmp/ccw4nXlO.s 			page 36


 567:Core/Src/stm32h7xx_hal_msp.c ****   /* USER CODE END USB_OTG_HS_MspInit 1 */
 568:Core/Src/stm32h7xx_hal_msp.c ****   }
 569:Core/Src/stm32h7xx_hal_msp.c **** 
 570:Core/Src/stm32h7xx_hal_msp.c **** }
 1180              		.loc 1 570 1 view .LVU354
 1181 0022 36B0     		add	sp, sp, #216
 1182              		.cfi_remember_state
 1183              		.cfi_def_cfa_offset 16
 1184              		@ sp needed
 1185 0024 70BD     		pop	{r4, r5, r6, pc}
 1186              	.LVL74:
 1187              	.L72:
 1188              		.cfi_restore_state
 535:Core/Src/stm32h7xx_hal_msp.c ****     PeriphClkInitStruct.UsbClockSelection = RCC_USBCLKSOURCE_PLL;
 1189              		.loc 1 535 5 is_stmt 1 view .LVU355
 535:Core/Src/stm32h7xx_hal_msp.c ****     PeriphClkInitStruct.UsbClockSelection = RCC_USBCLKSOURCE_PLL;
 1190              		.loc 1 535 46 is_stmt 0 view .LVU356
 1191 0026 4FF48022 		mov	r2, #262144
 1192 002a 0023     		movs	r3, #0
 1193 002c CDE90223 		strd	r2, [sp, #8]
 536:Core/Src/stm32h7xx_hal_msp.c ****     if (HAL_RCCEx_PeriphCLKConfig(&PeriphClkInitStruct) != HAL_OK)
 1194              		.loc 1 536 5 is_stmt 1 view .LVU357
 536:Core/Src/stm32h7xx_hal_msp.c ****     if (HAL_RCCEx_PeriphCLKConfig(&PeriphClkInitStruct) != HAL_OK)
 1195              		.loc 1 536 43 is_stmt 0 view .LVU358
 1196 0030 4FF48013 		mov	r3, #1048576
 1197 0034 2393     		str	r3, [sp, #140]
 537:Core/Src/stm32h7xx_hal_msp.c ****     {
 1198              		.loc 1 537 5 is_stmt 1 view .LVU359
 537:Core/Src/stm32h7xx_hal_msp.c ****     {
 1199              		.loc 1 537 9 is_stmt 0 view .LVU360
 1200 0036 02A8     		add	r0, sp, #8
 1201 0038 FFF7FEFF 		bl	HAL_RCCEx_PeriphCLKConfig
 1202              	.LVL75:
 537:Core/Src/stm32h7xx_hal_msp.c ****     {
 1203              		.loc 1 537 8 discriminator 1 view .LVU361
 1204 003c 0028     		cmp	r0, #0
 1205 003e 33D1     		bne	.L73
 1206              	.L70:
 544:Core/Src/stm32h7xx_hal_msp.c **** 
 1207              		.loc 1 544 5 is_stmt 1 view .LVU362
 1208 0040 FFF7FEFF 		bl	HAL_PWREx_EnableUSBVoltageDetector
 1209              	.LVL76:
 546:Core/Src/stm32h7xx_hal_msp.c ****     /**USB_OTG_HS GPIO Configuration
 1210              		.loc 1 546 5 view .LVU363
 1211              	.LBB18:
 546:Core/Src/stm32h7xx_hal_msp.c ****     /**USB_OTG_HS GPIO Configuration
 1212              		.loc 1 546 5 view .LVU364
 546:Core/Src/stm32h7xx_hal_msp.c ****     /**USB_OTG_HS GPIO Configuration
 1213              		.loc 1 546 5 view .LVU365
 1214 0044 1B4C     		ldr	r4, .L74+4
 1215              	.LVL77:
 546:Core/Src/stm32h7xx_hal_msp.c ****     /**USB_OTG_HS GPIO Configuration
 1216              		.loc 1 546 5 is_stmt 0 view .LVU366
 1217 0046 D4F8E030 		ldr	r3, [r4, #224]
 1218 004a 43F00103 		orr	r3, r3, #1
 1219 004e C4F8E030 		str	r3, [r4, #224]
 546:Core/Src/stm32h7xx_hal_msp.c ****     /**USB_OTG_HS GPIO Configuration
ARM GAS  /tmp/ccw4nXlO.s 			page 37


 1220              		.loc 1 546 5 is_stmt 1 view .LVU367
 1221 0052 D4F8E030 		ldr	r3, [r4, #224]
 1222 0056 03F00103 		and	r3, r3, #1
 1223 005a 0093     		str	r3, [sp]
 546:Core/Src/stm32h7xx_hal_msp.c ****     /**USB_OTG_HS GPIO Configuration
 1224              		.loc 1 546 5 view .LVU368
 1225 005c 009B     		ldr	r3, [sp]
 1226              	.LBE18:
 546:Core/Src/stm32h7xx_hal_msp.c ****     /**USB_OTG_HS GPIO Configuration
 1227              		.loc 1 546 5 view .LVU369
 551:Core/Src/stm32h7xx_hal_msp.c ****     GPIO_InitStruct.Mode = GPIO_MODE_AF_PP;
 1228              		.loc 1 551 5 view .LVU370
 551:Core/Src/stm32h7xx_hal_msp.c ****     GPIO_InitStruct.Mode = GPIO_MODE_AF_PP;
 1229              		.loc 1 551 25 is_stmt 0 view .LVU371
 1230 005e 4FF48073 		mov	r3, #256
 1231 0062 3193     		str	r3, [sp, #196]
 552:Core/Src/stm32h7xx_hal_msp.c ****     GPIO_InitStruct.Pull = GPIO_NOPULL;
 1232              		.loc 1 552 5 is_stmt 1 view .LVU372
 552:Core/Src/stm32h7xx_hal_msp.c ****     GPIO_InitStruct.Pull = GPIO_NOPULL;
 1233              		.loc 1 552 26 is_stmt 0 view .LVU373
 1234 0064 0223     		movs	r3, #2
 1235 0066 3293     		str	r3, [sp, #200]
 553:Core/Src/stm32h7xx_hal_msp.c ****     GPIO_InitStruct.Speed = GPIO_SPEED_FREQ_LOW;
 1236              		.loc 1 553 5 is_stmt 1 view .LVU374
 553:Core/Src/stm32h7xx_hal_msp.c ****     GPIO_InitStruct.Speed = GPIO_SPEED_FREQ_LOW;
 1237              		.loc 1 553 26 is_stmt 0 view .LVU375
 1238 0068 0025     		movs	r5, #0
 1239 006a 3395     		str	r5, [sp, #204]
 554:Core/Src/stm32h7xx_hal_msp.c ****     GPIO_InitStruct.Alternate = GPIO_AF10_OTG1_HS;
 1240              		.loc 1 554 5 is_stmt 1 view .LVU376
 554:Core/Src/stm32h7xx_hal_msp.c ****     GPIO_InitStruct.Alternate = GPIO_AF10_OTG1_HS;
 1241              		.loc 1 554 27 is_stmt 0 view .LVU377
 1242 006c 3495     		str	r5, [sp, #208]
 555:Core/Src/stm32h7xx_hal_msp.c ****     HAL_GPIO_Init(GPIOA, &GPIO_InitStruct);
 1243              		.loc 1 555 5 is_stmt 1 view .LVU378
 555:Core/Src/stm32h7xx_hal_msp.c ****     HAL_GPIO_Init(GPIOA, &GPIO_InitStruct);
 1244              		.loc 1 555 31 is_stmt 0 view .LVU379
 1245 006e 0A23     		movs	r3, #10
 1246 0070 3593     		str	r3, [sp, #212]
 556:Core/Src/stm32h7xx_hal_msp.c **** 
 1247              		.loc 1 556 5 is_stmt 1 view .LVU380
 1248 0072 114E     		ldr	r6, .L74+8
 1249 0074 31A9     		add	r1, sp, #196
 1250 0076 3046     		mov	r0, r6
 1251 0078 FFF7FEFF 		bl	HAL_GPIO_Init
 1252              	.LVL78:
 558:Core/Src/stm32h7xx_hal_msp.c ****     GPIO_InitStruct.Mode = GPIO_MODE_INPUT;
 1253              		.loc 1 558 5 view .LVU381
 558:Core/Src/stm32h7xx_hal_msp.c ****     GPIO_InitStruct.Mode = GPIO_MODE_INPUT;
 1254              		.loc 1 558 25 is_stmt 0 view .LVU382
 1255 007c 4FF40073 		mov	r3, #512
 1256 0080 3193     		str	r3, [sp, #196]
 559:Core/Src/stm32h7xx_hal_msp.c ****     GPIO_InitStruct.Pull = GPIO_NOPULL;
 1257              		.loc 1 559 5 is_stmt 1 view .LVU383
 559:Core/Src/stm32h7xx_hal_msp.c ****     GPIO_InitStruct.Pull = GPIO_NOPULL;
 1258              		.loc 1 559 26 is_stmt 0 view .LVU384
 1259 0082 3295     		str	r5, [sp, #200]
ARM GAS  /tmp/ccw4nXlO.s 			page 38


 560:Core/Src/stm32h7xx_hal_msp.c ****     HAL_GPIO_Init(GPIOA, &GPIO_InitStruct);
 1260              		.loc 1 560 5 is_stmt 1 view .LVU385
 560:Core/Src/stm32h7xx_hal_msp.c ****     HAL_GPIO_Init(GPIOA, &GPIO_InitStruct);
 1261              		.loc 1 560 26 is_stmt 0 view .LVU386
 1262 0084 3395     		str	r5, [sp, #204]
 561:Core/Src/stm32h7xx_hal_msp.c **** 
 1263              		.loc 1 561 5 is_stmt 1 view .LVU387
 1264 0086 31A9     		add	r1, sp, #196
 1265 0088 3046     		mov	r0, r6
 1266 008a FFF7FEFF 		bl	HAL_GPIO_Init
 1267              	.LVL79:
 564:Core/Src/stm32h7xx_hal_msp.c ****   /* USER CODE BEGIN USB_OTG_HS_MspInit 1 */
 1268              		.loc 1 564 5 view .LVU388
 1269              	.LBB19:
 564:Core/Src/stm32h7xx_hal_msp.c ****   /* USER CODE BEGIN USB_OTG_HS_MspInit 1 */
 1270              		.loc 1 564 5 view .LVU389
 564:Core/Src/stm32h7xx_hal_msp.c ****   /* USER CODE BEGIN USB_OTG_HS_MspInit 1 */
 1271              		.loc 1 564 5 view .LVU390
 1272 008e D4F8D830 		ldr	r3, [r4, #216]
 1273 0092 43F00073 		orr	r3, r3, #33554432
 1274 0096 C4F8D830 		str	r3, [r4, #216]
 564:Core/Src/stm32h7xx_hal_msp.c ****   /* USER CODE BEGIN USB_OTG_HS_MspInit 1 */
 1275              		.loc 1 564 5 view .LVU391
 1276 009a D4F8D830 		ldr	r3, [r4, #216]
 1277 009e 03F00073 		and	r3, r3, #33554432
 1278 00a2 0193     		str	r3, [sp, #4]
 564:Core/Src/stm32h7xx_hal_msp.c ****   /* USER CODE BEGIN USB_OTG_HS_MspInit 1 */
 1279              		.loc 1 564 5 view .LVU392
 1280 00a4 019B     		ldr	r3, [sp, #4]
 1281              	.LBE19:
 564:Core/Src/stm32h7xx_hal_msp.c ****   /* USER CODE BEGIN USB_OTG_HS_MspInit 1 */
 1282              		.loc 1 564 5 discriminator 1 view .LVU393
 1283              		.loc 1 570 1 is_stmt 0 view .LVU394
 1284 00a6 BCE7     		b	.L68
 1285              	.LVL80:
 1286              	.L73:
 539:Core/Src/stm32h7xx_hal_msp.c ****     }
 1287              		.loc 1 539 7 is_stmt 1 view .LVU395
 1288 00a8 FFF7FEFF 		bl	Error_Handler
 1289              	.LVL81:
 1290 00ac C8E7     		b	.L70
 1291              	.L75:
 1292 00ae 00BF     		.align	2
 1293              	.L74:
 1294 00b0 00000440 		.word	1074003968
 1295 00b4 00440258 		.word	1476543488
 1296 00b8 00000258 		.word	1476526080
 1297              		.cfi_endproc
 1298              	.LFE151:
 1300              		.section	.text.HAL_PCD_MspDeInit,"ax",%progbits
 1301              		.align	1
 1302              		.global	HAL_PCD_MspDeInit
 1303              		.syntax unified
 1304              		.thumb
 1305              		.thumb_func
 1307              	HAL_PCD_MspDeInit:
 1308              	.LVL82:
ARM GAS  /tmp/ccw4nXlO.s 			page 39


 1309              	.LFB152:
 571:Core/Src/stm32h7xx_hal_msp.c **** 
 572:Core/Src/stm32h7xx_hal_msp.c **** /**
 573:Core/Src/stm32h7xx_hal_msp.c **** * @brief PCD MSP De-Initialization
 574:Core/Src/stm32h7xx_hal_msp.c **** * This function freeze the hardware resources used in this example
 575:Core/Src/stm32h7xx_hal_msp.c **** * @param hpcd: PCD handle pointer
 576:Core/Src/stm32h7xx_hal_msp.c **** * @retval None
 577:Core/Src/stm32h7xx_hal_msp.c **** */
 578:Core/Src/stm32h7xx_hal_msp.c **** void HAL_PCD_MspDeInit(PCD_HandleTypeDef* hpcd)
 579:Core/Src/stm32h7xx_hal_msp.c **** {
 1310              		.loc 1 579 1 view -0
 1311              		.cfi_startproc
 1312              		@ args = 0, pretend = 0, frame = 0
 1313              		@ frame_needed = 0, uses_anonymous_args = 0
 1314              		.loc 1 579 1 is_stmt 0 view .LVU397
 1315 0000 08B5     		push	{r3, lr}
 1316              		.cfi_def_cfa_offset 8
 1317              		.cfi_offset 3, -8
 1318              		.cfi_offset 14, -4
 580:Core/Src/stm32h7xx_hal_msp.c ****   if(hpcd->Instance==USB_OTG_HS)
 1319              		.loc 1 580 3 is_stmt 1 view .LVU398
 1320              		.loc 1 580 10 is_stmt 0 view .LVU399
 1321 0002 0268     		ldr	r2, [r0]
 1322              		.loc 1 580 5 view .LVU400
 1323 0004 084B     		ldr	r3, .L80
 1324 0006 9A42     		cmp	r2, r3
 1325 0008 00D0     		beq	.L79
 1326              	.LVL83:
 1327              	.L76:
 581:Core/Src/stm32h7xx_hal_msp.c ****   {
 582:Core/Src/stm32h7xx_hal_msp.c ****   /* USER CODE BEGIN USB_OTG_HS_MspDeInit 0 */
 583:Core/Src/stm32h7xx_hal_msp.c **** 
 584:Core/Src/stm32h7xx_hal_msp.c ****   /* USER CODE END USB_OTG_HS_MspDeInit 0 */
 585:Core/Src/stm32h7xx_hal_msp.c ****     /* Peripheral clock disable */
 586:Core/Src/stm32h7xx_hal_msp.c ****     __HAL_RCC_USB_OTG_HS_CLK_DISABLE();
 587:Core/Src/stm32h7xx_hal_msp.c **** 
 588:Core/Src/stm32h7xx_hal_msp.c ****     /**USB_OTG_HS GPIO Configuration
 589:Core/Src/stm32h7xx_hal_msp.c ****     PA8     ------> USB_OTG_HS_SOF
 590:Core/Src/stm32h7xx_hal_msp.c ****     PA9     ------> USB_OTG_HS_VBUS
 591:Core/Src/stm32h7xx_hal_msp.c ****     */
 592:Core/Src/stm32h7xx_hal_msp.c ****     HAL_GPIO_DeInit(GPIOA, GPIO_PIN_8|GPIO_PIN_9);
 593:Core/Src/stm32h7xx_hal_msp.c **** 
 594:Core/Src/stm32h7xx_hal_msp.c ****   /* USER CODE BEGIN USB_OTG_HS_MspDeInit 1 */
 595:Core/Src/stm32h7xx_hal_msp.c **** 
 596:Core/Src/stm32h7xx_hal_msp.c ****   /* USER CODE END USB_OTG_HS_MspDeInit 1 */
 597:Core/Src/stm32h7xx_hal_msp.c ****   }
 598:Core/Src/stm32h7xx_hal_msp.c **** 
 599:Core/Src/stm32h7xx_hal_msp.c **** }
 1328              		.loc 1 599 1 view .LVU401
 1329 000a 08BD     		pop	{r3, pc}
 1330              	.LVL84:
 1331              	.L79:
 586:Core/Src/stm32h7xx_hal_msp.c **** 
 1332              		.loc 1 586 5 is_stmt 1 view .LVU402
 1333 000c 074A     		ldr	r2, .L80+4
 1334 000e D2F8D830 		ldr	r3, [r2, #216]
 1335 0012 23F00073 		bic	r3, r3, #33554432
ARM GAS  /tmp/ccw4nXlO.s 			page 40


 1336 0016 C2F8D830 		str	r3, [r2, #216]
 592:Core/Src/stm32h7xx_hal_msp.c **** 
 1337              		.loc 1 592 5 view .LVU403
 1338 001a 4FF44071 		mov	r1, #768
 1339 001e 0448     		ldr	r0, .L80+8
 1340              	.LVL85:
 592:Core/Src/stm32h7xx_hal_msp.c **** 
 1341              		.loc 1 592 5 is_stmt 0 view .LVU404
 1342 0020 FFF7FEFF 		bl	HAL_GPIO_DeInit
 1343              	.LVL86:
 1344              		.loc 1 599 1 view .LVU405
 1345 0024 F1E7     		b	.L76
 1346              	.L81:
 1347 0026 00BF     		.align	2
 1348              	.L80:
 1349 0028 00000440 		.word	1074003968
 1350 002c 00440258 		.word	1476543488
 1351 0030 00000258 		.word	1476526080
 1352              		.cfi_endproc
 1353              	.LFE152:
 1355              		.text
 1356              	.Letext0:
 1357              		.file 2 "/usr/arm-none-eabi/include/machine/_default_types.h"
 1358              		.file 3 "/usr/arm-none-eabi/include/sys/_stdint.h"
 1359              		.file 4 "Drivers/CMSIS/Device/ST/STM32H7xx/Include/stm32h723xx.h"
 1360              		.file 5 "Drivers/STM32H7xx_HAL_Driver/Inc/stm32h7xx_hal_def.h"
 1361              		.file 6 "Drivers/STM32H7xx_HAL_Driver/Inc/stm32h7xx_hal_rcc_ex.h"
 1362              		.file 7 "Drivers/STM32H7xx_HAL_Driver/Inc/stm32h7xx_hal_gpio.h"
 1363              		.file 8 "Drivers/STM32H7xx_HAL_Driver/Inc/stm32h7xx_hal_dma.h"
 1364              		.file 9 "Drivers/STM32H7xx_HAL_Driver/Inc/stm32h7xx_hal_i2c.h"
 1365              		.file 10 "Drivers/STM32H7xx_HAL_Driver/Inc/stm32h7xx_hal_spi.h"
 1366              		.file 11 "Drivers/STM32H7xx_HAL_Driver/Inc/stm32h7xx_hal_uart.h"
 1367              		.file 12 "Drivers/STM32H7xx_HAL_Driver/Inc/stm32h7xx_ll_usb.h"
 1368              		.file 13 "Drivers/STM32H7xx_HAL_Driver/Inc/stm32h7xx_hal_pcd.h"
 1369              		.file 14 "Drivers/STM32H7xx_HAL_Driver/Inc/stm32h7xx_hal_pwr_ex.h"
 1370              		.file 15 "Core/Inc/main.h"
 1371              		.file 16 "<built-in>"
ARM GAS  /tmp/ccw4nXlO.s 			page 41

