ARM GAS  /tmp/ccCE1JqB.s 			page 1


   1              		.cpu cortex-m7
   2              		.eabi_attribute 28, 1
   3              		.eabi_attribute 20, 1
   4              		.eabi_attribute 21, 1
   5              		.eabi_attribute 23, 3
   6              		.eabi_attribute 24, 1
   7              		.eabi_attribute 25, 1
   8              		.eabi_attribute 26, 1
   9              		.eabi_attribute 30, 1
  10              		.eabi_attribute 34, 1
  11              		.eabi_attribute 18, 4
  12              		.file	"stm32h7xx_hal_msp.c"
  13              		.text
  14              	.Ltext0:
  15              		.cfi_sections	.debug_frame
  16              		.section	.text.HAL_MspInit,"ax",%progbits
  17              		.align	1
  18              		.global	HAL_MspInit
  19              		.arch armv7e-m
  20              		.syntax unified
  21              		.thumb
  22              		.thumb_func
  23              		.fpu fpv5-d16
  25              	HAL_MspInit:
  26              	.LFB210:
  27              		.file 1 "Core/Src/stm32h7xx_hal_msp.c"
   1:Core/Src/stm32h7xx_hal_msp.c **** /* USER CODE BEGIN Header */
   2:Core/Src/stm32h7xx_hal_msp.c **** /**
   3:Core/Src/stm32h7xx_hal_msp.c ****   ******************************************************************************
   4:Core/Src/stm32h7xx_hal_msp.c ****   * @file         stm32h7xx_hal_msp.c
   5:Core/Src/stm32h7xx_hal_msp.c ****   * @brief        This file provides code for the MSP Initialization
   6:Core/Src/stm32h7xx_hal_msp.c ****   *               and de-Initialization codes.
   7:Core/Src/stm32h7xx_hal_msp.c ****   ******************************************************************************
   8:Core/Src/stm32h7xx_hal_msp.c ****   * @attention
   9:Core/Src/stm32h7xx_hal_msp.c ****   *
  10:Core/Src/stm32h7xx_hal_msp.c ****   * Copyright (c) 2024 STMicroelectronics.
  11:Core/Src/stm32h7xx_hal_msp.c ****   * All rights reserved.
  12:Core/Src/stm32h7xx_hal_msp.c ****   *
  13:Core/Src/stm32h7xx_hal_msp.c ****   * This software is licensed under terms that can be found in the LICENSE file
  14:Core/Src/stm32h7xx_hal_msp.c ****   * in the root directory of this software component.
  15:Core/Src/stm32h7xx_hal_msp.c ****   * If no LICENSE file comes with this software, it is provided AS-IS.
  16:Core/Src/stm32h7xx_hal_msp.c ****   *
  17:Core/Src/stm32h7xx_hal_msp.c ****   ******************************************************************************
  18:Core/Src/stm32h7xx_hal_msp.c ****   */
  19:Core/Src/stm32h7xx_hal_msp.c **** /* USER CODE END Header */
  20:Core/Src/stm32h7xx_hal_msp.c **** 
  21:Core/Src/stm32h7xx_hal_msp.c **** /* Includes ------------------------------------------------------------------*/
  22:Core/Src/stm32h7xx_hal_msp.c **** #include "main.h"
  23:Core/Src/stm32h7xx_hal_msp.c **** 
  24:Core/Src/stm32h7xx_hal_msp.c **** /* USER CODE BEGIN Includes */
  25:Core/Src/stm32h7xx_hal_msp.c **** 
  26:Core/Src/stm32h7xx_hal_msp.c **** /* USER CODE END Includes */
  27:Core/Src/stm32h7xx_hal_msp.c **** 
  28:Core/Src/stm32h7xx_hal_msp.c **** /* Private typedef -----------------------------------------------------------*/
  29:Core/Src/stm32h7xx_hal_msp.c **** /* USER CODE BEGIN TD */
  30:Core/Src/stm32h7xx_hal_msp.c **** 
  31:Core/Src/stm32h7xx_hal_msp.c **** /* USER CODE END TD */
ARM GAS  /tmp/ccCE1JqB.s 			page 2


  32:Core/Src/stm32h7xx_hal_msp.c **** 
  33:Core/Src/stm32h7xx_hal_msp.c **** /* Private define ------------------------------------------------------------*/
  34:Core/Src/stm32h7xx_hal_msp.c **** /* USER CODE BEGIN Define */
  35:Core/Src/stm32h7xx_hal_msp.c **** 
  36:Core/Src/stm32h7xx_hal_msp.c **** /* USER CODE END Define */
  37:Core/Src/stm32h7xx_hal_msp.c **** 
  38:Core/Src/stm32h7xx_hal_msp.c **** /* Private macro -------------------------------------------------------------*/
  39:Core/Src/stm32h7xx_hal_msp.c **** /* USER CODE BEGIN Macro */
  40:Core/Src/stm32h7xx_hal_msp.c **** 
  41:Core/Src/stm32h7xx_hal_msp.c **** /* USER CODE END Macro */
  42:Core/Src/stm32h7xx_hal_msp.c **** 
  43:Core/Src/stm32h7xx_hal_msp.c **** /* Private variables ---------------------------------------------------------*/
  44:Core/Src/stm32h7xx_hal_msp.c **** /* USER CODE BEGIN PV */
  45:Core/Src/stm32h7xx_hal_msp.c **** 
  46:Core/Src/stm32h7xx_hal_msp.c **** /* USER CODE END PV */
  47:Core/Src/stm32h7xx_hal_msp.c **** 
  48:Core/Src/stm32h7xx_hal_msp.c **** /* Private function prototypes -----------------------------------------------*/
  49:Core/Src/stm32h7xx_hal_msp.c **** /* USER CODE BEGIN PFP */
  50:Core/Src/stm32h7xx_hal_msp.c **** 
  51:Core/Src/stm32h7xx_hal_msp.c **** /* USER CODE END PFP */
  52:Core/Src/stm32h7xx_hal_msp.c **** 
  53:Core/Src/stm32h7xx_hal_msp.c **** /* External functions --------------------------------------------------------*/
  54:Core/Src/stm32h7xx_hal_msp.c **** /* USER CODE BEGIN ExternalFunctions */
  55:Core/Src/stm32h7xx_hal_msp.c **** 
  56:Core/Src/stm32h7xx_hal_msp.c **** /* USER CODE END ExternalFunctions */
  57:Core/Src/stm32h7xx_hal_msp.c **** 
  58:Core/Src/stm32h7xx_hal_msp.c **** /* USER CODE BEGIN 0 */
  59:Core/Src/stm32h7xx_hal_msp.c **** 
  60:Core/Src/stm32h7xx_hal_msp.c **** /* USER CODE END 0 */
  61:Core/Src/stm32h7xx_hal_msp.c **** /**
  62:Core/Src/stm32h7xx_hal_msp.c ****   * Initializes the Global MSP.
  63:Core/Src/stm32h7xx_hal_msp.c ****   */
  64:Core/Src/stm32h7xx_hal_msp.c **** void HAL_MspInit(void)
  65:Core/Src/stm32h7xx_hal_msp.c **** {
  28              		.loc 1 65 1 view -0
  29              		.cfi_startproc
  30              		@ args = 0, pretend = 0, frame = 8
  31              		@ frame_needed = 0, uses_anonymous_args = 0
  32              		@ link register save eliminated.
  33 0000 82B0     		sub	sp, sp, #8
  34              	.LCFI0:
  35              		.cfi_def_cfa_offset 8
  66:Core/Src/stm32h7xx_hal_msp.c ****   /* USER CODE BEGIN MspInit 0 */
  67:Core/Src/stm32h7xx_hal_msp.c **** 
  68:Core/Src/stm32h7xx_hal_msp.c ****   /* USER CODE END MspInit 0 */
  69:Core/Src/stm32h7xx_hal_msp.c **** 
  70:Core/Src/stm32h7xx_hal_msp.c ****   __HAL_RCC_SYSCFG_CLK_ENABLE();
  36              		.loc 1 70 3 view .LVU1
  37              	.LBB2:
  38              		.loc 1 70 3 view .LVU2
  39              		.loc 1 70 3 view .LVU3
  40 0002 074B     		ldr	r3, .L3
  41 0004 D3F8F420 		ldr	r2, [r3, #244]
  42 0008 42F00202 		orr	r2, r2, #2
  43 000c C3F8F420 		str	r2, [r3, #244]
  44              		.loc 1 70 3 view .LVU4
  45 0010 D3F8F430 		ldr	r3, [r3, #244]
ARM GAS  /tmp/ccCE1JqB.s 			page 3


  46 0014 03F00203 		and	r3, r3, #2
  47 0018 0193     		str	r3, [sp, #4]
  48              		.loc 1 70 3 view .LVU5
  49 001a 019B     		ldr	r3, [sp, #4]
  50              	.LBE2:
  51              		.loc 1 70 3 view .LVU6
  71:Core/Src/stm32h7xx_hal_msp.c **** 
  72:Core/Src/stm32h7xx_hal_msp.c ****   /* System interrupt init*/
  73:Core/Src/stm32h7xx_hal_msp.c **** 
  74:Core/Src/stm32h7xx_hal_msp.c ****   /* USER CODE BEGIN MspInit 1 */
  75:Core/Src/stm32h7xx_hal_msp.c **** 
  76:Core/Src/stm32h7xx_hal_msp.c ****   /* USER CODE END MspInit 1 */
  77:Core/Src/stm32h7xx_hal_msp.c **** }
  52              		.loc 1 77 1 is_stmt 0 view .LVU7
  53 001c 02B0     		add	sp, sp, #8
  54              	.LCFI1:
  55              		.cfi_def_cfa_offset 0
  56              		@ sp needed
  57 001e 7047     		bx	lr
  58              	.L4:
  59              		.align	2
  60              	.L3:
  61 0020 00440258 		.word	1476543488
  62              		.cfi_endproc
  63              	.LFE210:
  65              		.section	.text.HAL_I2C_MspInit,"ax",%progbits
  66              		.align	1
  67              		.global	HAL_I2C_MspInit
  68              		.syntax unified
  69              		.thumb
  70              		.thumb_func
  71              		.fpu fpv5-d16
  73              	HAL_I2C_MspInit:
  74              	.LVL0:
  75              	.LFB211:
  78:Core/Src/stm32h7xx_hal_msp.c **** 
  79:Core/Src/stm32h7xx_hal_msp.c **** /**
  80:Core/Src/stm32h7xx_hal_msp.c **** * @brief I2C MSP Initialization
  81:Core/Src/stm32h7xx_hal_msp.c **** * This function configures the hardware resources used in this example
  82:Core/Src/stm32h7xx_hal_msp.c **** * @param hi2c: I2C handle pointer
  83:Core/Src/stm32h7xx_hal_msp.c **** * @retval None
  84:Core/Src/stm32h7xx_hal_msp.c **** */
  85:Core/Src/stm32h7xx_hal_msp.c **** void HAL_I2C_MspInit(I2C_HandleTypeDef* hi2c)
  86:Core/Src/stm32h7xx_hal_msp.c **** {
  76              		.loc 1 86 1 is_stmt 1 view -0
  77              		.cfi_startproc
  78              		@ args = 0, pretend = 0, frame = 216
  79              		@ frame_needed = 0, uses_anonymous_args = 0
  80              		.loc 1 86 1 is_stmt 0 view .LVU9
  81 0000 10B5     		push	{r4, lr}
  82              	.LCFI2:
  83              		.cfi_def_cfa_offset 8
  84              		.cfi_offset 4, -8
  85              		.cfi_offset 14, -4
  86 0002 B6B0     		sub	sp, sp, #216
  87              	.LCFI3:
  88              		.cfi_def_cfa_offset 224
ARM GAS  /tmp/ccCE1JqB.s 			page 4


  89 0004 0446     		mov	r4, r0
  87:Core/Src/stm32h7xx_hal_msp.c ****   GPIO_InitTypeDef GPIO_InitStruct = {0};
  90              		.loc 1 87 3 is_stmt 1 view .LVU10
  91              		.loc 1 87 20 is_stmt 0 view .LVU11
  92 0006 0021     		movs	r1, #0
  93 0008 3191     		str	r1, [sp, #196]
  94 000a 3291     		str	r1, [sp, #200]
  95 000c 3391     		str	r1, [sp, #204]
  96 000e 3491     		str	r1, [sp, #208]
  97 0010 3591     		str	r1, [sp, #212]
  88:Core/Src/stm32h7xx_hal_msp.c ****   RCC_PeriphCLKInitTypeDef PeriphClkInitStruct = {0};
  98              		.loc 1 88 3 is_stmt 1 view .LVU12
  99              		.loc 1 88 28 is_stmt 0 view .LVU13
 100 0012 B822     		movs	r2, #184
 101 0014 02A8     		add	r0, sp, #8
 102              	.LVL1:
 103              		.loc 1 88 28 view .LVU14
 104 0016 FFF7FEFF 		bl	memset
 105              	.LVL2:
  89:Core/Src/stm32h7xx_hal_msp.c ****   if(hi2c->Instance==I2C4)
 106              		.loc 1 89 3 is_stmt 1 view .LVU15
 107              		.loc 1 89 10 is_stmt 0 view .LVU16
 108 001a 2268     		ldr	r2, [r4]
 109              		.loc 1 89 5 view .LVU17
 110 001c 1C4B     		ldr	r3, .L11
 111 001e 9A42     		cmp	r2, r3
 112 0020 01D0     		beq	.L9
 113              	.LVL3:
 114              	.L5:
  90:Core/Src/stm32h7xx_hal_msp.c ****   {
  91:Core/Src/stm32h7xx_hal_msp.c ****   /* USER CODE BEGIN I2C4_MspInit 0 */
  92:Core/Src/stm32h7xx_hal_msp.c **** 
  93:Core/Src/stm32h7xx_hal_msp.c ****   /* USER CODE END I2C4_MspInit 0 */
  94:Core/Src/stm32h7xx_hal_msp.c **** 
  95:Core/Src/stm32h7xx_hal_msp.c ****   /** Initializes the peripherals clock
  96:Core/Src/stm32h7xx_hal_msp.c ****   */
  97:Core/Src/stm32h7xx_hal_msp.c ****     PeriphClkInitStruct.PeriphClockSelection = RCC_PERIPHCLK_I2C4;
  98:Core/Src/stm32h7xx_hal_msp.c ****     PeriphClkInitStruct.I2c4ClockSelection = RCC_I2C4CLKSOURCE_D3PCLK1;
  99:Core/Src/stm32h7xx_hal_msp.c ****     if (HAL_RCCEx_PeriphCLKConfig(&PeriphClkInitStruct) != HAL_OK)
 100:Core/Src/stm32h7xx_hal_msp.c ****     {
 101:Core/Src/stm32h7xx_hal_msp.c ****       Error_Handler();
 102:Core/Src/stm32h7xx_hal_msp.c ****     }
 103:Core/Src/stm32h7xx_hal_msp.c **** 
 104:Core/Src/stm32h7xx_hal_msp.c ****     __HAL_RCC_GPIOD_CLK_ENABLE();
 105:Core/Src/stm32h7xx_hal_msp.c ****     /**I2C4 GPIO Configuration
 106:Core/Src/stm32h7xx_hal_msp.c ****     PD12     ------> I2C4_SCL
 107:Core/Src/stm32h7xx_hal_msp.c ****     PD13     ------> I2C4_SDA
 108:Core/Src/stm32h7xx_hal_msp.c ****     */
 109:Core/Src/stm32h7xx_hal_msp.c ****     GPIO_InitStruct.Pin = GPIO_PIN_12|GPIO_PIN_13;
 110:Core/Src/stm32h7xx_hal_msp.c ****     GPIO_InitStruct.Mode = GPIO_MODE_AF_OD;
 111:Core/Src/stm32h7xx_hal_msp.c ****     GPIO_InitStruct.Pull = GPIO_NOPULL;
 112:Core/Src/stm32h7xx_hal_msp.c ****     GPIO_InitStruct.Speed = GPIO_SPEED_FREQ_LOW;
 113:Core/Src/stm32h7xx_hal_msp.c ****     GPIO_InitStruct.Alternate = GPIO_AF4_I2C4;
 114:Core/Src/stm32h7xx_hal_msp.c ****     HAL_GPIO_Init(GPIOD, &GPIO_InitStruct);
 115:Core/Src/stm32h7xx_hal_msp.c **** 
 116:Core/Src/stm32h7xx_hal_msp.c ****     /* Peripheral clock enable */
 117:Core/Src/stm32h7xx_hal_msp.c ****     __HAL_RCC_I2C4_CLK_ENABLE();
ARM GAS  /tmp/ccCE1JqB.s 			page 5


 118:Core/Src/stm32h7xx_hal_msp.c ****   /* USER CODE BEGIN I2C4_MspInit 1 */
 119:Core/Src/stm32h7xx_hal_msp.c **** 
 120:Core/Src/stm32h7xx_hal_msp.c ****   /* USER CODE END I2C4_MspInit 1 */
 121:Core/Src/stm32h7xx_hal_msp.c ****   }
 122:Core/Src/stm32h7xx_hal_msp.c **** 
 123:Core/Src/stm32h7xx_hal_msp.c **** }
 115              		.loc 1 123 1 view .LVU18
 116 0022 36B0     		add	sp, sp, #216
 117              	.LCFI4:
 118              		.cfi_remember_state
 119              		.cfi_def_cfa_offset 8
 120              		@ sp needed
 121 0024 10BD     		pop	{r4, pc}
 122              	.LVL4:
 123              	.L9:
 124              	.LCFI5:
 125              		.cfi_restore_state
  97:Core/Src/stm32h7xx_hal_msp.c ****     PeriphClkInitStruct.I2c4ClockSelection = RCC_I2C4CLKSOURCE_D3PCLK1;
 126              		.loc 1 97 5 is_stmt 1 view .LVU19
  97:Core/Src/stm32h7xx_hal_msp.c ****     PeriphClkInitStruct.I2c4ClockSelection = RCC_I2C4CLKSOURCE_D3PCLK1;
 127              		.loc 1 97 46 is_stmt 0 view .LVU20
 128 0026 1022     		movs	r2, #16
 129 0028 0023     		movs	r3, #0
 130 002a CDE90223 		strd	r2, [sp, #8]
  98:Core/Src/stm32h7xx_hal_msp.c ****     if (HAL_RCCEx_PeriphCLKConfig(&PeriphClkInitStruct) != HAL_OK)
 131              		.loc 1 98 5 is_stmt 1 view .LVU21
  98:Core/Src/stm32h7xx_hal_msp.c ****     if (HAL_RCCEx_PeriphCLKConfig(&PeriphClkInitStruct) != HAL_OK)
 132              		.loc 1 98 44 is_stmt 0 view .LVU22
 133 002e 0023     		movs	r3, #0
 134 0030 2793     		str	r3, [sp, #156]
  99:Core/Src/stm32h7xx_hal_msp.c ****     {
 135              		.loc 1 99 5 is_stmt 1 view .LVU23
  99:Core/Src/stm32h7xx_hal_msp.c ****     {
 136              		.loc 1 99 9 is_stmt 0 view .LVU24
 137 0032 02A8     		add	r0, sp, #8
 138 0034 FFF7FEFF 		bl	HAL_RCCEx_PeriphCLKConfig
 139              	.LVL5:
  99:Core/Src/stm32h7xx_hal_msp.c ****     {
 140              		.loc 1 99 8 view .LVU25
 141 0038 38BB     		cbnz	r0, .L10
 142              	.L7:
 104:Core/Src/stm32h7xx_hal_msp.c ****     /**I2C4 GPIO Configuration
 143              		.loc 1 104 5 is_stmt 1 view .LVU26
 144              	.LBB3:
 104:Core/Src/stm32h7xx_hal_msp.c ****     /**I2C4 GPIO Configuration
 145              		.loc 1 104 5 view .LVU27
 104:Core/Src/stm32h7xx_hal_msp.c ****     /**I2C4 GPIO Configuration
 146              		.loc 1 104 5 view .LVU28
 147 003a 164C     		ldr	r4, .L11+4
 148              	.LVL6:
 104:Core/Src/stm32h7xx_hal_msp.c ****     /**I2C4 GPIO Configuration
 149              		.loc 1 104 5 is_stmt 0 view .LVU29
 150 003c D4F8E030 		ldr	r3, [r4, #224]
 151 0040 43F00803 		orr	r3, r3, #8
 152 0044 C4F8E030 		str	r3, [r4, #224]
 104:Core/Src/stm32h7xx_hal_msp.c ****     /**I2C4 GPIO Configuration
 153              		.loc 1 104 5 is_stmt 1 view .LVU30
ARM GAS  /tmp/ccCE1JqB.s 			page 6


 154 0048 D4F8E030 		ldr	r3, [r4, #224]
 155 004c 03F00803 		and	r3, r3, #8
 156 0050 0093     		str	r3, [sp]
 104:Core/Src/stm32h7xx_hal_msp.c ****     /**I2C4 GPIO Configuration
 157              		.loc 1 104 5 view .LVU31
 158 0052 009B     		ldr	r3, [sp]
 159              	.LBE3:
 104:Core/Src/stm32h7xx_hal_msp.c ****     /**I2C4 GPIO Configuration
 160              		.loc 1 104 5 view .LVU32
 109:Core/Src/stm32h7xx_hal_msp.c ****     GPIO_InitStruct.Mode = GPIO_MODE_AF_OD;
 161              		.loc 1 109 5 view .LVU33
 109:Core/Src/stm32h7xx_hal_msp.c ****     GPIO_InitStruct.Mode = GPIO_MODE_AF_OD;
 162              		.loc 1 109 25 is_stmt 0 view .LVU34
 163 0054 4FF44053 		mov	r3, #12288
 164 0058 3193     		str	r3, [sp, #196]
 110:Core/Src/stm32h7xx_hal_msp.c ****     GPIO_InitStruct.Pull = GPIO_NOPULL;
 165              		.loc 1 110 5 is_stmt 1 view .LVU35
 110:Core/Src/stm32h7xx_hal_msp.c ****     GPIO_InitStruct.Pull = GPIO_NOPULL;
 166              		.loc 1 110 26 is_stmt 0 view .LVU36
 167 005a 1223     		movs	r3, #18
 168 005c 3293     		str	r3, [sp, #200]
 111:Core/Src/stm32h7xx_hal_msp.c ****     GPIO_InitStruct.Speed = GPIO_SPEED_FREQ_LOW;
 169              		.loc 1 111 5 is_stmt 1 view .LVU37
 111:Core/Src/stm32h7xx_hal_msp.c ****     GPIO_InitStruct.Speed = GPIO_SPEED_FREQ_LOW;
 170              		.loc 1 111 26 is_stmt 0 view .LVU38
 171 005e 0023     		movs	r3, #0
 172 0060 3393     		str	r3, [sp, #204]
 112:Core/Src/stm32h7xx_hal_msp.c ****     GPIO_InitStruct.Alternate = GPIO_AF4_I2C4;
 173              		.loc 1 112 5 is_stmt 1 view .LVU39
 112:Core/Src/stm32h7xx_hal_msp.c ****     GPIO_InitStruct.Alternate = GPIO_AF4_I2C4;
 174              		.loc 1 112 27 is_stmt 0 view .LVU40
 175 0062 3493     		str	r3, [sp, #208]
 113:Core/Src/stm32h7xx_hal_msp.c ****     HAL_GPIO_Init(GPIOD, &GPIO_InitStruct);
 176              		.loc 1 113 5 is_stmt 1 view .LVU41
 113:Core/Src/stm32h7xx_hal_msp.c ****     HAL_GPIO_Init(GPIOD, &GPIO_InitStruct);
 177              		.loc 1 113 31 is_stmt 0 view .LVU42
 178 0064 0423     		movs	r3, #4
 179 0066 3593     		str	r3, [sp, #212]
 114:Core/Src/stm32h7xx_hal_msp.c **** 
 180              		.loc 1 114 5 is_stmt 1 view .LVU43
 181 0068 31A9     		add	r1, sp, #196
 182 006a 0B48     		ldr	r0, .L11+8
 183 006c FFF7FEFF 		bl	HAL_GPIO_Init
 184              	.LVL7:
 117:Core/Src/stm32h7xx_hal_msp.c ****   /* USER CODE BEGIN I2C4_MspInit 1 */
 185              		.loc 1 117 5 view .LVU44
 186              	.LBB4:
 117:Core/Src/stm32h7xx_hal_msp.c ****   /* USER CODE BEGIN I2C4_MspInit 1 */
 187              		.loc 1 117 5 view .LVU45
 117:Core/Src/stm32h7xx_hal_msp.c ****   /* USER CODE BEGIN I2C4_MspInit 1 */
 188              		.loc 1 117 5 view .LVU46
 189 0070 D4F8F430 		ldr	r3, [r4, #244]
 190 0074 43F08003 		orr	r3, r3, #128
 191 0078 C4F8F430 		str	r3, [r4, #244]
 117:Core/Src/stm32h7xx_hal_msp.c ****   /* USER CODE BEGIN I2C4_MspInit 1 */
 192              		.loc 1 117 5 view .LVU47
 193 007c D4F8F430 		ldr	r3, [r4, #244]
ARM GAS  /tmp/ccCE1JqB.s 			page 7


 194 0080 03F08003 		and	r3, r3, #128
 195 0084 0193     		str	r3, [sp, #4]
 117:Core/Src/stm32h7xx_hal_msp.c ****   /* USER CODE BEGIN I2C4_MspInit 1 */
 196              		.loc 1 117 5 view .LVU48
 197 0086 019B     		ldr	r3, [sp, #4]
 198              	.LBE4:
 117:Core/Src/stm32h7xx_hal_msp.c ****   /* USER CODE BEGIN I2C4_MspInit 1 */
 199              		.loc 1 117 5 view .LVU49
 200              		.loc 1 123 1 is_stmt 0 view .LVU50
 201 0088 CBE7     		b	.L5
 202              	.LVL8:
 203              	.L10:
 101:Core/Src/stm32h7xx_hal_msp.c ****     }
 204              		.loc 1 101 7 is_stmt 1 view .LVU51
 205 008a FFF7FEFF 		bl	Error_Handler
 206              	.LVL9:
 207 008e D4E7     		b	.L7
 208              	.L12:
 209              		.align	2
 210              	.L11:
 211 0090 001C0058 		.word	1476402176
 212 0094 00440258 		.word	1476543488
 213 0098 000C0258 		.word	1476529152
 214              		.cfi_endproc
 215              	.LFE211:
 217              		.section	.text.HAL_I2C_MspDeInit,"ax",%progbits
 218              		.align	1
 219              		.global	HAL_I2C_MspDeInit
 220              		.syntax unified
 221              		.thumb
 222              		.thumb_func
 223              		.fpu fpv5-d16
 225              	HAL_I2C_MspDeInit:
 226              	.LVL10:
 227              	.LFB212:
 124:Core/Src/stm32h7xx_hal_msp.c **** 
 125:Core/Src/stm32h7xx_hal_msp.c **** /**
 126:Core/Src/stm32h7xx_hal_msp.c **** * @brief I2C MSP De-Initialization
 127:Core/Src/stm32h7xx_hal_msp.c **** * This function freeze the hardware resources used in this example
 128:Core/Src/stm32h7xx_hal_msp.c **** * @param hi2c: I2C handle pointer
 129:Core/Src/stm32h7xx_hal_msp.c **** * @retval None
 130:Core/Src/stm32h7xx_hal_msp.c **** */
 131:Core/Src/stm32h7xx_hal_msp.c **** void HAL_I2C_MspDeInit(I2C_HandleTypeDef* hi2c)
 132:Core/Src/stm32h7xx_hal_msp.c **** {
 228              		.loc 1 132 1 view -0
 229              		.cfi_startproc
 230              		@ args = 0, pretend = 0, frame = 0
 231              		@ frame_needed = 0, uses_anonymous_args = 0
 133:Core/Src/stm32h7xx_hal_msp.c ****   if(hi2c->Instance==I2C4)
 232              		.loc 1 133 3 view .LVU53
 233              		.loc 1 133 10 is_stmt 0 view .LVU54
 234 0000 0268     		ldr	r2, [r0]
 235              		.loc 1 133 5 view .LVU55
 236 0002 0C4B     		ldr	r3, .L20
 237 0004 9A42     		cmp	r2, r3
 238 0006 00D0     		beq	.L19
 239 0008 7047     		bx	lr
ARM GAS  /tmp/ccCE1JqB.s 			page 8


 240              	.L19:
 132:Core/Src/stm32h7xx_hal_msp.c ****   if(hi2c->Instance==I2C4)
 241              		.loc 1 132 1 view .LVU56
 242 000a 10B5     		push	{r4, lr}
 243              	.LCFI6:
 244              		.cfi_def_cfa_offset 8
 245              		.cfi_offset 4, -8
 246              		.cfi_offset 14, -4
 134:Core/Src/stm32h7xx_hal_msp.c ****   {
 135:Core/Src/stm32h7xx_hal_msp.c ****   /* USER CODE BEGIN I2C4_MspDeInit 0 */
 136:Core/Src/stm32h7xx_hal_msp.c **** 
 137:Core/Src/stm32h7xx_hal_msp.c ****   /* USER CODE END I2C4_MspDeInit 0 */
 138:Core/Src/stm32h7xx_hal_msp.c ****     /* Peripheral clock disable */
 139:Core/Src/stm32h7xx_hal_msp.c ****     __HAL_RCC_I2C4_CLK_DISABLE();
 247              		.loc 1 139 5 is_stmt 1 view .LVU57
 248 000c 0A4A     		ldr	r2, .L20+4
 249 000e D2F8F430 		ldr	r3, [r2, #244]
 250 0012 23F08003 		bic	r3, r3, #128
 251 0016 C2F8F430 		str	r3, [r2, #244]
 140:Core/Src/stm32h7xx_hal_msp.c **** 
 141:Core/Src/stm32h7xx_hal_msp.c ****     /**I2C4 GPIO Configuration
 142:Core/Src/stm32h7xx_hal_msp.c ****     PD12     ------> I2C4_SCL
 143:Core/Src/stm32h7xx_hal_msp.c ****     PD13     ------> I2C4_SDA
 144:Core/Src/stm32h7xx_hal_msp.c ****     */
 145:Core/Src/stm32h7xx_hal_msp.c ****     HAL_GPIO_DeInit(GPIOD, GPIO_PIN_12);
 252              		.loc 1 145 5 view .LVU58
 253 001a 084C     		ldr	r4, .L20+8
 254 001c 4FF48051 		mov	r1, #4096
 255 0020 2046     		mov	r0, r4
 256              	.LVL11:
 257              		.loc 1 145 5 is_stmt 0 view .LVU59
 258 0022 FFF7FEFF 		bl	HAL_GPIO_DeInit
 259              	.LVL12:
 146:Core/Src/stm32h7xx_hal_msp.c **** 
 147:Core/Src/stm32h7xx_hal_msp.c ****     HAL_GPIO_DeInit(GPIOD, GPIO_PIN_13);
 260              		.loc 1 147 5 is_stmt 1 view .LVU60
 261 0026 4FF40051 		mov	r1, #8192
 262 002a 2046     		mov	r0, r4
 263 002c FFF7FEFF 		bl	HAL_GPIO_DeInit
 264              	.LVL13:
 148:Core/Src/stm32h7xx_hal_msp.c **** 
 149:Core/Src/stm32h7xx_hal_msp.c ****   /* USER CODE BEGIN I2C4_MspDeInit 1 */
 150:Core/Src/stm32h7xx_hal_msp.c **** 
 151:Core/Src/stm32h7xx_hal_msp.c ****   /* USER CODE END I2C4_MspDeInit 1 */
 152:Core/Src/stm32h7xx_hal_msp.c ****   }
 153:Core/Src/stm32h7xx_hal_msp.c **** 
 154:Core/Src/stm32h7xx_hal_msp.c **** }
 265              		.loc 1 154 1 is_stmt 0 view .LVU61
 266 0030 10BD     		pop	{r4, pc}
 267              	.L21:
 268 0032 00BF     		.align	2
 269              	.L20:
 270 0034 001C0058 		.word	1476402176
 271 0038 00440258 		.word	1476543488
 272 003c 000C0258 		.word	1476529152
 273              		.cfi_endproc
 274              	.LFE212:
ARM GAS  /tmp/ccCE1JqB.s 			page 9


 276              		.section	.text.HAL_SPI_MspInit,"ax",%progbits
 277              		.align	1
 278              		.global	HAL_SPI_MspInit
 279              		.syntax unified
 280              		.thumb
 281              		.thumb_func
 282              		.fpu fpv5-d16
 284              	HAL_SPI_MspInit:
 285              	.LVL14:
 286              	.LFB213:
 155:Core/Src/stm32h7xx_hal_msp.c **** 
 156:Core/Src/stm32h7xx_hal_msp.c **** /**
 157:Core/Src/stm32h7xx_hal_msp.c **** * @brief SPI MSP Initialization
 158:Core/Src/stm32h7xx_hal_msp.c **** * This function configures the hardware resources used in this example
 159:Core/Src/stm32h7xx_hal_msp.c **** * @param hspi: SPI handle pointer
 160:Core/Src/stm32h7xx_hal_msp.c **** * @retval None
 161:Core/Src/stm32h7xx_hal_msp.c **** */
 162:Core/Src/stm32h7xx_hal_msp.c **** void HAL_SPI_MspInit(SPI_HandleTypeDef* hspi)
 163:Core/Src/stm32h7xx_hal_msp.c **** {
 287              		.loc 1 163 1 is_stmt 1 view -0
 288              		.cfi_startproc
 289              		@ args = 0, pretend = 0, frame = 256
 290              		@ frame_needed = 0, uses_anonymous_args = 0
 291              		.loc 1 163 1 is_stmt 0 view .LVU63
 292 0000 70B5     		push	{r4, r5, r6, lr}
 293              	.LCFI7:
 294              		.cfi_def_cfa_offset 16
 295              		.cfi_offset 4, -16
 296              		.cfi_offset 5, -12
 297              		.cfi_offset 6, -8
 298              		.cfi_offset 14, -4
 299 0002 C0B0     		sub	sp, sp, #256
 300              	.LCFI8:
 301              		.cfi_def_cfa_offset 272
 302 0004 0446     		mov	r4, r0
 164:Core/Src/stm32h7xx_hal_msp.c ****   GPIO_InitTypeDef GPIO_InitStruct = {0};
 303              		.loc 1 164 3 is_stmt 1 view .LVU64
 304              		.loc 1 164 20 is_stmt 0 view .LVU65
 305 0006 0021     		movs	r1, #0
 306 0008 3B91     		str	r1, [sp, #236]
 307 000a 3C91     		str	r1, [sp, #240]
 308 000c 3D91     		str	r1, [sp, #244]
 309 000e 3E91     		str	r1, [sp, #248]
 310 0010 3F91     		str	r1, [sp, #252]
 165:Core/Src/stm32h7xx_hal_msp.c ****   RCC_PeriphCLKInitTypeDef PeriphClkInitStruct = {0};
 311              		.loc 1 165 3 is_stmt 1 view .LVU66
 312              		.loc 1 165 28 is_stmt 0 view .LVU67
 313 0012 B822     		movs	r2, #184
 314 0014 0CA8     		add	r0, sp, #48
 315              	.LVL15:
 316              		.loc 1 165 28 view .LVU68
 317 0016 FFF7FEFF 		bl	memset
 318              	.LVL16:
 166:Core/Src/stm32h7xx_hal_msp.c ****   if(hspi->Instance==SPI2)
 319              		.loc 1 166 3 is_stmt 1 view .LVU69
 320              		.loc 1 166 10 is_stmt 0 view .LVU70
 321 001a 2368     		ldr	r3, [r4]
ARM GAS  /tmp/ccCE1JqB.s 			page 10


 322              		.loc 1 166 5 view .LVU71
 323 001c 9B4A     		ldr	r2, .L40
 324 001e 9342     		cmp	r3, r2
 325 0020 0CD0     		beq	.L32
 167:Core/Src/stm32h7xx_hal_msp.c ****   {
 168:Core/Src/stm32h7xx_hal_msp.c ****   /* USER CODE BEGIN SPI2_MspInit 0 */
 169:Core/Src/stm32h7xx_hal_msp.c **** 
 170:Core/Src/stm32h7xx_hal_msp.c ****   /* USER CODE END SPI2_MspInit 0 */
 171:Core/Src/stm32h7xx_hal_msp.c **** 
 172:Core/Src/stm32h7xx_hal_msp.c ****   /** Initializes the peripherals clock
 173:Core/Src/stm32h7xx_hal_msp.c ****   */
 174:Core/Src/stm32h7xx_hal_msp.c ****     PeriphClkInitStruct.PeriphClockSelection = RCC_PERIPHCLK_SPI2;
 175:Core/Src/stm32h7xx_hal_msp.c ****     PeriphClkInitStruct.Spi123ClockSelection = RCC_SPI123CLKSOURCE_PLL;
 176:Core/Src/stm32h7xx_hal_msp.c ****     if (HAL_RCCEx_PeriphCLKConfig(&PeriphClkInitStruct) != HAL_OK)
 177:Core/Src/stm32h7xx_hal_msp.c ****     {
 178:Core/Src/stm32h7xx_hal_msp.c ****       Error_Handler();
 179:Core/Src/stm32h7xx_hal_msp.c ****     }
 180:Core/Src/stm32h7xx_hal_msp.c **** 
 181:Core/Src/stm32h7xx_hal_msp.c ****     /* Peripheral clock enable */
 182:Core/Src/stm32h7xx_hal_msp.c ****     __HAL_RCC_SPI2_CLK_ENABLE();
 183:Core/Src/stm32h7xx_hal_msp.c **** 
 184:Core/Src/stm32h7xx_hal_msp.c ****     __HAL_RCC_GPIOC_CLK_ENABLE();
 185:Core/Src/stm32h7xx_hal_msp.c ****     __HAL_RCC_GPIOB_CLK_ENABLE();
 186:Core/Src/stm32h7xx_hal_msp.c ****     /**SPI2 GPIO Configuration
 187:Core/Src/stm32h7xx_hal_msp.c ****     PC1     ------> SPI2_MOSI
 188:Core/Src/stm32h7xx_hal_msp.c ****     PC2_C     ------> SPI2_MISO
 189:Core/Src/stm32h7xx_hal_msp.c ****     PB12     ------> SPI2_NSS
 190:Core/Src/stm32h7xx_hal_msp.c ****     PB13     ------> SPI2_SCK
 191:Core/Src/stm32h7xx_hal_msp.c ****     */
 192:Core/Src/stm32h7xx_hal_msp.c ****     GPIO_InitStruct.Pin = GPIO_PIN_1|GPIO_PIN_2;
 193:Core/Src/stm32h7xx_hal_msp.c ****     GPIO_InitStruct.Mode = GPIO_MODE_AF_PP;
 194:Core/Src/stm32h7xx_hal_msp.c ****     GPIO_InitStruct.Pull = GPIO_NOPULL;
 195:Core/Src/stm32h7xx_hal_msp.c ****     GPIO_InitStruct.Speed = GPIO_SPEED_FREQ_LOW;
 196:Core/Src/stm32h7xx_hal_msp.c ****     GPIO_InitStruct.Alternate = GPIO_AF5_SPI2;
 197:Core/Src/stm32h7xx_hal_msp.c ****     HAL_GPIO_Init(GPIOC, &GPIO_InitStruct);
 198:Core/Src/stm32h7xx_hal_msp.c **** 
 199:Core/Src/stm32h7xx_hal_msp.c ****     GPIO_InitStruct.Pin = GPIO_PIN_12|GPIO_PIN_13;
 200:Core/Src/stm32h7xx_hal_msp.c ****     GPIO_InitStruct.Mode = GPIO_MODE_AF_PP;
 201:Core/Src/stm32h7xx_hal_msp.c ****     GPIO_InitStruct.Pull = GPIO_NOPULL;
 202:Core/Src/stm32h7xx_hal_msp.c ****     GPIO_InitStruct.Speed = GPIO_SPEED_FREQ_LOW;
 203:Core/Src/stm32h7xx_hal_msp.c ****     GPIO_InitStruct.Alternate = GPIO_AF5_SPI2;
 204:Core/Src/stm32h7xx_hal_msp.c ****     HAL_GPIO_Init(GPIOB, &GPIO_InitStruct);
 205:Core/Src/stm32h7xx_hal_msp.c **** 
 206:Core/Src/stm32h7xx_hal_msp.c ****   /* USER CODE BEGIN SPI2_MspInit 1 */
 207:Core/Src/stm32h7xx_hal_msp.c **** 
 208:Core/Src/stm32h7xx_hal_msp.c ****   /* USER CODE END SPI2_MspInit 1 */
 209:Core/Src/stm32h7xx_hal_msp.c ****   }
 210:Core/Src/stm32h7xx_hal_msp.c ****   else if(hspi->Instance==SPI3)
 326              		.loc 1 210 8 is_stmt 1 view .LVU72
 327              		.loc 1 210 10 is_stmt 0 view .LVU73
 328 0022 9B4A     		ldr	r2, .L40+4
 329 0024 9342     		cmp	r3, r2
 330 0026 56D0     		beq	.L33
 211:Core/Src/stm32h7xx_hal_msp.c ****   {
 212:Core/Src/stm32h7xx_hal_msp.c ****   /* USER CODE BEGIN SPI3_MspInit 0 */
 213:Core/Src/stm32h7xx_hal_msp.c **** 
 214:Core/Src/stm32h7xx_hal_msp.c ****   /* USER CODE END SPI3_MspInit 0 */
ARM GAS  /tmp/ccCE1JqB.s 			page 11


 215:Core/Src/stm32h7xx_hal_msp.c **** 
 216:Core/Src/stm32h7xx_hal_msp.c ****   /** Initializes the peripherals clock
 217:Core/Src/stm32h7xx_hal_msp.c ****   */
 218:Core/Src/stm32h7xx_hal_msp.c ****     PeriphClkInitStruct.PeriphClockSelection = RCC_PERIPHCLK_SPI3;
 219:Core/Src/stm32h7xx_hal_msp.c ****     PeriphClkInitStruct.Spi123ClockSelection = RCC_SPI123CLKSOURCE_PLL;
 220:Core/Src/stm32h7xx_hal_msp.c ****     if (HAL_RCCEx_PeriphCLKConfig(&PeriphClkInitStruct) != HAL_OK)
 221:Core/Src/stm32h7xx_hal_msp.c ****     {
 222:Core/Src/stm32h7xx_hal_msp.c ****       Error_Handler();
 223:Core/Src/stm32h7xx_hal_msp.c ****     }
 224:Core/Src/stm32h7xx_hal_msp.c **** 
 225:Core/Src/stm32h7xx_hal_msp.c ****     /* Peripheral clock enable */
 226:Core/Src/stm32h7xx_hal_msp.c ****     __HAL_RCC_SPI3_CLK_ENABLE();
 227:Core/Src/stm32h7xx_hal_msp.c **** 
 228:Core/Src/stm32h7xx_hal_msp.c ****     __HAL_RCC_GPIOA_CLK_ENABLE();
 229:Core/Src/stm32h7xx_hal_msp.c ****     __HAL_RCC_GPIOB_CLK_ENABLE();
 230:Core/Src/stm32h7xx_hal_msp.c ****     __HAL_RCC_GPIOC_CLK_ENABLE();
 231:Core/Src/stm32h7xx_hal_msp.c ****     /**SPI3 GPIO Configuration
 232:Core/Src/stm32h7xx_hal_msp.c ****     PA4     ------> SPI3_NSS
 233:Core/Src/stm32h7xx_hal_msp.c ****     PB2     ------> SPI3_MOSI
 234:Core/Src/stm32h7xx_hal_msp.c ****     PC10     ------> SPI3_SCK
 235:Core/Src/stm32h7xx_hal_msp.c ****     PC11     ------> SPI3_MISO
 236:Core/Src/stm32h7xx_hal_msp.c ****     */
 237:Core/Src/stm32h7xx_hal_msp.c ****     GPIO_InitStruct.Pin = GPIO_PIN_4;
 238:Core/Src/stm32h7xx_hal_msp.c ****     GPIO_InitStruct.Mode = GPIO_MODE_AF_PP;
 239:Core/Src/stm32h7xx_hal_msp.c ****     GPIO_InitStruct.Pull = GPIO_NOPULL;
 240:Core/Src/stm32h7xx_hal_msp.c ****     GPIO_InitStruct.Speed = GPIO_SPEED_FREQ_LOW;
 241:Core/Src/stm32h7xx_hal_msp.c ****     GPIO_InitStruct.Alternate = GPIO_AF6_SPI3;
 242:Core/Src/stm32h7xx_hal_msp.c ****     HAL_GPIO_Init(GPIOA, &GPIO_InitStruct);
 243:Core/Src/stm32h7xx_hal_msp.c **** 
 244:Core/Src/stm32h7xx_hal_msp.c ****     GPIO_InitStruct.Pin = GPIO_PIN_2;
 245:Core/Src/stm32h7xx_hal_msp.c ****     GPIO_InitStruct.Mode = GPIO_MODE_AF_PP;
 246:Core/Src/stm32h7xx_hal_msp.c ****     GPIO_InitStruct.Pull = GPIO_NOPULL;
 247:Core/Src/stm32h7xx_hal_msp.c ****     GPIO_InitStruct.Speed = GPIO_SPEED_FREQ_LOW;
 248:Core/Src/stm32h7xx_hal_msp.c ****     GPIO_InitStruct.Alternate = GPIO_AF7_SPI3;
 249:Core/Src/stm32h7xx_hal_msp.c ****     HAL_GPIO_Init(GPIOB, &GPIO_InitStruct);
 250:Core/Src/stm32h7xx_hal_msp.c **** 
 251:Core/Src/stm32h7xx_hal_msp.c ****     GPIO_InitStruct.Pin = GPIO_PIN_10|GPIO_PIN_11;
 252:Core/Src/stm32h7xx_hal_msp.c ****     GPIO_InitStruct.Mode = GPIO_MODE_AF_PP;
 253:Core/Src/stm32h7xx_hal_msp.c ****     GPIO_InitStruct.Pull = GPIO_NOPULL;
 254:Core/Src/stm32h7xx_hal_msp.c ****     GPIO_InitStruct.Speed = GPIO_SPEED_FREQ_LOW;
 255:Core/Src/stm32h7xx_hal_msp.c ****     GPIO_InitStruct.Alternate = GPIO_AF6_SPI3;
 256:Core/Src/stm32h7xx_hal_msp.c ****     HAL_GPIO_Init(GPIOC, &GPIO_InitStruct);
 257:Core/Src/stm32h7xx_hal_msp.c **** 
 258:Core/Src/stm32h7xx_hal_msp.c ****   /* USER CODE BEGIN SPI3_MspInit 1 */
 259:Core/Src/stm32h7xx_hal_msp.c **** 
 260:Core/Src/stm32h7xx_hal_msp.c ****   /* USER CODE END SPI3_MspInit 1 */
 261:Core/Src/stm32h7xx_hal_msp.c ****   }
 262:Core/Src/stm32h7xx_hal_msp.c ****   else if(hspi->Instance==SPI4)
 331              		.loc 1 262 8 is_stmt 1 view .LVU74
 332              		.loc 1 262 10 is_stmt 0 view .LVU75
 333 0028 9A4A     		ldr	r2, .L40+8
 334 002a 9342     		cmp	r3, r2
 335 002c 00F0B780 		beq	.L34
 263:Core/Src/stm32h7xx_hal_msp.c ****   {
 264:Core/Src/stm32h7xx_hal_msp.c ****   /* USER CODE BEGIN SPI4_MspInit 0 */
 265:Core/Src/stm32h7xx_hal_msp.c **** 
 266:Core/Src/stm32h7xx_hal_msp.c ****   /* USER CODE END SPI4_MspInit 0 */
ARM GAS  /tmp/ccCE1JqB.s 			page 12


 267:Core/Src/stm32h7xx_hal_msp.c **** 
 268:Core/Src/stm32h7xx_hal_msp.c ****   /** Initializes the peripherals clock
 269:Core/Src/stm32h7xx_hal_msp.c ****   */
 270:Core/Src/stm32h7xx_hal_msp.c ****     PeriphClkInitStruct.PeriphClockSelection = RCC_PERIPHCLK_SPI4;
 271:Core/Src/stm32h7xx_hal_msp.c ****     PeriphClkInitStruct.Spi45ClockSelection = RCC_SPI45CLKSOURCE_D2PCLK1;
 272:Core/Src/stm32h7xx_hal_msp.c ****     if (HAL_RCCEx_PeriphCLKConfig(&PeriphClkInitStruct) != HAL_OK)
 273:Core/Src/stm32h7xx_hal_msp.c ****     {
 274:Core/Src/stm32h7xx_hal_msp.c ****       Error_Handler();
 275:Core/Src/stm32h7xx_hal_msp.c ****     }
 276:Core/Src/stm32h7xx_hal_msp.c **** 
 277:Core/Src/stm32h7xx_hal_msp.c ****     /* Peripheral clock enable */
 278:Core/Src/stm32h7xx_hal_msp.c ****     __HAL_RCC_SPI4_CLK_ENABLE();
 279:Core/Src/stm32h7xx_hal_msp.c **** 
 280:Core/Src/stm32h7xx_hal_msp.c ****     __HAL_RCC_GPIOE_CLK_ENABLE();
 281:Core/Src/stm32h7xx_hal_msp.c ****     /**SPI4 GPIO Configuration
 282:Core/Src/stm32h7xx_hal_msp.c ****     PE2     ------> SPI4_SCK
 283:Core/Src/stm32h7xx_hal_msp.c ****     PE4     ------> SPI4_NSS
 284:Core/Src/stm32h7xx_hal_msp.c ****     PE5     ------> SPI4_MISO
 285:Core/Src/stm32h7xx_hal_msp.c ****     PE6     ------> SPI4_MOSI
 286:Core/Src/stm32h7xx_hal_msp.c ****     */
 287:Core/Src/stm32h7xx_hal_msp.c ****     GPIO_InitStruct.Pin = GPIO_PIN_2|GPIO_PIN_4|GPIO_PIN_5|GPIO_PIN_6;
 288:Core/Src/stm32h7xx_hal_msp.c ****     GPIO_InitStruct.Mode = GPIO_MODE_AF_PP;
 289:Core/Src/stm32h7xx_hal_msp.c ****     GPIO_InitStruct.Pull = GPIO_NOPULL;
 290:Core/Src/stm32h7xx_hal_msp.c ****     GPIO_InitStruct.Speed = GPIO_SPEED_FREQ_LOW;
 291:Core/Src/stm32h7xx_hal_msp.c ****     GPIO_InitStruct.Alternate = GPIO_AF5_SPI4;
 292:Core/Src/stm32h7xx_hal_msp.c ****     HAL_GPIO_Init(GPIOE, &GPIO_InitStruct);
 293:Core/Src/stm32h7xx_hal_msp.c **** 
 294:Core/Src/stm32h7xx_hal_msp.c ****   /* USER CODE BEGIN SPI4_MspInit 1 */
 295:Core/Src/stm32h7xx_hal_msp.c **** 
 296:Core/Src/stm32h7xx_hal_msp.c ****   /* USER CODE END SPI4_MspInit 1 */
 297:Core/Src/stm32h7xx_hal_msp.c ****   }
 298:Core/Src/stm32h7xx_hal_msp.c ****   else if(hspi->Instance==SPI6)
 336              		.loc 1 298 8 is_stmt 1 view .LVU76
 337              		.loc 1 298 10 is_stmt 0 view .LVU77
 338 0030 994A     		ldr	r2, .L40+12
 339 0032 9342     		cmp	r3, r2
 340 0034 00F0E880 		beq	.L35
 341              	.LVL17:
 342              	.L22:
 299:Core/Src/stm32h7xx_hal_msp.c ****   {
 300:Core/Src/stm32h7xx_hal_msp.c ****   /* USER CODE BEGIN SPI6_MspInit 0 */
 301:Core/Src/stm32h7xx_hal_msp.c **** 
 302:Core/Src/stm32h7xx_hal_msp.c ****   /* USER CODE END SPI6_MspInit 0 */
 303:Core/Src/stm32h7xx_hal_msp.c **** 
 304:Core/Src/stm32h7xx_hal_msp.c ****   /** Initializes the peripherals clock
 305:Core/Src/stm32h7xx_hal_msp.c ****   */
 306:Core/Src/stm32h7xx_hal_msp.c ****     PeriphClkInitStruct.PeriphClockSelection = RCC_PERIPHCLK_SPI6;
 307:Core/Src/stm32h7xx_hal_msp.c ****     PeriphClkInitStruct.Spi6ClockSelection = RCC_SPI6CLKSOURCE_D3PCLK1;
 308:Core/Src/stm32h7xx_hal_msp.c ****     if (HAL_RCCEx_PeriphCLKConfig(&PeriphClkInitStruct) != HAL_OK)
 309:Core/Src/stm32h7xx_hal_msp.c ****     {
 310:Core/Src/stm32h7xx_hal_msp.c ****       Error_Handler();
 311:Core/Src/stm32h7xx_hal_msp.c ****     }
 312:Core/Src/stm32h7xx_hal_msp.c **** 
 313:Core/Src/stm32h7xx_hal_msp.c ****     /* Peripheral clock enable */
 314:Core/Src/stm32h7xx_hal_msp.c ****     __HAL_RCC_SPI6_CLK_ENABLE();
 315:Core/Src/stm32h7xx_hal_msp.c **** 
 316:Core/Src/stm32h7xx_hal_msp.c ****     __HAL_RCC_GPIOA_CLK_ENABLE();
ARM GAS  /tmp/ccCE1JqB.s 			page 13


 317:Core/Src/stm32h7xx_hal_msp.c ****     /**SPI6 GPIO Configuration
 318:Core/Src/stm32h7xx_hal_msp.c ****     PA0     ------> SPI6_NSS
 319:Core/Src/stm32h7xx_hal_msp.c ****     PA5     ------> SPI6_SCK
 320:Core/Src/stm32h7xx_hal_msp.c ****     PA6     ------> SPI6_MISO
 321:Core/Src/stm32h7xx_hal_msp.c ****     PA7     ------> SPI6_MOSI
 322:Core/Src/stm32h7xx_hal_msp.c ****     */
 323:Core/Src/stm32h7xx_hal_msp.c ****     GPIO_InitStruct.Pin = GPIO_PIN_0;
 324:Core/Src/stm32h7xx_hal_msp.c ****     GPIO_InitStruct.Mode = GPIO_MODE_AF_PP;
 325:Core/Src/stm32h7xx_hal_msp.c ****     GPIO_InitStruct.Pull = GPIO_NOPULL;
 326:Core/Src/stm32h7xx_hal_msp.c ****     GPIO_InitStruct.Speed = GPIO_SPEED_FREQ_LOW;
 327:Core/Src/stm32h7xx_hal_msp.c ****     GPIO_InitStruct.Alternate = GPIO_AF5_SPI6;
 328:Core/Src/stm32h7xx_hal_msp.c ****     HAL_GPIO_Init(GPIOA, &GPIO_InitStruct);
 329:Core/Src/stm32h7xx_hal_msp.c **** 
 330:Core/Src/stm32h7xx_hal_msp.c ****     GPIO_InitStruct.Pin = GPIO_PIN_5|GPIO_PIN_6|GPIO_PIN_7;
 331:Core/Src/stm32h7xx_hal_msp.c ****     GPIO_InitStruct.Mode = GPIO_MODE_AF_PP;
 332:Core/Src/stm32h7xx_hal_msp.c ****     GPIO_InitStruct.Pull = GPIO_NOPULL;
 333:Core/Src/stm32h7xx_hal_msp.c ****     GPIO_InitStruct.Speed = GPIO_SPEED_FREQ_LOW;
 334:Core/Src/stm32h7xx_hal_msp.c ****     GPIO_InitStruct.Alternate = GPIO_AF8_SPI6;
 335:Core/Src/stm32h7xx_hal_msp.c ****     HAL_GPIO_Init(GPIOA, &GPIO_InitStruct);
 336:Core/Src/stm32h7xx_hal_msp.c **** 
 337:Core/Src/stm32h7xx_hal_msp.c ****   /* USER CODE BEGIN SPI6_MspInit 1 */
 338:Core/Src/stm32h7xx_hal_msp.c **** 
 339:Core/Src/stm32h7xx_hal_msp.c ****   /* USER CODE END SPI6_MspInit 1 */
 340:Core/Src/stm32h7xx_hal_msp.c ****   }
 341:Core/Src/stm32h7xx_hal_msp.c **** 
 342:Core/Src/stm32h7xx_hal_msp.c **** }
 343              		.loc 1 342 1 view .LVU78
 344 0038 40B0     		add	sp, sp, #256
 345              	.LCFI9:
 346              		.cfi_remember_state
 347              		.cfi_def_cfa_offset 16
 348              		@ sp needed
 349 003a 70BD     		pop	{r4, r5, r6, pc}
 350              	.LVL18:
 351              	.L32:
 352              	.LCFI10:
 353              		.cfi_restore_state
 174:Core/Src/stm32h7xx_hal_msp.c ****     PeriphClkInitStruct.Spi123ClockSelection = RCC_SPI123CLKSOURCE_PLL;
 354              		.loc 1 174 5 is_stmt 1 view .LVU79
 174:Core/Src/stm32h7xx_hal_msp.c ****     PeriphClkInitStruct.Spi123ClockSelection = RCC_SPI123CLKSOURCE_PLL;
 355              		.loc 1 174 46 is_stmt 0 view .LVU80
 356 003c 4FF48052 		mov	r2, #4096
 357 0040 0023     		movs	r3, #0
 358 0042 CDE90C23 		strd	r2, [sp, #48]
 175:Core/Src/stm32h7xx_hal_msp.c ****     if (HAL_RCCEx_PeriphCLKConfig(&PeriphClkInitStruct) != HAL_OK)
 359              		.loc 1 175 5 is_stmt 1 view .LVU81
 175:Core/Src/stm32h7xx_hal_msp.c ****     if (HAL_RCCEx_PeriphCLKConfig(&PeriphClkInitStruct) != HAL_OK)
 360              		.loc 1 175 46 is_stmt 0 view .LVU82
 361 0046 0023     		movs	r3, #0
 362 0048 2393     		str	r3, [sp, #140]
 176:Core/Src/stm32h7xx_hal_msp.c ****     {
 363              		.loc 1 176 5 is_stmt 1 view .LVU83
 176:Core/Src/stm32h7xx_hal_msp.c ****     {
 364              		.loc 1 176 9 is_stmt 0 view .LVU84
 365 004a 0CA8     		add	r0, sp, #48
 366 004c FFF7FEFF 		bl	HAL_RCCEx_PeriphCLKConfig
 367              	.LVL19:
ARM GAS  /tmp/ccCE1JqB.s 			page 14


 176:Core/Src/stm32h7xx_hal_msp.c ****     {
 368              		.loc 1 176 8 view .LVU85
 369 0050 0028     		cmp	r0, #0
 370 0052 3DD1     		bne	.L36
 371              	.L24:
 182:Core/Src/stm32h7xx_hal_msp.c **** 
 372              		.loc 1 182 5 is_stmt 1 view .LVU86
 373              	.LBB5:
 182:Core/Src/stm32h7xx_hal_msp.c **** 
 374              		.loc 1 182 5 view .LVU87
 182:Core/Src/stm32h7xx_hal_msp.c **** 
 375              		.loc 1 182 5 view .LVU88
 376 0054 914B     		ldr	r3, .L40+16
 377 0056 D3F8E820 		ldr	r2, [r3, #232]
 378 005a 42F48042 		orr	r2, r2, #16384
 379 005e C3F8E820 		str	r2, [r3, #232]
 182:Core/Src/stm32h7xx_hal_msp.c **** 
 380              		.loc 1 182 5 view .LVU89
 381 0062 D3F8E820 		ldr	r2, [r3, #232]
 382 0066 02F48042 		and	r2, r2, #16384
 383 006a 0192     		str	r2, [sp, #4]
 182:Core/Src/stm32h7xx_hal_msp.c **** 
 384              		.loc 1 182 5 view .LVU90
 385 006c 019A     		ldr	r2, [sp, #4]
 386              	.LBE5:
 182:Core/Src/stm32h7xx_hal_msp.c **** 
 387              		.loc 1 182 5 view .LVU91
 184:Core/Src/stm32h7xx_hal_msp.c ****     __HAL_RCC_GPIOB_CLK_ENABLE();
 388              		.loc 1 184 5 view .LVU92
 389              	.LBB6:
 184:Core/Src/stm32h7xx_hal_msp.c ****     __HAL_RCC_GPIOB_CLK_ENABLE();
 390              		.loc 1 184 5 view .LVU93
 184:Core/Src/stm32h7xx_hal_msp.c ****     __HAL_RCC_GPIOB_CLK_ENABLE();
 391              		.loc 1 184 5 view .LVU94
 392 006e D3F8E020 		ldr	r2, [r3, #224]
 393 0072 42F00402 		orr	r2, r2, #4
 394 0076 C3F8E020 		str	r2, [r3, #224]
 184:Core/Src/stm32h7xx_hal_msp.c ****     __HAL_RCC_GPIOB_CLK_ENABLE();
 395              		.loc 1 184 5 view .LVU95
 396 007a D3F8E020 		ldr	r2, [r3, #224]
 397 007e 02F00402 		and	r2, r2, #4
 398 0082 0292     		str	r2, [sp, #8]
 184:Core/Src/stm32h7xx_hal_msp.c ****     __HAL_RCC_GPIOB_CLK_ENABLE();
 399              		.loc 1 184 5 view .LVU96
 400 0084 029A     		ldr	r2, [sp, #8]
 401              	.LBE6:
 184:Core/Src/stm32h7xx_hal_msp.c ****     __HAL_RCC_GPIOB_CLK_ENABLE();
 402              		.loc 1 184 5 view .LVU97
 185:Core/Src/stm32h7xx_hal_msp.c ****     /**SPI2 GPIO Configuration
 403              		.loc 1 185 5 view .LVU98
 404              	.LBB7:
 185:Core/Src/stm32h7xx_hal_msp.c ****     /**SPI2 GPIO Configuration
 405              		.loc 1 185 5 view .LVU99
 185:Core/Src/stm32h7xx_hal_msp.c ****     /**SPI2 GPIO Configuration
 406              		.loc 1 185 5 view .LVU100
 407 0086 D3F8E020 		ldr	r2, [r3, #224]
 408 008a 42F00202 		orr	r2, r2, #2
ARM GAS  /tmp/ccCE1JqB.s 			page 15


 409 008e C3F8E020 		str	r2, [r3, #224]
 185:Core/Src/stm32h7xx_hal_msp.c ****     /**SPI2 GPIO Configuration
 410              		.loc 1 185 5 view .LVU101
 411 0092 D3F8E030 		ldr	r3, [r3, #224]
 412 0096 03F00203 		and	r3, r3, #2
 413 009a 0393     		str	r3, [sp, #12]
 185:Core/Src/stm32h7xx_hal_msp.c ****     /**SPI2 GPIO Configuration
 414              		.loc 1 185 5 view .LVU102
 415 009c 039B     		ldr	r3, [sp, #12]
 416              	.LBE7:
 185:Core/Src/stm32h7xx_hal_msp.c ****     /**SPI2 GPIO Configuration
 417              		.loc 1 185 5 view .LVU103
 192:Core/Src/stm32h7xx_hal_msp.c ****     GPIO_InitStruct.Mode = GPIO_MODE_AF_PP;
 418              		.loc 1 192 5 view .LVU104
 192:Core/Src/stm32h7xx_hal_msp.c ****     GPIO_InitStruct.Mode = GPIO_MODE_AF_PP;
 419              		.loc 1 192 25 is_stmt 0 view .LVU105
 420 009e 0623     		movs	r3, #6
 421 00a0 3B93     		str	r3, [sp, #236]
 193:Core/Src/stm32h7xx_hal_msp.c ****     GPIO_InitStruct.Pull = GPIO_NOPULL;
 422              		.loc 1 193 5 is_stmt 1 view .LVU106
 193:Core/Src/stm32h7xx_hal_msp.c ****     GPIO_InitStruct.Pull = GPIO_NOPULL;
 423              		.loc 1 193 26 is_stmt 0 view .LVU107
 424 00a2 0226     		movs	r6, #2
 425 00a4 3C96     		str	r6, [sp, #240]
 194:Core/Src/stm32h7xx_hal_msp.c ****     GPIO_InitStruct.Speed = GPIO_SPEED_FREQ_LOW;
 426              		.loc 1 194 5 is_stmt 1 view .LVU108
 194:Core/Src/stm32h7xx_hal_msp.c ****     GPIO_InitStruct.Speed = GPIO_SPEED_FREQ_LOW;
 427              		.loc 1 194 26 is_stmt 0 view .LVU109
 428 00a6 0024     		movs	r4, #0
 429              	.LVL20:
 194:Core/Src/stm32h7xx_hal_msp.c ****     GPIO_InitStruct.Speed = GPIO_SPEED_FREQ_LOW;
 430              		.loc 1 194 26 view .LVU110
 431 00a8 3D94     		str	r4, [sp, #244]
 195:Core/Src/stm32h7xx_hal_msp.c ****     GPIO_InitStruct.Alternate = GPIO_AF5_SPI2;
 432              		.loc 1 195 5 is_stmt 1 view .LVU111
 195:Core/Src/stm32h7xx_hal_msp.c ****     GPIO_InitStruct.Alternate = GPIO_AF5_SPI2;
 433              		.loc 1 195 27 is_stmt 0 view .LVU112
 434 00aa 3E94     		str	r4, [sp, #248]
 196:Core/Src/stm32h7xx_hal_msp.c ****     HAL_GPIO_Init(GPIOC, &GPIO_InitStruct);
 435              		.loc 1 196 5 is_stmt 1 view .LVU113
 196:Core/Src/stm32h7xx_hal_msp.c ****     HAL_GPIO_Init(GPIOC, &GPIO_InitStruct);
 436              		.loc 1 196 31 is_stmt 0 view .LVU114
 437 00ac 0525     		movs	r5, #5
 438 00ae 3F95     		str	r5, [sp, #252]
 197:Core/Src/stm32h7xx_hal_msp.c **** 
 439              		.loc 1 197 5 is_stmt 1 view .LVU115
 440 00b0 3BA9     		add	r1, sp, #236
 441 00b2 7B48     		ldr	r0, .L40+20
 442 00b4 FFF7FEFF 		bl	HAL_GPIO_Init
 443              	.LVL21:
 199:Core/Src/stm32h7xx_hal_msp.c ****     GPIO_InitStruct.Mode = GPIO_MODE_AF_PP;
 444              		.loc 1 199 5 view .LVU116
 199:Core/Src/stm32h7xx_hal_msp.c ****     GPIO_InitStruct.Mode = GPIO_MODE_AF_PP;
 445              		.loc 1 199 25 is_stmt 0 view .LVU117
 446 00b8 4FF44053 		mov	r3, #12288
 447 00bc 3B93     		str	r3, [sp, #236]
 200:Core/Src/stm32h7xx_hal_msp.c ****     GPIO_InitStruct.Pull = GPIO_NOPULL;
ARM GAS  /tmp/ccCE1JqB.s 			page 16


 448              		.loc 1 200 5 is_stmt 1 view .LVU118
 200:Core/Src/stm32h7xx_hal_msp.c ****     GPIO_InitStruct.Pull = GPIO_NOPULL;
 449              		.loc 1 200 26 is_stmt 0 view .LVU119
 450 00be 3C96     		str	r6, [sp, #240]
 201:Core/Src/stm32h7xx_hal_msp.c ****     GPIO_InitStruct.Speed = GPIO_SPEED_FREQ_LOW;
 451              		.loc 1 201 5 is_stmt 1 view .LVU120
 201:Core/Src/stm32h7xx_hal_msp.c ****     GPIO_InitStruct.Speed = GPIO_SPEED_FREQ_LOW;
 452              		.loc 1 201 26 is_stmt 0 view .LVU121
 453 00c0 3D94     		str	r4, [sp, #244]
 202:Core/Src/stm32h7xx_hal_msp.c ****     GPIO_InitStruct.Alternate = GPIO_AF5_SPI2;
 454              		.loc 1 202 5 is_stmt 1 view .LVU122
 202:Core/Src/stm32h7xx_hal_msp.c ****     GPIO_InitStruct.Alternate = GPIO_AF5_SPI2;
 455              		.loc 1 202 27 is_stmt 0 view .LVU123
 456 00c2 3E94     		str	r4, [sp, #248]
 203:Core/Src/stm32h7xx_hal_msp.c ****     HAL_GPIO_Init(GPIOB, &GPIO_InitStruct);
 457              		.loc 1 203 5 is_stmt 1 view .LVU124
 203:Core/Src/stm32h7xx_hal_msp.c ****     HAL_GPIO_Init(GPIOB, &GPIO_InitStruct);
 458              		.loc 1 203 31 is_stmt 0 view .LVU125
 459 00c4 3F95     		str	r5, [sp, #252]
 204:Core/Src/stm32h7xx_hal_msp.c **** 
 460              		.loc 1 204 5 is_stmt 1 view .LVU126
 461 00c6 3BA9     		add	r1, sp, #236
 462 00c8 7648     		ldr	r0, .L40+24
 463 00ca FFF7FEFF 		bl	HAL_GPIO_Init
 464              	.LVL22:
 465 00ce B3E7     		b	.L22
 466              	.LVL23:
 467              	.L36:
 178:Core/Src/stm32h7xx_hal_msp.c ****     }
 468              		.loc 1 178 7 view .LVU127
 469 00d0 FFF7FEFF 		bl	Error_Handler
 470              	.LVL24:
 471 00d4 BEE7     		b	.L24
 472              	.L33:
 218:Core/Src/stm32h7xx_hal_msp.c ****     PeriphClkInitStruct.Spi123ClockSelection = RCC_SPI123CLKSOURCE_PLL;
 473              		.loc 1 218 5 view .LVU128
 218:Core/Src/stm32h7xx_hal_msp.c ****     PeriphClkInitStruct.Spi123ClockSelection = RCC_SPI123CLKSOURCE_PLL;
 474              		.loc 1 218 46 is_stmt 0 view .LVU129
 475 00d6 4FF48052 		mov	r2, #4096
 476 00da 0023     		movs	r3, #0
 477 00dc CDE90C23 		strd	r2, [sp, #48]
 219:Core/Src/stm32h7xx_hal_msp.c ****     if (HAL_RCCEx_PeriphCLKConfig(&PeriphClkInitStruct) != HAL_OK)
 478              		.loc 1 219 5 is_stmt 1 view .LVU130
 219:Core/Src/stm32h7xx_hal_msp.c ****     if (HAL_RCCEx_PeriphCLKConfig(&PeriphClkInitStruct) != HAL_OK)
 479              		.loc 1 219 46 is_stmt 0 view .LVU131
 480 00e0 0023     		movs	r3, #0
 481 00e2 2393     		str	r3, [sp, #140]
 220:Core/Src/stm32h7xx_hal_msp.c ****     {
 482              		.loc 1 220 5 is_stmt 1 view .LVU132
 220:Core/Src/stm32h7xx_hal_msp.c ****     {
 483              		.loc 1 220 9 is_stmt 0 view .LVU133
 484 00e4 0CA8     		add	r0, sp, #48
 485 00e6 FFF7FEFF 		bl	HAL_RCCEx_PeriphCLKConfig
 486              	.LVL25:
 220:Core/Src/stm32h7xx_hal_msp.c ****     {
 487              		.loc 1 220 8 view .LVU134
 488 00ea 0028     		cmp	r0, #0
ARM GAS  /tmp/ccCE1JqB.s 			page 17


 489 00ec 54D1     		bne	.L37
 490              	.L27:
 226:Core/Src/stm32h7xx_hal_msp.c **** 
 491              		.loc 1 226 5 is_stmt 1 view .LVU135
 492              	.LBB8:
 226:Core/Src/stm32h7xx_hal_msp.c **** 
 493              		.loc 1 226 5 view .LVU136
 226:Core/Src/stm32h7xx_hal_msp.c **** 
 494              		.loc 1 226 5 view .LVU137
 495 00ee 6B4B     		ldr	r3, .L40+16
 496 00f0 D3F8E820 		ldr	r2, [r3, #232]
 497 00f4 42F40042 		orr	r2, r2, #32768
 498 00f8 C3F8E820 		str	r2, [r3, #232]
 226:Core/Src/stm32h7xx_hal_msp.c **** 
 499              		.loc 1 226 5 view .LVU138
 500 00fc D3F8E820 		ldr	r2, [r3, #232]
 501 0100 02F40042 		and	r2, r2, #32768
 502 0104 0492     		str	r2, [sp, #16]
 226:Core/Src/stm32h7xx_hal_msp.c **** 
 503              		.loc 1 226 5 view .LVU139
 504 0106 049A     		ldr	r2, [sp, #16]
 505              	.LBE8:
 226:Core/Src/stm32h7xx_hal_msp.c **** 
 506              		.loc 1 226 5 view .LVU140
 228:Core/Src/stm32h7xx_hal_msp.c ****     __HAL_RCC_GPIOB_CLK_ENABLE();
 507              		.loc 1 228 5 view .LVU141
 508              	.LBB9:
 228:Core/Src/stm32h7xx_hal_msp.c ****     __HAL_RCC_GPIOB_CLK_ENABLE();
 509              		.loc 1 228 5 view .LVU142
 228:Core/Src/stm32h7xx_hal_msp.c ****     __HAL_RCC_GPIOB_CLK_ENABLE();
 510              		.loc 1 228 5 view .LVU143
 511 0108 D3F8E020 		ldr	r2, [r3, #224]
 512 010c 42F00102 		orr	r2, r2, #1
 513 0110 C3F8E020 		str	r2, [r3, #224]
 228:Core/Src/stm32h7xx_hal_msp.c ****     __HAL_RCC_GPIOB_CLK_ENABLE();
 514              		.loc 1 228 5 view .LVU144
 515 0114 D3F8E020 		ldr	r2, [r3, #224]
 516 0118 02F00102 		and	r2, r2, #1
 517 011c 0592     		str	r2, [sp, #20]
 228:Core/Src/stm32h7xx_hal_msp.c ****     __HAL_RCC_GPIOB_CLK_ENABLE();
 518              		.loc 1 228 5 view .LVU145
 519 011e 059A     		ldr	r2, [sp, #20]
 520              	.LBE9:
 228:Core/Src/stm32h7xx_hal_msp.c ****     __HAL_RCC_GPIOB_CLK_ENABLE();
 521              		.loc 1 228 5 view .LVU146
 229:Core/Src/stm32h7xx_hal_msp.c ****     __HAL_RCC_GPIOC_CLK_ENABLE();
 522              		.loc 1 229 5 view .LVU147
 523              	.LBB10:
 229:Core/Src/stm32h7xx_hal_msp.c ****     __HAL_RCC_GPIOC_CLK_ENABLE();
 524              		.loc 1 229 5 view .LVU148
 229:Core/Src/stm32h7xx_hal_msp.c ****     __HAL_RCC_GPIOC_CLK_ENABLE();
 525              		.loc 1 229 5 view .LVU149
 526 0120 D3F8E020 		ldr	r2, [r3, #224]
 527 0124 42F00202 		orr	r2, r2, #2
 528 0128 C3F8E020 		str	r2, [r3, #224]
 229:Core/Src/stm32h7xx_hal_msp.c ****     __HAL_RCC_GPIOC_CLK_ENABLE();
 529              		.loc 1 229 5 view .LVU150
ARM GAS  /tmp/ccCE1JqB.s 			page 18


 530 012c D3F8E020 		ldr	r2, [r3, #224]
 531 0130 02F00202 		and	r2, r2, #2
 532 0134 0692     		str	r2, [sp, #24]
 229:Core/Src/stm32h7xx_hal_msp.c ****     __HAL_RCC_GPIOC_CLK_ENABLE();
 533              		.loc 1 229 5 view .LVU151
 534 0136 069A     		ldr	r2, [sp, #24]
 535              	.LBE10:
 229:Core/Src/stm32h7xx_hal_msp.c ****     __HAL_RCC_GPIOC_CLK_ENABLE();
 536              		.loc 1 229 5 view .LVU152
 230:Core/Src/stm32h7xx_hal_msp.c ****     /**SPI3 GPIO Configuration
 537              		.loc 1 230 5 view .LVU153
 538              	.LBB11:
 230:Core/Src/stm32h7xx_hal_msp.c ****     /**SPI3 GPIO Configuration
 539              		.loc 1 230 5 view .LVU154
 230:Core/Src/stm32h7xx_hal_msp.c ****     /**SPI3 GPIO Configuration
 540              		.loc 1 230 5 view .LVU155
 541 0138 D3F8E020 		ldr	r2, [r3, #224]
 542 013c 42F00402 		orr	r2, r2, #4
 543 0140 C3F8E020 		str	r2, [r3, #224]
 230:Core/Src/stm32h7xx_hal_msp.c ****     /**SPI3 GPIO Configuration
 544              		.loc 1 230 5 view .LVU156
 545 0144 D3F8E030 		ldr	r3, [r3, #224]
 546 0148 03F00403 		and	r3, r3, #4
 547 014c 0793     		str	r3, [sp, #28]
 230:Core/Src/stm32h7xx_hal_msp.c ****     /**SPI3 GPIO Configuration
 548              		.loc 1 230 5 view .LVU157
 549 014e 079B     		ldr	r3, [sp, #28]
 550              	.LBE11:
 230:Core/Src/stm32h7xx_hal_msp.c ****     /**SPI3 GPIO Configuration
 551              		.loc 1 230 5 view .LVU158
 237:Core/Src/stm32h7xx_hal_msp.c ****     GPIO_InitStruct.Mode = GPIO_MODE_AF_PP;
 552              		.loc 1 237 5 view .LVU159
 237:Core/Src/stm32h7xx_hal_msp.c ****     GPIO_InitStruct.Mode = GPIO_MODE_AF_PP;
 553              		.loc 1 237 25 is_stmt 0 view .LVU160
 554 0150 1023     		movs	r3, #16
 555 0152 3B93     		str	r3, [sp, #236]
 238:Core/Src/stm32h7xx_hal_msp.c ****     GPIO_InitStruct.Pull = GPIO_NOPULL;
 556              		.loc 1 238 5 is_stmt 1 view .LVU161
 238:Core/Src/stm32h7xx_hal_msp.c ****     GPIO_InitStruct.Pull = GPIO_NOPULL;
 557              		.loc 1 238 26 is_stmt 0 view .LVU162
 558 0154 0225     		movs	r5, #2
 559 0156 3C95     		str	r5, [sp, #240]
 239:Core/Src/stm32h7xx_hal_msp.c ****     GPIO_InitStruct.Speed = GPIO_SPEED_FREQ_LOW;
 560              		.loc 1 239 5 is_stmt 1 view .LVU163
 239:Core/Src/stm32h7xx_hal_msp.c ****     GPIO_InitStruct.Speed = GPIO_SPEED_FREQ_LOW;
 561              		.loc 1 239 26 is_stmt 0 view .LVU164
 562 0158 0024     		movs	r4, #0
 563              	.LVL26:
 239:Core/Src/stm32h7xx_hal_msp.c ****     GPIO_InitStruct.Speed = GPIO_SPEED_FREQ_LOW;
 564              		.loc 1 239 26 view .LVU165
 565 015a 3D94     		str	r4, [sp, #244]
 240:Core/Src/stm32h7xx_hal_msp.c ****     GPIO_InitStruct.Alternate = GPIO_AF6_SPI3;
 566              		.loc 1 240 5 is_stmt 1 view .LVU166
 240:Core/Src/stm32h7xx_hal_msp.c ****     GPIO_InitStruct.Alternate = GPIO_AF6_SPI3;
 567              		.loc 1 240 27 is_stmt 0 view .LVU167
 568 015c 3E94     		str	r4, [sp, #248]
 241:Core/Src/stm32h7xx_hal_msp.c ****     HAL_GPIO_Init(GPIOA, &GPIO_InitStruct);
ARM GAS  /tmp/ccCE1JqB.s 			page 19


 569              		.loc 1 241 5 is_stmt 1 view .LVU168
 241:Core/Src/stm32h7xx_hal_msp.c ****     HAL_GPIO_Init(GPIOA, &GPIO_InitStruct);
 570              		.loc 1 241 31 is_stmt 0 view .LVU169
 571 015e 0626     		movs	r6, #6
 572 0160 3F96     		str	r6, [sp, #252]
 242:Core/Src/stm32h7xx_hal_msp.c **** 
 573              		.loc 1 242 5 is_stmt 1 view .LVU170
 574 0162 3BA9     		add	r1, sp, #236
 575 0164 5048     		ldr	r0, .L40+28
 576 0166 FFF7FEFF 		bl	HAL_GPIO_Init
 577              	.LVL27:
 244:Core/Src/stm32h7xx_hal_msp.c ****     GPIO_InitStruct.Mode = GPIO_MODE_AF_PP;
 578              		.loc 1 244 5 view .LVU171
 244:Core/Src/stm32h7xx_hal_msp.c ****     GPIO_InitStruct.Mode = GPIO_MODE_AF_PP;
 579              		.loc 1 244 25 is_stmt 0 view .LVU172
 580 016a 0423     		movs	r3, #4
 581 016c 3B93     		str	r3, [sp, #236]
 245:Core/Src/stm32h7xx_hal_msp.c ****     GPIO_InitStruct.Pull = GPIO_NOPULL;
 582              		.loc 1 245 5 is_stmt 1 view .LVU173
 245:Core/Src/stm32h7xx_hal_msp.c ****     GPIO_InitStruct.Pull = GPIO_NOPULL;
 583              		.loc 1 245 26 is_stmt 0 view .LVU174
 584 016e 3C95     		str	r5, [sp, #240]
 246:Core/Src/stm32h7xx_hal_msp.c ****     GPIO_InitStruct.Speed = GPIO_SPEED_FREQ_LOW;
 585              		.loc 1 246 5 is_stmt 1 view .LVU175
 246:Core/Src/stm32h7xx_hal_msp.c ****     GPIO_InitStruct.Speed = GPIO_SPEED_FREQ_LOW;
 586              		.loc 1 246 26 is_stmt 0 view .LVU176
 587 0170 3D94     		str	r4, [sp, #244]
 247:Core/Src/stm32h7xx_hal_msp.c ****     GPIO_InitStruct.Alternate = GPIO_AF7_SPI3;
 588              		.loc 1 247 5 is_stmt 1 view .LVU177
 247:Core/Src/stm32h7xx_hal_msp.c ****     GPIO_InitStruct.Alternate = GPIO_AF7_SPI3;
 589              		.loc 1 247 27 is_stmt 0 view .LVU178
 590 0172 3E94     		str	r4, [sp, #248]
 248:Core/Src/stm32h7xx_hal_msp.c ****     HAL_GPIO_Init(GPIOB, &GPIO_InitStruct);
 591              		.loc 1 248 5 is_stmt 1 view .LVU179
 248:Core/Src/stm32h7xx_hal_msp.c ****     HAL_GPIO_Init(GPIOB, &GPIO_InitStruct);
 592              		.loc 1 248 31 is_stmt 0 view .LVU180
 593 0174 0723     		movs	r3, #7
 594 0176 3F93     		str	r3, [sp, #252]
 249:Core/Src/stm32h7xx_hal_msp.c **** 
 595              		.loc 1 249 5 is_stmt 1 view .LVU181
 596 0178 3BA9     		add	r1, sp, #236
 597 017a 4A48     		ldr	r0, .L40+24
 598 017c FFF7FEFF 		bl	HAL_GPIO_Init
 599              	.LVL28:
 251:Core/Src/stm32h7xx_hal_msp.c ****     GPIO_InitStruct.Mode = GPIO_MODE_AF_PP;
 600              		.loc 1 251 5 view .LVU182
 251:Core/Src/stm32h7xx_hal_msp.c ****     GPIO_InitStruct.Mode = GPIO_MODE_AF_PP;
 601              		.loc 1 251 25 is_stmt 0 view .LVU183
 602 0180 4FF44063 		mov	r3, #3072
 603 0184 3B93     		str	r3, [sp, #236]
 252:Core/Src/stm32h7xx_hal_msp.c ****     GPIO_InitStruct.Pull = GPIO_NOPULL;
 604              		.loc 1 252 5 is_stmt 1 view .LVU184
 252:Core/Src/stm32h7xx_hal_msp.c ****     GPIO_InitStruct.Pull = GPIO_NOPULL;
 605              		.loc 1 252 26 is_stmt 0 view .LVU185
 606 0186 3C95     		str	r5, [sp, #240]
 253:Core/Src/stm32h7xx_hal_msp.c ****     GPIO_InitStruct.Speed = GPIO_SPEED_FREQ_LOW;
 607              		.loc 1 253 5 is_stmt 1 view .LVU186
ARM GAS  /tmp/ccCE1JqB.s 			page 20


 253:Core/Src/stm32h7xx_hal_msp.c ****     GPIO_InitStruct.Speed = GPIO_SPEED_FREQ_LOW;
 608              		.loc 1 253 26 is_stmt 0 view .LVU187
 609 0188 3D94     		str	r4, [sp, #244]
 254:Core/Src/stm32h7xx_hal_msp.c ****     GPIO_InitStruct.Alternate = GPIO_AF6_SPI3;
 610              		.loc 1 254 5 is_stmt 1 view .LVU188
 254:Core/Src/stm32h7xx_hal_msp.c ****     GPIO_InitStruct.Alternate = GPIO_AF6_SPI3;
 611              		.loc 1 254 27 is_stmt 0 view .LVU189
 612 018a 3E94     		str	r4, [sp, #248]
 255:Core/Src/stm32h7xx_hal_msp.c ****     HAL_GPIO_Init(GPIOC, &GPIO_InitStruct);
 613              		.loc 1 255 5 is_stmt 1 view .LVU190
 255:Core/Src/stm32h7xx_hal_msp.c ****     HAL_GPIO_Init(GPIOC, &GPIO_InitStruct);
 614              		.loc 1 255 31 is_stmt 0 view .LVU191
 615 018c 3F96     		str	r6, [sp, #252]
 256:Core/Src/stm32h7xx_hal_msp.c **** 
 616              		.loc 1 256 5 is_stmt 1 view .LVU192
 617 018e 3BA9     		add	r1, sp, #236
 618 0190 4348     		ldr	r0, .L40+20
 619 0192 FFF7FEFF 		bl	HAL_GPIO_Init
 620              	.LVL29:
 621 0196 4FE7     		b	.L22
 622              	.LVL30:
 623              	.L37:
 222:Core/Src/stm32h7xx_hal_msp.c ****     }
 624              		.loc 1 222 7 view .LVU193
 625 0198 FFF7FEFF 		bl	Error_Handler
 626              	.LVL31:
 627 019c A7E7     		b	.L27
 628              	.L34:
 270:Core/Src/stm32h7xx_hal_msp.c ****     PeriphClkInitStruct.Spi45ClockSelection = RCC_SPI45CLKSOURCE_D2PCLK1;
 629              		.loc 1 270 5 view .LVU194
 270:Core/Src/stm32h7xx_hal_msp.c ****     PeriphClkInitStruct.Spi45ClockSelection = RCC_SPI45CLKSOURCE_D2PCLK1;
 630              		.loc 1 270 46 is_stmt 0 view .LVU195
 631 019e 4FF40052 		mov	r2, #8192
 632 01a2 0023     		movs	r3, #0
 633 01a4 CDE90C23 		strd	r2, [sp, #48]
 271:Core/Src/stm32h7xx_hal_msp.c ****     if (HAL_RCCEx_PeriphCLKConfig(&PeriphClkInitStruct) != HAL_OK)
 634              		.loc 1 271 5 is_stmt 1 view .LVU196
 271:Core/Src/stm32h7xx_hal_msp.c ****     if (HAL_RCCEx_PeriphCLKConfig(&PeriphClkInitStruct) != HAL_OK)
 635              		.loc 1 271 45 is_stmt 0 view .LVU197
 636 01a8 0023     		movs	r3, #0
 637 01aa 2493     		str	r3, [sp, #144]
 272:Core/Src/stm32h7xx_hal_msp.c ****     {
 638              		.loc 1 272 5 is_stmt 1 view .LVU198
 272:Core/Src/stm32h7xx_hal_msp.c ****     {
 639              		.loc 1 272 9 is_stmt 0 view .LVU199
 640 01ac 0CA8     		add	r0, sp, #48
 641 01ae FFF7FEFF 		bl	HAL_RCCEx_PeriphCLKConfig
 642              	.LVL32:
 272:Core/Src/stm32h7xx_hal_msp.c ****     {
 643              		.loc 1 272 8 view .LVU200
 644 01b2 30BB     		cbnz	r0, .L38
 645              	.L29:
 278:Core/Src/stm32h7xx_hal_msp.c **** 
 646              		.loc 1 278 5 is_stmt 1 view .LVU201
 647              	.LBB12:
 278:Core/Src/stm32h7xx_hal_msp.c **** 
 648              		.loc 1 278 5 view .LVU202
ARM GAS  /tmp/ccCE1JqB.s 			page 21


 278:Core/Src/stm32h7xx_hal_msp.c **** 
 649              		.loc 1 278 5 view .LVU203
 650 01b4 394B     		ldr	r3, .L40+16
 651 01b6 D3F8F020 		ldr	r2, [r3, #240]
 652 01ba 42F40052 		orr	r2, r2, #8192
 653 01be C3F8F020 		str	r2, [r3, #240]
 278:Core/Src/stm32h7xx_hal_msp.c **** 
 654              		.loc 1 278 5 view .LVU204
 655 01c2 D3F8F020 		ldr	r2, [r3, #240]
 656 01c6 02F40052 		and	r2, r2, #8192
 657 01ca 0892     		str	r2, [sp, #32]
 278:Core/Src/stm32h7xx_hal_msp.c **** 
 658              		.loc 1 278 5 view .LVU205
 659 01cc 089A     		ldr	r2, [sp, #32]
 660              	.LBE12:
 278:Core/Src/stm32h7xx_hal_msp.c **** 
 661              		.loc 1 278 5 view .LVU206
 280:Core/Src/stm32h7xx_hal_msp.c ****     /**SPI4 GPIO Configuration
 662              		.loc 1 280 5 view .LVU207
 663              	.LBB13:
 280:Core/Src/stm32h7xx_hal_msp.c ****     /**SPI4 GPIO Configuration
 664              		.loc 1 280 5 view .LVU208
 280:Core/Src/stm32h7xx_hal_msp.c ****     /**SPI4 GPIO Configuration
 665              		.loc 1 280 5 view .LVU209
 666 01ce D3F8E020 		ldr	r2, [r3, #224]
 667 01d2 42F01002 		orr	r2, r2, #16
 668 01d6 C3F8E020 		str	r2, [r3, #224]
 280:Core/Src/stm32h7xx_hal_msp.c ****     /**SPI4 GPIO Configuration
 669              		.loc 1 280 5 view .LVU210
 670 01da D3F8E030 		ldr	r3, [r3, #224]
 671 01de 03F01003 		and	r3, r3, #16
 672 01e2 0993     		str	r3, [sp, #36]
 280:Core/Src/stm32h7xx_hal_msp.c ****     /**SPI4 GPIO Configuration
 673              		.loc 1 280 5 view .LVU211
 674 01e4 099B     		ldr	r3, [sp, #36]
 675              	.LBE13:
 280:Core/Src/stm32h7xx_hal_msp.c ****     /**SPI4 GPIO Configuration
 676              		.loc 1 280 5 view .LVU212
 287:Core/Src/stm32h7xx_hal_msp.c ****     GPIO_InitStruct.Mode = GPIO_MODE_AF_PP;
 677              		.loc 1 287 5 view .LVU213
 287:Core/Src/stm32h7xx_hal_msp.c ****     GPIO_InitStruct.Mode = GPIO_MODE_AF_PP;
 678              		.loc 1 287 25 is_stmt 0 view .LVU214
 679 01e6 7423     		movs	r3, #116
 680 01e8 3B93     		str	r3, [sp, #236]
 288:Core/Src/stm32h7xx_hal_msp.c ****     GPIO_InitStruct.Pull = GPIO_NOPULL;
 681              		.loc 1 288 5 is_stmt 1 view .LVU215
 288:Core/Src/stm32h7xx_hal_msp.c ****     GPIO_InitStruct.Pull = GPIO_NOPULL;
 682              		.loc 1 288 26 is_stmt 0 view .LVU216
 683 01ea 0223     		movs	r3, #2
 684 01ec 3C93     		str	r3, [sp, #240]
 289:Core/Src/stm32h7xx_hal_msp.c ****     GPIO_InitStruct.Speed = GPIO_SPEED_FREQ_LOW;
 685              		.loc 1 289 5 is_stmt 1 view .LVU217
 289:Core/Src/stm32h7xx_hal_msp.c ****     GPIO_InitStruct.Speed = GPIO_SPEED_FREQ_LOW;
 686              		.loc 1 289 26 is_stmt 0 view .LVU218
 687 01ee 0023     		movs	r3, #0
 688 01f0 3D93     		str	r3, [sp, #244]
 290:Core/Src/stm32h7xx_hal_msp.c ****     GPIO_InitStruct.Alternate = GPIO_AF5_SPI4;
ARM GAS  /tmp/ccCE1JqB.s 			page 22


 689              		.loc 1 290 5 is_stmt 1 view .LVU219
 290:Core/Src/stm32h7xx_hal_msp.c ****     GPIO_InitStruct.Alternate = GPIO_AF5_SPI4;
 690              		.loc 1 290 27 is_stmt 0 view .LVU220
 691 01f2 3E93     		str	r3, [sp, #248]
 291:Core/Src/stm32h7xx_hal_msp.c ****     HAL_GPIO_Init(GPIOE, &GPIO_InitStruct);
 692              		.loc 1 291 5 is_stmt 1 view .LVU221
 291:Core/Src/stm32h7xx_hal_msp.c ****     HAL_GPIO_Init(GPIOE, &GPIO_InitStruct);
 693              		.loc 1 291 31 is_stmt 0 view .LVU222
 694 01f4 0523     		movs	r3, #5
 695 01f6 3F93     		str	r3, [sp, #252]
 292:Core/Src/stm32h7xx_hal_msp.c **** 
 696              		.loc 1 292 5 is_stmt 1 view .LVU223
 697 01f8 3BA9     		add	r1, sp, #236
 698 01fa 2C48     		ldr	r0, .L40+32
 699 01fc FFF7FEFF 		bl	HAL_GPIO_Init
 700              	.LVL33:
 701 0200 1AE7     		b	.L22
 702              	.L38:
 274:Core/Src/stm32h7xx_hal_msp.c ****     }
 703              		.loc 1 274 7 view .LVU224
 704 0202 FFF7FEFF 		bl	Error_Handler
 705              	.LVL34:
 706 0206 D5E7     		b	.L29
 707              	.L35:
 306:Core/Src/stm32h7xx_hal_msp.c ****     PeriphClkInitStruct.Spi6ClockSelection = RCC_SPI6CLKSOURCE_D3PCLK1;
 708              		.loc 1 306 5 view .LVU225
 306:Core/Src/stm32h7xx_hal_msp.c ****     PeriphClkInitStruct.Spi6ClockSelection = RCC_SPI6CLKSOURCE_D3PCLK1;
 709              		.loc 1 306 46 is_stmt 0 view .LVU226
 710 0208 4FF48042 		mov	r2, #16384
 711 020c 0023     		movs	r3, #0
 712 020e CDE90C23 		strd	r2, [sp, #48]
 307:Core/Src/stm32h7xx_hal_msp.c ****     if (HAL_RCCEx_PeriphCLKConfig(&PeriphClkInitStruct) != HAL_OK)
 713              		.loc 1 307 5 is_stmt 1 view .LVU227
 307:Core/Src/stm32h7xx_hal_msp.c ****     if (HAL_RCCEx_PeriphCLKConfig(&PeriphClkInitStruct) != HAL_OK)
 714              		.loc 1 307 44 is_stmt 0 view .LVU228
 715 0212 0023     		movs	r3, #0
 716 0214 3793     		str	r3, [sp, #220]
 308:Core/Src/stm32h7xx_hal_msp.c ****     {
 717              		.loc 1 308 5 is_stmt 1 view .LVU229
 308:Core/Src/stm32h7xx_hal_msp.c ****     {
 718              		.loc 1 308 9 is_stmt 0 view .LVU230
 719 0216 0CA8     		add	r0, sp, #48
 720 0218 FFF7FEFF 		bl	HAL_RCCEx_PeriphCLKConfig
 721              	.LVL35:
 308:Core/Src/stm32h7xx_hal_msp.c ****     {
 722              		.loc 1 308 8 view .LVU231
 723 021c 0028     		cmp	r0, #0
 724 021e 32D1     		bne	.L39
 725              	.L30:
 314:Core/Src/stm32h7xx_hal_msp.c **** 
 726              		.loc 1 314 5 is_stmt 1 view .LVU232
 727              	.LBB14:
 314:Core/Src/stm32h7xx_hal_msp.c **** 
 728              		.loc 1 314 5 view .LVU233
 314:Core/Src/stm32h7xx_hal_msp.c **** 
 729              		.loc 1 314 5 view .LVU234
 730 0220 1E4B     		ldr	r3, .L40+16
ARM GAS  /tmp/ccCE1JqB.s 			page 23


 731 0222 D3F8F420 		ldr	r2, [r3, #244]
 732 0226 42F02002 		orr	r2, r2, #32
 733 022a C3F8F420 		str	r2, [r3, #244]
 314:Core/Src/stm32h7xx_hal_msp.c **** 
 734              		.loc 1 314 5 view .LVU235
 735 022e D3F8F420 		ldr	r2, [r3, #244]
 736 0232 02F02002 		and	r2, r2, #32
 737 0236 0A92     		str	r2, [sp, #40]
 314:Core/Src/stm32h7xx_hal_msp.c **** 
 738              		.loc 1 314 5 view .LVU236
 739 0238 0A9A     		ldr	r2, [sp, #40]
 740              	.LBE14:
 314:Core/Src/stm32h7xx_hal_msp.c **** 
 741              		.loc 1 314 5 view .LVU237
 316:Core/Src/stm32h7xx_hal_msp.c ****     /**SPI6 GPIO Configuration
 742              		.loc 1 316 5 view .LVU238
 743              	.LBB15:
 316:Core/Src/stm32h7xx_hal_msp.c ****     /**SPI6 GPIO Configuration
 744              		.loc 1 316 5 view .LVU239
 316:Core/Src/stm32h7xx_hal_msp.c ****     /**SPI6 GPIO Configuration
 745              		.loc 1 316 5 view .LVU240
 746 023a D3F8E020 		ldr	r2, [r3, #224]
 747 023e 42F00102 		orr	r2, r2, #1
 748 0242 C3F8E020 		str	r2, [r3, #224]
 316:Core/Src/stm32h7xx_hal_msp.c ****     /**SPI6 GPIO Configuration
 749              		.loc 1 316 5 view .LVU241
 750 0246 D3F8E030 		ldr	r3, [r3, #224]
 751 024a 03F00103 		and	r3, r3, #1
 752 024e 0B93     		str	r3, [sp, #44]
 316:Core/Src/stm32h7xx_hal_msp.c ****     /**SPI6 GPIO Configuration
 753              		.loc 1 316 5 view .LVU242
 754 0250 0B9B     		ldr	r3, [sp, #44]
 755              	.LBE15:
 316:Core/Src/stm32h7xx_hal_msp.c ****     /**SPI6 GPIO Configuration
 756              		.loc 1 316 5 view .LVU243
 323:Core/Src/stm32h7xx_hal_msp.c ****     GPIO_InitStruct.Mode = GPIO_MODE_AF_PP;
 757              		.loc 1 323 5 view .LVU244
 323:Core/Src/stm32h7xx_hal_msp.c ****     GPIO_InitStruct.Mode = GPIO_MODE_AF_PP;
 758              		.loc 1 323 25 is_stmt 0 view .LVU245
 759 0252 0123     		movs	r3, #1
 760 0254 3B93     		str	r3, [sp, #236]
 324:Core/Src/stm32h7xx_hal_msp.c ****     GPIO_InitStruct.Pull = GPIO_NOPULL;
 761              		.loc 1 324 5 is_stmt 1 view .LVU246
 324:Core/Src/stm32h7xx_hal_msp.c ****     GPIO_InitStruct.Pull = GPIO_NOPULL;
 762              		.loc 1 324 26 is_stmt 0 view .LVU247
 763 0256 0226     		movs	r6, #2
 764 0258 3C96     		str	r6, [sp, #240]
 325:Core/Src/stm32h7xx_hal_msp.c ****     GPIO_InitStruct.Speed = GPIO_SPEED_FREQ_LOW;
 765              		.loc 1 325 5 is_stmt 1 view .LVU248
 325:Core/Src/stm32h7xx_hal_msp.c ****     GPIO_InitStruct.Speed = GPIO_SPEED_FREQ_LOW;
 766              		.loc 1 325 26 is_stmt 0 view .LVU249
 767 025a 0024     		movs	r4, #0
 768              	.LVL36:
 325:Core/Src/stm32h7xx_hal_msp.c ****     GPIO_InitStruct.Speed = GPIO_SPEED_FREQ_LOW;
 769              		.loc 1 325 26 view .LVU250
 770 025c 3D94     		str	r4, [sp, #244]
 326:Core/Src/stm32h7xx_hal_msp.c ****     GPIO_InitStruct.Alternate = GPIO_AF5_SPI6;
ARM GAS  /tmp/ccCE1JqB.s 			page 24


 771              		.loc 1 326 5 is_stmt 1 view .LVU251
 326:Core/Src/stm32h7xx_hal_msp.c ****     GPIO_InitStruct.Alternate = GPIO_AF5_SPI6;
 772              		.loc 1 326 27 is_stmt 0 view .LVU252
 773 025e 3E94     		str	r4, [sp, #248]
 327:Core/Src/stm32h7xx_hal_msp.c ****     HAL_GPIO_Init(GPIOA, &GPIO_InitStruct);
 774              		.loc 1 327 5 is_stmt 1 view .LVU253
 327:Core/Src/stm32h7xx_hal_msp.c ****     HAL_GPIO_Init(GPIOA, &GPIO_InitStruct);
 775              		.loc 1 327 31 is_stmt 0 view .LVU254
 776 0260 0523     		movs	r3, #5
 777 0262 3F93     		str	r3, [sp, #252]
 328:Core/Src/stm32h7xx_hal_msp.c **** 
 778              		.loc 1 328 5 is_stmt 1 view .LVU255
 779 0264 104D     		ldr	r5, .L40+28
 780 0266 3BA9     		add	r1, sp, #236
 781 0268 2846     		mov	r0, r5
 782 026a FFF7FEFF 		bl	HAL_GPIO_Init
 783              	.LVL37:
 330:Core/Src/stm32h7xx_hal_msp.c ****     GPIO_InitStruct.Mode = GPIO_MODE_AF_PP;
 784              		.loc 1 330 5 view .LVU256
 330:Core/Src/stm32h7xx_hal_msp.c ****     GPIO_InitStruct.Mode = GPIO_MODE_AF_PP;
 785              		.loc 1 330 25 is_stmt 0 view .LVU257
 786 026e E023     		movs	r3, #224
 787 0270 3B93     		str	r3, [sp, #236]
 331:Core/Src/stm32h7xx_hal_msp.c ****     GPIO_InitStruct.Pull = GPIO_NOPULL;
 788              		.loc 1 331 5 is_stmt 1 view .LVU258
 331:Core/Src/stm32h7xx_hal_msp.c ****     GPIO_InitStruct.Pull = GPIO_NOPULL;
 789              		.loc 1 331 26 is_stmt 0 view .LVU259
 790 0272 3C96     		str	r6, [sp, #240]
 332:Core/Src/stm32h7xx_hal_msp.c ****     GPIO_InitStruct.Speed = GPIO_SPEED_FREQ_LOW;
 791              		.loc 1 332 5 is_stmt 1 view .LVU260
 332:Core/Src/stm32h7xx_hal_msp.c ****     GPIO_InitStruct.Speed = GPIO_SPEED_FREQ_LOW;
 792              		.loc 1 332 26 is_stmt 0 view .LVU261
 793 0274 3D94     		str	r4, [sp, #244]
 333:Core/Src/stm32h7xx_hal_msp.c ****     GPIO_InitStruct.Alternate = GPIO_AF8_SPI6;
 794              		.loc 1 333 5 is_stmt 1 view .LVU262
 333:Core/Src/stm32h7xx_hal_msp.c ****     GPIO_InitStruct.Alternate = GPIO_AF8_SPI6;
 795              		.loc 1 333 27 is_stmt 0 view .LVU263
 796 0276 3E94     		str	r4, [sp, #248]
 334:Core/Src/stm32h7xx_hal_msp.c ****     HAL_GPIO_Init(GPIOA, &GPIO_InitStruct);
 797              		.loc 1 334 5 is_stmt 1 view .LVU264
 334:Core/Src/stm32h7xx_hal_msp.c ****     HAL_GPIO_Init(GPIOA, &GPIO_InitStruct);
 798              		.loc 1 334 31 is_stmt 0 view .LVU265
 799 0278 0823     		movs	r3, #8
 800 027a 3F93     		str	r3, [sp, #252]
 335:Core/Src/stm32h7xx_hal_msp.c **** 
 801              		.loc 1 335 5 is_stmt 1 view .LVU266
 802 027c 3BA9     		add	r1, sp, #236
 803 027e 2846     		mov	r0, r5
 804 0280 FFF7FEFF 		bl	HAL_GPIO_Init
 805              	.LVL38:
 806              		.loc 1 342 1 is_stmt 0 view .LVU267
 807 0284 D8E6     		b	.L22
 808              	.LVL39:
 809              	.L39:
 310:Core/Src/stm32h7xx_hal_msp.c ****     }
 810              		.loc 1 310 7 is_stmt 1 view .LVU268
 811 0286 FFF7FEFF 		bl	Error_Handler
ARM GAS  /tmp/ccCE1JqB.s 			page 25


 812              	.LVL40:
 813 028a C9E7     		b	.L30
 814              	.L41:
 815              		.align	2
 816              	.L40:
 817 028c 00380040 		.word	1073756160
 818 0290 003C0040 		.word	1073757184
 819 0294 00340140 		.word	1073820672
 820 0298 00140058 		.word	1476400128
 821 029c 00440258 		.word	1476543488
 822 02a0 00080258 		.word	1476528128
 823 02a4 00040258 		.word	1476527104
 824 02a8 00000258 		.word	1476526080
 825 02ac 00100258 		.word	1476530176
 826              		.cfi_endproc
 827              	.LFE213:
 829              		.section	.text.HAL_SPI_MspDeInit,"ax",%progbits
 830              		.align	1
 831              		.global	HAL_SPI_MspDeInit
 832              		.syntax unified
 833              		.thumb
 834              		.thumb_func
 835              		.fpu fpv5-d16
 837              	HAL_SPI_MspDeInit:
 838              	.LVL41:
 839              	.LFB214:
 343:Core/Src/stm32h7xx_hal_msp.c **** 
 344:Core/Src/stm32h7xx_hal_msp.c **** /**
 345:Core/Src/stm32h7xx_hal_msp.c **** * @brief SPI MSP De-Initialization
 346:Core/Src/stm32h7xx_hal_msp.c **** * This function freeze the hardware resources used in this example
 347:Core/Src/stm32h7xx_hal_msp.c **** * @param hspi: SPI handle pointer
 348:Core/Src/stm32h7xx_hal_msp.c **** * @retval None
 349:Core/Src/stm32h7xx_hal_msp.c **** */
 350:Core/Src/stm32h7xx_hal_msp.c **** void HAL_SPI_MspDeInit(SPI_HandleTypeDef* hspi)
 351:Core/Src/stm32h7xx_hal_msp.c **** {
 840              		.loc 1 351 1 view -0
 841              		.cfi_startproc
 842              		@ args = 0, pretend = 0, frame = 0
 843              		@ frame_needed = 0, uses_anonymous_args = 0
 844              		.loc 1 351 1 is_stmt 0 view .LVU270
 845 0000 08B5     		push	{r3, lr}
 846              	.LCFI11:
 847              		.cfi_def_cfa_offset 8
 848              		.cfi_offset 3, -8
 849              		.cfi_offset 14, -4
 352:Core/Src/stm32h7xx_hal_msp.c ****   if(hspi->Instance==SPI2)
 850              		.loc 1 352 3 is_stmt 1 view .LVU271
 851              		.loc 1 352 10 is_stmt 0 view .LVU272
 852 0002 0368     		ldr	r3, [r0]
 853              		.loc 1 352 5 view .LVU273
 854 0004 254A     		ldr	r2, .L52
 855 0006 9342     		cmp	r3, r2
 856 0008 09D0     		beq	.L48
 353:Core/Src/stm32h7xx_hal_msp.c ****   {
 354:Core/Src/stm32h7xx_hal_msp.c ****   /* USER CODE BEGIN SPI2_MspDeInit 0 */
 355:Core/Src/stm32h7xx_hal_msp.c **** 
 356:Core/Src/stm32h7xx_hal_msp.c ****   /* USER CODE END SPI2_MspDeInit 0 */
ARM GAS  /tmp/ccCE1JqB.s 			page 26


 357:Core/Src/stm32h7xx_hal_msp.c ****     /* Peripheral clock disable */
 358:Core/Src/stm32h7xx_hal_msp.c ****     __HAL_RCC_SPI2_CLK_DISABLE();
 359:Core/Src/stm32h7xx_hal_msp.c **** 
 360:Core/Src/stm32h7xx_hal_msp.c ****     /**SPI2 GPIO Configuration
 361:Core/Src/stm32h7xx_hal_msp.c ****     PC1     ------> SPI2_MOSI
 362:Core/Src/stm32h7xx_hal_msp.c ****     PC2_C     ------> SPI2_MISO
 363:Core/Src/stm32h7xx_hal_msp.c ****     PB12     ------> SPI2_NSS
 364:Core/Src/stm32h7xx_hal_msp.c ****     PB13     ------> SPI2_SCK
 365:Core/Src/stm32h7xx_hal_msp.c ****     */
 366:Core/Src/stm32h7xx_hal_msp.c ****     HAL_GPIO_DeInit(GPIOC, GPIO_PIN_1|GPIO_PIN_2);
 367:Core/Src/stm32h7xx_hal_msp.c **** 
 368:Core/Src/stm32h7xx_hal_msp.c ****     HAL_GPIO_DeInit(GPIOB, GPIO_PIN_12|GPIO_PIN_13);
 369:Core/Src/stm32h7xx_hal_msp.c **** 
 370:Core/Src/stm32h7xx_hal_msp.c ****   /* USER CODE BEGIN SPI2_MspDeInit 1 */
 371:Core/Src/stm32h7xx_hal_msp.c **** 
 372:Core/Src/stm32h7xx_hal_msp.c ****   /* USER CODE END SPI2_MspDeInit 1 */
 373:Core/Src/stm32h7xx_hal_msp.c ****   }
 374:Core/Src/stm32h7xx_hal_msp.c ****   else if(hspi->Instance==SPI3)
 857              		.loc 1 374 8 is_stmt 1 view .LVU274
 858              		.loc 1 374 10 is_stmt 0 view .LVU275
 859 000a 254A     		ldr	r2, .L52+4
 860 000c 9342     		cmp	r3, r2
 861 000e 17D0     		beq	.L49
 375:Core/Src/stm32h7xx_hal_msp.c ****   {
 376:Core/Src/stm32h7xx_hal_msp.c ****   /* USER CODE BEGIN SPI3_MspDeInit 0 */
 377:Core/Src/stm32h7xx_hal_msp.c **** 
 378:Core/Src/stm32h7xx_hal_msp.c ****   /* USER CODE END SPI3_MspDeInit 0 */
 379:Core/Src/stm32h7xx_hal_msp.c ****     /* Peripheral clock disable */
 380:Core/Src/stm32h7xx_hal_msp.c ****     __HAL_RCC_SPI3_CLK_DISABLE();
 381:Core/Src/stm32h7xx_hal_msp.c **** 
 382:Core/Src/stm32h7xx_hal_msp.c ****     /**SPI3 GPIO Configuration
 383:Core/Src/stm32h7xx_hal_msp.c ****     PA4     ------> SPI3_NSS
 384:Core/Src/stm32h7xx_hal_msp.c ****     PB2     ------> SPI3_MOSI
 385:Core/Src/stm32h7xx_hal_msp.c ****     PC10     ------> SPI3_SCK
 386:Core/Src/stm32h7xx_hal_msp.c ****     PC11     ------> SPI3_MISO
 387:Core/Src/stm32h7xx_hal_msp.c ****     */
 388:Core/Src/stm32h7xx_hal_msp.c ****     HAL_GPIO_DeInit(GPIOA, GPIO_PIN_4);
 389:Core/Src/stm32h7xx_hal_msp.c **** 
 390:Core/Src/stm32h7xx_hal_msp.c ****     HAL_GPIO_DeInit(GPIOB, GPIO_PIN_2);
 391:Core/Src/stm32h7xx_hal_msp.c **** 
 392:Core/Src/stm32h7xx_hal_msp.c ****     HAL_GPIO_DeInit(GPIOC, GPIO_PIN_10|GPIO_PIN_11);
 393:Core/Src/stm32h7xx_hal_msp.c **** 
 394:Core/Src/stm32h7xx_hal_msp.c ****   /* USER CODE BEGIN SPI3_MspDeInit 1 */
 395:Core/Src/stm32h7xx_hal_msp.c **** 
 396:Core/Src/stm32h7xx_hal_msp.c ****   /* USER CODE END SPI3_MspDeInit 1 */
 397:Core/Src/stm32h7xx_hal_msp.c ****   }
 398:Core/Src/stm32h7xx_hal_msp.c ****   else if(hspi->Instance==SPI4)
 862              		.loc 1 398 8 is_stmt 1 view .LVU276
 863              		.loc 1 398 10 is_stmt 0 view .LVU277
 864 0010 244A     		ldr	r2, .L52+8
 865 0012 9342     		cmp	r3, r2
 866 0014 29D0     		beq	.L50
 399:Core/Src/stm32h7xx_hal_msp.c ****   {
 400:Core/Src/stm32h7xx_hal_msp.c ****   /* USER CODE BEGIN SPI4_MspDeInit 0 */
 401:Core/Src/stm32h7xx_hal_msp.c **** 
 402:Core/Src/stm32h7xx_hal_msp.c ****   /* USER CODE END SPI4_MspDeInit 0 */
 403:Core/Src/stm32h7xx_hal_msp.c ****     /* Peripheral clock disable */
ARM GAS  /tmp/ccCE1JqB.s 			page 27


 404:Core/Src/stm32h7xx_hal_msp.c ****     __HAL_RCC_SPI4_CLK_DISABLE();
 405:Core/Src/stm32h7xx_hal_msp.c **** 
 406:Core/Src/stm32h7xx_hal_msp.c ****     /**SPI4 GPIO Configuration
 407:Core/Src/stm32h7xx_hal_msp.c ****     PE2     ------> SPI4_SCK
 408:Core/Src/stm32h7xx_hal_msp.c ****     PE4     ------> SPI4_NSS
 409:Core/Src/stm32h7xx_hal_msp.c ****     PE5     ------> SPI4_MISO
 410:Core/Src/stm32h7xx_hal_msp.c ****     PE6     ------> SPI4_MOSI
 411:Core/Src/stm32h7xx_hal_msp.c ****     */
 412:Core/Src/stm32h7xx_hal_msp.c ****     HAL_GPIO_DeInit(GPIOE, GPIO_PIN_2|GPIO_PIN_4|GPIO_PIN_5|GPIO_PIN_6);
 413:Core/Src/stm32h7xx_hal_msp.c **** 
 414:Core/Src/stm32h7xx_hal_msp.c ****   /* USER CODE BEGIN SPI4_MspDeInit 1 */
 415:Core/Src/stm32h7xx_hal_msp.c **** 
 416:Core/Src/stm32h7xx_hal_msp.c ****   /* USER CODE END SPI4_MspDeInit 1 */
 417:Core/Src/stm32h7xx_hal_msp.c ****   }
 418:Core/Src/stm32h7xx_hal_msp.c ****   else if(hspi->Instance==SPI6)
 867              		.loc 1 418 8 is_stmt 1 view .LVU278
 868              		.loc 1 418 10 is_stmt 0 view .LVU279
 869 0016 244A     		ldr	r2, .L52+12
 870 0018 9342     		cmp	r3, r2
 871 001a 32D0     		beq	.L51
 872              	.LVL42:
 873              	.L42:
 419:Core/Src/stm32h7xx_hal_msp.c ****   {
 420:Core/Src/stm32h7xx_hal_msp.c ****   /* USER CODE BEGIN SPI6_MspDeInit 0 */
 421:Core/Src/stm32h7xx_hal_msp.c **** 
 422:Core/Src/stm32h7xx_hal_msp.c ****   /* USER CODE END SPI6_MspDeInit 0 */
 423:Core/Src/stm32h7xx_hal_msp.c ****     /* Peripheral clock disable */
 424:Core/Src/stm32h7xx_hal_msp.c ****     __HAL_RCC_SPI6_CLK_DISABLE();
 425:Core/Src/stm32h7xx_hal_msp.c **** 
 426:Core/Src/stm32h7xx_hal_msp.c ****     /**SPI6 GPIO Configuration
 427:Core/Src/stm32h7xx_hal_msp.c ****     PA0     ------> SPI6_NSS
 428:Core/Src/stm32h7xx_hal_msp.c ****     PA5     ------> SPI6_SCK
 429:Core/Src/stm32h7xx_hal_msp.c ****     PA6     ------> SPI6_MISO
 430:Core/Src/stm32h7xx_hal_msp.c ****     PA7     ------> SPI6_MOSI
 431:Core/Src/stm32h7xx_hal_msp.c ****     */
 432:Core/Src/stm32h7xx_hal_msp.c ****     HAL_GPIO_DeInit(GPIOA, GPIO_PIN_0|GPIO_PIN_5|GPIO_PIN_6|GPIO_PIN_7);
 433:Core/Src/stm32h7xx_hal_msp.c **** 
 434:Core/Src/stm32h7xx_hal_msp.c ****   /* USER CODE BEGIN SPI6_MspDeInit 1 */
 435:Core/Src/stm32h7xx_hal_msp.c **** 
 436:Core/Src/stm32h7xx_hal_msp.c ****   /* USER CODE END SPI6_MspDeInit 1 */
 437:Core/Src/stm32h7xx_hal_msp.c ****   }
 438:Core/Src/stm32h7xx_hal_msp.c **** 
 439:Core/Src/stm32h7xx_hal_msp.c **** }
 874              		.loc 1 439 1 view .LVU280
 875 001c 08BD     		pop	{r3, pc}
 876              	.LVL43:
 877              	.L48:
 358:Core/Src/stm32h7xx_hal_msp.c **** 
 878              		.loc 1 358 5 is_stmt 1 view .LVU281
 879 001e 234A     		ldr	r2, .L52+16
 880 0020 D2F8E830 		ldr	r3, [r2, #232]
 881 0024 23F48043 		bic	r3, r3, #16384
 882 0028 C2F8E830 		str	r3, [r2, #232]
 366:Core/Src/stm32h7xx_hal_msp.c **** 
 883              		.loc 1 366 5 view .LVU282
 884 002c 0621     		movs	r1, #6
 885 002e 2048     		ldr	r0, .L52+20
ARM GAS  /tmp/ccCE1JqB.s 			page 28


 886              	.LVL44:
 366:Core/Src/stm32h7xx_hal_msp.c **** 
 887              		.loc 1 366 5 is_stmt 0 view .LVU283
 888 0030 FFF7FEFF 		bl	HAL_GPIO_DeInit
 889              	.LVL45:
 368:Core/Src/stm32h7xx_hal_msp.c **** 
 890              		.loc 1 368 5 is_stmt 1 view .LVU284
 891 0034 4FF44051 		mov	r1, #12288
 892 0038 1E48     		ldr	r0, .L52+24
 893 003a FFF7FEFF 		bl	HAL_GPIO_DeInit
 894              	.LVL46:
 895 003e EDE7     		b	.L42
 896              	.LVL47:
 897              	.L49:
 380:Core/Src/stm32h7xx_hal_msp.c **** 
 898              		.loc 1 380 5 view .LVU285
 899 0040 1A4A     		ldr	r2, .L52+16
 900 0042 D2F8E830 		ldr	r3, [r2, #232]
 901 0046 23F40043 		bic	r3, r3, #32768
 902 004a C2F8E830 		str	r3, [r2, #232]
 388:Core/Src/stm32h7xx_hal_msp.c **** 
 903              		.loc 1 388 5 view .LVU286
 904 004e 1021     		movs	r1, #16
 905 0050 1948     		ldr	r0, .L52+28
 906              	.LVL48:
 388:Core/Src/stm32h7xx_hal_msp.c **** 
 907              		.loc 1 388 5 is_stmt 0 view .LVU287
 908 0052 FFF7FEFF 		bl	HAL_GPIO_DeInit
 909              	.LVL49:
 390:Core/Src/stm32h7xx_hal_msp.c **** 
 910              		.loc 1 390 5 is_stmt 1 view .LVU288
 911 0056 0421     		movs	r1, #4
 912 0058 1648     		ldr	r0, .L52+24
 913 005a FFF7FEFF 		bl	HAL_GPIO_DeInit
 914              	.LVL50:
 392:Core/Src/stm32h7xx_hal_msp.c **** 
 915              		.loc 1 392 5 view .LVU289
 916 005e 4FF44061 		mov	r1, #3072
 917 0062 1348     		ldr	r0, .L52+20
 918 0064 FFF7FEFF 		bl	HAL_GPIO_DeInit
 919              	.LVL51:
 920 0068 D8E7     		b	.L42
 921              	.LVL52:
 922              	.L50:
 404:Core/Src/stm32h7xx_hal_msp.c **** 
 923              		.loc 1 404 5 view .LVU290
 924 006a 104A     		ldr	r2, .L52+16
 925 006c D2F8F030 		ldr	r3, [r2, #240]
 926 0070 23F40053 		bic	r3, r3, #8192
 927 0074 C2F8F030 		str	r3, [r2, #240]
 412:Core/Src/stm32h7xx_hal_msp.c **** 
 928              		.loc 1 412 5 view .LVU291
 929 0078 7421     		movs	r1, #116
 930 007a 1048     		ldr	r0, .L52+32
 931              	.LVL53:
 412:Core/Src/stm32h7xx_hal_msp.c **** 
 932              		.loc 1 412 5 is_stmt 0 view .LVU292
ARM GAS  /tmp/ccCE1JqB.s 			page 29


 933 007c FFF7FEFF 		bl	HAL_GPIO_DeInit
 934              	.LVL54:
 935 0080 CCE7     		b	.L42
 936              	.LVL55:
 937              	.L51:
 424:Core/Src/stm32h7xx_hal_msp.c **** 
 938              		.loc 1 424 5 is_stmt 1 view .LVU293
 939 0082 02F50C32 		add	r2, r2, #143360
 940 0086 D2F8F430 		ldr	r3, [r2, #244]
 941 008a 23F02003 		bic	r3, r3, #32
 942 008e C2F8F430 		str	r3, [r2, #244]
 432:Core/Src/stm32h7xx_hal_msp.c **** 
 943              		.loc 1 432 5 view .LVU294
 944 0092 E121     		movs	r1, #225
 945 0094 0848     		ldr	r0, .L52+28
 946              	.LVL56:
 432:Core/Src/stm32h7xx_hal_msp.c **** 
 947              		.loc 1 432 5 is_stmt 0 view .LVU295
 948 0096 FFF7FEFF 		bl	HAL_GPIO_DeInit
 949              	.LVL57:
 950              		.loc 1 439 1 view .LVU296
 951 009a BFE7     		b	.L42
 952              	.L53:
 953              		.align	2
 954              	.L52:
 955 009c 00380040 		.word	1073756160
 956 00a0 003C0040 		.word	1073757184
 957 00a4 00340140 		.word	1073820672
 958 00a8 00140058 		.word	1476400128
 959 00ac 00440258 		.word	1476543488
 960 00b0 00080258 		.word	1476528128
 961 00b4 00040258 		.word	1476527104
 962 00b8 00000258 		.word	1476526080
 963 00bc 00100258 		.word	1476530176
 964              		.cfi_endproc
 965              	.LFE214:
 967              		.section	.text.HAL_UART_MspInit,"ax",%progbits
 968              		.align	1
 969              		.global	HAL_UART_MspInit
 970              		.syntax unified
 971              		.thumb
 972              		.thumb_func
 973              		.fpu fpv5-d16
 975              	HAL_UART_MspInit:
 976              	.LVL58:
 977              	.LFB215:
 440:Core/Src/stm32h7xx_hal_msp.c **** 
 441:Core/Src/stm32h7xx_hal_msp.c **** /**
 442:Core/Src/stm32h7xx_hal_msp.c **** * @brief UART MSP Initialization
 443:Core/Src/stm32h7xx_hal_msp.c **** * This function configures the hardware resources used in this example
 444:Core/Src/stm32h7xx_hal_msp.c **** * @param huart: UART handle pointer
 445:Core/Src/stm32h7xx_hal_msp.c **** * @retval None
 446:Core/Src/stm32h7xx_hal_msp.c **** */
 447:Core/Src/stm32h7xx_hal_msp.c **** void HAL_UART_MspInit(UART_HandleTypeDef* huart)
 448:Core/Src/stm32h7xx_hal_msp.c **** {
 978              		.loc 1 448 1 is_stmt 1 view -0
 979              		.cfi_startproc
ARM GAS  /tmp/ccCE1JqB.s 			page 30


 980              		@ args = 0, pretend = 0, frame = 216
 981              		@ frame_needed = 0, uses_anonymous_args = 0
 982              		.loc 1 448 1 is_stmt 0 view .LVU298
 983 0000 10B5     		push	{r4, lr}
 984              	.LCFI12:
 985              		.cfi_def_cfa_offset 8
 986              		.cfi_offset 4, -8
 987              		.cfi_offset 14, -4
 988 0002 B6B0     		sub	sp, sp, #216
 989              	.LCFI13:
 990              		.cfi_def_cfa_offset 224
 991 0004 0446     		mov	r4, r0
 449:Core/Src/stm32h7xx_hal_msp.c ****   GPIO_InitTypeDef GPIO_InitStruct = {0};
 992              		.loc 1 449 3 is_stmt 1 view .LVU299
 993              		.loc 1 449 20 is_stmt 0 view .LVU300
 994 0006 0021     		movs	r1, #0
 995 0008 3191     		str	r1, [sp, #196]
 996 000a 3291     		str	r1, [sp, #200]
 997 000c 3391     		str	r1, [sp, #204]
 998 000e 3491     		str	r1, [sp, #208]
 999 0010 3591     		str	r1, [sp, #212]
 450:Core/Src/stm32h7xx_hal_msp.c ****   RCC_PeriphCLKInitTypeDef PeriphClkInitStruct = {0};
 1000              		.loc 1 450 3 is_stmt 1 view .LVU301
 1001              		.loc 1 450 28 is_stmt 0 view .LVU302
 1002 0012 B822     		movs	r2, #184
 1003 0014 02A8     		add	r0, sp, #8
 1004              	.LVL59:
 1005              		.loc 1 450 28 view .LVU303
 1006 0016 FFF7FEFF 		bl	memset
 1007              	.LVL60:
 451:Core/Src/stm32h7xx_hal_msp.c ****   if(huart->Instance==USART2)
 1008              		.loc 1 451 3 is_stmt 1 view .LVU304
 1009              		.loc 1 451 11 is_stmt 0 view .LVU305
 1010 001a 2268     		ldr	r2, [r4]
 1011              		.loc 1 451 5 view .LVU306
 1012 001c 1C4B     		ldr	r3, .L60
 1013 001e 9A42     		cmp	r2, r3
 1014 0020 01D0     		beq	.L58
 1015              	.L54:
 452:Core/Src/stm32h7xx_hal_msp.c ****   {
 453:Core/Src/stm32h7xx_hal_msp.c ****   /* USER CODE BEGIN USART2_MspInit 0 */
 454:Core/Src/stm32h7xx_hal_msp.c **** 
 455:Core/Src/stm32h7xx_hal_msp.c ****   /* USER CODE END USART2_MspInit 0 */
 456:Core/Src/stm32h7xx_hal_msp.c **** 
 457:Core/Src/stm32h7xx_hal_msp.c ****   /** Initializes the peripherals clock
 458:Core/Src/stm32h7xx_hal_msp.c ****   */
 459:Core/Src/stm32h7xx_hal_msp.c ****     PeriphClkInitStruct.PeriphClockSelection = RCC_PERIPHCLK_USART2;
 460:Core/Src/stm32h7xx_hal_msp.c ****     PeriphClkInitStruct.Usart234578ClockSelection = RCC_USART234578CLKSOURCE_D2PCLK1;
 461:Core/Src/stm32h7xx_hal_msp.c ****     if (HAL_RCCEx_PeriphCLKConfig(&PeriphClkInitStruct) != HAL_OK)
 462:Core/Src/stm32h7xx_hal_msp.c ****     {
 463:Core/Src/stm32h7xx_hal_msp.c ****       Error_Handler();
 464:Core/Src/stm32h7xx_hal_msp.c ****     }
 465:Core/Src/stm32h7xx_hal_msp.c **** 
 466:Core/Src/stm32h7xx_hal_msp.c ****     /* Peripheral clock enable */
 467:Core/Src/stm32h7xx_hal_msp.c ****     __HAL_RCC_USART2_CLK_ENABLE();
 468:Core/Src/stm32h7xx_hal_msp.c **** 
 469:Core/Src/stm32h7xx_hal_msp.c ****     __HAL_RCC_GPIOA_CLK_ENABLE();
ARM GAS  /tmp/ccCE1JqB.s 			page 31


 470:Core/Src/stm32h7xx_hal_msp.c ****     /**USART2 GPIO Configuration
 471:Core/Src/stm32h7xx_hal_msp.c ****     PA2     ------> USART2_TX
 472:Core/Src/stm32h7xx_hal_msp.c ****     PA3     ------> USART2_RX
 473:Core/Src/stm32h7xx_hal_msp.c ****     */
 474:Core/Src/stm32h7xx_hal_msp.c ****     GPIO_InitStruct.Pin = GPIO_PIN_2|GPIO_PIN_3;
 475:Core/Src/stm32h7xx_hal_msp.c ****     GPIO_InitStruct.Mode = GPIO_MODE_AF_PP;
 476:Core/Src/stm32h7xx_hal_msp.c ****     GPIO_InitStruct.Pull = GPIO_NOPULL;
 477:Core/Src/stm32h7xx_hal_msp.c ****     GPIO_InitStruct.Speed = GPIO_SPEED_FREQ_LOW;
 478:Core/Src/stm32h7xx_hal_msp.c ****     GPIO_InitStruct.Alternate = GPIO_AF7_USART2;
 479:Core/Src/stm32h7xx_hal_msp.c ****     HAL_GPIO_Init(GPIOA, &GPIO_InitStruct);
 480:Core/Src/stm32h7xx_hal_msp.c **** 
 481:Core/Src/stm32h7xx_hal_msp.c ****   /* USER CODE BEGIN USART2_MspInit 1 */
 482:Core/Src/stm32h7xx_hal_msp.c **** 
 483:Core/Src/stm32h7xx_hal_msp.c ****   /* USER CODE END USART2_MspInit 1 */
 484:Core/Src/stm32h7xx_hal_msp.c ****   }
 485:Core/Src/stm32h7xx_hal_msp.c **** 
 486:Core/Src/stm32h7xx_hal_msp.c **** }
 1016              		.loc 1 486 1 view .LVU307
 1017 0022 36B0     		add	sp, sp, #216
 1018              	.LCFI14:
 1019              		.cfi_remember_state
 1020              		.cfi_def_cfa_offset 8
 1021              		@ sp needed
 1022 0024 10BD     		pop	{r4, pc}
 1023              	.LVL61:
 1024              	.L58:
 1025              	.LCFI15:
 1026              		.cfi_restore_state
 459:Core/Src/stm32h7xx_hal_msp.c ****     PeriphClkInitStruct.Usart234578ClockSelection = RCC_USART234578CLKSOURCE_D2PCLK1;
 1027              		.loc 1 459 5 is_stmt 1 view .LVU308
 459:Core/Src/stm32h7xx_hal_msp.c ****     PeriphClkInitStruct.Usart234578ClockSelection = RCC_USART234578CLKSOURCE_D2PCLK1;
 1028              		.loc 1 459 46 is_stmt 0 view .LVU309
 1029 0026 0222     		movs	r2, #2
 1030 0028 0023     		movs	r3, #0
 1031 002a CDE90223 		strd	r2, [sp, #8]
 460:Core/Src/stm32h7xx_hal_msp.c ****     if (HAL_RCCEx_PeriphCLKConfig(&PeriphClkInitStruct) != HAL_OK)
 1032              		.loc 1 460 5 is_stmt 1 view .LVU310
 460:Core/Src/stm32h7xx_hal_msp.c ****     if (HAL_RCCEx_PeriphCLKConfig(&PeriphClkInitStruct) != HAL_OK)
 1033              		.loc 1 460 51 is_stmt 0 view .LVU311
 1034 002e 0023     		movs	r3, #0
 1035 0030 1F93     		str	r3, [sp, #124]
 461:Core/Src/stm32h7xx_hal_msp.c ****     {
 1036              		.loc 1 461 5 is_stmt 1 view .LVU312
 461:Core/Src/stm32h7xx_hal_msp.c ****     {
 1037              		.loc 1 461 9 is_stmt 0 view .LVU313
 1038 0032 02A8     		add	r0, sp, #8
 1039 0034 FFF7FEFF 		bl	HAL_RCCEx_PeriphCLKConfig
 1040              	.LVL62:
 461:Core/Src/stm32h7xx_hal_msp.c ****     {
 1041              		.loc 1 461 8 view .LVU314
 1042 0038 30BB     		cbnz	r0, .L59
 1043              	.L56:
 467:Core/Src/stm32h7xx_hal_msp.c **** 
 1044              		.loc 1 467 5 is_stmt 1 view .LVU315
 1045              	.LBB16:
 467:Core/Src/stm32h7xx_hal_msp.c **** 
 1046              		.loc 1 467 5 view .LVU316
ARM GAS  /tmp/ccCE1JqB.s 			page 32


 467:Core/Src/stm32h7xx_hal_msp.c **** 
 1047              		.loc 1 467 5 view .LVU317
 1048 003a 164B     		ldr	r3, .L60+4
 1049 003c D3F8E820 		ldr	r2, [r3, #232]
 1050 0040 42F40032 		orr	r2, r2, #131072
 1051 0044 C3F8E820 		str	r2, [r3, #232]
 467:Core/Src/stm32h7xx_hal_msp.c **** 
 1052              		.loc 1 467 5 view .LVU318
 1053 0048 D3F8E820 		ldr	r2, [r3, #232]
 1054 004c 02F40032 		and	r2, r2, #131072
 1055 0050 0092     		str	r2, [sp]
 467:Core/Src/stm32h7xx_hal_msp.c **** 
 1056              		.loc 1 467 5 view .LVU319
 1057 0052 009A     		ldr	r2, [sp]
 1058              	.LBE16:
 467:Core/Src/stm32h7xx_hal_msp.c **** 
 1059              		.loc 1 467 5 view .LVU320
 469:Core/Src/stm32h7xx_hal_msp.c ****     /**USART2 GPIO Configuration
 1060              		.loc 1 469 5 view .LVU321
 1061              	.LBB17:
 469:Core/Src/stm32h7xx_hal_msp.c ****     /**USART2 GPIO Configuration
 1062              		.loc 1 469 5 view .LVU322
 469:Core/Src/stm32h7xx_hal_msp.c ****     /**USART2 GPIO Configuration
 1063              		.loc 1 469 5 view .LVU323
 1064 0054 D3F8E020 		ldr	r2, [r3, #224]
 1065 0058 42F00102 		orr	r2, r2, #1
 1066 005c C3F8E020 		str	r2, [r3, #224]
 469:Core/Src/stm32h7xx_hal_msp.c ****     /**USART2 GPIO Configuration
 1067              		.loc 1 469 5 view .LVU324
 1068 0060 D3F8E030 		ldr	r3, [r3, #224]
 1069 0064 03F00103 		and	r3, r3, #1
 1070 0068 0193     		str	r3, [sp, #4]
 469:Core/Src/stm32h7xx_hal_msp.c ****     /**USART2 GPIO Configuration
 1071              		.loc 1 469 5 view .LVU325
 1072 006a 019B     		ldr	r3, [sp, #4]
 1073              	.LBE17:
 469:Core/Src/stm32h7xx_hal_msp.c ****     /**USART2 GPIO Configuration
 1074              		.loc 1 469 5 view .LVU326
 474:Core/Src/stm32h7xx_hal_msp.c ****     GPIO_InitStruct.Mode = GPIO_MODE_AF_PP;
 1075              		.loc 1 474 5 view .LVU327
 474:Core/Src/stm32h7xx_hal_msp.c ****     GPIO_InitStruct.Mode = GPIO_MODE_AF_PP;
 1076              		.loc 1 474 25 is_stmt 0 view .LVU328
 1077 006c 0C23     		movs	r3, #12
 1078 006e 3193     		str	r3, [sp, #196]
 475:Core/Src/stm32h7xx_hal_msp.c ****     GPIO_InitStruct.Pull = GPIO_NOPULL;
 1079              		.loc 1 475 5 is_stmt 1 view .LVU329
 475:Core/Src/stm32h7xx_hal_msp.c ****     GPIO_InitStruct.Pull = GPIO_NOPULL;
 1080              		.loc 1 475 26 is_stmt 0 view .LVU330
 1081 0070 0223     		movs	r3, #2
 1082 0072 3293     		str	r3, [sp, #200]
 476:Core/Src/stm32h7xx_hal_msp.c ****     GPIO_InitStruct.Speed = GPIO_SPEED_FREQ_LOW;
 1083              		.loc 1 476 5 is_stmt 1 view .LVU331
 476:Core/Src/stm32h7xx_hal_msp.c ****     GPIO_InitStruct.Speed = GPIO_SPEED_FREQ_LOW;
 1084              		.loc 1 476 26 is_stmt 0 view .LVU332
 1085 0074 0023     		movs	r3, #0
 1086 0076 3393     		str	r3, [sp, #204]
 477:Core/Src/stm32h7xx_hal_msp.c ****     GPIO_InitStruct.Alternate = GPIO_AF7_USART2;
ARM GAS  /tmp/ccCE1JqB.s 			page 33


 1087              		.loc 1 477 5 is_stmt 1 view .LVU333
 477:Core/Src/stm32h7xx_hal_msp.c ****     GPIO_InitStruct.Alternate = GPIO_AF7_USART2;
 1088              		.loc 1 477 27 is_stmt 0 view .LVU334
 1089 0078 3493     		str	r3, [sp, #208]
 478:Core/Src/stm32h7xx_hal_msp.c ****     HAL_GPIO_Init(GPIOA, &GPIO_InitStruct);
 1090              		.loc 1 478 5 is_stmt 1 view .LVU335
 478:Core/Src/stm32h7xx_hal_msp.c ****     HAL_GPIO_Init(GPIOA, &GPIO_InitStruct);
 1091              		.loc 1 478 31 is_stmt 0 view .LVU336
 1092 007a 0723     		movs	r3, #7
 1093 007c 3593     		str	r3, [sp, #212]
 479:Core/Src/stm32h7xx_hal_msp.c **** 
 1094              		.loc 1 479 5 is_stmt 1 view .LVU337
 1095 007e 31A9     		add	r1, sp, #196
 1096 0080 0548     		ldr	r0, .L60+8
 1097 0082 FFF7FEFF 		bl	HAL_GPIO_Init
 1098              	.LVL63:
 1099              		.loc 1 486 1 is_stmt 0 view .LVU338
 1100 0086 CCE7     		b	.L54
 1101              	.L59:
 463:Core/Src/stm32h7xx_hal_msp.c ****     }
 1102              		.loc 1 463 7 is_stmt 1 view .LVU339
 1103 0088 FFF7FEFF 		bl	Error_Handler
 1104              	.LVL64:
 1105 008c D5E7     		b	.L56
 1106              	.L61:
 1107 008e 00BF     		.align	2
 1108              	.L60:
 1109 0090 00440040 		.word	1073759232
 1110 0094 00440258 		.word	1476543488
 1111 0098 00000258 		.word	1476526080
 1112              		.cfi_endproc
 1113              	.LFE215:
 1115              		.section	.text.HAL_UART_MspDeInit,"ax",%progbits
 1116              		.align	1
 1117              		.global	HAL_UART_MspDeInit
 1118              		.syntax unified
 1119              		.thumb
 1120              		.thumb_func
 1121              		.fpu fpv5-d16
 1123              	HAL_UART_MspDeInit:
 1124              	.LVL65:
 1125              	.LFB216:
 487:Core/Src/stm32h7xx_hal_msp.c **** 
 488:Core/Src/stm32h7xx_hal_msp.c **** /**
 489:Core/Src/stm32h7xx_hal_msp.c **** * @brief UART MSP De-Initialization
 490:Core/Src/stm32h7xx_hal_msp.c **** * This function freeze the hardware resources used in this example
 491:Core/Src/stm32h7xx_hal_msp.c **** * @param huart: UART handle pointer
 492:Core/Src/stm32h7xx_hal_msp.c **** * @retval None
 493:Core/Src/stm32h7xx_hal_msp.c **** */
 494:Core/Src/stm32h7xx_hal_msp.c **** void HAL_UART_MspDeInit(UART_HandleTypeDef* huart)
 495:Core/Src/stm32h7xx_hal_msp.c **** {
 1126              		.loc 1 495 1 view -0
 1127              		.cfi_startproc
 1128              		@ args = 0, pretend = 0, frame = 0
 1129              		@ frame_needed = 0, uses_anonymous_args = 0
 1130              		.loc 1 495 1 is_stmt 0 view .LVU341
 1131 0000 08B5     		push	{r3, lr}
ARM GAS  /tmp/ccCE1JqB.s 			page 34


 1132              	.LCFI16:
 1133              		.cfi_def_cfa_offset 8
 1134              		.cfi_offset 3, -8
 1135              		.cfi_offset 14, -4
 496:Core/Src/stm32h7xx_hal_msp.c ****   if(huart->Instance==USART2)
 1136              		.loc 1 496 3 is_stmt 1 view .LVU342
 1137              		.loc 1 496 11 is_stmt 0 view .LVU343
 1138 0002 0268     		ldr	r2, [r0]
 1139              		.loc 1 496 5 view .LVU344
 1140 0004 074B     		ldr	r3, .L66
 1141 0006 9A42     		cmp	r2, r3
 1142 0008 00D0     		beq	.L65
 1143              	.LVL66:
 1144              	.L62:
 497:Core/Src/stm32h7xx_hal_msp.c ****   {
 498:Core/Src/stm32h7xx_hal_msp.c ****   /* USER CODE BEGIN USART2_MspDeInit 0 */
 499:Core/Src/stm32h7xx_hal_msp.c **** 
 500:Core/Src/stm32h7xx_hal_msp.c ****   /* USER CODE END USART2_MspDeInit 0 */
 501:Core/Src/stm32h7xx_hal_msp.c ****     /* Peripheral clock disable */
 502:Core/Src/stm32h7xx_hal_msp.c ****     __HAL_RCC_USART2_CLK_DISABLE();
 503:Core/Src/stm32h7xx_hal_msp.c **** 
 504:Core/Src/stm32h7xx_hal_msp.c ****     /**USART2 GPIO Configuration
 505:Core/Src/stm32h7xx_hal_msp.c ****     PA2     ------> USART2_TX
 506:Core/Src/stm32h7xx_hal_msp.c ****     PA3     ------> USART2_RX
 507:Core/Src/stm32h7xx_hal_msp.c ****     */
 508:Core/Src/stm32h7xx_hal_msp.c ****     HAL_GPIO_DeInit(GPIOA, GPIO_PIN_2|GPIO_PIN_3);
 509:Core/Src/stm32h7xx_hal_msp.c **** 
 510:Core/Src/stm32h7xx_hal_msp.c ****   /* USER CODE BEGIN USART2_MspDeInit 1 */
 511:Core/Src/stm32h7xx_hal_msp.c **** 
 512:Core/Src/stm32h7xx_hal_msp.c ****   /* USER CODE END USART2_MspDeInit 1 */
 513:Core/Src/stm32h7xx_hal_msp.c ****   }
 514:Core/Src/stm32h7xx_hal_msp.c **** 
 515:Core/Src/stm32h7xx_hal_msp.c **** }
 1145              		.loc 1 515 1 view .LVU345
 1146 000a 08BD     		pop	{r3, pc}
 1147              	.LVL67:
 1148              	.L65:
 502:Core/Src/stm32h7xx_hal_msp.c **** 
 1149              		.loc 1 502 5 is_stmt 1 view .LVU346
 1150 000c 064A     		ldr	r2, .L66+4
 1151 000e D2F8E830 		ldr	r3, [r2, #232]
 1152 0012 23F40033 		bic	r3, r3, #131072
 1153 0016 C2F8E830 		str	r3, [r2, #232]
 508:Core/Src/stm32h7xx_hal_msp.c **** 
 1154              		.loc 1 508 5 view .LVU347
 1155 001a 0C21     		movs	r1, #12
 1156 001c 0348     		ldr	r0, .L66+8
 1157              	.LVL68:
 508:Core/Src/stm32h7xx_hal_msp.c **** 
 1158              		.loc 1 508 5 is_stmt 0 view .LVU348
 1159 001e FFF7FEFF 		bl	HAL_GPIO_DeInit
 1160              	.LVL69:
 1161              		.loc 1 515 1 view .LVU349
 1162 0022 F2E7     		b	.L62
 1163              	.L67:
 1164              		.align	2
 1165              	.L66:
ARM GAS  /tmp/ccCE1JqB.s 			page 35


 1166 0024 00440040 		.word	1073759232
 1167 0028 00440258 		.word	1476543488
 1168 002c 00000258 		.word	1476526080
 1169              		.cfi_endproc
 1170              	.LFE216:
 1172              		.section	.text.HAL_PCD_MspInit,"ax",%progbits
 1173              		.align	1
 1174              		.global	HAL_PCD_MspInit
 1175              		.syntax unified
 1176              		.thumb
 1177              		.thumb_func
 1178              		.fpu fpv5-d16
 1180              	HAL_PCD_MspInit:
 1181              	.LVL70:
 1182              	.LFB217:
 516:Core/Src/stm32h7xx_hal_msp.c **** 
 517:Core/Src/stm32h7xx_hal_msp.c **** /**
 518:Core/Src/stm32h7xx_hal_msp.c **** * @brief PCD MSP Initialization
 519:Core/Src/stm32h7xx_hal_msp.c **** * This function configures the hardware resources used in this example
 520:Core/Src/stm32h7xx_hal_msp.c **** * @param hpcd: PCD handle pointer
 521:Core/Src/stm32h7xx_hal_msp.c **** * @retval None
 522:Core/Src/stm32h7xx_hal_msp.c **** */
 523:Core/Src/stm32h7xx_hal_msp.c **** void HAL_PCD_MspInit(PCD_HandleTypeDef* hpcd)
 524:Core/Src/stm32h7xx_hal_msp.c **** {
 1183              		.loc 1 524 1 is_stmt 1 view -0
 1184              		.cfi_startproc
 1185              		@ args = 0, pretend = 0, frame = 216
 1186              		@ frame_needed = 0, uses_anonymous_args = 0
 1187              		.loc 1 524 1 is_stmt 0 view .LVU351
 1188 0000 70B5     		push	{r4, r5, r6, lr}
 1189              	.LCFI17:
 1190              		.cfi_def_cfa_offset 16
 1191              		.cfi_offset 4, -16
 1192              		.cfi_offset 5, -12
 1193              		.cfi_offset 6, -8
 1194              		.cfi_offset 14, -4
 1195 0002 B6B0     		sub	sp, sp, #216
 1196              	.LCFI18:
 1197              		.cfi_def_cfa_offset 232
 1198 0004 0446     		mov	r4, r0
 525:Core/Src/stm32h7xx_hal_msp.c ****   GPIO_InitTypeDef GPIO_InitStruct = {0};
 1199              		.loc 1 525 3 is_stmt 1 view .LVU352
 1200              		.loc 1 525 20 is_stmt 0 view .LVU353
 1201 0006 0021     		movs	r1, #0
 1202 0008 3191     		str	r1, [sp, #196]
 1203 000a 3291     		str	r1, [sp, #200]
 1204 000c 3391     		str	r1, [sp, #204]
 1205 000e 3491     		str	r1, [sp, #208]
 1206 0010 3591     		str	r1, [sp, #212]
 526:Core/Src/stm32h7xx_hal_msp.c ****   RCC_PeriphCLKInitTypeDef PeriphClkInitStruct = {0};
 1207              		.loc 1 526 3 is_stmt 1 view .LVU354
 1208              		.loc 1 526 28 is_stmt 0 view .LVU355
 1209 0012 B822     		movs	r2, #184
 1210 0014 02A8     		add	r0, sp, #8
 1211              	.LVL71:
 1212              		.loc 1 526 28 view .LVU356
 1213 0016 FFF7FEFF 		bl	memset
ARM GAS  /tmp/ccCE1JqB.s 			page 36


 1214              	.LVL72:
 527:Core/Src/stm32h7xx_hal_msp.c ****   if(hpcd->Instance==USB_OTG_HS)
 1215              		.loc 1 527 3 is_stmt 1 view .LVU357
 1216              		.loc 1 527 10 is_stmt 0 view .LVU358
 1217 001a 2268     		ldr	r2, [r4]
 1218              		.loc 1 527 5 view .LVU359
 1219 001c 244B     		ldr	r3, .L74
 1220 001e 9A42     		cmp	r2, r3
 1221 0020 01D0     		beq	.L72
 1222              	.LVL73:
 1223              	.L68:
 528:Core/Src/stm32h7xx_hal_msp.c ****   {
 529:Core/Src/stm32h7xx_hal_msp.c ****   /* USER CODE BEGIN USB_OTG_HS_MspInit 0 */
 530:Core/Src/stm32h7xx_hal_msp.c **** 
 531:Core/Src/stm32h7xx_hal_msp.c ****   /* USER CODE END USB_OTG_HS_MspInit 0 */
 532:Core/Src/stm32h7xx_hal_msp.c **** 
 533:Core/Src/stm32h7xx_hal_msp.c ****   /** Initializes the peripherals clock
 534:Core/Src/stm32h7xx_hal_msp.c ****   */
 535:Core/Src/stm32h7xx_hal_msp.c ****     PeriphClkInitStruct.PeriphClockSelection = RCC_PERIPHCLK_USB;
 536:Core/Src/stm32h7xx_hal_msp.c ****     PeriphClkInitStruct.UsbClockSelection = RCC_USBCLKSOURCE_PLL;
 537:Core/Src/stm32h7xx_hal_msp.c ****     if (HAL_RCCEx_PeriphCLKConfig(&PeriphClkInitStruct) != HAL_OK)
 538:Core/Src/stm32h7xx_hal_msp.c ****     {
 539:Core/Src/stm32h7xx_hal_msp.c ****       Error_Handler();
 540:Core/Src/stm32h7xx_hal_msp.c ****     }
 541:Core/Src/stm32h7xx_hal_msp.c **** 
 542:Core/Src/stm32h7xx_hal_msp.c ****   /** Enable USB Voltage detector
 543:Core/Src/stm32h7xx_hal_msp.c ****   */
 544:Core/Src/stm32h7xx_hal_msp.c ****     HAL_PWREx_EnableUSBVoltageDetector();
 545:Core/Src/stm32h7xx_hal_msp.c **** 
 546:Core/Src/stm32h7xx_hal_msp.c ****     __HAL_RCC_GPIOA_CLK_ENABLE();
 547:Core/Src/stm32h7xx_hal_msp.c ****     /**USB_OTG_HS GPIO Configuration
 548:Core/Src/stm32h7xx_hal_msp.c ****     PA8     ------> USB_OTG_HS_SOF
 549:Core/Src/stm32h7xx_hal_msp.c ****     PA9     ------> USB_OTG_HS_VBUS
 550:Core/Src/stm32h7xx_hal_msp.c ****     */
 551:Core/Src/stm32h7xx_hal_msp.c ****     GPIO_InitStruct.Pin = GPIO_PIN_8;
 552:Core/Src/stm32h7xx_hal_msp.c ****     GPIO_InitStruct.Mode = GPIO_MODE_AF_PP;
 553:Core/Src/stm32h7xx_hal_msp.c ****     GPIO_InitStruct.Pull = GPIO_NOPULL;
 554:Core/Src/stm32h7xx_hal_msp.c ****     GPIO_InitStruct.Speed = GPIO_SPEED_FREQ_LOW;
 555:Core/Src/stm32h7xx_hal_msp.c ****     GPIO_InitStruct.Alternate = GPIO_AF10_OTG1_HS;
 556:Core/Src/stm32h7xx_hal_msp.c ****     HAL_GPIO_Init(GPIOA, &GPIO_InitStruct);
 557:Core/Src/stm32h7xx_hal_msp.c **** 
 558:Core/Src/stm32h7xx_hal_msp.c ****     GPIO_InitStruct.Pin = GPIO_PIN_9;
 559:Core/Src/stm32h7xx_hal_msp.c ****     GPIO_InitStruct.Mode = GPIO_MODE_INPUT;
 560:Core/Src/stm32h7xx_hal_msp.c ****     GPIO_InitStruct.Pull = GPIO_NOPULL;
 561:Core/Src/stm32h7xx_hal_msp.c ****     HAL_GPIO_Init(GPIOA, &GPIO_InitStruct);
 562:Core/Src/stm32h7xx_hal_msp.c **** 
 563:Core/Src/stm32h7xx_hal_msp.c ****     /* Peripheral clock enable */
 564:Core/Src/stm32h7xx_hal_msp.c ****     __HAL_RCC_USB_OTG_HS_CLK_ENABLE();
 565:Core/Src/stm32h7xx_hal_msp.c ****   /* USER CODE BEGIN USB_OTG_HS_MspInit 1 */
 566:Core/Src/stm32h7xx_hal_msp.c **** 
 567:Core/Src/stm32h7xx_hal_msp.c ****   /* USER CODE END USB_OTG_HS_MspInit 1 */
 568:Core/Src/stm32h7xx_hal_msp.c ****   }
 569:Core/Src/stm32h7xx_hal_msp.c **** 
 570:Core/Src/stm32h7xx_hal_msp.c **** }
 1224              		.loc 1 570 1 view .LVU360
 1225 0022 36B0     		add	sp, sp, #216
 1226              	.LCFI19:
ARM GAS  /tmp/ccCE1JqB.s 			page 37


 1227              		.cfi_remember_state
 1228              		.cfi_def_cfa_offset 16
 1229              		@ sp needed
 1230 0024 70BD     		pop	{r4, r5, r6, pc}
 1231              	.LVL74:
 1232              	.L72:
 1233              	.LCFI20:
 1234              		.cfi_restore_state
 535:Core/Src/stm32h7xx_hal_msp.c ****     PeriphClkInitStruct.UsbClockSelection = RCC_USBCLKSOURCE_PLL;
 1235              		.loc 1 535 5 is_stmt 1 view .LVU361
 535:Core/Src/stm32h7xx_hal_msp.c ****     PeriphClkInitStruct.UsbClockSelection = RCC_USBCLKSOURCE_PLL;
 1236              		.loc 1 535 46 is_stmt 0 view .LVU362
 1237 0026 4FF48022 		mov	r2, #262144
 1238 002a 0023     		movs	r3, #0
 1239 002c CDE90223 		strd	r2, [sp, #8]
 536:Core/Src/stm32h7xx_hal_msp.c ****     if (HAL_RCCEx_PeriphCLKConfig(&PeriphClkInitStruct) != HAL_OK)
 1240              		.loc 1 536 5 is_stmt 1 view .LVU363
 536:Core/Src/stm32h7xx_hal_msp.c ****     if (HAL_RCCEx_PeriphCLKConfig(&PeriphClkInitStruct) != HAL_OK)
 1241              		.loc 1 536 43 is_stmt 0 view .LVU364
 1242 0030 4FF48013 		mov	r3, #1048576
 1243 0034 2393     		str	r3, [sp, #140]
 537:Core/Src/stm32h7xx_hal_msp.c ****     {
 1244              		.loc 1 537 5 is_stmt 1 view .LVU365
 537:Core/Src/stm32h7xx_hal_msp.c ****     {
 1245              		.loc 1 537 9 is_stmt 0 view .LVU366
 1246 0036 02A8     		add	r0, sp, #8
 1247 0038 FFF7FEFF 		bl	HAL_RCCEx_PeriphCLKConfig
 1248              	.LVL75:
 537:Core/Src/stm32h7xx_hal_msp.c ****     {
 1249              		.loc 1 537 8 view .LVU367
 1250 003c 0028     		cmp	r0, #0
 1251 003e 33D1     		bne	.L73
 1252              	.L70:
 544:Core/Src/stm32h7xx_hal_msp.c **** 
 1253              		.loc 1 544 5 is_stmt 1 view .LVU368
 1254 0040 FFF7FEFF 		bl	HAL_PWREx_EnableUSBVoltageDetector
 1255              	.LVL76:
 546:Core/Src/stm32h7xx_hal_msp.c ****     /**USB_OTG_HS GPIO Configuration
 1256              		.loc 1 546 5 view .LVU369
 1257              	.LBB18:
 546:Core/Src/stm32h7xx_hal_msp.c ****     /**USB_OTG_HS GPIO Configuration
 1258              		.loc 1 546 5 view .LVU370
 546:Core/Src/stm32h7xx_hal_msp.c ****     /**USB_OTG_HS GPIO Configuration
 1259              		.loc 1 546 5 view .LVU371
 1260 0044 1B4C     		ldr	r4, .L74+4
 1261              	.LVL77:
 546:Core/Src/stm32h7xx_hal_msp.c ****     /**USB_OTG_HS GPIO Configuration
 1262              		.loc 1 546 5 is_stmt 0 view .LVU372
 1263 0046 D4F8E030 		ldr	r3, [r4, #224]
 1264 004a 43F00103 		orr	r3, r3, #1
 1265 004e C4F8E030 		str	r3, [r4, #224]
 546:Core/Src/stm32h7xx_hal_msp.c ****     /**USB_OTG_HS GPIO Configuration
 1266              		.loc 1 546 5 is_stmt 1 view .LVU373
 1267 0052 D4F8E030 		ldr	r3, [r4, #224]
 1268 0056 03F00103 		and	r3, r3, #1
 1269 005a 0093     		str	r3, [sp]
 546:Core/Src/stm32h7xx_hal_msp.c ****     /**USB_OTG_HS GPIO Configuration
ARM GAS  /tmp/ccCE1JqB.s 			page 38


 1270              		.loc 1 546 5 view .LVU374
 1271 005c 009B     		ldr	r3, [sp]
 1272              	.LBE18:
 546:Core/Src/stm32h7xx_hal_msp.c ****     /**USB_OTG_HS GPIO Configuration
 1273              		.loc 1 546 5 view .LVU375
 551:Core/Src/stm32h7xx_hal_msp.c ****     GPIO_InitStruct.Mode = GPIO_MODE_AF_PP;
 1274              		.loc 1 551 5 view .LVU376
 551:Core/Src/stm32h7xx_hal_msp.c ****     GPIO_InitStruct.Mode = GPIO_MODE_AF_PP;
 1275              		.loc 1 551 25 is_stmt 0 view .LVU377
 1276 005e 4FF48073 		mov	r3, #256
 1277 0062 3193     		str	r3, [sp, #196]
 552:Core/Src/stm32h7xx_hal_msp.c ****     GPIO_InitStruct.Pull = GPIO_NOPULL;
 1278              		.loc 1 552 5 is_stmt 1 view .LVU378
 552:Core/Src/stm32h7xx_hal_msp.c ****     GPIO_InitStruct.Pull = GPIO_NOPULL;
 1279              		.loc 1 552 26 is_stmt 0 view .LVU379
 1280 0064 0223     		movs	r3, #2
 1281 0066 3293     		str	r3, [sp, #200]
 553:Core/Src/stm32h7xx_hal_msp.c ****     GPIO_InitStruct.Speed = GPIO_SPEED_FREQ_LOW;
 1282              		.loc 1 553 5 is_stmt 1 view .LVU380
 553:Core/Src/stm32h7xx_hal_msp.c ****     GPIO_InitStruct.Speed = GPIO_SPEED_FREQ_LOW;
 1283              		.loc 1 553 26 is_stmt 0 view .LVU381
 1284 0068 0025     		movs	r5, #0
 1285 006a 3395     		str	r5, [sp, #204]
 554:Core/Src/stm32h7xx_hal_msp.c ****     GPIO_InitStruct.Alternate = GPIO_AF10_OTG1_HS;
 1286              		.loc 1 554 5 is_stmt 1 view .LVU382
 554:Core/Src/stm32h7xx_hal_msp.c ****     GPIO_InitStruct.Alternate = GPIO_AF10_OTG1_HS;
 1287              		.loc 1 554 27 is_stmt 0 view .LVU383
 1288 006c 3495     		str	r5, [sp, #208]
 555:Core/Src/stm32h7xx_hal_msp.c ****     HAL_GPIO_Init(GPIOA, &GPIO_InitStruct);
 1289              		.loc 1 555 5 is_stmt 1 view .LVU384
 555:Core/Src/stm32h7xx_hal_msp.c ****     HAL_GPIO_Init(GPIOA, &GPIO_InitStruct);
 1290              		.loc 1 555 31 is_stmt 0 view .LVU385
 1291 006e 0A23     		movs	r3, #10
 1292 0070 3593     		str	r3, [sp, #212]
 556:Core/Src/stm32h7xx_hal_msp.c **** 
 1293              		.loc 1 556 5 is_stmt 1 view .LVU386
 1294 0072 114E     		ldr	r6, .L74+8
 1295 0074 31A9     		add	r1, sp, #196
 1296 0076 3046     		mov	r0, r6
 1297 0078 FFF7FEFF 		bl	HAL_GPIO_Init
 1298              	.LVL78:
 558:Core/Src/stm32h7xx_hal_msp.c ****     GPIO_InitStruct.Mode = GPIO_MODE_INPUT;
 1299              		.loc 1 558 5 view .LVU387
 558:Core/Src/stm32h7xx_hal_msp.c ****     GPIO_InitStruct.Mode = GPIO_MODE_INPUT;
 1300              		.loc 1 558 25 is_stmt 0 view .LVU388
 1301 007c 4FF40073 		mov	r3, #512
 1302 0080 3193     		str	r3, [sp, #196]
 559:Core/Src/stm32h7xx_hal_msp.c ****     GPIO_InitStruct.Pull = GPIO_NOPULL;
 1303              		.loc 1 559 5 is_stmt 1 view .LVU389
 559:Core/Src/stm32h7xx_hal_msp.c ****     GPIO_InitStruct.Pull = GPIO_NOPULL;
 1304              		.loc 1 559 26 is_stmt 0 view .LVU390
 1305 0082 3295     		str	r5, [sp, #200]
 560:Core/Src/stm32h7xx_hal_msp.c ****     HAL_GPIO_Init(GPIOA, &GPIO_InitStruct);
 1306              		.loc 1 560 5 is_stmt 1 view .LVU391
 560:Core/Src/stm32h7xx_hal_msp.c ****     HAL_GPIO_Init(GPIOA, &GPIO_InitStruct);
 1307              		.loc 1 560 26 is_stmt 0 view .LVU392
 1308 0084 3395     		str	r5, [sp, #204]
ARM GAS  /tmp/ccCE1JqB.s 			page 39


 561:Core/Src/stm32h7xx_hal_msp.c **** 
 1309              		.loc 1 561 5 is_stmt 1 view .LVU393
 1310 0086 31A9     		add	r1, sp, #196
 1311 0088 3046     		mov	r0, r6
 1312 008a FFF7FEFF 		bl	HAL_GPIO_Init
 1313              	.LVL79:
 564:Core/Src/stm32h7xx_hal_msp.c ****   /* USER CODE BEGIN USB_OTG_HS_MspInit 1 */
 1314              		.loc 1 564 5 view .LVU394
 1315              	.LBB19:
 564:Core/Src/stm32h7xx_hal_msp.c ****   /* USER CODE BEGIN USB_OTG_HS_MspInit 1 */
 1316              		.loc 1 564 5 view .LVU395
 564:Core/Src/stm32h7xx_hal_msp.c ****   /* USER CODE BEGIN USB_OTG_HS_MspInit 1 */
 1317              		.loc 1 564 5 view .LVU396
 1318 008e D4F8D830 		ldr	r3, [r4, #216]
 1319 0092 43F00073 		orr	r3, r3, #33554432
 1320 0096 C4F8D830 		str	r3, [r4, #216]
 564:Core/Src/stm32h7xx_hal_msp.c ****   /* USER CODE BEGIN USB_OTG_HS_MspInit 1 */
 1321              		.loc 1 564 5 view .LVU397
 1322 009a D4F8D830 		ldr	r3, [r4, #216]
 1323 009e 03F00073 		and	r3, r3, #33554432
 1324 00a2 0193     		str	r3, [sp, #4]
 564:Core/Src/stm32h7xx_hal_msp.c ****   /* USER CODE BEGIN USB_OTG_HS_MspInit 1 */
 1325              		.loc 1 564 5 view .LVU398
 1326 00a4 019B     		ldr	r3, [sp, #4]
 1327              	.LBE19:
 564:Core/Src/stm32h7xx_hal_msp.c ****   /* USER CODE BEGIN USB_OTG_HS_MspInit 1 */
 1328              		.loc 1 564 5 view .LVU399
 1329              		.loc 1 570 1 is_stmt 0 view .LVU400
 1330 00a6 BCE7     		b	.L68
 1331              	.LVL80:
 1332              	.L73:
 539:Core/Src/stm32h7xx_hal_msp.c ****     }
 1333              		.loc 1 539 7 is_stmt 1 view .LVU401
 1334 00a8 FFF7FEFF 		bl	Error_Handler
 1335              	.LVL81:
 1336 00ac C8E7     		b	.L70
 1337              	.L75:
 1338 00ae 00BF     		.align	2
 1339              	.L74:
 1340 00b0 00000440 		.word	1074003968
 1341 00b4 00440258 		.word	1476543488
 1342 00b8 00000258 		.word	1476526080
 1343              		.cfi_endproc
 1344              	.LFE217:
 1346              		.section	.text.HAL_PCD_MspDeInit,"ax",%progbits
 1347              		.align	1
 1348              		.global	HAL_PCD_MspDeInit
 1349              		.syntax unified
 1350              		.thumb
 1351              		.thumb_func
 1352              		.fpu fpv5-d16
 1354              	HAL_PCD_MspDeInit:
 1355              	.LVL82:
 1356              	.LFB218:
 571:Core/Src/stm32h7xx_hal_msp.c **** 
 572:Core/Src/stm32h7xx_hal_msp.c **** /**
 573:Core/Src/stm32h7xx_hal_msp.c **** * @brief PCD MSP De-Initialization
ARM GAS  /tmp/ccCE1JqB.s 			page 40


 574:Core/Src/stm32h7xx_hal_msp.c **** * This function freeze the hardware resources used in this example
 575:Core/Src/stm32h7xx_hal_msp.c **** * @param hpcd: PCD handle pointer
 576:Core/Src/stm32h7xx_hal_msp.c **** * @retval None
 577:Core/Src/stm32h7xx_hal_msp.c **** */
 578:Core/Src/stm32h7xx_hal_msp.c **** void HAL_PCD_MspDeInit(PCD_HandleTypeDef* hpcd)
 579:Core/Src/stm32h7xx_hal_msp.c **** {
 1357              		.loc 1 579 1 view -0
 1358              		.cfi_startproc
 1359              		@ args = 0, pretend = 0, frame = 0
 1360              		@ frame_needed = 0, uses_anonymous_args = 0
 1361              		.loc 1 579 1 is_stmt 0 view .LVU403
 1362 0000 08B5     		push	{r3, lr}
 1363              	.LCFI21:
 1364              		.cfi_def_cfa_offset 8
 1365              		.cfi_offset 3, -8
 1366              		.cfi_offset 14, -4
 580:Core/Src/stm32h7xx_hal_msp.c ****   if(hpcd->Instance==USB_OTG_HS)
 1367              		.loc 1 580 3 is_stmt 1 view .LVU404
 1368              		.loc 1 580 10 is_stmt 0 view .LVU405
 1369 0002 0268     		ldr	r2, [r0]
 1370              		.loc 1 580 5 view .LVU406
 1371 0004 084B     		ldr	r3, .L80
 1372 0006 9A42     		cmp	r2, r3
 1373 0008 00D0     		beq	.L79
 1374              	.LVL83:
 1375              	.L76:
 581:Core/Src/stm32h7xx_hal_msp.c ****   {
 582:Core/Src/stm32h7xx_hal_msp.c ****   /* USER CODE BEGIN USB_OTG_HS_MspDeInit 0 */
 583:Core/Src/stm32h7xx_hal_msp.c **** 
 584:Core/Src/stm32h7xx_hal_msp.c ****   /* USER CODE END USB_OTG_HS_MspDeInit 0 */
 585:Core/Src/stm32h7xx_hal_msp.c ****     /* Peripheral clock disable */
 586:Core/Src/stm32h7xx_hal_msp.c ****     __HAL_RCC_USB_OTG_HS_CLK_DISABLE();
 587:Core/Src/stm32h7xx_hal_msp.c **** 
 588:Core/Src/stm32h7xx_hal_msp.c ****     /**USB_OTG_HS GPIO Configuration
 589:Core/Src/stm32h7xx_hal_msp.c ****     PA8     ------> USB_OTG_HS_SOF
 590:Core/Src/stm32h7xx_hal_msp.c ****     PA9     ------> USB_OTG_HS_VBUS
 591:Core/Src/stm32h7xx_hal_msp.c ****     */
 592:Core/Src/stm32h7xx_hal_msp.c ****     HAL_GPIO_DeInit(GPIOA, GPIO_PIN_8|GPIO_PIN_9);
 593:Core/Src/stm32h7xx_hal_msp.c **** 
 594:Core/Src/stm32h7xx_hal_msp.c ****   /* USER CODE BEGIN USB_OTG_HS_MspDeInit 1 */
 595:Core/Src/stm32h7xx_hal_msp.c **** 
 596:Core/Src/stm32h7xx_hal_msp.c ****   /* USER CODE END USB_OTG_HS_MspDeInit 1 */
 597:Core/Src/stm32h7xx_hal_msp.c ****   }
 598:Core/Src/stm32h7xx_hal_msp.c **** 
 599:Core/Src/stm32h7xx_hal_msp.c **** }
 1376              		.loc 1 599 1 view .LVU407
 1377 000a 08BD     		pop	{r3, pc}
 1378              	.LVL84:
 1379              	.L79:
 586:Core/Src/stm32h7xx_hal_msp.c **** 
 1380              		.loc 1 586 5 is_stmt 1 view .LVU408
 1381 000c 074A     		ldr	r2, .L80+4
 1382 000e D2F8D830 		ldr	r3, [r2, #216]
 1383 0012 23F00073 		bic	r3, r3, #33554432
 1384 0016 C2F8D830 		str	r3, [r2, #216]
 592:Core/Src/stm32h7xx_hal_msp.c **** 
 1385              		.loc 1 592 5 view .LVU409
ARM GAS  /tmp/ccCE1JqB.s 			page 41


 1386 001a 4FF44071 		mov	r1, #768
 1387 001e 0448     		ldr	r0, .L80+8
 1388              	.LVL85:
 592:Core/Src/stm32h7xx_hal_msp.c **** 
 1389              		.loc 1 592 5 is_stmt 0 view .LVU410
 1390 0020 FFF7FEFF 		bl	HAL_GPIO_DeInit
 1391              	.LVL86:
 1392              		.loc 1 599 1 view .LVU411
 1393 0024 F1E7     		b	.L76
 1394              	.L81:
 1395 0026 00BF     		.align	2
 1396              	.L80:
 1397 0028 00000440 		.word	1074003968
 1398 002c 00440258 		.word	1476543488
 1399 0030 00000258 		.word	1476526080
 1400              		.cfi_endproc
 1401              	.LFE218:
 1403              		.global	com_to_imu_z
 1404              		.global	com_to_imu_y
 1405              		.global	com_dist_end
 1406              		.global	com_dist_start
 1407              		.global	burn_time
 1408              		.global	state_vec_length
 1409              		.section	.rodata.burn_time,"a"
 1410              		.align	2
 1413              	burn_time:
 1414 0000 00004041 		.word	1094713344
 1415              		.section	.rodata.com_dist_end,"a"
 1416              		.align	2
 1419              	com_dist_end:
 1420 0000 CDCC4C3E 		.word	1045220557
 1421              		.section	.rodata.com_dist_start,"a"
 1422              		.align	2
 1425              	com_dist_start:
 1426 0000 0000803F 		.word	1065353216
 1427              		.section	.rodata.com_to_imu_y,"a"
 1428              		.align	2
 1431              	com_to_imu_y:
 1432 0000 0AD7233C 		.word	1008981770
 1433              		.section	.rodata.com_to_imu_z,"a"
 1434              		.align	2
 1437              	com_to_imu_z:
 1438 0000 0AD7A33B 		.word	1000593162
 1439              		.section	.rodata.state_vec_length,"a"
 1440              		.align	2
 1443              	state_vec_length:
 1444 0000 09000000 		.word	9
 1445              		.text
 1446              	.Letext0:
 1447              		.file 2 "/usr/lib/gcc/arm-none-eabi/9.2.1/include/stdint.h"
 1448              		.file 3 "Drivers/CMSIS/Include/core_cm7.h"
 1449              		.file 4 "Drivers/CMSIS/Device/ST/STM32H7xx/Include/system_stm32h7xx.h"
 1450              		.file 5 "Drivers/CMSIS/Device/ST/STM32H7xx/Include/stm32h723xx.h"
 1451              		.file 6 "/usr/lib/gcc/arm-none-eabi/9.2.1/include/stddef.h"
 1452              		.file 7 "/usr/include/newlib/sys/_types.h"
 1453              		.file 8 "/usr/include/newlib/sys/reent.h"
 1454              		.file 9 "/usr/include/newlib/sys/lock.h"
ARM GAS  /tmp/ccCE1JqB.s 			page 42


 1455              		.file 10 "/usr/include/newlib/math.h"
 1456              		.file 11 "Drivers/STM32H7xx_HAL_Driver/Inc/stm32h7xx_hal_def.h"
 1457              		.file 12 "Drivers/STM32H7xx_HAL_Driver/Inc/stm32h7xx_hal_rcc_ex.h"
 1458              		.file 13 "Drivers/STM32H7xx_HAL_Driver/Inc/stm32h7xx_hal_gpio.h"
 1459              		.file 14 "Drivers/STM32H7xx_HAL_Driver/Inc/stm32h7xx_hal_dma.h"
 1460              		.file 15 "Drivers/STM32H7xx_HAL_Driver/Inc/stm32h7xx_hal_flash.h"
 1461              		.file 16 "Drivers/STM32H7xx_HAL_Driver/Inc/stm32h7xx_hal_i2c.h"
 1462              		.file 17 "Drivers/STM32H7xx_HAL_Driver/Inc/stm32h7xx_hal_spi.h"
 1463              		.file 18 "Drivers/STM32H7xx_HAL_Driver/Inc/stm32h7xx_hal_uart.h"
 1464              		.file 19 "Drivers/STM32H7xx_HAL_Driver/Inc/stm32h7xx_ll_usb.h"
 1465              		.file 20 "Drivers/STM32H7xx_HAL_Driver/Inc/stm32h7xx_hal_pcd.h"
 1466              		.file 21 "Drivers/STM32H7xx_HAL_Driver/Inc/stm32h7xx_hal.h"
 1467              		.file 22 "/usr/include/newlib/time.h"
 1468              		.file 23 "Core/Inc/state_est_helpers.h"
 1469              		.file 24 "/usr/include/newlib/stdlib.h"
 1470              		.file 25 "Drivers/STM32H7xx_HAL_Driver/Inc/stm32h7xx_hal_pwr_ex.h"
 1471              		.file 26 "Core/Inc/main.h"
 1472              		.file 27 "<built-in>"
ARM GAS  /tmp/ccCE1JqB.s 			page 43


DEFINED SYMBOLS
                            *ABS*:0000000000000000 stm32h7xx_hal_msp.c
     /tmp/ccCE1JqB.s:17     .text.HAL_MspInit:0000000000000000 $t
     /tmp/ccCE1JqB.s:25     .text.HAL_MspInit:0000000000000000 HAL_MspInit
     /tmp/ccCE1JqB.s:61     .text.HAL_MspInit:0000000000000020 $d
     /tmp/ccCE1JqB.s:66     .text.HAL_I2C_MspInit:0000000000000000 $t
     /tmp/ccCE1JqB.s:73     .text.HAL_I2C_MspInit:0000000000000000 HAL_I2C_MspInit
     /tmp/ccCE1JqB.s:211    .text.HAL_I2C_MspInit:0000000000000090 $d
     /tmp/ccCE1JqB.s:218    .text.HAL_I2C_MspDeInit:0000000000000000 $t
     /tmp/ccCE1JqB.s:225    .text.HAL_I2C_MspDeInit:0000000000000000 HAL_I2C_MspDeInit
     /tmp/ccCE1JqB.s:270    .text.HAL_I2C_MspDeInit:0000000000000034 $d
     /tmp/ccCE1JqB.s:277    .text.HAL_SPI_MspInit:0000000000000000 $t
     /tmp/ccCE1JqB.s:284    .text.HAL_SPI_MspInit:0000000000000000 HAL_SPI_MspInit
     /tmp/ccCE1JqB.s:817    .text.HAL_SPI_MspInit:000000000000028c $d
     /tmp/ccCE1JqB.s:830    .text.HAL_SPI_MspDeInit:0000000000000000 $t
     /tmp/ccCE1JqB.s:837    .text.HAL_SPI_MspDeInit:0000000000000000 HAL_SPI_MspDeInit
     /tmp/ccCE1JqB.s:955    .text.HAL_SPI_MspDeInit:000000000000009c $d
     /tmp/ccCE1JqB.s:968    .text.HAL_UART_MspInit:0000000000000000 $t
     /tmp/ccCE1JqB.s:975    .text.HAL_UART_MspInit:0000000000000000 HAL_UART_MspInit
     /tmp/ccCE1JqB.s:1109   .text.HAL_UART_MspInit:0000000000000090 $d
     /tmp/ccCE1JqB.s:1116   .text.HAL_UART_MspDeInit:0000000000000000 $t
     /tmp/ccCE1JqB.s:1123   .text.HAL_UART_MspDeInit:0000000000000000 HAL_UART_MspDeInit
     /tmp/ccCE1JqB.s:1166   .text.HAL_UART_MspDeInit:0000000000000024 $d
     /tmp/ccCE1JqB.s:1173   .text.HAL_PCD_MspInit:0000000000000000 $t
     /tmp/ccCE1JqB.s:1180   .text.HAL_PCD_MspInit:0000000000000000 HAL_PCD_MspInit
     /tmp/ccCE1JqB.s:1340   .text.HAL_PCD_MspInit:00000000000000b0 $d
     /tmp/ccCE1JqB.s:1347   .text.HAL_PCD_MspDeInit:0000000000000000 $t
     /tmp/ccCE1JqB.s:1354   .text.HAL_PCD_MspDeInit:0000000000000000 HAL_PCD_MspDeInit
     /tmp/ccCE1JqB.s:1397   .text.HAL_PCD_MspDeInit:0000000000000028 $d
     /tmp/ccCE1JqB.s:1437   .rodata.com_to_imu_z:0000000000000000 com_to_imu_z
     /tmp/ccCE1JqB.s:1431   .rodata.com_to_imu_y:0000000000000000 com_to_imu_y
     /tmp/ccCE1JqB.s:1419   .rodata.com_dist_end:0000000000000000 com_dist_end
     /tmp/ccCE1JqB.s:1425   .rodata.com_dist_start:0000000000000000 com_dist_start
     /tmp/ccCE1JqB.s:1413   .rodata.burn_time:0000000000000000 burn_time
     /tmp/ccCE1JqB.s:1443   .rodata.state_vec_length:0000000000000000 state_vec_length
     /tmp/ccCE1JqB.s:1410   .rodata.burn_time:0000000000000000 $d
     /tmp/ccCE1JqB.s:1416   .rodata.com_dist_end:0000000000000000 $d
     /tmp/ccCE1JqB.s:1422   .rodata.com_dist_start:0000000000000000 $d
     /tmp/ccCE1JqB.s:1428   .rodata.com_to_imu_y:0000000000000000 $d
     /tmp/ccCE1JqB.s:1434   .rodata.com_to_imu_z:0000000000000000 $d
     /tmp/ccCE1JqB.s:1440   .rodata.state_vec_length:0000000000000000 $d

UNDEFINED SYMBOLS
memset
HAL_RCCEx_PeriphCLKConfig
HAL_GPIO_Init
Error_Handler
HAL_GPIO_DeInit
HAL_PWREx_EnableUSBVoltageDetector
