ARM GAS  /tmp/ccdP7LVA.s 			page 1


   1              		.cpu cortex-m7
   2              		.eabi_attribute 28, 1
   3              		.eabi_attribute 20, 1
   4              		.eabi_attribute 21, 1
   5              		.eabi_attribute 23, 3
   6              		.eabi_attribute 24, 1
   7              		.eabi_attribute 25, 1
   8              		.eabi_attribute 26, 1
   9              		.eabi_attribute 30, 1
  10              		.eabi_attribute 34, 1
  11              		.eabi_attribute 18, 4
  12              		.file	"stm32h7xx_ll_usb.c"
  13              		.text
  14              	.Ltext0:
  15              		.cfi_sections	.debug_frame
  16              		.section	.text.USB_CoreReset,"ax",%progbits
  17              		.align	1
  18              		.arch armv7e-m
  19              		.syntax unified
  20              		.thumb
  21              		.thumb_func
  22              		.fpu fpv5-d16
  24              	USB_CoreReset:
  25              	.LVL0:
  26              	.LFB178:
  27              		.file 1 "Drivers/STM32H7xx_HAL_Driver/Src/stm32h7xx_ll_usb.c"
   1:Drivers/STM32H7xx_HAL_Driver/Src/stm32h7xx_ll_usb.c **** /**
   2:Drivers/STM32H7xx_HAL_Driver/Src/stm32h7xx_ll_usb.c ****   ******************************************************************************
   3:Drivers/STM32H7xx_HAL_Driver/Src/stm32h7xx_ll_usb.c ****   * @file    stm32h7xx_ll_usb.c
   4:Drivers/STM32H7xx_HAL_Driver/Src/stm32h7xx_ll_usb.c ****   * @author  MCD Application Team
   5:Drivers/STM32H7xx_HAL_Driver/Src/stm32h7xx_ll_usb.c ****   * @brief   USB Low Layer HAL module driver.
   6:Drivers/STM32H7xx_HAL_Driver/Src/stm32h7xx_ll_usb.c ****   *
   7:Drivers/STM32H7xx_HAL_Driver/Src/stm32h7xx_ll_usb.c ****   *          This file provides firmware functions to manage the following
   8:Drivers/STM32H7xx_HAL_Driver/Src/stm32h7xx_ll_usb.c ****   *          functionalities of the USB Peripheral Controller:
   9:Drivers/STM32H7xx_HAL_Driver/Src/stm32h7xx_ll_usb.c ****   *           + Initialization/de-initialization functions
  10:Drivers/STM32H7xx_HAL_Driver/Src/stm32h7xx_ll_usb.c ****   *           + I/O operation functions
  11:Drivers/STM32H7xx_HAL_Driver/Src/stm32h7xx_ll_usb.c ****   *           + Peripheral Control functions
  12:Drivers/STM32H7xx_HAL_Driver/Src/stm32h7xx_ll_usb.c ****   *           + Peripheral State functions
  13:Drivers/STM32H7xx_HAL_Driver/Src/stm32h7xx_ll_usb.c ****   *
  14:Drivers/STM32H7xx_HAL_Driver/Src/stm32h7xx_ll_usb.c ****   ******************************************************************************
  15:Drivers/STM32H7xx_HAL_Driver/Src/stm32h7xx_ll_usb.c ****   * @attention
  16:Drivers/STM32H7xx_HAL_Driver/Src/stm32h7xx_ll_usb.c ****   *
  17:Drivers/STM32H7xx_HAL_Driver/Src/stm32h7xx_ll_usb.c ****   * Copyright (c) 2017 STMicroelectronics.
  18:Drivers/STM32H7xx_HAL_Driver/Src/stm32h7xx_ll_usb.c ****   * All rights reserved.
  19:Drivers/STM32H7xx_HAL_Driver/Src/stm32h7xx_ll_usb.c ****   *
  20:Drivers/STM32H7xx_HAL_Driver/Src/stm32h7xx_ll_usb.c ****   * This software is licensed under terms that can be found in the LICENSE file
  21:Drivers/STM32H7xx_HAL_Driver/Src/stm32h7xx_ll_usb.c ****   * in the root directory of this software component.
  22:Drivers/STM32H7xx_HAL_Driver/Src/stm32h7xx_ll_usb.c ****   * If no LICENSE file comes with this software, it is provided AS-IS.
  23:Drivers/STM32H7xx_HAL_Driver/Src/stm32h7xx_ll_usb.c ****   *
  24:Drivers/STM32H7xx_HAL_Driver/Src/stm32h7xx_ll_usb.c ****   ******************************************************************************
  25:Drivers/STM32H7xx_HAL_Driver/Src/stm32h7xx_ll_usb.c ****   @verbatim
  26:Drivers/STM32H7xx_HAL_Driver/Src/stm32h7xx_ll_usb.c ****   ==============================================================================
  27:Drivers/STM32H7xx_HAL_Driver/Src/stm32h7xx_ll_usb.c ****                     ##### How to use this driver #####
  28:Drivers/STM32H7xx_HAL_Driver/Src/stm32h7xx_ll_usb.c ****   ==============================================================================
  29:Drivers/STM32H7xx_HAL_Driver/Src/stm32h7xx_ll_usb.c ****     [..]
  30:Drivers/STM32H7xx_HAL_Driver/Src/stm32h7xx_ll_usb.c ****       (#) Fill parameters of Init structure in USB_CfgTypeDef structure.
  31:Drivers/STM32H7xx_HAL_Driver/Src/stm32h7xx_ll_usb.c **** 
ARM GAS  /tmp/ccdP7LVA.s 			page 2


  32:Drivers/STM32H7xx_HAL_Driver/Src/stm32h7xx_ll_usb.c ****       (#) Call USB_CoreInit() API to initialize the USB Core peripheral.
  33:Drivers/STM32H7xx_HAL_Driver/Src/stm32h7xx_ll_usb.c **** 
  34:Drivers/STM32H7xx_HAL_Driver/Src/stm32h7xx_ll_usb.c ****       (#) The upper HAL HCD/PCD driver will call the right routines for its internal processes.
  35:Drivers/STM32H7xx_HAL_Driver/Src/stm32h7xx_ll_usb.c **** 
  36:Drivers/STM32H7xx_HAL_Driver/Src/stm32h7xx_ll_usb.c ****   @endverbatim
  37:Drivers/STM32H7xx_HAL_Driver/Src/stm32h7xx_ll_usb.c **** 
  38:Drivers/STM32H7xx_HAL_Driver/Src/stm32h7xx_ll_usb.c ****   ******************************************************************************
  39:Drivers/STM32H7xx_HAL_Driver/Src/stm32h7xx_ll_usb.c ****   */
  40:Drivers/STM32H7xx_HAL_Driver/Src/stm32h7xx_ll_usb.c **** 
  41:Drivers/STM32H7xx_HAL_Driver/Src/stm32h7xx_ll_usb.c **** /* Includes ------------------------------------------------------------------*/
  42:Drivers/STM32H7xx_HAL_Driver/Src/stm32h7xx_ll_usb.c **** #include "stm32h7xx_hal.h"
  43:Drivers/STM32H7xx_HAL_Driver/Src/stm32h7xx_ll_usb.c **** 
  44:Drivers/STM32H7xx_HAL_Driver/Src/stm32h7xx_ll_usb.c **** /** @addtogroup STM32H7xx_LL_USB_DRIVER
  45:Drivers/STM32H7xx_HAL_Driver/Src/stm32h7xx_ll_usb.c ****   * @{
  46:Drivers/STM32H7xx_HAL_Driver/Src/stm32h7xx_ll_usb.c ****   */
  47:Drivers/STM32H7xx_HAL_Driver/Src/stm32h7xx_ll_usb.c **** 
  48:Drivers/STM32H7xx_HAL_Driver/Src/stm32h7xx_ll_usb.c **** #if defined (HAL_PCD_MODULE_ENABLED) || defined (HAL_HCD_MODULE_ENABLED)
  49:Drivers/STM32H7xx_HAL_Driver/Src/stm32h7xx_ll_usb.c **** #if defined (USB_OTG_FS) || defined (USB_OTG_HS)
  50:Drivers/STM32H7xx_HAL_Driver/Src/stm32h7xx_ll_usb.c **** /* Private typedef -----------------------------------------------------------*/
  51:Drivers/STM32H7xx_HAL_Driver/Src/stm32h7xx_ll_usb.c **** /* Private define ------------------------------------------------------------*/
  52:Drivers/STM32H7xx_HAL_Driver/Src/stm32h7xx_ll_usb.c **** /* Private macro -------------------------------------------------------------*/
  53:Drivers/STM32H7xx_HAL_Driver/Src/stm32h7xx_ll_usb.c **** /* Private variables ---------------------------------------------------------*/
  54:Drivers/STM32H7xx_HAL_Driver/Src/stm32h7xx_ll_usb.c **** /* Private function prototypes -----------------------------------------------*/
  55:Drivers/STM32H7xx_HAL_Driver/Src/stm32h7xx_ll_usb.c **** /* Private functions ---------------------------------------------------------*/
  56:Drivers/STM32H7xx_HAL_Driver/Src/stm32h7xx_ll_usb.c **** #if defined (USB_OTG_FS) || defined (USB_OTG_HS)
  57:Drivers/STM32H7xx_HAL_Driver/Src/stm32h7xx_ll_usb.c **** static HAL_StatusTypeDef USB_CoreReset(USB_OTG_GlobalTypeDef *USBx);
  58:Drivers/STM32H7xx_HAL_Driver/Src/stm32h7xx_ll_usb.c **** 
  59:Drivers/STM32H7xx_HAL_Driver/Src/stm32h7xx_ll_usb.c **** /* Exported functions --------------------------------------------------------*/
  60:Drivers/STM32H7xx_HAL_Driver/Src/stm32h7xx_ll_usb.c **** /** @defgroup USB_LL_Exported_Functions USB Low Layer Exported Functions
  61:Drivers/STM32H7xx_HAL_Driver/Src/stm32h7xx_ll_usb.c ****   * @{
  62:Drivers/STM32H7xx_HAL_Driver/Src/stm32h7xx_ll_usb.c ****   */
  63:Drivers/STM32H7xx_HAL_Driver/Src/stm32h7xx_ll_usb.c **** 
  64:Drivers/STM32H7xx_HAL_Driver/Src/stm32h7xx_ll_usb.c **** /** @defgroup USB_LL_Exported_Functions_Group1 Initialization/de-initialization functions
  65:Drivers/STM32H7xx_HAL_Driver/Src/stm32h7xx_ll_usb.c ****   *  @brief    Initialization and Configuration functions
  66:Drivers/STM32H7xx_HAL_Driver/Src/stm32h7xx_ll_usb.c ****   *
  67:Drivers/STM32H7xx_HAL_Driver/Src/stm32h7xx_ll_usb.c **** @verbatim
  68:Drivers/STM32H7xx_HAL_Driver/Src/stm32h7xx_ll_usb.c ****  ===============================================================================
  69:Drivers/STM32H7xx_HAL_Driver/Src/stm32h7xx_ll_usb.c ****                       ##### Initialization/de-initialization functions #####
  70:Drivers/STM32H7xx_HAL_Driver/Src/stm32h7xx_ll_usb.c ****  ===============================================================================
  71:Drivers/STM32H7xx_HAL_Driver/Src/stm32h7xx_ll_usb.c **** 
  72:Drivers/STM32H7xx_HAL_Driver/Src/stm32h7xx_ll_usb.c **** @endverbatim
  73:Drivers/STM32H7xx_HAL_Driver/Src/stm32h7xx_ll_usb.c ****   * @{
  74:Drivers/STM32H7xx_HAL_Driver/Src/stm32h7xx_ll_usb.c ****   */
  75:Drivers/STM32H7xx_HAL_Driver/Src/stm32h7xx_ll_usb.c **** 
  76:Drivers/STM32H7xx_HAL_Driver/Src/stm32h7xx_ll_usb.c **** /**
  77:Drivers/STM32H7xx_HAL_Driver/Src/stm32h7xx_ll_usb.c ****   * @brief  Initializes the USB Core
  78:Drivers/STM32H7xx_HAL_Driver/Src/stm32h7xx_ll_usb.c ****   * @param  USBx USB Instance
  79:Drivers/STM32H7xx_HAL_Driver/Src/stm32h7xx_ll_usb.c ****   * @param  cfg pointer to a USB_OTG_CfgTypeDef structure that contains
  80:Drivers/STM32H7xx_HAL_Driver/Src/stm32h7xx_ll_usb.c ****   *         the configuration information for the specified USBx peripheral.
  81:Drivers/STM32H7xx_HAL_Driver/Src/stm32h7xx_ll_usb.c ****   * @retval HAL status
  82:Drivers/STM32H7xx_HAL_Driver/Src/stm32h7xx_ll_usb.c ****   */
  83:Drivers/STM32H7xx_HAL_Driver/Src/stm32h7xx_ll_usb.c **** HAL_StatusTypeDef USB_CoreInit(USB_OTG_GlobalTypeDef *USBx, USB_OTG_CfgTypeDef cfg)
  84:Drivers/STM32H7xx_HAL_Driver/Src/stm32h7xx_ll_usb.c **** {
  85:Drivers/STM32H7xx_HAL_Driver/Src/stm32h7xx_ll_usb.c ****   HAL_StatusTypeDef ret;
  86:Drivers/STM32H7xx_HAL_Driver/Src/stm32h7xx_ll_usb.c ****   if (cfg.phy_itface == USB_OTG_ULPI_PHY)
  87:Drivers/STM32H7xx_HAL_Driver/Src/stm32h7xx_ll_usb.c ****   {
  88:Drivers/STM32H7xx_HAL_Driver/Src/stm32h7xx_ll_usb.c ****     USBx->GCCFG &= ~(USB_OTG_GCCFG_PWRDWN);
ARM GAS  /tmp/ccdP7LVA.s 			page 3


  89:Drivers/STM32H7xx_HAL_Driver/Src/stm32h7xx_ll_usb.c **** 
  90:Drivers/STM32H7xx_HAL_Driver/Src/stm32h7xx_ll_usb.c ****     /* Init The ULPI Interface */
  91:Drivers/STM32H7xx_HAL_Driver/Src/stm32h7xx_ll_usb.c ****     USBx->GUSBCFG &= ~(USB_OTG_GUSBCFG_TSDPS | USB_OTG_GUSBCFG_ULPIFSLS | USB_OTG_GUSBCFG_PHYSEL);
  92:Drivers/STM32H7xx_HAL_Driver/Src/stm32h7xx_ll_usb.c **** 
  93:Drivers/STM32H7xx_HAL_Driver/Src/stm32h7xx_ll_usb.c ****     /* Select vbus source */
  94:Drivers/STM32H7xx_HAL_Driver/Src/stm32h7xx_ll_usb.c ****     USBx->GUSBCFG &= ~(USB_OTG_GUSBCFG_ULPIEVBUSD | USB_OTG_GUSBCFG_ULPIEVBUSI);
  95:Drivers/STM32H7xx_HAL_Driver/Src/stm32h7xx_ll_usb.c ****     if (cfg.use_external_vbus == 1U)
  96:Drivers/STM32H7xx_HAL_Driver/Src/stm32h7xx_ll_usb.c ****     {
  97:Drivers/STM32H7xx_HAL_Driver/Src/stm32h7xx_ll_usb.c ****       USBx->GUSBCFG |= USB_OTG_GUSBCFG_ULPIEVBUSD;
  98:Drivers/STM32H7xx_HAL_Driver/Src/stm32h7xx_ll_usb.c ****     }
  99:Drivers/STM32H7xx_HAL_Driver/Src/stm32h7xx_ll_usb.c **** 
 100:Drivers/STM32H7xx_HAL_Driver/Src/stm32h7xx_ll_usb.c ****     /* Reset after a PHY select */
 101:Drivers/STM32H7xx_HAL_Driver/Src/stm32h7xx_ll_usb.c ****     ret = USB_CoreReset(USBx);
 102:Drivers/STM32H7xx_HAL_Driver/Src/stm32h7xx_ll_usb.c ****   }
 103:Drivers/STM32H7xx_HAL_Driver/Src/stm32h7xx_ll_usb.c ****   else /* FS interface (embedded Phy) */
 104:Drivers/STM32H7xx_HAL_Driver/Src/stm32h7xx_ll_usb.c ****   {
 105:Drivers/STM32H7xx_HAL_Driver/Src/stm32h7xx_ll_usb.c ****     /* Select FS Embedded PHY */
 106:Drivers/STM32H7xx_HAL_Driver/Src/stm32h7xx_ll_usb.c ****     USBx->GUSBCFG |= USB_OTG_GUSBCFG_PHYSEL;
 107:Drivers/STM32H7xx_HAL_Driver/Src/stm32h7xx_ll_usb.c **** 
 108:Drivers/STM32H7xx_HAL_Driver/Src/stm32h7xx_ll_usb.c ****     /* Reset after a PHY select */
 109:Drivers/STM32H7xx_HAL_Driver/Src/stm32h7xx_ll_usb.c ****     ret = USB_CoreReset(USBx);
 110:Drivers/STM32H7xx_HAL_Driver/Src/stm32h7xx_ll_usb.c **** 
 111:Drivers/STM32H7xx_HAL_Driver/Src/stm32h7xx_ll_usb.c ****     if (cfg.battery_charging_enable == 0U)
 112:Drivers/STM32H7xx_HAL_Driver/Src/stm32h7xx_ll_usb.c ****     {
 113:Drivers/STM32H7xx_HAL_Driver/Src/stm32h7xx_ll_usb.c ****       /* Activate the USB Transceiver */
 114:Drivers/STM32H7xx_HAL_Driver/Src/stm32h7xx_ll_usb.c ****       USBx->GCCFG |= USB_OTG_GCCFG_PWRDWN;
 115:Drivers/STM32H7xx_HAL_Driver/Src/stm32h7xx_ll_usb.c ****     }
 116:Drivers/STM32H7xx_HAL_Driver/Src/stm32h7xx_ll_usb.c ****     else
 117:Drivers/STM32H7xx_HAL_Driver/Src/stm32h7xx_ll_usb.c ****     {
 118:Drivers/STM32H7xx_HAL_Driver/Src/stm32h7xx_ll_usb.c ****       /* Deactivate the USB Transceiver */
 119:Drivers/STM32H7xx_HAL_Driver/Src/stm32h7xx_ll_usb.c ****       USBx->GCCFG &= ~(USB_OTG_GCCFG_PWRDWN);
 120:Drivers/STM32H7xx_HAL_Driver/Src/stm32h7xx_ll_usb.c ****     }
 121:Drivers/STM32H7xx_HAL_Driver/Src/stm32h7xx_ll_usb.c ****   }
 122:Drivers/STM32H7xx_HAL_Driver/Src/stm32h7xx_ll_usb.c **** 
 123:Drivers/STM32H7xx_HAL_Driver/Src/stm32h7xx_ll_usb.c ****   if (cfg.dma_enable == 1U)
 124:Drivers/STM32H7xx_HAL_Driver/Src/stm32h7xx_ll_usb.c ****   {
 125:Drivers/STM32H7xx_HAL_Driver/Src/stm32h7xx_ll_usb.c ****     /* make sure to reserve 18 fifo Locations for DMA buffers */
 126:Drivers/STM32H7xx_HAL_Driver/Src/stm32h7xx_ll_usb.c ****     USBx->GDFIFOCFG &= ~(0xFFFFU << 16);
 127:Drivers/STM32H7xx_HAL_Driver/Src/stm32h7xx_ll_usb.c ****     USBx->GDFIFOCFG |= 0x3EEU << 16;
 128:Drivers/STM32H7xx_HAL_Driver/Src/stm32h7xx_ll_usb.c **** 
 129:Drivers/STM32H7xx_HAL_Driver/Src/stm32h7xx_ll_usb.c ****     USBx->GAHBCFG |= USB_OTG_GAHBCFG_HBSTLEN_2;
 130:Drivers/STM32H7xx_HAL_Driver/Src/stm32h7xx_ll_usb.c ****     USBx->GAHBCFG |= USB_OTG_GAHBCFG_DMAEN;
 131:Drivers/STM32H7xx_HAL_Driver/Src/stm32h7xx_ll_usb.c ****   }
 132:Drivers/STM32H7xx_HAL_Driver/Src/stm32h7xx_ll_usb.c **** 
 133:Drivers/STM32H7xx_HAL_Driver/Src/stm32h7xx_ll_usb.c ****   return ret;
 134:Drivers/STM32H7xx_HAL_Driver/Src/stm32h7xx_ll_usb.c **** }
 135:Drivers/STM32H7xx_HAL_Driver/Src/stm32h7xx_ll_usb.c **** 
 136:Drivers/STM32H7xx_HAL_Driver/Src/stm32h7xx_ll_usb.c **** 
 137:Drivers/STM32H7xx_HAL_Driver/Src/stm32h7xx_ll_usb.c **** /**
 138:Drivers/STM32H7xx_HAL_Driver/Src/stm32h7xx_ll_usb.c ****   * @brief  Set the USB turnaround time
 139:Drivers/STM32H7xx_HAL_Driver/Src/stm32h7xx_ll_usb.c ****   * @param  USBx USB Instance
 140:Drivers/STM32H7xx_HAL_Driver/Src/stm32h7xx_ll_usb.c ****   * @param  hclk: AHB clock frequency
 141:Drivers/STM32H7xx_HAL_Driver/Src/stm32h7xx_ll_usb.c ****   * @retval USB turnaround time In PHY Clocks number
 142:Drivers/STM32H7xx_HAL_Driver/Src/stm32h7xx_ll_usb.c ****   */
 143:Drivers/STM32H7xx_HAL_Driver/Src/stm32h7xx_ll_usb.c **** HAL_StatusTypeDef USB_SetTurnaroundTime(USB_OTG_GlobalTypeDef *USBx,
 144:Drivers/STM32H7xx_HAL_Driver/Src/stm32h7xx_ll_usb.c ****                                         uint32_t hclk, uint8_t speed)
 145:Drivers/STM32H7xx_HAL_Driver/Src/stm32h7xx_ll_usb.c **** {
ARM GAS  /tmp/ccdP7LVA.s 			page 4


 146:Drivers/STM32H7xx_HAL_Driver/Src/stm32h7xx_ll_usb.c ****   uint32_t UsbTrd;
 147:Drivers/STM32H7xx_HAL_Driver/Src/stm32h7xx_ll_usb.c **** 
 148:Drivers/STM32H7xx_HAL_Driver/Src/stm32h7xx_ll_usb.c ****   /* The USBTRD is configured according to the tables below, depending on AHB frequency
 149:Drivers/STM32H7xx_HAL_Driver/Src/stm32h7xx_ll_usb.c ****   used by application. In the low AHB frequency range it is used to stretch enough the USB response
 150:Drivers/STM32H7xx_HAL_Driver/Src/stm32h7xx_ll_usb.c ****   time to IN tokens, the USB turnaround time, so to compensate for the longer AHB read access
 151:Drivers/STM32H7xx_HAL_Driver/Src/stm32h7xx_ll_usb.c ****   latency to the Data FIFO */
 152:Drivers/STM32H7xx_HAL_Driver/Src/stm32h7xx_ll_usb.c ****   if (speed == USBD_FS_SPEED)
 153:Drivers/STM32H7xx_HAL_Driver/Src/stm32h7xx_ll_usb.c ****   {
 154:Drivers/STM32H7xx_HAL_Driver/Src/stm32h7xx_ll_usb.c ****     if ((hclk >= 14200000U) && (hclk < 15000000U))
 155:Drivers/STM32H7xx_HAL_Driver/Src/stm32h7xx_ll_usb.c ****     {
 156:Drivers/STM32H7xx_HAL_Driver/Src/stm32h7xx_ll_usb.c ****       /* hclk Clock Range between 14.2-15 MHz */
 157:Drivers/STM32H7xx_HAL_Driver/Src/stm32h7xx_ll_usb.c ****       UsbTrd = 0xFU;
 158:Drivers/STM32H7xx_HAL_Driver/Src/stm32h7xx_ll_usb.c ****     }
 159:Drivers/STM32H7xx_HAL_Driver/Src/stm32h7xx_ll_usb.c ****     else if ((hclk >= 15000000U) && (hclk < 16000000U))
 160:Drivers/STM32H7xx_HAL_Driver/Src/stm32h7xx_ll_usb.c ****     {
 161:Drivers/STM32H7xx_HAL_Driver/Src/stm32h7xx_ll_usb.c ****       /* hclk Clock Range between 15-16 MHz */
 162:Drivers/STM32H7xx_HAL_Driver/Src/stm32h7xx_ll_usb.c ****       UsbTrd = 0xEU;
 163:Drivers/STM32H7xx_HAL_Driver/Src/stm32h7xx_ll_usb.c ****     }
 164:Drivers/STM32H7xx_HAL_Driver/Src/stm32h7xx_ll_usb.c ****     else if ((hclk >= 16000000U) && (hclk < 17200000U))
 165:Drivers/STM32H7xx_HAL_Driver/Src/stm32h7xx_ll_usb.c ****     {
 166:Drivers/STM32H7xx_HAL_Driver/Src/stm32h7xx_ll_usb.c ****       /* hclk Clock Range between 16-17.2 MHz */
 167:Drivers/STM32H7xx_HAL_Driver/Src/stm32h7xx_ll_usb.c ****       UsbTrd = 0xDU;
 168:Drivers/STM32H7xx_HAL_Driver/Src/stm32h7xx_ll_usb.c ****     }
 169:Drivers/STM32H7xx_HAL_Driver/Src/stm32h7xx_ll_usb.c ****     else if ((hclk >= 17200000U) && (hclk < 18500000U))
 170:Drivers/STM32H7xx_HAL_Driver/Src/stm32h7xx_ll_usb.c ****     {
 171:Drivers/STM32H7xx_HAL_Driver/Src/stm32h7xx_ll_usb.c ****       /* hclk Clock Range between 17.2-18.5 MHz */
 172:Drivers/STM32H7xx_HAL_Driver/Src/stm32h7xx_ll_usb.c ****       UsbTrd = 0xCU;
 173:Drivers/STM32H7xx_HAL_Driver/Src/stm32h7xx_ll_usb.c ****     }
 174:Drivers/STM32H7xx_HAL_Driver/Src/stm32h7xx_ll_usb.c ****     else if ((hclk >= 18500000U) && (hclk < 20000000U))
 175:Drivers/STM32H7xx_HAL_Driver/Src/stm32h7xx_ll_usb.c ****     {
 176:Drivers/STM32H7xx_HAL_Driver/Src/stm32h7xx_ll_usb.c ****       /* hclk Clock Range between 18.5-20 MHz */
 177:Drivers/STM32H7xx_HAL_Driver/Src/stm32h7xx_ll_usb.c ****       UsbTrd = 0xBU;
 178:Drivers/STM32H7xx_HAL_Driver/Src/stm32h7xx_ll_usb.c ****     }
 179:Drivers/STM32H7xx_HAL_Driver/Src/stm32h7xx_ll_usb.c ****     else if ((hclk >= 20000000U) && (hclk < 21800000U))
 180:Drivers/STM32H7xx_HAL_Driver/Src/stm32h7xx_ll_usb.c ****     {
 181:Drivers/STM32H7xx_HAL_Driver/Src/stm32h7xx_ll_usb.c ****       /* hclk Clock Range between 20-21.8 MHz */
 182:Drivers/STM32H7xx_HAL_Driver/Src/stm32h7xx_ll_usb.c ****       UsbTrd = 0xAU;
 183:Drivers/STM32H7xx_HAL_Driver/Src/stm32h7xx_ll_usb.c ****     }
 184:Drivers/STM32H7xx_HAL_Driver/Src/stm32h7xx_ll_usb.c ****     else if ((hclk >= 21800000U) && (hclk < 24000000U))
 185:Drivers/STM32H7xx_HAL_Driver/Src/stm32h7xx_ll_usb.c ****     {
 186:Drivers/STM32H7xx_HAL_Driver/Src/stm32h7xx_ll_usb.c ****       /* hclk Clock Range between 21.8-24 MHz */
 187:Drivers/STM32H7xx_HAL_Driver/Src/stm32h7xx_ll_usb.c ****       UsbTrd = 0x9U;
 188:Drivers/STM32H7xx_HAL_Driver/Src/stm32h7xx_ll_usb.c ****     }
 189:Drivers/STM32H7xx_HAL_Driver/Src/stm32h7xx_ll_usb.c ****     else if ((hclk >= 24000000U) && (hclk < 27700000U))
 190:Drivers/STM32H7xx_HAL_Driver/Src/stm32h7xx_ll_usb.c ****     {
 191:Drivers/STM32H7xx_HAL_Driver/Src/stm32h7xx_ll_usb.c ****       /* hclk Clock Range between 24-27.7 MHz */
 192:Drivers/STM32H7xx_HAL_Driver/Src/stm32h7xx_ll_usb.c ****       UsbTrd = 0x8U;
 193:Drivers/STM32H7xx_HAL_Driver/Src/stm32h7xx_ll_usb.c ****     }
 194:Drivers/STM32H7xx_HAL_Driver/Src/stm32h7xx_ll_usb.c ****     else if ((hclk >= 27700000U) && (hclk < 32000000U))
 195:Drivers/STM32H7xx_HAL_Driver/Src/stm32h7xx_ll_usb.c ****     {
 196:Drivers/STM32H7xx_HAL_Driver/Src/stm32h7xx_ll_usb.c ****       /* hclk Clock Range between 27.7-32 MHz */
 197:Drivers/STM32H7xx_HAL_Driver/Src/stm32h7xx_ll_usb.c ****       UsbTrd = 0x7U;
 198:Drivers/STM32H7xx_HAL_Driver/Src/stm32h7xx_ll_usb.c ****     }
 199:Drivers/STM32H7xx_HAL_Driver/Src/stm32h7xx_ll_usb.c ****     else /* if(hclk >= 32000000) */
 200:Drivers/STM32H7xx_HAL_Driver/Src/stm32h7xx_ll_usb.c ****     {
 201:Drivers/STM32H7xx_HAL_Driver/Src/stm32h7xx_ll_usb.c ****       /* hclk Clock Range between 32-200 MHz */
 202:Drivers/STM32H7xx_HAL_Driver/Src/stm32h7xx_ll_usb.c ****       UsbTrd = 0x6U;
ARM GAS  /tmp/ccdP7LVA.s 			page 5


 203:Drivers/STM32H7xx_HAL_Driver/Src/stm32h7xx_ll_usb.c ****     }
 204:Drivers/STM32H7xx_HAL_Driver/Src/stm32h7xx_ll_usb.c ****   }
 205:Drivers/STM32H7xx_HAL_Driver/Src/stm32h7xx_ll_usb.c ****   else if (speed == USBD_HS_SPEED)
 206:Drivers/STM32H7xx_HAL_Driver/Src/stm32h7xx_ll_usb.c ****   {
 207:Drivers/STM32H7xx_HAL_Driver/Src/stm32h7xx_ll_usb.c ****     UsbTrd = USBD_HS_TRDT_VALUE;
 208:Drivers/STM32H7xx_HAL_Driver/Src/stm32h7xx_ll_usb.c ****   }
 209:Drivers/STM32H7xx_HAL_Driver/Src/stm32h7xx_ll_usb.c ****   else
 210:Drivers/STM32H7xx_HAL_Driver/Src/stm32h7xx_ll_usb.c ****   {
 211:Drivers/STM32H7xx_HAL_Driver/Src/stm32h7xx_ll_usb.c ****     UsbTrd = USBD_DEFAULT_TRDT_VALUE;
 212:Drivers/STM32H7xx_HAL_Driver/Src/stm32h7xx_ll_usb.c ****   }
 213:Drivers/STM32H7xx_HAL_Driver/Src/stm32h7xx_ll_usb.c **** 
 214:Drivers/STM32H7xx_HAL_Driver/Src/stm32h7xx_ll_usb.c ****   USBx->GUSBCFG &= ~USB_OTG_GUSBCFG_TRDT;
 215:Drivers/STM32H7xx_HAL_Driver/Src/stm32h7xx_ll_usb.c ****   USBx->GUSBCFG |= (uint32_t)((UsbTrd << 10) & USB_OTG_GUSBCFG_TRDT);
 216:Drivers/STM32H7xx_HAL_Driver/Src/stm32h7xx_ll_usb.c **** 
 217:Drivers/STM32H7xx_HAL_Driver/Src/stm32h7xx_ll_usb.c ****   return HAL_OK;
 218:Drivers/STM32H7xx_HAL_Driver/Src/stm32h7xx_ll_usb.c **** }
 219:Drivers/STM32H7xx_HAL_Driver/Src/stm32h7xx_ll_usb.c **** 
 220:Drivers/STM32H7xx_HAL_Driver/Src/stm32h7xx_ll_usb.c **** /**
 221:Drivers/STM32H7xx_HAL_Driver/Src/stm32h7xx_ll_usb.c ****   * @brief  USB_EnableGlobalInt
 222:Drivers/STM32H7xx_HAL_Driver/Src/stm32h7xx_ll_usb.c ****   *         Enables the controller's Global Int in the AHB Config reg
 223:Drivers/STM32H7xx_HAL_Driver/Src/stm32h7xx_ll_usb.c ****   * @param  USBx  Selected device
 224:Drivers/STM32H7xx_HAL_Driver/Src/stm32h7xx_ll_usb.c ****   * @retval HAL status
 225:Drivers/STM32H7xx_HAL_Driver/Src/stm32h7xx_ll_usb.c ****   */
 226:Drivers/STM32H7xx_HAL_Driver/Src/stm32h7xx_ll_usb.c **** HAL_StatusTypeDef USB_EnableGlobalInt(USB_OTG_GlobalTypeDef *USBx)
 227:Drivers/STM32H7xx_HAL_Driver/Src/stm32h7xx_ll_usb.c **** {
 228:Drivers/STM32H7xx_HAL_Driver/Src/stm32h7xx_ll_usb.c ****   USBx->GAHBCFG |= USB_OTG_GAHBCFG_GINT;
 229:Drivers/STM32H7xx_HAL_Driver/Src/stm32h7xx_ll_usb.c ****   return HAL_OK;
 230:Drivers/STM32H7xx_HAL_Driver/Src/stm32h7xx_ll_usb.c **** }
 231:Drivers/STM32H7xx_HAL_Driver/Src/stm32h7xx_ll_usb.c **** 
 232:Drivers/STM32H7xx_HAL_Driver/Src/stm32h7xx_ll_usb.c **** /**
 233:Drivers/STM32H7xx_HAL_Driver/Src/stm32h7xx_ll_usb.c ****   * @brief  USB_DisableGlobalInt
 234:Drivers/STM32H7xx_HAL_Driver/Src/stm32h7xx_ll_usb.c ****   *         Disable the controller's Global Int in the AHB Config reg
 235:Drivers/STM32H7xx_HAL_Driver/Src/stm32h7xx_ll_usb.c ****   * @param  USBx  Selected device
 236:Drivers/STM32H7xx_HAL_Driver/Src/stm32h7xx_ll_usb.c ****   * @retval HAL status
 237:Drivers/STM32H7xx_HAL_Driver/Src/stm32h7xx_ll_usb.c ****   */
 238:Drivers/STM32H7xx_HAL_Driver/Src/stm32h7xx_ll_usb.c **** HAL_StatusTypeDef USB_DisableGlobalInt(USB_OTG_GlobalTypeDef *USBx)
 239:Drivers/STM32H7xx_HAL_Driver/Src/stm32h7xx_ll_usb.c **** {
 240:Drivers/STM32H7xx_HAL_Driver/Src/stm32h7xx_ll_usb.c ****   USBx->GAHBCFG &= ~USB_OTG_GAHBCFG_GINT;
 241:Drivers/STM32H7xx_HAL_Driver/Src/stm32h7xx_ll_usb.c ****   return HAL_OK;
 242:Drivers/STM32H7xx_HAL_Driver/Src/stm32h7xx_ll_usb.c **** }
 243:Drivers/STM32H7xx_HAL_Driver/Src/stm32h7xx_ll_usb.c **** 
 244:Drivers/STM32H7xx_HAL_Driver/Src/stm32h7xx_ll_usb.c **** /**
 245:Drivers/STM32H7xx_HAL_Driver/Src/stm32h7xx_ll_usb.c ****   * @brief  USB_SetCurrentMode Set functional mode
 246:Drivers/STM32H7xx_HAL_Driver/Src/stm32h7xx_ll_usb.c ****   * @param  USBx  Selected device
 247:Drivers/STM32H7xx_HAL_Driver/Src/stm32h7xx_ll_usb.c ****   * @param  mode  current core mode
 248:Drivers/STM32H7xx_HAL_Driver/Src/stm32h7xx_ll_usb.c ****   *          This parameter can be one of these values:
 249:Drivers/STM32H7xx_HAL_Driver/Src/stm32h7xx_ll_usb.c ****   *            @arg USB_DEVICE_MODE Peripheral mode
 250:Drivers/STM32H7xx_HAL_Driver/Src/stm32h7xx_ll_usb.c ****   *            @arg USB_HOST_MODE Host mode
 251:Drivers/STM32H7xx_HAL_Driver/Src/stm32h7xx_ll_usb.c ****   * @retval HAL status
 252:Drivers/STM32H7xx_HAL_Driver/Src/stm32h7xx_ll_usb.c ****   */
 253:Drivers/STM32H7xx_HAL_Driver/Src/stm32h7xx_ll_usb.c **** HAL_StatusTypeDef USB_SetCurrentMode(USB_OTG_GlobalTypeDef *USBx, USB_OTG_ModeTypeDef mode)
 254:Drivers/STM32H7xx_HAL_Driver/Src/stm32h7xx_ll_usb.c **** {
 255:Drivers/STM32H7xx_HAL_Driver/Src/stm32h7xx_ll_usb.c ****   uint32_t ms = 0U;
 256:Drivers/STM32H7xx_HAL_Driver/Src/stm32h7xx_ll_usb.c **** 
 257:Drivers/STM32H7xx_HAL_Driver/Src/stm32h7xx_ll_usb.c ****   USBx->GUSBCFG &= ~(USB_OTG_GUSBCFG_FHMOD | USB_OTG_GUSBCFG_FDMOD);
 258:Drivers/STM32H7xx_HAL_Driver/Src/stm32h7xx_ll_usb.c **** 
 259:Drivers/STM32H7xx_HAL_Driver/Src/stm32h7xx_ll_usb.c ****   if (mode == USB_HOST_MODE)
ARM GAS  /tmp/ccdP7LVA.s 			page 6


 260:Drivers/STM32H7xx_HAL_Driver/Src/stm32h7xx_ll_usb.c ****   {
 261:Drivers/STM32H7xx_HAL_Driver/Src/stm32h7xx_ll_usb.c ****     USBx->GUSBCFG |= USB_OTG_GUSBCFG_FHMOD;
 262:Drivers/STM32H7xx_HAL_Driver/Src/stm32h7xx_ll_usb.c **** 
 263:Drivers/STM32H7xx_HAL_Driver/Src/stm32h7xx_ll_usb.c ****     do
 264:Drivers/STM32H7xx_HAL_Driver/Src/stm32h7xx_ll_usb.c ****     {
 265:Drivers/STM32H7xx_HAL_Driver/Src/stm32h7xx_ll_usb.c ****       HAL_Delay(10U);
 266:Drivers/STM32H7xx_HAL_Driver/Src/stm32h7xx_ll_usb.c ****       ms += 10U;
 267:Drivers/STM32H7xx_HAL_Driver/Src/stm32h7xx_ll_usb.c ****     } while ((USB_GetMode(USBx) != (uint32_t)USB_HOST_MODE) && (ms < HAL_USB_CURRENT_MODE_MAX_DELAY
 268:Drivers/STM32H7xx_HAL_Driver/Src/stm32h7xx_ll_usb.c ****   }
 269:Drivers/STM32H7xx_HAL_Driver/Src/stm32h7xx_ll_usb.c ****   else if (mode == USB_DEVICE_MODE)
 270:Drivers/STM32H7xx_HAL_Driver/Src/stm32h7xx_ll_usb.c ****   {
 271:Drivers/STM32H7xx_HAL_Driver/Src/stm32h7xx_ll_usb.c ****     USBx->GUSBCFG |= USB_OTG_GUSBCFG_FDMOD;
 272:Drivers/STM32H7xx_HAL_Driver/Src/stm32h7xx_ll_usb.c **** 
 273:Drivers/STM32H7xx_HAL_Driver/Src/stm32h7xx_ll_usb.c ****     do
 274:Drivers/STM32H7xx_HAL_Driver/Src/stm32h7xx_ll_usb.c ****     {
 275:Drivers/STM32H7xx_HAL_Driver/Src/stm32h7xx_ll_usb.c ****       HAL_Delay(10U);
 276:Drivers/STM32H7xx_HAL_Driver/Src/stm32h7xx_ll_usb.c ****       ms += 10U;
 277:Drivers/STM32H7xx_HAL_Driver/Src/stm32h7xx_ll_usb.c ****     } while ((USB_GetMode(USBx) != (uint32_t)USB_DEVICE_MODE) && (ms < HAL_USB_CURRENT_MODE_MAX_DEL
 278:Drivers/STM32H7xx_HAL_Driver/Src/stm32h7xx_ll_usb.c ****   }
 279:Drivers/STM32H7xx_HAL_Driver/Src/stm32h7xx_ll_usb.c ****   else
 280:Drivers/STM32H7xx_HAL_Driver/Src/stm32h7xx_ll_usb.c ****   {
 281:Drivers/STM32H7xx_HAL_Driver/Src/stm32h7xx_ll_usb.c ****     return HAL_ERROR;
 282:Drivers/STM32H7xx_HAL_Driver/Src/stm32h7xx_ll_usb.c ****   }
 283:Drivers/STM32H7xx_HAL_Driver/Src/stm32h7xx_ll_usb.c **** 
 284:Drivers/STM32H7xx_HAL_Driver/Src/stm32h7xx_ll_usb.c ****   if (ms == HAL_USB_CURRENT_MODE_MAX_DELAY_MS)
 285:Drivers/STM32H7xx_HAL_Driver/Src/stm32h7xx_ll_usb.c ****   {
 286:Drivers/STM32H7xx_HAL_Driver/Src/stm32h7xx_ll_usb.c ****     return HAL_ERROR;
 287:Drivers/STM32H7xx_HAL_Driver/Src/stm32h7xx_ll_usb.c ****   }
 288:Drivers/STM32H7xx_HAL_Driver/Src/stm32h7xx_ll_usb.c **** 
 289:Drivers/STM32H7xx_HAL_Driver/Src/stm32h7xx_ll_usb.c ****   return HAL_OK;
 290:Drivers/STM32H7xx_HAL_Driver/Src/stm32h7xx_ll_usb.c **** }
 291:Drivers/STM32H7xx_HAL_Driver/Src/stm32h7xx_ll_usb.c **** 
 292:Drivers/STM32H7xx_HAL_Driver/Src/stm32h7xx_ll_usb.c **** /**
 293:Drivers/STM32H7xx_HAL_Driver/Src/stm32h7xx_ll_usb.c ****   * @brief  USB_DevInit Initializes the USB_OTG controller registers
 294:Drivers/STM32H7xx_HAL_Driver/Src/stm32h7xx_ll_usb.c ****   *         for device mode
 295:Drivers/STM32H7xx_HAL_Driver/Src/stm32h7xx_ll_usb.c ****   * @param  USBx  Selected device
 296:Drivers/STM32H7xx_HAL_Driver/Src/stm32h7xx_ll_usb.c ****   * @param  cfg   pointer to a USB_OTG_CfgTypeDef structure that contains
 297:Drivers/STM32H7xx_HAL_Driver/Src/stm32h7xx_ll_usb.c ****   *         the configuration information for the specified USBx peripheral.
 298:Drivers/STM32H7xx_HAL_Driver/Src/stm32h7xx_ll_usb.c ****   * @retval HAL status
 299:Drivers/STM32H7xx_HAL_Driver/Src/stm32h7xx_ll_usb.c ****   */
 300:Drivers/STM32H7xx_HAL_Driver/Src/stm32h7xx_ll_usb.c **** HAL_StatusTypeDef USB_DevInit(USB_OTG_GlobalTypeDef *USBx, USB_OTG_CfgTypeDef cfg)
 301:Drivers/STM32H7xx_HAL_Driver/Src/stm32h7xx_ll_usb.c **** {
 302:Drivers/STM32H7xx_HAL_Driver/Src/stm32h7xx_ll_usb.c ****   HAL_StatusTypeDef ret = HAL_OK;
 303:Drivers/STM32H7xx_HAL_Driver/Src/stm32h7xx_ll_usb.c ****   uint32_t USBx_BASE = (uint32_t)USBx;
 304:Drivers/STM32H7xx_HAL_Driver/Src/stm32h7xx_ll_usb.c ****   uint32_t i;
 305:Drivers/STM32H7xx_HAL_Driver/Src/stm32h7xx_ll_usb.c **** 
 306:Drivers/STM32H7xx_HAL_Driver/Src/stm32h7xx_ll_usb.c ****   for (i = 0U; i < 15U; i++)
 307:Drivers/STM32H7xx_HAL_Driver/Src/stm32h7xx_ll_usb.c ****   {
 308:Drivers/STM32H7xx_HAL_Driver/Src/stm32h7xx_ll_usb.c ****     USBx->DIEPTXF[i] = 0U;
 309:Drivers/STM32H7xx_HAL_Driver/Src/stm32h7xx_ll_usb.c ****   }
 310:Drivers/STM32H7xx_HAL_Driver/Src/stm32h7xx_ll_usb.c **** 
 311:Drivers/STM32H7xx_HAL_Driver/Src/stm32h7xx_ll_usb.c ****   /* VBUS Sensing setup */
 312:Drivers/STM32H7xx_HAL_Driver/Src/stm32h7xx_ll_usb.c ****   if (cfg.vbus_sensing_enable == 0U)
 313:Drivers/STM32H7xx_HAL_Driver/Src/stm32h7xx_ll_usb.c ****   {
 314:Drivers/STM32H7xx_HAL_Driver/Src/stm32h7xx_ll_usb.c ****     USBx_DEVICE->DCTL |= USB_OTG_DCTL_SDIS;
 315:Drivers/STM32H7xx_HAL_Driver/Src/stm32h7xx_ll_usb.c **** 
 316:Drivers/STM32H7xx_HAL_Driver/Src/stm32h7xx_ll_usb.c ****     /* Deactivate VBUS Sensing B */
ARM GAS  /tmp/ccdP7LVA.s 			page 7


 317:Drivers/STM32H7xx_HAL_Driver/Src/stm32h7xx_ll_usb.c ****     USBx->GCCFG &= ~USB_OTG_GCCFG_VBDEN;
 318:Drivers/STM32H7xx_HAL_Driver/Src/stm32h7xx_ll_usb.c **** 
 319:Drivers/STM32H7xx_HAL_Driver/Src/stm32h7xx_ll_usb.c ****     /* B-peripheral session valid override enable */
 320:Drivers/STM32H7xx_HAL_Driver/Src/stm32h7xx_ll_usb.c ****     USBx->GOTGCTL |= USB_OTG_GOTGCTL_BVALOEN;
 321:Drivers/STM32H7xx_HAL_Driver/Src/stm32h7xx_ll_usb.c ****     USBx->GOTGCTL |= USB_OTG_GOTGCTL_BVALOVAL;
 322:Drivers/STM32H7xx_HAL_Driver/Src/stm32h7xx_ll_usb.c ****   }
 323:Drivers/STM32H7xx_HAL_Driver/Src/stm32h7xx_ll_usb.c ****   else
 324:Drivers/STM32H7xx_HAL_Driver/Src/stm32h7xx_ll_usb.c ****   {
 325:Drivers/STM32H7xx_HAL_Driver/Src/stm32h7xx_ll_usb.c ****     /* Enable HW VBUS sensing */
 326:Drivers/STM32H7xx_HAL_Driver/Src/stm32h7xx_ll_usb.c ****     USBx->GCCFG |= USB_OTG_GCCFG_VBDEN;
 327:Drivers/STM32H7xx_HAL_Driver/Src/stm32h7xx_ll_usb.c ****   }
 328:Drivers/STM32H7xx_HAL_Driver/Src/stm32h7xx_ll_usb.c **** 
 329:Drivers/STM32H7xx_HAL_Driver/Src/stm32h7xx_ll_usb.c ****   /* Restart the Phy Clock */
 330:Drivers/STM32H7xx_HAL_Driver/Src/stm32h7xx_ll_usb.c ****   USBx_PCGCCTL = 0U;
 331:Drivers/STM32H7xx_HAL_Driver/Src/stm32h7xx_ll_usb.c **** 
 332:Drivers/STM32H7xx_HAL_Driver/Src/stm32h7xx_ll_usb.c ****   if (cfg.phy_itface == USB_OTG_ULPI_PHY)
 333:Drivers/STM32H7xx_HAL_Driver/Src/stm32h7xx_ll_usb.c ****   {
 334:Drivers/STM32H7xx_HAL_Driver/Src/stm32h7xx_ll_usb.c ****     if (cfg.speed == USBD_HS_SPEED)
 335:Drivers/STM32H7xx_HAL_Driver/Src/stm32h7xx_ll_usb.c ****     {
 336:Drivers/STM32H7xx_HAL_Driver/Src/stm32h7xx_ll_usb.c ****       /* Set Core speed to High speed mode */
 337:Drivers/STM32H7xx_HAL_Driver/Src/stm32h7xx_ll_usb.c ****       (void)USB_SetDevSpeed(USBx, USB_OTG_SPEED_HIGH);
 338:Drivers/STM32H7xx_HAL_Driver/Src/stm32h7xx_ll_usb.c ****     }
 339:Drivers/STM32H7xx_HAL_Driver/Src/stm32h7xx_ll_usb.c ****     else
 340:Drivers/STM32H7xx_HAL_Driver/Src/stm32h7xx_ll_usb.c ****     {
 341:Drivers/STM32H7xx_HAL_Driver/Src/stm32h7xx_ll_usb.c ****       /* Set Core speed to Full speed mode */
 342:Drivers/STM32H7xx_HAL_Driver/Src/stm32h7xx_ll_usb.c ****       (void)USB_SetDevSpeed(USBx, USB_OTG_SPEED_HIGH_IN_FULL);
 343:Drivers/STM32H7xx_HAL_Driver/Src/stm32h7xx_ll_usb.c ****     }
 344:Drivers/STM32H7xx_HAL_Driver/Src/stm32h7xx_ll_usb.c ****   }
 345:Drivers/STM32H7xx_HAL_Driver/Src/stm32h7xx_ll_usb.c ****   else
 346:Drivers/STM32H7xx_HAL_Driver/Src/stm32h7xx_ll_usb.c ****   {
 347:Drivers/STM32H7xx_HAL_Driver/Src/stm32h7xx_ll_usb.c ****     /* Set Core speed to Full speed mode */
 348:Drivers/STM32H7xx_HAL_Driver/Src/stm32h7xx_ll_usb.c ****     (void)USB_SetDevSpeed(USBx, USB_OTG_SPEED_FULL);
 349:Drivers/STM32H7xx_HAL_Driver/Src/stm32h7xx_ll_usb.c ****   }
 350:Drivers/STM32H7xx_HAL_Driver/Src/stm32h7xx_ll_usb.c **** 
 351:Drivers/STM32H7xx_HAL_Driver/Src/stm32h7xx_ll_usb.c ****   /* Flush the FIFOs */
 352:Drivers/STM32H7xx_HAL_Driver/Src/stm32h7xx_ll_usb.c ****   if (USB_FlushTxFifo(USBx, 0x10U) != HAL_OK) /* all Tx FIFOs */
 353:Drivers/STM32H7xx_HAL_Driver/Src/stm32h7xx_ll_usb.c ****   {
 354:Drivers/STM32H7xx_HAL_Driver/Src/stm32h7xx_ll_usb.c ****     ret = HAL_ERROR;
 355:Drivers/STM32H7xx_HAL_Driver/Src/stm32h7xx_ll_usb.c ****   }
 356:Drivers/STM32H7xx_HAL_Driver/Src/stm32h7xx_ll_usb.c **** 
 357:Drivers/STM32H7xx_HAL_Driver/Src/stm32h7xx_ll_usb.c ****   if (USB_FlushRxFifo(USBx) != HAL_OK)
 358:Drivers/STM32H7xx_HAL_Driver/Src/stm32h7xx_ll_usb.c ****   {
 359:Drivers/STM32H7xx_HAL_Driver/Src/stm32h7xx_ll_usb.c ****     ret = HAL_ERROR;
 360:Drivers/STM32H7xx_HAL_Driver/Src/stm32h7xx_ll_usb.c ****   }
 361:Drivers/STM32H7xx_HAL_Driver/Src/stm32h7xx_ll_usb.c **** 
 362:Drivers/STM32H7xx_HAL_Driver/Src/stm32h7xx_ll_usb.c ****   /* Clear all pending Device Interrupts */
 363:Drivers/STM32H7xx_HAL_Driver/Src/stm32h7xx_ll_usb.c ****   USBx_DEVICE->DIEPMSK = 0U;
 364:Drivers/STM32H7xx_HAL_Driver/Src/stm32h7xx_ll_usb.c ****   USBx_DEVICE->DOEPMSK = 0U;
 365:Drivers/STM32H7xx_HAL_Driver/Src/stm32h7xx_ll_usb.c ****   USBx_DEVICE->DAINTMSK = 0U;
 366:Drivers/STM32H7xx_HAL_Driver/Src/stm32h7xx_ll_usb.c **** 
 367:Drivers/STM32H7xx_HAL_Driver/Src/stm32h7xx_ll_usb.c ****   for (i = 0U; i < cfg.dev_endpoints; i++)
 368:Drivers/STM32H7xx_HAL_Driver/Src/stm32h7xx_ll_usb.c ****   {
 369:Drivers/STM32H7xx_HAL_Driver/Src/stm32h7xx_ll_usb.c ****     if ((USBx_INEP(i)->DIEPCTL & USB_OTG_DIEPCTL_EPENA) == USB_OTG_DIEPCTL_EPENA)
 370:Drivers/STM32H7xx_HAL_Driver/Src/stm32h7xx_ll_usb.c ****     {
 371:Drivers/STM32H7xx_HAL_Driver/Src/stm32h7xx_ll_usb.c ****       if (i == 0U)
 372:Drivers/STM32H7xx_HAL_Driver/Src/stm32h7xx_ll_usb.c ****       {
 373:Drivers/STM32H7xx_HAL_Driver/Src/stm32h7xx_ll_usb.c ****         USBx_INEP(i)->DIEPCTL = USB_OTG_DIEPCTL_SNAK;
ARM GAS  /tmp/ccdP7LVA.s 			page 8


 374:Drivers/STM32H7xx_HAL_Driver/Src/stm32h7xx_ll_usb.c ****       }
 375:Drivers/STM32H7xx_HAL_Driver/Src/stm32h7xx_ll_usb.c ****       else
 376:Drivers/STM32H7xx_HAL_Driver/Src/stm32h7xx_ll_usb.c ****       {
 377:Drivers/STM32H7xx_HAL_Driver/Src/stm32h7xx_ll_usb.c ****         USBx_INEP(i)->DIEPCTL = USB_OTG_DIEPCTL_EPDIS | USB_OTG_DIEPCTL_SNAK;
 378:Drivers/STM32H7xx_HAL_Driver/Src/stm32h7xx_ll_usb.c ****       }
 379:Drivers/STM32H7xx_HAL_Driver/Src/stm32h7xx_ll_usb.c ****     }
 380:Drivers/STM32H7xx_HAL_Driver/Src/stm32h7xx_ll_usb.c ****     else
 381:Drivers/STM32H7xx_HAL_Driver/Src/stm32h7xx_ll_usb.c ****     {
 382:Drivers/STM32H7xx_HAL_Driver/Src/stm32h7xx_ll_usb.c ****       USBx_INEP(i)->DIEPCTL = 0U;
 383:Drivers/STM32H7xx_HAL_Driver/Src/stm32h7xx_ll_usb.c ****     }
 384:Drivers/STM32H7xx_HAL_Driver/Src/stm32h7xx_ll_usb.c **** 
 385:Drivers/STM32H7xx_HAL_Driver/Src/stm32h7xx_ll_usb.c ****     USBx_INEP(i)->DIEPTSIZ = 0U;
 386:Drivers/STM32H7xx_HAL_Driver/Src/stm32h7xx_ll_usb.c ****     USBx_INEP(i)->DIEPINT  = 0xFB7FU;
 387:Drivers/STM32H7xx_HAL_Driver/Src/stm32h7xx_ll_usb.c ****   }
 388:Drivers/STM32H7xx_HAL_Driver/Src/stm32h7xx_ll_usb.c **** 
 389:Drivers/STM32H7xx_HAL_Driver/Src/stm32h7xx_ll_usb.c ****   for (i = 0U; i < cfg.dev_endpoints; i++)
 390:Drivers/STM32H7xx_HAL_Driver/Src/stm32h7xx_ll_usb.c ****   {
 391:Drivers/STM32H7xx_HAL_Driver/Src/stm32h7xx_ll_usb.c ****     if ((USBx_OUTEP(i)->DOEPCTL & USB_OTG_DOEPCTL_EPENA) == USB_OTG_DOEPCTL_EPENA)
 392:Drivers/STM32H7xx_HAL_Driver/Src/stm32h7xx_ll_usb.c ****     {
 393:Drivers/STM32H7xx_HAL_Driver/Src/stm32h7xx_ll_usb.c ****       if (i == 0U)
 394:Drivers/STM32H7xx_HAL_Driver/Src/stm32h7xx_ll_usb.c ****       {
 395:Drivers/STM32H7xx_HAL_Driver/Src/stm32h7xx_ll_usb.c ****         USBx_OUTEP(i)->DOEPCTL = USB_OTG_DOEPCTL_SNAK;
 396:Drivers/STM32H7xx_HAL_Driver/Src/stm32h7xx_ll_usb.c ****       }
 397:Drivers/STM32H7xx_HAL_Driver/Src/stm32h7xx_ll_usb.c ****       else
 398:Drivers/STM32H7xx_HAL_Driver/Src/stm32h7xx_ll_usb.c ****       {
 399:Drivers/STM32H7xx_HAL_Driver/Src/stm32h7xx_ll_usb.c ****         USBx_OUTEP(i)->DOEPCTL = USB_OTG_DOEPCTL_EPDIS | USB_OTG_DOEPCTL_SNAK;
 400:Drivers/STM32H7xx_HAL_Driver/Src/stm32h7xx_ll_usb.c ****       }
 401:Drivers/STM32H7xx_HAL_Driver/Src/stm32h7xx_ll_usb.c ****     }
 402:Drivers/STM32H7xx_HAL_Driver/Src/stm32h7xx_ll_usb.c ****     else
 403:Drivers/STM32H7xx_HAL_Driver/Src/stm32h7xx_ll_usb.c ****     {
 404:Drivers/STM32H7xx_HAL_Driver/Src/stm32h7xx_ll_usb.c ****       USBx_OUTEP(i)->DOEPCTL = 0U;
 405:Drivers/STM32H7xx_HAL_Driver/Src/stm32h7xx_ll_usb.c ****     }
 406:Drivers/STM32H7xx_HAL_Driver/Src/stm32h7xx_ll_usb.c **** 
 407:Drivers/STM32H7xx_HAL_Driver/Src/stm32h7xx_ll_usb.c ****     USBx_OUTEP(i)->DOEPTSIZ = 0U;
 408:Drivers/STM32H7xx_HAL_Driver/Src/stm32h7xx_ll_usb.c ****     USBx_OUTEP(i)->DOEPINT  = 0xFB7FU;
 409:Drivers/STM32H7xx_HAL_Driver/Src/stm32h7xx_ll_usb.c ****   }
 410:Drivers/STM32H7xx_HAL_Driver/Src/stm32h7xx_ll_usb.c **** 
 411:Drivers/STM32H7xx_HAL_Driver/Src/stm32h7xx_ll_usb.c ****   USBx_DEVICE->DIEPMSK &= ~(USB_OTG_DIEPMSK_TXFURM);
 412:Drivers/STM32H7xx_HAL_Driver/Src/stm32h7xx_ll_usb.c **** 
 413:Drivers/STM32H7xx_HAL_Driver/Src/stm32h7xx_ll_usb.c ****   /* Disable all interrupts. */
 414:Drivers/STM32H7xx_HAL_Driver/Src/stm32h7xx_ll_usb.c ****   USBx->GINTMSK = 0U;
 415:Drivers/STM32H7xx_HAL_Driver/Src/stm32h7xx_ll_usb.c **** 
 416:Drivers/STM32H7xx_HAL_Driver/Src/stm32h7xx_ll_usb.c ****   /* Clear any pending interrupts */
 417:Drivers/STM32H7xx_HAL_Driver/Src/stm32h7xx_ll_usb.c ****   USBx->GINTSTS = 0xBFFFFFFFU;
 418:Drivers/STM32H7xx_HAL_Driver/Src/stm32h7xx_ll_usb.c **** 
 419:Drivers/STM32H7xx_HAL_Driver/Src/stm32h7xx_ll_usb.c ****   /* Enable the common interrupts */
 420:Drivers/STM32H7xx_HAL_Driver/Src/stm32h7xx_ll_usb.c ****   if (cfg.dma_enable == 0U)
 421:Drivers/STM32H7xx_HAL_Driver/Src/stm32h7xx_ll_usb.c ****   {
 422:Drivers/STM32H7xx_HAL_Driver/Src/stm32h7xx_ll_usb.c ****     USBx->GINTMSK |= USB_OTG_GINTMSK_RXFLVLM;
 423:Drivers/STM32H7xx_HAL_Driver/Src/stm32h7xx_ll_usb.c ****   }
 424:Drivers/STM32H7xx_HAL_Driver/Src/stm32h7xx_ll_usb.c **** 
 425:Drivers/STM32H7xx_HAL_Driver/Src/stm32h7xx_ll_usb.c ****   /* Enable interrupts matching to the Device mode ONLY */
 426:Drivers/STM32H7xx_HAL_Driver/Src/stm32h7xx_ll_usb.c ****   USBx->GINTMSK |= USB_OTG_GINTMSK_USBSUSPM | USB_OTG_GINTMSK_USBRST |
 427:Drivers/STM32H7xx_HAL_Driver/Src/stm32h7xx_ll_usb.c ****                    USB_OTG_GINTMSK_ENUMDNEM | USB_OTG_GINTMSK_IEPINT |
 428:Drivers/STM32H7xx_HAL_Driver/Src/stm32h7xx_ll_usb.c ****                    USB_OTG_GINTMSK_OEPINT   | USB_OTG_GINTMSK_IISOIXFRM |
 429:Drivers/STM32H7xx_HAL_Driver/Src/stm32h7xx_ll_usb.c ****                    USB_OTG_GINTMSK_PXFRM_IISOOXFRM | USB_OTG_GINTMSK_WUIM;
 430:Drivers/STM32H7xx_HAL_Driver/Src/stm32h7xx_ll_usb.c **** 
ARM GAS  /tmp/ccdP7LVA.s 			page 9


 431:Drivers/STM32H7xx_HAL_Driver/Src/stm32h7xx_ll_usb.c ****   if (cfg.Sof_enable != 0U)
 432:Drivers/STM32H7xx_HAL_Driver/Src/stm32h7xx_ll_usb.c ****   {
 433:Drivers/STM32H7xx_HAL_Driver/Src/stm32h7xx_ll_usb.c ****     USBx->GINTMSK |= USB_OTG_GINTMSK_SOFM;
 434:Drivers/STM32H7xx_HAL_Driver/Src/stm32h7xx_ll_usb.c ****   }
 435:Drivers/STM32H7xx_HAL_Driver/Src/stm32h7xx_ll_usb.c **** 
 436:Drivers/STM32H7xx_HAL_Driver/Src/stm32h7xx_ll_usb.c ****   if (cfg.vbus_sensing_enable == 1U)
 437:Drivers/STM32H7xx_HAL_Driver/Src/stm32h7xx_ll_usb.c ****   {
 438:Drivers/STM32H7xx_HAL_Driver/Src/stm32h7xx_ll_usb.c ****     USBx->GINTMSK |= (USB_OTG_GINTMSK_SRQIM | USB_OTG_GINTMSK_OTGINT);
 439:Drivers/STM32H7xx_HAL_Driver/Src/stm32h7xx_ll_usb.c ****   }
 440:Drivers/STM32H7xx_HAL_Driver/Src/stm32h7xx_ll_usb.c **** 
 441:Drivers/STM32H7xx_HAL_Driver/Src/stm32h7xx_ll_usb.c ****   return ret;
 442:Drivers/STM32H7xx_HAL_Driver/Src/stm32h7xx_ll_usb.c **** }
 443:Drivers/STM32H7xx_HAL_Driver/Src/stm32h7xx_ll_usb.c **** 
 444:Drivers/STM32H7xx_HAL_Driver/Src/stm32h7xx_ll_usb.c **** /**
 445:Drivers/STM32H7xx_HAL_Driver/Src/stm32h7xx_ll_usb.c ****   * @brief  USB_FlushTxFifo Flush a Tx FIFO
 446:Drivers/STM32H7xx_HAL_Driver/Src/stm32h7xx_ll_usb.c ****   * @param  USBx  Selected device
 447:Drivers/STM32H7xx_HAL_Driver/Src/stm32h7xx_ll_usb.c ****   * @param  num  FIFO number
 448:Drivers/STM32H7xx_HAL_Driver/Src/stm32h7xx_ll_usb.c ****   *         This parameter can be a value from 1 to 15
 449:Drivers/STM32H7xx_HAL_Driver/Src/stm32h7xx_ll_usb.c ****             15 means Flush all Tx FIFOs
 450:Drivers/STM32H7xx_HAL_Driver/Src/stm32h7xx_ll_usb.c ****   * @retval HAL status
 451:Drivers/STM32H7xx_HAL_Driver/Src/stm32h7xx_ll_usb.c ****   */
 452:Drivers/STM32H7xx_HAL_Driver/Src/stm32h7xx_ll_usb.c **** HAL_StatusTypeDef USB_FlushTxFifo(USB_OTG_GlobalTypeDef *USBx, uint32_t num)
 453:Drivers/STM32H7xx_HAL_Driver/Src/stm32h7xx_ll_usb.c **** {
 454:Drivers/STM32H7xx_HAL_Driver/Src/stm32h7xx_ll_usb.c ****   __IO uint32_t count = 0U;
 455:Drivers/STM32H7xx_HAL_Driver/Src/stm32h7xx_ll_usb.c **** 
 456:Drivers/STM32H7xx_HAL_Driver/Src/stm32h7xx_ll_usb.c ****   /* Wait for AHB master IDLE state. */
 457:Drivers/STM32H7xx_HAL_Driver/Src/stm32h7xx_ll_usb.c ****   do
 458:Drivers/STM32H7xx_HAL_Driver/Src/stm32h7xx_ll_usb.c ****   {
 459:Drivers/STM32H7xx_HAL_Driver/Src/stm32h7xx_ll_usb.c ****     count++;
 460:Drivers/STM32H7xx_HAL_Driver/Src/stm32h7xx_ll_usb.c **** 
 461:Drivers/STM32H7xx_HAL_Driver/Src/stm32h7xx_ll_usb.c ****     if (count > HAL_USB_TIMEOUT)
 462:Drivers/STM32H7xx_HAL_Driver/Src/stm32h7xx_ll_usb.c ****     {
 463:Drivers/STM32H7xx_HAL_Driver/Src/stm32h7xx_ll_usb.c ****       return HAL_TIMEOUT;
 464:Drivers/STM32H7xx_HAL_Driver/Src/stm32h7xx_ll_usb.c ****     }
 465:Drivers/STM32H7xx_HAL_Driver/Src/stm32h7xx_ll_usb.c ****   } while ((USBx->GRSTCTL & USB_OTG_GRSTCTL_AHBIDL) == 0U);
 466:Drivers/STM32H7xx_HAL_Driver/Src/stm32h7xx_ll_usb.c **** 
 467:Drivers/STM32H7xx_HAL_Driver/Src/stm32h7xx_ll_usb.c ****   /* Flush TX Fifo */
 468:Drivers/STM32H7xx_HAL_Driver/Src/stm32h7xx_ll_usb.c ****   count = 0U;
 469:Drivers/STM32H7xx_HAL_Driver/Src/stm32h7xx_ll_usb.c ****   USBx->GRSTCTL = (USB_OTG_GRSTCTL_TXFFLSH | (num << 6));
 470:Drivers/STM32H7xx_HAL_Driver/Src/stm32h7xx_ll_usb.c **** 
 471:Drivers/STM32H7xx_HAL_Driver/Src/stm32h7xx_ll_usb.c ****   do
 472:Drivers/STM32H7xx_HAL_Driver/Src/stm32h7xx_ll_usb.c ****   {
 473:Drivers/STM32H7xx_HAL_Driver/Src/stm32h7xx_ll_usb.c ****     count++;
 474:Drivers/STM32H7xx_HAL_Driver/Src/stm32h7xx_ll_usb.c **** 
 475:Drivers/STM32H7xx_HAL_Driver/Src/stm32h7xx_ll_usb.c ****     if (count > HAL_USB_TIMEOUT)
 476:Drivers/STM32H7xx_HAL_Driver/Src/stm32h7xx_ll_usb.c ****     {
 477:Drivers/STM32H7xx_HAL_Driver/Src/stm32h7xx_ll_usb.c ****       return HAL_TIMEOUT;
 478:Drivers/STM32H7xx_HAL_Driver/Src/stm32h7xx_ll_usb.c ****     }
 479:Drivers/STM32H7xx_HAL_Driver/Src/stm32h7xx_ll_usb.c ****   } while ((USBx->GRSTCTL & USB_OTG_GRSTCTL_TXFFLSH) == USB_OTG_GRSTCTL_TXFFLSH);
 480:Drivers/STM32H7xx_HAL_Driver/Src/stm32h7xx_ll_usb.c **** 
 481:Drivers/STM32H7xx_HAL_Driver/Src/stm32h7xx_ll_usb.c ****   return HAL_OK;
 482:Drivers/STM32H7xx_HAL_Driver/Src/stm32h7xx_ll_usb.c **** }
 483:Drivers/STM32H7xx_HAL_Driver/Src/stm32h7xx_ll_usb.c **** 
 484:Drivers/STM32H7xx_HAL_Driver/Src/stm32h7xx_ll_usb.c **** /**
 485:Drivers/STM32H7xx_HAL_Driver/Src/stm32h7xx_ll_usb.c ****   * @brief  USB_FlushRxFifo  Flush Rx FIFO
 486:Drivers/STM32H7xx_HAL_Driver/Src/stm32h7xx_ll_usb.c ****   * @param  USBx  Selected device
 487:Drivers/STM32H7xx_HAL_Driver/Src/stm32h7xx_ll_usb.c ****   * @retval HAL status
ARM GAS  /tmp/ccdP7LVA.s 			page 10


 488:Drivers/STM32H7xx_HAL_Driver/Src/stm32h7xx_ll_usb.c ****   */
 489:Drivers/STM32H7xx_HAL_Driver/Src/stm32h7xx_ll_usb.c **** HAL_StatusTypeDef USB_FlushRxFifo(USB_OTG_GlobalTypeDef *USBx)
 490:Drivers/STM32H7xx_HAL_Driver/Src/stm32h7xx_ll_usb.c **** {
 491:Drivers/STM32H7xx_HAL_Driver/Src/stm32h7xx_ll_usb.c ****   __IO uint32_t count = 0U;
 492:Drivers/STM32H7xx_HAL_Driver/Src/stm32h7xx_ll_usb.c **** 
 493:Drivers/STM32H7xx_HAL_Driver/Src/stm32h7xx_ll_usb.c ****   /* Wait for AHB master IDLE state. */
 494:Drivers/STM32H7xx_HAL_Driver/Src/stm32h7xx_ll_usb.c ****   do
 495:Drivers/STM32H7xx_HAL_Driver/Src/stm32h7xx_ll_usb.c ****   {
 496:Drivers/STM32H7xx_HAL_Driver/Src/stm32h7xx_ll_usb.c ****     count++;
 497:Drivers/STM32H7xx_HAL_Driver/Src/stm32h7xx_ll_usb.c **** 
 498:Drivers/STM32H7xx_HAL_Driver/Src/stm32h7xx_ll_usb.c ****     if (count > HAL_USB_TIMEOUT)
 499:Drivers/STM32H7xx_HAL_Driver/Src/stm32h7xx_ll_usb.c ****     {
 500:Drivers/STM32H7xx_HAL_Driver/Src/stm32h7xx_ll_usb.c ****       return HAL_TIMEOUT;
 501:Drivers/STM32H7xx_HAL_Driver/Src/stm32h7xx_ll_usb.c ****     }
 502:Drivers/STM32H7xx_HAL_Driver/Src/stm32h7xx_ll_usb.c ****   } while ((USBx->GRSTCTL & USB_OTG_GRSTCTL_AHBIDL) == 0U);
 503:Drivers/STM32H7xx_HAL_Driver/Src/stm32h7xx_ll_usb.c **** 
 504:Drivers/STM32H7xx_HAL_Driver/Src/stm32h7xx_ll_usb.c ****   /* Flush RX Fifo */
 505:Drivers/STM32H7xx_HAL_Driver/Src/stm32h7xx_ll_usb.c ****   count = 0U;
 506:Drivers/STM32H7xx_HAL_Driver/Src/stm32h7xx_ll_usb.c ****   USBx->GRSTCTL = USB_OTG_GRSTCTL_RXFFLSH;
 507:Drivers/STM32H7xx_HAL_Driver/Src/stm32h7xx_ll_usb.c **** 
 508:Drivers/STM32H7xx_HAL_Driver/Src/stm32h7xx_ll_usb.c ****   do
 509:Drivers/STM32H7xx_HAL_Driver/Src/stm32h7xx_ll_usb.c ****   {
 510:Drivers/STM32H7xx_HAL_Driver/Src/stm32h7xx_ll_usb.c ****     count++;
 511:Drivers/STM32H7xx_HAL_Driver/Src/stm32h7xx_ll_usb.c **** 
 512:Drivers/STM32H7xx_HAL_Driver/Src/stm32h7xx_ll_usb.c ****     if (count > HAL_USB_TIMEOUT)
 513:Drivers/STM32H7xx_HAL_Driver/Src/stm32h7xx_ll_usb.c ****     {
 514:Drivers/STM32H7xx_HAL_Driver/Src/stm32h7xx_ll_usb.c ****       return HAL_TIMEOUT;
 515:Drivers/STM32H7xx_HAL_Driver/Src/stm32h7xx_ll_usb.c ****     }
 516:Drivers/STM32H7xx_HAL_Driver/Src/stm32h7xx_ll_usb.c ****   } while ((USBx->GRSTCTL & USB_OTG_GRSTCTL_RXFFLSH) == USB_OTG_GRSTCTL_RXFFLSH);
 517:Drivers/STM32H7xx_HAL_Driver/Src/stm32h7xx_ll_usb.c **** 
 518:Drivers/STM32H7xx_HAL_Driver/Src/stm32h7xx_ll_usb.c ****   return HAL_OK;
 519:Drivers/STM32H7xx_HAL_Driver/Src/stm32h7xx_ll_usb.c **** }
 520:Drivers/STM32H7xx_HAL_Driver/Src/stm32h7xx_ll_usb.c **** 
 521:Drivers/STM32H7xx_HAL_Driver/Src/stm32h7xx_ll_usb.c **** /**
 522:Drivers/STM32H7xx_HAL_Driver/Src/stm32h7xx_ll_usb.c ****   * @brief  USB_SetDevSpeed  Initializes the DevSpd field of DCFG register
 523:Drivers/STM32H7xx_HAL_Driver/Src/stm32h7xx_ll_usb.c ****   *         depending the PHY type and the enumeration speed of the device.
 524:Drivers/STM32H7xx_HAL_Driver/Src/stm32h7xx_ll_usb.c ****   * @param  USBx  Selected device
 525:Drivers/STM32H7xx_HAL_Driver/Src/stm32h7xx_ll_usb.c ****   * @param  speed  device speed
 526:Drivers/STM32H7xx_HAL_Driver/Src/stm32h7xx_ll_usb.c ****   *          This parameter can be one of these values:
 527:Drivers/STM32H7xx_HAL_Driver/Src/stm32h7xx_ll_usb.c ****   *            @arg USB_OTG_SPEED_HIGH: High speed mode
 528:Drivers/STM32H7xx_HAL_Driver/Src/stm32h7xx_ll_usb.c ****   *            @arg USB_OTG_SPEED_HIGH_IN_FULL: High speed core in Full Speed mode
 529:Drivers/STM32H7xx_HAL_Driver/Src/stm32h7xx_ll_usb.c ****   *            @arg USB_OTG_SPEED_FULL: Full speed mode
 530:Drivers/STM32H7xx_HAL_Driver/Src/stm32h7xx_ll_usb.c ****   * @retval  Hal status
 531:Drivers/STM32H7xx_HAL_Driver/Src/stm32h7xx_ll_usb.c ****   */
 532:Drivers/STM32H7xx_HAL_Driver/Src/stm32h7xx_ll_usb.c **** HAL_StatusTypeDef USB_SetDevSpeed(const USB_OTG_GlobalTypeDef *USBx, uint8_t speed)
 533:Drivers/STM32H7xx_HAL_Driver/Src/stm32h7xx_ll_usb.c **** {
 534:Drivers/STM32H7xx_HAL_Driver/Src/stm32h7xx_ll_usb.c ****   uint32_t USBx_BASE = (uint32_t)USBx;
 535:Drivers/STM32H7xx_HAL_Driver/Src/stm32h7xx_ll_usb.c **** 
 536:Drivers/STM32H7xx_HAL_Driver/Src/stm32h7xx_ll_usb.c ****   USBx_DEVICE->DCFG |= speed;
 537:Drivers/STM32H7xx_HAL_Driver/Src/stm32h7xx_ll_usb.c ****   return HAL_OK;
 538:Drivers/STM32H7xx_HAL_Driver/Src/stm32h7xx_ll_usb.c **** }
 539:Drivers/STM32H7xx_HAL_Driver/Src/stm32h7xx_ll_usb.c **** 
 540:Drivers/STM32H7xx_HAL_Driver/Src/stm32h7xx_ll_usb.c **** /**
 541:Drivers/STM32H7xx_HAL_Driver/Src/stm32h7xx_ll_usb.c ****   * @brief  USB_GetDevSpeed  Return the Dev Speed
 542:Drivers/STM32H7xx_HAL_Driver/Src/stm32h7xx_ll_usb.c ****   * @param  USBx  Selected device
 543:Drivers/STM32H7xx_HAL_Driver/Src/stm32h7xx_ll_usb.c ****   * @retval speed  device speed
 544:Drivers/STM32H7xx_HAL_Driver/Src/stm32h7xx_ll_usb.c ****   *          This parameter can be one of these values:
ARM GAS  /tmp/ccdP7LVA.s 			page 11


 545:Drivers/STM32H7xx_HAL_Driver/Src/stm32h7xx_ll_usb.c ****   *            @arg USBD_HS_SPEED: High speed mode
 546:Drivers/STM32H7xx_HAL_Driver/Src/stm32h7xx_ll_usb.c ****   *            @arg USBD_FS_SPEED: Full speed mode
 547:Drivers/STM32H7xx_HAL_Driver/Src/stm32h7xx_ll_usb.c ****   */
 548:Drivers/STM32H7xx_HAL_Driver/Src/stm32h7xx_ll_usb.c **** uint8_t USB_GetDevSpeed(const USB_OTG_GlobalTypeDef *USBx)
 549:Drivers/STM32H7xx_HAL_Driver/Src/stm32h7xx_ll_usb.c **** {
 550:Drivers/STM32H7xx_HAL_Driver/Src/stm32h7xx_ll_usb.c ****   uint32_t USBx_BASE = (uint32_t)USBx;
 551:Drivers/STM32H7xx_HAL_Driver/Src/stm32h7xx_ll_usb.c ****   uint8_t speed;
 552:Drivers/STM32H7xx_HAL_Driver/Src/stm32h7xx_ll_usb.c ****   uint32_t DevEnumSpeed = USBx_DEVICE->DSTS & USB_OTG_DSTS_ENUMSPD;
 553:Drivers/STM32H7xx_HAL_Driver/Src/stm32h7xx_ll_usb.c **** 
 554:Drivers/STM32H7xx_HAL_Driver/Src/stm32h7xx_ll_usb.c ****   if (DevEnumSpeed == DSTS_ENUMSPD_HS_PHY_30MHZ_OR_60MHZ)
 555:Drivers/STM32H7xx_HAL_Driver/Src/stm32h7xx_ll_usb.c ****   {
 556:Drivers/STM32H7xx_HAL_Driver/Src/stm32h7xx_ll_usb.c ****     speed = USBD_HS_SPEED;
 557:Drivers/STM32H7xx_HAL_Driver/Src/stm32h7xx_ll_usb.c ****   }
 558:Drivers/STM32H7xx_HAL_Driver/Src/stm32h7xx_ll_usb.c ****   else if ((DevEnumSpeed == DSTS_ENUMSPD_FS_PHY_30MHZ_OR_60MHZ) ||
 559:Drivers/STM32H7xx_HAL_Driver/Src/stm32h7xx_ll_usb.c ****            (DevEnumSpeed == DSTS_ENUMSPD_FS_PHY_48MHZ))
 560:Drivers/STM32H7xx_HAL_Driver/Src/stm32h7xx_ll_usb.c ****   {
 561:Drivers/STM32H7xx_HAL_Driver/Src/stm32h7xx_ll_usb.c ****     speed = USBD_FS_SPEED;
 562:Drivers/STM32H7xx_HAL_Driver/Src/stm32h7xx_ll_usb.c ****   }
 563:Drivers/STM32H7xx_HAL_Driver/Src/stm32h7xx_ll_usb.c ****   else
 564:Drivers/STM32H7xx_HAL_Driver/Src/stm32h7xx_ll_usb.c ****   {
 565:Drivers/STM32H7xx_HAL_Driver/Src/stm32h7xx_ll_usb.c ****     speed = 0xFU;
 566:Drivers/STM32H7xx_HAL_Driver/Src/stm32h7xx_ll_usb.c ****   }
 567:Drivers/STM32H7xx_HAL_Driver/Src/stm32h7xx_ll_usb.c **** 
 568:Drivers/STM32H7xx_HAL_Driver/Src/stm32h7xx_ll_usb.c ****   return speed;
 569:Drivers/STM32H7xx_HAL_Driver/Src/stm32h7xx_ll_usb.c **** }
 570:Drivers/STM32H7xx_HAL_Driver/Src/stm32h7xx_ll_usb.c **** 
 571:Drivers/STM32H7xx_HAL_Driver/Src/stm32h7xx_ll_usb.c **** /**
 572:Drivers/STM32H7xx_HAL_Driver/Src/stm32h7xx_ll_usb.c ****   * @brief  Activate and configure an endpoint
 573:Drivers/STM32H7xx_HAL_Driver/Src/stm32h7xx_ll_usb.c ****   * @param  USBx  Selected device
 574:Drivers/STM32H7xx_HAL_Driver/Src/stm32h7xx_ll_usb.c ****   * @param  ep pointer to endpoint structure
 575:Drivers/STM32H7xx_HAL_Driver/Src/stm32h7xx_ll_usb.c ****   * @retval HAL status
 576:Drivers/STM32H7xx_HAL_Driver/Src/stm32h7xx_ll_usb.c ****   */
 577:Drivers/STM32H7xx_HAL_Driver/Src/stm32h7xx_ll_usb.c **** HAL_StatusTypeDef USB_ActivateEndpoint(const USB_OTG_GlobalTypeDef *USBx, const USB_OTG_EPTypeDef *
 578:Drivers/STM32H7xx_HAL_Driver/Src/stm32h7xx_ll_usb.c **** {
 579:Drivers/STM32H7xx_HAL_Driver/Src/stm32h7xx_ll_usb.c ****   uint32_t USBx_BASE = (uint32_t)USBx;
 580:Drivers/STM32H7xx_HAL_Driver/Src/stm32h7xx_ll_usb.c ****   uint32_t epnum = (uint32_t)ep->num;
 581:Drivers/STM32H7xx_HAL_Driver/Src/stm32h7xx_ll_usb.c **** 
 582:Drivers/STM32H7xx_HAL_Driver/Src/stm32h7xx_ll_usb.c ****   if (ep->is_in == 1U)
 583:Drivers/STM32H7xx_HAL_Driver/Src/stm32h7xx_ll_usb.c ****   {
 584:Drivers/STM32H7xx_HAL_Driver/Src/stm32h7xx_ll_usb.c ****     USBx_DEVICE->DAINTMSK |= USB_OTG_DAINTMSK_IEPM & (uint32_t)(1UL << (ep->num & EP_ADDR_MSK));
 585:Drivers/STM32H7xx_HAL_Driver/Src/stm32h7xx_ll_usb.c **** 
 586:Drivers/STM32H7xx_HAL_Driver/Src/stm32h7xx_ll_usb.c ****     if ((USBx_INEP(epnum)->DIEPCTL & USB_OTG_DIEPCTL_USBAEP) == 0U)
 587:Drivers/STM32H7xx_HAL_Driver/Src/stm32h7xx_ll_usb.c ****     {
 588:Drivers/STM32H7xx_HAL_Driver/Src/stm32h7xx_ll_usb.c ****       USBx_INEP(epnum)->DIEPCTL |= (ep->maxpacket & USB_OTG_DIEPCTL_MPSIZ) |
 589:Drivers/STM32H7xx_HAL_Driver/Src/stm32h7xx_ll_usb.c ****                                    ((uint32_t)ep->type << 18) | (epnum << 22) |
 590:Drivers/STM32H7xx_HAL_Driver/Src/stm32h7xx_ll_usb.c ****                                    USB_OTG_DIEPCTL_SD0PID_SEVNFRM |
 591:Drivers/STM32H7xx_HAL_Driver/Src/stm32h7xx_ll_usb.c ****                                    USB_OTG_DIEPCTL_USBAEP;
 592:Drivers/STM32H7xx_HAL_Driver/Src/stm32h7xx_ll_usb.c ****     }
 593:Drivers/STM32H7xx_HAL_Driver/Src/stm32h7xx_ll_usb.c ****   }
 594:Drivers/STM32H7xx_HAL_Driver/Src/stm32h7xx_ll_usb.c ****   else
 595:Drivers/STM32H7xx_HAL_Driver/Src/stm32h7xx_ll_usb.c ****   {
 596:Drivers/STM32H7xx_HAL_Driver/Src/stm32h7xx_ll_usb.c ****     USBx_DEVICE->DAINTMSK |= USB_OTG_DAINTMSK_OEPM & ((uint32_t)(1UL << (ep->num & EP_ADDR_MSK)) <<
 597:Drivers/STM32H7xx_HAL_Driver/Src/stm32h7xx_ll_usb.c **** 
 598:Drivers/STM32H7xx_HAL_Driver/Src/stm32h7xx_ll_usb.c ****     if (((USBx_OUTEP(epnum)->DOEPCTL) & USB_OTG_DOEPCTL_USBAEP) == 0U)
 599:Drivers/STM32H7xx_HAL_Driver/Src/stm32h7xx_ll_usb.c ****     {
 600:Drivers/STM32H7xx_HAL_Driver/Src/stm32h7xx_ll_usb.c ****       USBx_OUTEP(epnum)->DOEPCTL |= (ep->maxpacket & USB_OTG_DOEPCTL_MPSIZ) |
 601:Drivers/STM32H7xx_HAL_Driver/Src/stm32h7xx_ll_usb.c ****                                     ((uint32_t)ep->type << 18) |
ARM GAS  /tmp/ccdP7LVA.s 			page 12


 602:Drivers/STM32H7xx_HAL_Driver/Src/stm32h7xx_ll_usb.c ****                                     USB_OTG_DIEPCTL_SD0PID_SEVNFRM |
 603:Drivers/STM32H7xx_HAL_Driver/Src/stm32h7xx_ll_usb.c ****                                     USB_OTG_DOEPCTL_USBAEP;
 604:Drivers/STM32H7xx_HAL_Driver/Src/stm32h7xx_ll_usb.c ****     }
 605:Drivers/STM32H7xx_HAL_Driver/Src/stm32h7xx_ll_usb.c ****   }
 606:Drivers/STM32H7xx_HAL_Driver/Src/stm32h7xx_ll_usb.c ****   return HAL_OK;
 607:Drivers/STM32H7xx_HAL_Driver/Src/stm32h7xx_ll_usb.c **** }
 608:Drivers/STM32H7xx_HAL_Driver/Src/stm32h7xx_ll_usb.c **** 
 609:Drivers/STM32H7xx_HAL_Driver/Src/stm32h7xx_ll_usb.c **** /**
 610:Drivers/STM32H7xx_HAL_Driver/Src/stm32h7xx_ll_usb.c ****   * @brief  Activate and configure a dedicated endpoint
 611:Drivers/STM32H7xx_HAL_Driver/Src/stm32h7xx_ll_usb.c ****   * @param  USBx  Selected device
 612:Drivers/STM32H7xx_HAL_Driver/Src/stm32h7xx_ll_usb.c ****   * @param  ep pointer to endpoint structure
 613:Drivers/STM32H7xx_HAL_Driver/Src/stm32h7xx_ll_usb.c ****   * @retval HAL status
 614:Drivers/STM32H7xx_HAL_Driver/Src/stm32h7xx_ll_usb.c ****   */
 615:Drivers/STM32H7xx_HAL_Driver/Src/stm32h7xx_ll_usb.c **** HAL_StatusTypeDef USB_ActivateDedicatedEndpoint(const USB_OTG_GlobalTypeDef *USBx, const USB_OTG_EP
 616:Drivers/STM32H7xx_HAL_Driver/Src/stm32h7xx_ll_usb.c **** {
 617:Drivers/STM32H7xx_HAL_Driver/Src/stm32h7xx_ll_usb.c ****   uint32_t USBx_BASE = (uint32_t)USBx;
 618:Drivers/STM32H7xx_HAL_Driver/Src/stm32h7xx_ll_usb.c ****   uint32_t epnum = (uint32_t)ep->num;
 619:Drivers/STM32H7xx_HAL_Driver/Src/stm32h7xx_ll_usb.c **** 
 620:Drivers/STM32H7xx_HAL_Driver/Src/stm32h7xx_ll_usb.c ****   /* Read DEPCTLn register */
 621:Drivers/STM32H7xx_HAL_Driver/Src/stm32h7xx_ll_usb.c ****   if (ep->is_in == 1U)
 622:Drivers/STM32H7xx_HAL_Driver/Src/stm32h7xx_ll_usb.c ****   {
 623:Drivers/STM32H7xx_HAL_Driver/Src/stm32h7xx_ll_usb.c ****     if (((USBx_INEP(epnum)->DIEPCTL) & USB_OTG_DIEPCTL_USBAEP) == 0U)
 624:Drivers/STM32H7xx_HAL_Driver/Src/stm32h7xx_ll_usb.c ****     {
 625:Drivers/STM32H7xx_HAL_Driver/Src/stm32h7xx_ll_usb.c ****       USBx_INEP(epnum)->DIEPCTL |= (ep->maxpacket & USB_OTG_DIEPCTL_MPSIZ) |
 626:Drivers/STM32H7xx_HAL_Driver/Src/stm32h7xx_ll_usb.c ****                                    ((uint32_t)ep->type << 18) | (epnum << 22) |
 627:Drivers/STM32H7xx_HAL_Driver/Src/stm32h7xx_ll_usb.c ****                                    USB_OTG_DIEPCTL_SD0PID_SEVNFRM |
 628:Drivers/STM32H7xx_HAL_Driver/Src/stm32h7xx_ll_usb.c ****                                    USB_OTG_DIEPCTL_USBAEP;
 629:Drivers/STM32H7xx_HAL_Driver/Src/stm32h7xx_ll_usb.c ****     }
 630:Drivers/STM32H7xx_HAL_Driver/Src/stm32h7xx_ll_usb.c **** 
 631:Drivers/STM32H7xx_HAL_Driver/Src/stm32h7xx_ll_usb.c ****     USBx_DEVICE->DEACHMSK |= USB_OTG_DAINTMSK_IEPM & (uint32_t)(1UL << (ep->num & EP_ADDR_MSK));
 632:Drivers/STM32H7xx_HAL_Driver/Src/stm32h7xx_ll_usb.c ****   }
 633:Drivers/STM32H7xx_HAL_Driver/Src/stm32h7xx_ll_usb.c ****   else
 634:Drivers/STM32H7xx_HAL_Driver/Src/stm32h7xx_ll_usb.c ****   {
 635:Drivers/STM32H7xx_HAL_Driver/Src/stm32h7xx_ll_usb.c ****     if (((USBx_OUTEP(epnum)->DOEPCTL) & USB_OTG_DOEPCTL_USBAEP) == 0U)
 636:Drivers/STM32H7xx_HAL_Driver/Src/stm32h7xx_ll_usb.c ****     {
 637:Drivers/STM32H7xx_HAL_Driver/Src/stm32h7xx_ll_usb.c ****       USBx_OUTEP(epnum)->DOEPCTL |= (ep->maxpacket & USB_OTG_DOEPCTL_MPSIZ) |
 638:Drivers/STM32H7xx_HAL_Driver/Src/stm32h7xx_ll_usb.c ****                                     ((uint32_t)ep->type << 18) | (epnum << 22) |
 639:Drivers/STM32H7xx_HAL_Driver/Src/stm32h7xx_ll_usb.c ****                                     USB_OTG_DOEPCTL_USBAEP;
 640:Drivers/STM32H7xx_HAL_Driver/Src/stm32h7xx_ll_usb.c ****     }
 641:Drivers/STM32H7xx_HAL_Driver/Src/stm32h7xx_ll_usb.c **** 
 642:Drivers/STM32H7xx_HAL_Driver/Src/stm32h7xx_ll_usb.c ****     USBx_DEVICE->DEACHMSK |= USB_OTG_DAINTMSK_OEPM & ((uint32_t)(1UL << (ep->num & EP_ADDR_MSK)) <<
 643:Drivers/STM32H7xx_HAL_Driver/Src/stm32h7xx_ll_usb.c ****   }
 644:Drivers/STM32H7xx_HAL_Driver/Src/stm32h7xx_ll_usb.c **** 
 645:Drivers/STM32H7xx_HAL_Driver/Src/stm32h7xx_ll_usb.c ****   return HAL_OK;
 646:Drivers/STM32H7xx_HAL_Driver/Src/stm32h7xx_ll_usb.c **** }
 647:Drivers/STM32H7xx_HAL_Driver/Src/stm32h7xx_ll_usb.c **** 
 648:Drivers/STM32H7xx_HAL_Driver/Src/stm32h7xx_ll_usb.c **** /**
 649:Drivers/STM32H7xx_HAL_Driver/Src/stm32h7xx_ll_usb.c ****   * @brief  De-activate and de-initialize an endpoint
 650:Drivers/STM32H7xx_HAL_Driver/Src/stm32h7xx_ll_usb.c ****   * @param  USBx  Selected device
 651:Drivers/STM32H7xx_HAL_Driver/Src/stm32h7xx_ll_usb.c ****   * @param  ep pointer to endpoint structure
 652:Drivers/STM32H7xx_HAL_Driver/Src/stm32h7xx_ll_usb.c ****   * @retval HAL status
 653:Drivers/STM32H7xx_HAL_Driver/Src/stm32h7xx_ll_usb.c ****   */
 654:Drivers/STM32H7xx_HAL_Driver/Src/stm32h7xx_ll_usb.c **** HAL_StatusTypeDef USB_DeactivateEndpoint(const USB_OTG_GlobalTypeDef *USBx, const USB_OTG_EPTypeDef
 655:Drivers/STM32H7xx_HAL_Driver/Src/stm32h7xx_ll_usb.c **** {
 656:Drivers/STM32H7xx_HAL_Driver/Src/stm32h7xx_ll_usb.c ****   uint32_t USBx_BASE = (uint32_t)USBx;
 657:Drivers/STM32H7xx_HAL_Driver/Src/stm32h7xx_ll_usb.c ****   uint32_t epnum = (uint32_t)ep->num;
 658:Drivers/STM32H7xx_HAL_Driver/Src/stm32h7xx_ll_usb.c **** 
ARM GAS  /tmp/ccdP7LVA.s 			page 13


 659:Drivers/STM32H7xx_HAL_Driver/Src/stm32h7xx_ll_usb.c ****   /* Read DEPCTLn register */
 660:Drivers/STM32H7xx_HAL_Driver/Src/stm32h7xx_ll_usb.c ****   if (ep->is_in == 1U)
 661:Drivers/STM32H7xx_HAL_Driver/Src/stm32h7xx_ll_usb.c ****   {
 662:Drivers/STM32H7xx_HAL_Driver/Src/stm32h7xx_ll_usb.c ****     if ((USBx_INEP(epnum)->DIEPCTL & USB_OTG_DIEPCTL_EPENA) == USB_OTG_DIEPCTL_EPENA)
 663:Drivers/STM32H7xx_HAL_Driver/Src/stm32h7xx_ll_usb.c ****     {
 664:Drivers/STM32H7xx_HAL_Driver/Src/stm32h7xx_ll_usb.c ****       USBx_INEP(epnum)->DIEPCTL |= USB_OTG_DIEPCTL_SNAK;
 665:Drivers/STM32H7xx_HAL_Driver/Src/stm32h7xx_ll_usb.c ****       USBx_INEP(epnum)->DIEPCTL |= USB_OTG_DIEPCTL_EPDIS;
 666:Drivers/STM32H7xx_HAL_Driver/Src/stm32h7xx_ll_usb.c ****     }
 667:Drivers/STM32H7xx_HAL_Driver/Src/stm32h7xx_ll_usb.c **** 
 668:Drivers/STM32H7xx_HAL_Driver/Src/stm32h7xx_ll_usb.c ****     USBx_DEVICE->DEACHMSK &= ~(USB_OTG_DAINTMSK_IEPM & (uint32_t)(1UL << (ep->num & EP_ADDR_MSK)));
 669:Drivers/STM32H7xx_HAL_Driver/Src/stm32h7xx_ll_usb.c ****     USBx_DEVICE->DAINTMSK &= ~(USB_OTG_DAINTMSK_IEPM & (uint32_t)(1UL << (ep->num & EP_ADDR_MSK)));
 670:Drivers/STM32H7xx_HAL_Driver/Src/stm32h7xx_ll_usb.c ****     USBx_INEP(epnum)->DIEPCTL &= ~(USB_OTG_DIEPCTL_USBAEP |
 671:Drivers/STM32H7xx_HAL_Driver/Src/stm32h7xx_ll_usb.c ****                                    USB_OTG_DIEPCTL_MPSIZ |
 672:Drivers/STM32H7xx_HAL_Driver/Src/stm32h7xx_ll_usb.c ****                                    USB_OTG_DIEPCTL_TXFNUM |
 673:Drivers/STM32H7xx_HAL_Driver/Src/stm32h7xx_ll_usb.c ****                                    USB_OTG_DIEPCTL_SD0PID_SEVNFRM |
 674:Drivers/STM32H7xx_HAL_Driver/Src/stm32h7xx_ll_usb.c ****                                    USB_OTG_DIEPCTL_EPTYP);
 675:Drivers/STM32H7xx_HAL_Driver/Src/stm32h7xx_ll_usb.c ****   }
 676:Drivers/STM32H7xx_HAL_Driver/Src/stm32h7xx_ll_usb.c ****   else
 677:Drivers/STM32H7xx_HAL_Driver/Src/stm32h7xx_ll_usb.c ****   {
 678:Drivers/STM32H7xx_HAL_Driver/Src/stm32h7xx_ll_usb.c ****     if ((USBx_OUTEP(epnum)->DOEPCTL & USB_OTG_DOEPCTL_EPENA) == USB_OTG_DOEPCTL_EPENA)
 679:Drivers/STM32H7xx_HAL_Driver/Src/stm32h7xx_ll_usb.c ****     {
 680:Drivers/STM32H7xx_HAL_Driver/Src/stm32h7xx_ll_usb.c ****       USBx_OUTEP(epnum)->DOEPCTL |= USB_OTG_DOEPCTL_SNAK;
 681:Drivers/STM32H7xx_HAL_Driver/Src/stm32h7xx_ll_usb.c ****       USBx_OUTEP(epnum)->DOEPCTL |= USB_OTG_DOEPCTL_EPDIS;
 682:Drivers/STM32H7xx_HAL_Driver/Src/stm32h7xx_ll_usb.c ****     }
 683:Drivers/STM32H7xx_HAL_Driver/Src/stm32h7xx_ll_usb.c **** 
 684:Drivers/STM32H7xx_HAL_Driver/Src/stm32h7xx_ll_usb.c ****     USBx_DEVICE->DEACHMSK &= ~(USB_OTG_DAINTMSK_OEPM & ((uint32_t)(1UL << (ep->num & EP_ADDR_MSK)) 
 685:Drivers/STM32H7xx_HAL_Driver/Src/stm32h7xx_ll_usb.c ****     USBx_DEVICE->DAINTMSK &= ~(USB_OTG_DAINTMSK_OEPM & ((uint32_t)(1UL << (ep->num & EP_ADDR_MSK)) 
 686:Drivers/STM32H7xx_HAL_Driver/Src/stm32h7xx_ll_usb.c ****     USBx_OUTEP(epnum)->DOEPCTL &= ~(USB_OTG_DOEPCTL_USBAEP |
 687:Drivers/STM32H7xx_HAL_Driver/Src/stm32h7xx_ll_usb.c ****                                     USB_OTG_DOEPCTL_MPSIZ |
 688:Drivers/STM32H7xx_HAL_Driver/Src/stm32h7xx_ll_usb.c ****                                     USB_OTG_DOEPCTL_SD0PID_SEVNFRM |
 689:Drivers/STM32H7xx_HAL_Driver/Src/stm32h7xx_ll_usb.c ****                                     USB_OTG_DOEPCTL_EPTYP);
 690:Drivers/STM32H7xx_HAL_Driver/Src/stm32h7xx_ll_usb.c ****   }
 691:Drivers/STM32H7xx_HAL_Driver/Src/stm32h7xx_ll_usb.c **** 
 692:Drivers/STM32H7xx_HAL_Driver/Src/stm32h7xx_ll_usb.c ****   return HAL_OK;
 693:Drivers/STM32H7xx_HAL_Driver/Src/stm32h7xx_ll_usb.c **** }
 694:Drivers/STM32H7xx_HAL_Driver/Src/stm32h7xx_ll_usb.c **** 
 695:Drivers/STM32H7xx_HAL_Driver/Src/stm32h7xx_ll_usb.c **** /**
 696:Drivers/STM32H7xx_HAL_Driver/Src/stm32h7xx_ll_usb.c ****   * @brief  De-activate and de-initialize a dedicated endpoint
 697:Drivers/STM32H7xx_HAL_Driver/Src/stm32h7xx_ll_usb.c ****   * @param  USBx  Selected device
 698:Drivers/STM32H7xx_HAL_Driver/Src/stm32h7xx_ll_usb.c ****   * @param  ep pointer to endpoint structure
 699:Drivers/STM32H7xx_HAL_Driver/Src/stm32h7xx_ll_usb.c ****   * @retval HAL status
 700:Drivers/STM32H7xx_HAL_Driver/Src/stm32h7xx_ll_usb.c ****   */
 701:Drivers/STM32H7xx_HAL_Driver/Src/stm32h7xx_ll_usb.c **** HAL_StatusTypeDef USB_DeactivateDedicatedEndpoint(const USB_OTG_GlobalTypeDef *USBx, const USB_OTG_
 702:Drivers/STM32H7xx_HAL_Driver/Src/stm32h7xx_ll_usb.c **** {
 703:Drivers/STM32H7xx_HAL_Driver/Src/stm32h7xx_ll_usb.c ****   uint32_t USBx_BASE = (uint32_t)USBx;
 704:Drivers/STM32H7xx_HAL_Driver/Src/stm32h7xx_ll_usb.c ****   uint32_t epnum = (uint32_t)ep->num;
 705:Drivers/STM32H7xx_HAL_Driver/Src/stm32h7xx_ll_usb.c **** 
 706:Drivers/STM32H7xx_HAL_Driver/Src/stm32h7xx_ll_usb.c ****   /* Read DEPCTLn register */
 707:Drivers/STM32H7xx_HAL_Driver/Src/stm32h7xx_ll_usb.c ****   if (ep->is_in == 1U)
 708:Drivers/STM32H7xx_HAL_Driver/Src/stm32h7xx_ll_usb.c ****   {
 709:Drivers/STM32H7xx_HAL_Driver/Src/stm32h7xx_ll_usb.c ****     if ((USBx_INEP(epnum)->DIEPCTL & USB_OTG_DIEPCTL_EPENA) == USB_OTG_DIEPCTL_EPENA)
 710:Drivers/STM32H7xx_HAL_Driver/Src/stm32h7xx_ll_usb.c ****     {
 711:Drivers/STM32H7xx_HAL_Driver/Src/stm32h7xx_ll_usb.c ****       USBx_INEP(epnum)->DIEPCTL  |= USB_OTG_DIEPCTL_SNAK;
 712:Drivers/STM32H7xx_HAL_Driver/Src/stm32h7xx_ll_usb.c ****       USBx_INEP(epnum)->DIEPCTL  |= USB_OTG_DIEPCTL_EPDIS;
 713:Drivers/STM32H7xx_HAL_Driver/Src/stm32h7xx_ll_usb.c ****     }
 714:Drivers/STM32H7xx_HAL_Driver/Src/stm32h7xx_ll_usb.c **** 
 715:Drivers/STM32H7xx_HAL_Driver/Src/stm32h7xx_ll_usb.c ****     USBx_INEP(epnum)->DIEPCTL &= ~ USB_OTG_DIEPCTL_USBAEP;
ARM GAS  /tmp/ccdP7LVA.s 			page 14


 716:Drivers/STM32H7xx_HAL_Driver/Src/stm32h7xx_ll_usb.c ****     USBx_DEVICE->DAINTMSK &= ~(USB_OTG_DAINTMSK_IEPM & (uint32_t)(1UL << (ep->num & EP_ADDR_MSK)));
 717:Drivers/STM32H7xx_HAL_Driver/Src/stm32h7xx_ll_usb.c ****   }
 718:Drivers/STM32H7xx_HAL_Driver/Src/stm32h7xx_ll_usb.c ****   else
 719:Drivers/STM32H7xx_HAL_Driver/Src/stm32h7xx_ll_usb.c ****   {
 720:Drivers/STM32H7xx_HAL_Driver/Src/stm32h7xx_ll_usb.c ****     if ((USBx_OUTEP(epnum)->DOEPCTL & USB_OTG_DOEPCTL_EPENA) == USB_OTG_DOEPCTL_EPENA)
 721:Drivers/STM32H7xx_HAL_Driver/Src/stm32h7xx_ll_usb.c ****     {
 722:Drivers/STM32H7xx_HAL_Driver/Src/stm32h7xx_ll_usb.c ****       USBx_OUTEP(epnum)->DOEPCTL  |= USB_OTG_DOEPCTL_SNAK;
 723:Drivers/STM32H7xx_HAL_Driver/Src/stm32h7xx_ll_usb.c ****       USBx_OUTEP(epnum)->DOEPCTL  |= USB_OTG_DOEPCTL_EPDIS;
 724:Drivers/STM32H7xx_HAL_Driver/Src/stm32h7xx_ll_usb.c ****     }
 725:Drivers/STM32H7xx_HAL_Driver/Src/stm32h7xx_ll_usb.c **** 
 726:Drivers/STM32H7xx_HAL_Driver/Src/stm32h7xx_ll_usb.c ****     USBx_OUTEP(epnum)->DOEPCTL &= ~USB_OTG_DOEPCTL_USBAEP;
 727:Drivers/STM32H7xx_HAL_Driver/Src/stm32h7xx_ll_usb.c ****     USBx_DEVICE->DAINTMSK &= ~(USB_OTG_DAINTMSK_OEPM & ((uint32_t)(1UL << (ep->num & EP_ADDR_MSK)) 
 728:Drivers/STM32H7xx_HAL_Driver/Src/stm32h7xx_ll_usb.c ****   }
 729:Drivers/STM32H7xx_HAL_Driver/Src/stm32h7xx_ll_usb.c **** 
 730:Drivers/STM32H7xx_HAL_Driver/Src/stm32h7xx_ll_usb.c ****   return HAL_OK;
 731:Drivers/STM32H7xx_HAL_Driver/Src/stm32h7xx_ll_usb.c **** }
 732:Drivers/STM32H7xx_HAL_Driver/Src/stm32h7xx_ll_usb.c **** 
 733:Drivers/STM32H7xx_HAL_Driver/Src/stm32h7xx_ll_usb.c **** /**
 734:Drivers/STM32H7xx_HAL_Driver/Src/stm32h7xx_ll_usb.c ****   * @brief  USB_EPStartXfer : setup and starts a transfer over an EP
 735:Drivers/STM32H7xx_HAL_Driver/Src/stm32h7xx_ll_usb.c ****   * @param  USBx  Selected device
 736:Drivers/STM32H7xx_HAL_Driver/Src/stm32h7xx_ll_usb.c ****   * @param  ep pointer to endpoint structure
 737:Drivers/STM32H7xx_HAL_Driver/Src/stm32h7xx_ll_usb.c ****   * @param  dma USB dma enabled or disabled
 738:Drivers/STM32H7xx_HAL_Driver/Src/stm32h7xx_ll_usb.c ****   *          This parameter can be one of these values:
 739:Drivers/STM32H7xx_HAL_Driver/Src/stm32h7xx_ll_usb.c ****   *           0 : DMA feature not used
 740:Drivers/STM32H7xx_HAL_Driver/Src/stm32h7xx_ll_usb.c ****   *           1 : DMA feature used
 741:Drivers/STM32H7xx_HAL_Driver/Src/stm32h7xx_ll_usb.c ****   * @retval HAL status
 742:Drivers/STM32H7xx_HAL_Driver/Src/stm32h7xx_ll_usb.c ****   */
 743:Drivers/STM32H7xx_HAL_Driver/Src/stm32h7xx_ll_usb.c **** HAL_StatusTypeDef USB_EPStartXfer(USB_OTG_GlobalTypeDef *USBx, USB_OTG_EPTypeDef *ep, uint8_t dma)
 744:Drivers/STM32H7xx_HAL_Driver/Src/stm32h7xx_ll_usb.c **** {
 745:Drivers/STM32H7xx_HAL_Driver/Src/stm32h7xx_ll_usb.c ****   uint32_t USBx_BASE = (uint32_t)USBx;
 746:Drivers/STM32H7xx_HAL_Driver/Src/stm32h7xx_ll_usb.c ****   uint32_t epnum = (uint32_t)ep->num;
 747:Drivers/STM32H7xx_HAL_Driver/Src/stm32h7xx_ll_usb.c ****   uint16_t pktcnt;
 748:Drivers/STM32H7xx_HAL_Driver/Src/stm32h7xx_ll_usb.c **** 
 749:Drivers/STM32H7xx_HAL_Driver/Src/stm32h7xx_ll_usb.c ****   /* IN endpoint */
 750:Drivers/STM32H7xx_HAL_Driver/Src/stm32h7xx_ll_usb.c ****   if (ep->is_in == 1U)
 751:Drivers/STM32H7xx_HAL_Driver/Src/stm32h7xx_ll_usb.c ****   {
 752:Drivers/STM32H7xx_HAL_Driver/Src/stm32h7xx_ll_usb.c ****     /* Zero Length Packet? */
 753:Drivers/STM32H7xx_HAL_Driver/Src/stm32h7xx_ll_usb.c ****     if (ep->xfer_len == 0U)
 754:Drivers/STM32H7xx_HAL_Driver/Src/stm32h7xx_ll_usb.c ****     {
 755:Drivers/STM32H7xx_HAL_Driver/Src/stm32h7xx_ll_usb.c ****       USBx_INEP(epnum)->DIEPTSIZ &= ~(USB_OTG_DIEPTSIZ_PKTCNT);
 756:Drivers/STM32H7xx_HAL_Driver/Src/stm32h7xx_ll_usb.c ****       USBx_INEP(epnum)->DIEPTSIZ |= (USB_OTG_DIEPTSIZ_PKTCNT & (1U << 19));
 757:Drivers/STM32H7xx_HAL_Driver/Src/stm32h7xx_ll_usb.c ****       USBx_INEP(epnum)->DIEPTSIZ &= ~(USB_OTG_DIEPTSIZ_XFRSIZ);
 758:Drivers/STM32H7xx_HAL_Driver/Src/stm32h7xx_ll_usb.c ****     }
 759:Drivers/STM32H7xx_HAL_Driver/Src/stm32h7xx_ll_usb.c ****     else
 760:Drivers/STM32H7xx_HAL_Driver/Src/stm32h7xx_ll_usb.c ****     {
 761:Drivers/STM32H7xx_HAL_Driver/Src/stm32h7xx_ll_usb.c ****       /* Program the transfer size and packet count
 762:Drivers/STM32H7xx_HAL_Driver/Src/stm32h7xx_ll_usb.c ****       * as follows: xfersize = N * maxpacket +
 763:Drivers/STM32H7xx_HAL_Driver/Src/stm32h7xx_ll_usb.c ****       * short_packet pktcnt = N + (short_packet
 764:Drivers/STM32H7xx_HAL_Driver/Src/stm32h7xx_ll_usb.c ****       * exist ? 1 : 0)
 765:Drivers/STM32H7xx_HAL_Driver/Src/stm32h7xx_ll_usb.c ****       */
 766:Drivers/STM32H7xx_HAL_Driver/Src/stm32h7xx_ll_usb.c ****       USBx_INEP(epnum)->DIEPTSIZ &= ~(USB_OTG_DIEPTSIZ_XFRSIZ);
 767:Drivers/STM32H7xx_HAL_Driver/Src/stm32h7xx_ll_usb.c ****       USBx_INEP(epnum)->DIEPTSIZ &= ~(USB_OTG_DIEPTSIZ_PKTCNT);
 768:Drivers/STM32H7xx_HAL_Driver/Src/stm32h7xx_ll_usb.c **** 
 769:Drivers/STM32H7xx_HAL_Driver/Src/stm32h7xx_ll_usb.c ****       if (epnum == 0U)
 770:Drivers/STM32H7xx_HAL_Driver/Src/stm32h7xx_ll_usb.c ****       {
 771:Drivers/STM32H7xx_HAL_Driver/Src/stm32h7xx_ll_usb.c ****         if (ep->xfer_len > ep->maxpacket)
 772:Drivers/STM32H7xx_HAL_Driver/Src/stm32h7xx_ll_usb.c ****         {
ARM GAS  /tmp/ccdP7LVA.s 			page 15


 773:Drivers/STM32H7xx_HAL_Driver/Src/stm32h7xx_ll_usb.c ****           ep->xfer_len = ep->maxpacket;
 774:Drivers/STM32H7xx_HAL_Driver/Src/stm32h7xx_ll_usb.c ****         }
 775:Drivers/STM32H7xx_HAL_Driver/Src/stm32h7xx_ll_usb.c **** 
 776:Drivers/STM32H7xx_HAL_Driver/Src/stm32h7xx_ll_usb.c ****         USBx_INEP(epnum)->DIEPTSIZ |= (USB_OTG_DIEPTSIZ_PKTCNT & (1U << 19));
 777:Drivers/STM32H7xx_HAL_Driver/Src/stm32h7xx_ll_usb.c ****       }
 778:Drivers/STM32H7xx_HAL_Driver/Src/stm32h7xx_ll_usb.c ****       else
 779:Drivers/STM32H7xx_HAL_Driver/Src/stm32h7xx_ll_usb.c ****       {
 780:Drivers/STM32H7xx_HAL_Driver/Src/stm32h7xx_ll_usb.c ****         USBx_INEP(epnum)->DIEPTSIZ |= (USB_OTG_DIEPTSIZ_PKTCNT &
 781:Drivers/STM32H7xx_HAL_Driver/Src/stm32h7xx_ll_usb.c ****                                        (((ep->xfer_len + ep->maxpacket - 1U) / ep->maxpacket) << 19
 782:Drivers/STM32H7xx_HAL_Driver/Src/stm32h7xx_ll_usb.c ****       }
 783:Drivers/STM32H7xx_HAL_Driver/Src/stm32h7xx_ll_usb.c **** 
 784:Drivers/STM32H7xx_HAL_Driver/Src/stm32h7xx_ll_usb.c ****       USBx_INEP(epnum)->DIEPTSIZ |= (USB_OTG_DIEPTSIZ_XFRSIZ & ep->xfer_len);
 785:Drivers/STM32H7xx_HAL_Driver/Src/stm32h7xx_ll_usb.c **** 
 786:Drivers/STM32H7xx_HAL_Driver/Src/stm32h7xx_ll_usb.c ****       if (ep->type == EP_TYPE_ISOC)
 787:Drivers/STM32H7xx_HAL_Driver/Src/stm32h7xx_ll_usb.c ****       {
 788:Drivers/STM32H7xx_HAL_Driver/Src/stm32h7xx_ll_usb.c ****         USBx_INEP(epnum)->DIEPTSIZ &= ~(USB_OTG_DIEPTSIZ_MULCNT);
 789:Drivers/STM32H7xx_HAL_Driver/Src/stm32h7xx_ll_usb.c ****         USBx_INEP(epnum)->DIEPTSIZ |= (USB_OTG_DIEPTSIZ_MULCNT & (1U << 29));
 790:Drivers/STM32H7xx_HAL_Driver/Src/stm32h7xx_ll_usb.c ****       }
 791:Drivers/STM32H7xx_HAL_Driver/Src/stm32h7xx_ll_usb.c ****     }
 792:Drivers/STM32H7xx_HAL_Driver/Src/stm32h7xx_ll_usb.c **** 
 793:Drivers/STM32H7xx_HAL_Driver/Src/stm32h7xx_ll_usb.c ****     if (dma == 1U)
 794:Drivers/STM32H7xx_HAL_Driver/Src/stm32h7xx_ll_usb.c ****     {
 795:Drivers/STM32H7xx_HAL_Driver/Src/stm32h7xx_ll_usb.c ****       if ((uint32_t)ep->dma_addr != 0U)
 796:Drivers/STM32H7xx_HAL_Driver/Src/stm32h7xx_ll_usb.c ****       {
 797:Drivers/STM32H7xx_HAL_Driver/Src/stm32h7xx_ll_usb.c ****         USBx_INEP(epnum)->DIEPDMA = (uint32_t)(ep->dma_addr);
 798:Drivers/STM32H7xx_HAL_Driver/Src/stm32h7xx_ll_usb.c ****       }
 799:Drivers/STM32H7xx_HAL_Driver/Src/stm32h7xx_ll_usb.c **** 
 800:Drivers/STM32H7xx_HAL_Driver/Src/stm32h7xx_ll_usb.c ****       if (ep->type == EP_TYPE_ISOC)
 801:Drivers/STM32H7xx_HAL_Driver/Src/stm32h7xx_ll_usb.c ****       {
 802:Drivers/STM32H7xx_HAL_Driver/Src/stm32h7xx_ll_usb.c ****         if ((USBx_DEVICE->DSTS & (1U << 8)) == 0U)
 803:Drivers/STM32H7xx_HAL_Driver/Src/stm32h7xx_ll_usb.c ****         {
 804:Drivers/STM32H7xx_HAL_Driver/Src/stm32h7xx_ll_usb.c ****           USBx_INEP(epnum)->DIEPCTL |= USB_OTG_DIEPCTL_SODDFRM;
 805:Drivers/STM32H7xx_HAL_Driver/Src/stm32h7xx_ll_usb.c ****         }
 806:Drivers/STM32H7xx_HAL_Driver/Src/stm32h7xx_ll_usb.c ****         else
 807:Drivers/STM32H7xx_HAL_Driver/Src/stm32h7xx_ll_usb.c ****         {
 808:Drivers/STM32H7xx_HAL_Driver/Src/stm32h7xx_ll_usb.c ****           USBx_INEP(epnum)->DIEPCTL |= USB_OTG_DIEPCTL_SD0PID_SEVNFRM;
 809:Drivers/STM32H7xx_HAL_Driver/Src/stm32h7xx_ll_usb.c ****         }
 810:Drivers/STM32H7xx_HAL_Driver/Src/stm32h7xx_ll_usb.c ****       }
 811:Drivers/STM32H7xx_HAL_Driver/Src/stm32h7xx_ll_usb.c **** 
 812:Drivers/STM32H7xx_HAL_Driver/Src/stm32h7xx_ll_usb.c ****       /* EP enable, IN data in FIFO */
 813:Drivers/STM32H7xx_HAL_Driver/Src/stm32h7xx_ll_usb.c ****       USBx_INEP(epnum)->DIEPCTL |= (USB_OTG_DIEPCTL_CNAK | USB_OTG_DIEPCTL_EPENA);
 814:Drivers/STM32H7xx_HAL_Driver/Src/stm32h7xx_ll_usb.c ****     }
 815:Drivers/STM32H7xx_HAL_Driver/Src/stm32h7xx_ll_usb.c ****     else
 816:Drivers/STM32H7xx_HAL_Driver/Src/stm32h7xx_ll_usb.c ****     {
 817:Drivers/STM32H7xx_HAL_Driver/Src/stm32h7xx_ll_usb.c ****       /* EP enable, IN data in FIFO */
 818:Drivers/STM32H7xx_HAL_Driver/Src/stm32h7xx_ll_usb.c ****       USBx_INEP(epnum)->DIEPCTL |= (USB_OTG_DIEPCTL_CNAK | USB_OTG_DIEPCTL_EPENA);
 819:Drivers/STM32H7xx_HAL_Driver/Src/stm32h7xx_ll_usb.c **** 
 820:Drivers/STM32H7xx_HAL_Driver/Src/stm32h7xx_ll_usb.c ****       if (ep->type != EP_TYPE_ISOC)
 821:Drivers/STM32H7xx_HAL_Driver/Src/stm32h7xx_ll_usb.c ****       {
 822:Drivers/STM32H7xx_HAL_Driver/Src/stm32h7xx_ll_usb.c ****         /* Enable the Tx FIFO Empty Interrupt for this EP */
 823:Drivers/STM32H7xx_HAL_Driver/Src/stm32h7xx_ll_usb.c ****         if (ep->xfer_len > 0U)
 824:Drivers/STM32H7xx_HAL_Driver/Src/stm32h7xx_ll_usb.c ****         {
 825:Drivers/STM32H7xx_HAL_Driver/Src/stm32h7xx_ll_usb.c ****           USBx_DEVICE->DIEPEMPMSK |= 1UL << (ep->num & EP_ADDR_MSK);
 826:Drivers/STM32H7xx_HAL_Driver/Src/stm32h7xx_ll_usb.c ****         }
 827:Drivers/STM32H7xx_HAL_Driver/Src/stm32h7xx_ll_usb.c ****       }
 828:Drivers/STM32H7xx_HAL_Driver/Src/stm32h7xx_ll_usb.c ****       else
 829:Drivers/STM32H7xx_HAL_Driver/Src/stm32h7xx_ll_usb.c ****       {
ARM GAS  /tmp/ccdP7LVA.s 			page 16


 830:Drivers/STM32H7xx_HAL_Driver/Src/stm32h7xx_ll_usb.c ****         if ((USBx_DEVICE->DSTS & (1U << 8)) == 0U)
 831:Drivers/STM32H7xx_HAL_Driver/Src/stm32h7xx_ll_usb.c ****         {
 832:Drivers/STM32H7xx_HAL_Driver/Src/stm32h7xx_ll_usb.c ****           USBx_INEP(epnum)->DIEPCTL |= USB_OTG_DIEPCTL_SODDFRM;
 833:Drivers/STM32H7xx_HAL_Driver/Src/stm32h7xx_ll_usb.c ****         }
 834:Drivers/STM32H7xx_HAL_Driver/Src/stm32h7xx_ll_usb.c ****         else
 835:Drivers/STM32H7xx_HAL_Driver/Src/stm32h7xx_ll_usb.c ****         {
 836:Drivers/STM32H7xx_HAL_Driver/Src/stm32h7xx_ll_usb.c ****           USBx_INEP(epnum)->DIEPCTL |= USB_OTG_DIEPCTL_SD0PID_SEVNFRM;
 837:Drivers/STM32H7xx_HAL_Driver/Src/stm32h7xx_ll_usb.c ****         }
 838:Drivers/STM32H7xx_HAL_Driver/Src/stm32h7xx_ll_usb.c **** 
 839:Drivers/STM32H7xx_HAL_Driver/Src/stm32h7xx_ll_usb.c ****         (void)USB_WritePacket(USBx, ep->xfer_buff, ep->num, (uint16_t)ep->xfer_len, dma);
 840:Drivers/STM32H7xx_HAL_Driver/Src/stm32h7xx_ll_usb.c ****       }
 841:Drivers/STM32H7xx_HAL_Driver/Src/stm32h7xx_ll_usb.c ****     }
 842:Drivers/STM32H7xx_HAL_Driver/Src/stm32h7xx_ll_usb.c ****   }
 843:Drivers/STM32H7xx_HAL_Driver/Src/stm32h7xx_ll_usb.c ****   else /* OUT endpoint */
 844:Drivers/STM32H7xx_HAL_Driver/Src/stm32h7xx_ll_usb.c ****   {
 845:Drivers/STM32H7xx_HAL_Driver/Src/stm32h7xx_ll_usb.c ****     /* Program the transfer size and packet count as follows:
 846:Drivers/STM32H7xx_HAL_Driver/Src/stm32h7xx_ll_usb.c ****     * pktcnt = N
 847:Drivers/STM32H7xx_HAL_Driver/Src/stm32h7xx_ll_usb.c ****     * xfersize = N * maxpacket
 848:Drivers/STM32H7xx_HAL_Driver/Src/stm32h7xx_ll_usb.c ****     */
 849:Drivers/STM32H7xx_HAL_Driver/Src/stm32h7xx_ll_usb.c ****     USBx_OUTEP(epnum)->DOEPTSIZ &= ~(USB_OTG_DOEPTSIZ_XFRSIZ);
 850:Drivers/STM32H7xx_HAL_Driver/Src/stm32h7xx_ll_usb.c ****     USBx_OUTEP(epnum)->DOEPTSIZ &= ~(USB_OTG_DOEPTSIZ_PKTCNT);
 851:Drivers/STM32H7xx_HAL_Driver/Src/stm32h7xx_ll_usb.c **** 
 852:Drivers/STM32H7xx_HAL_Driver/Src/stm32h7xx_ll_usb.c ****     if (epnum == 0U)
 853:Drivers/STM32H7xx_HAL_Driver/Src/stm32h7xx_ll_usb.c ****     {
 854:Drivers/STM32H7xx_HAL_Driver/Src/stm32h7xx_ll_usb.c ****       if (ep->xfer_len > 0U)
 855:Drivers/STM32H7xx_HAL_Driver/Src/stm32h7xx_ll_usb.c ****       {
 856:Drivers/STM32H7xx_HAL_Driver/Src/stm32h7xx_ll_usb.c ****         ep->xfer_len = ep->maxpacket;
 857:Drivers/STM32H7xx_HAL_Driver/Src/stm32h7xx_ll_usb.c ****       }
 858:Drivers/STM32H7xx_HAL_Driver/Src/stm32h7xx_ll_usb.c **** 
 859:Drivers/STM32H7xx_HAL_Driver/Src/stm32h7xx_ll_usb.c ****       /* Store transfer size, for EP0 this is equal to endpoint max packet size */
 860:Drivers/STM32H7xx_HAL_Driver/Src/stm32h7xx_ll_usb.c ****       ep->xfer_size = ep->maxpacket;
 861:Drivers/STM32H7xx_HAL_Driver/Src/stm32h7xx_ll_usb.c **** 
 862:Drivers/STM32H7xx_HAL_Driver/Src/stm32h7xx_ll_usb.c ****       USBx_OUTEP(epnum)->DOEPTSIZ |= (USB_OTG_DOEPTSIZ_XFRSIZ & ep->xfer_size);
 863:Drivers/STM32H7xx_HAL_Driver/Src/stm32h7xx_ll_usb.c ****       USBx_OUTEP(epnum)->DOEPTSIZ |= (USB_OTG_DOEPTSIZ_PKTCNT & (1U << 19));
 864:Drivers/STM32H7xx_HAL_Driver/Src/stm32h7xx_ll_usb.c ****     }
 865:Drivers/STM32H7xx_HAL_Driver/Src/stm32h7xx_ll_usb.c ****     else
 866:Drivers/STM32H7xx_HAL_Driver/Src/stm32h7xx_ll_usb.c ****     {
 867:Drivers/STM32H7xx_HAL_Driver/Src/stm32h7xx_ll_usb.c ****       if (ep->xfer_len == 0U)
 868:Drivers/STM32H7xx_HAL_Driver/Src/stm32h7xx_ll_usb.c ****       {
 869:Drivers/STM32H7xx_HAL_Driver/Src/stm32h7xx_ll_usb.c ****         USBx_OUTEP(epnum)->DOEPTSIZ |= (USB_OTG_DOEPTSIZ_XFRSIZ & ep->maxpacket);
 870:Drivers/STM32H7xx_HAL_Driver/Src/stm32h7xx_ll_usb.c ****         USBx_OUTEP(epnum)->DOEPTSIZ |= (USB_OTG_DOEPTSIZ_PKTCNT & (1U << 19));
 871:Drivers/STM32H7xx_HAL_Driver/Src/stm32h7xx_ll_usb.c ****       }
 872:Drivers/STM32H7xx_HAL_Driver/Src/stm32h7xx_ll_usb.c ****       else
 873:Drivers/STM32H7xx_HAL_Driver/Src/stm32h7xx_ll_usb.c ****       {
 874:Drivers/STM32H7xx_HAL_Driver/Src/stm32h7xx_ll_usb.c ****         pktcnt = (uint16_t)((ep->xfer_len + ep->maxpacket - 1U) / ep->maxpacket);
 875:Drivers/STM32H7xx_HAL_Driver/Src/stm32h7xx_ll_usb.c ****         ep->xfer_size = ep->maxpacket * pktcnt;
 876:Drivers/STM32H7xx_HAL_Driver/Src/stm32h7xx_ll_usb.c **** 
 877:Drivers/STM32H7xx_HAL_Driver/Src/stm32h7xx_ll_usb.c ****         USBx_OUTEP(epnum)->DOEPTSIZ |= USB_OTG_DOEPTSIZ_PKTCNT & ((uint32_t)pktcnt << 19);
 878:Drivers/STM32H7xx_HAL_Driver/Src/stm32h7xx_ll_usb.c ****         USBx_OUTEP(epnum)->DOEPTSIZ |= USB_OTG_DOEPTSIZ_XFRSIZ & ep->xfer_size;
 879:Drivers/STM32H7xx_HAL_Driver/Src/stm32h7xx_ll_usb.c ****       }
 880:Drivers/STM32H7xx_HAL_Driver/Src/stm32h7xx_ll_usb.c ****     }
 881:Drivers/STM32H7xx_HAL_Driver/Src/stm32h7xx_ll_usb.c **** 
 882:Drivers/STM32H7xx_HAL_Driver/Src/stm32h7xx_ll_usb.c ****     if (dma == 1U)
 883:Drivers/STM32H7xx_HAL_Driver/Src/stm32h7xx_ll_usb.c ****     {
 884:Drivers/STM32H7xx_HAL_Driver/Src/stm32h7xx_ll_usb.c ****       if ((uint32_t)ep->xfer_buff != 0U)
 885:Drivers/STM32H7xx_HAL_Driver/Src/stm32h7xx_ll_usb.c ****       {
 886:Drivers/STM32H7xx_HAL_Driver/Src/stm32h7xx_ll_usb.c ****         USBx_OUTEP(epnum)->DOEPDMA = (uint32_t)(ep->xfer_buff);
ARM GAS  /tmp/ccdP7LVA.s 			page 17


 887:Drivers/STM32H7xx_HAL_Driver/Src/stm32h7xx_ll_usb.c ****       }
 888:Drivers/STM32H7xx_HAL_Driver/Src/stm32h7xx_ll_usb.c ****     }
 889:Drivers/STM32H7xx_HAL_Driver/Src/stm32h7xx_ll_usb.c **** 
 890:Drivers/STM32H7xx_HAL_Driver/Src/stm32h7xx_ll_usb.c ****     if (ep->type == EP_TYPE_ISOC)
 891:Drivers/STM32H7xx_HAL_Driver/Src/stm32h7xx_ll_usb.c ****     {
 892:Drivers/STM32H7xx_HAL_Driver/Src/stm32h7xx_ll_usb.c ****       if ((USBx_DEVICE->DSTS & (1U << 8)) == 0U)
 893:Drivers/STM32H7xx_HAL_Driver/Src/stm32h7xx_ll_usb.c ****       {
 894:Drivers/STM32H7xx_HAL_Driver/Src/stm32h7xx_ll_usb.c ****         USBx_OUTEP(epnum)->DOEPCTL |= USB_OTG_DOEPCTL_SODDFRM;
 895:Drivers/STM32H7xx_HAL_Driver/Src/stm32h7xx_ll_usb.c ****       }
 896:Drivers/STM32H7xx_HAL_Driver/Src/stm32h7xx_ll_usb.c ****       else
 897:Drivers/STM32H7xx_HAL_Driver/Src/stm32h7xx_ll_usb.c ****       {
 898:Drivers/STM32H7xx_HAL_Driver/Src/stm32h7xx_ll_usb.c ****         USBx_OUTEP(epnum)->DOEPCTL |= USB_OTG_DOEPCTL_SD0PID_SEVNFRM;
 899:Drivers/STM32H7xx_HAL_Driver/Src/stm32h7xx_ll_usb.c ****       }
 900:Drivers/STM32H7xx_HAL_Driver/Src/stm32h7xx_ll_usb.c ****     }
 901:Drivers/STM32H7xx_HAL_Driver/Src/stm32h7xx_ll_usb.c ****     /* EP enable */
 902:Drivers/STM32H7xx_HAL_Driver/Src/stm32h7xx_ll_usb.c ****     USBx_OUTEP(epnum)->DOEPCTL |= (USB_OTG_DOEPCTL_CNAK | USB_OTG_DOEPCTL_EPENA);
 903:Drivers/STM32H7xx_HAL_Driver/Src/stm32h7xx_ll_usb.c ****   }
 904:Drivers/STM32H7xx_HAL_Driver/Src/stm32h7xx_ll_usb.c **** 
 905:Drivers/STM32H7xx_HAL_Driver/Src/stm32h7xx_ll_usb.c ****   return HAL_OK;
 906:Drivers/STM32H7xx_HAL_Driver/Src/stm32h7xx_ll_usb.c **** }
 907:Drivers/STM32H7xx_HAL_Driver/Src/stm32h7xx_ll_usb.c **** 
 908:Drivers/STM32H7xx_HAL_Driver/Src/stm32h7xx_ll_usb.c **** 
 909:Drivers/STM32H7xx_HAL_Driver/Src/stm32h7xx_ll_usb.c **** /**
 910:Drivers/STM32H7xx_HAL_Driver/Src/stm32h7xx_ll_usb.c ****    * @brief  USB_EPStoptXfer  Stop transfer on an EP
 911:Drivers/STM32H7xx_HAL_Driver/Src/stm32h7xx_ll_usb.c ****    * @param  USBx  usb device instance
 912:Drivers/STM32H7xx_HAL_Driver/Src/stm32h7xx_ll_usb.c ****    * @param  ep pointer to endpoint structure
 913:Drivers/STM32H7xx_HAL_Driver/Src/stm32h7xx_ll_usb.c ****    * @retval HAL status
 914:Drivers/STM32H7xx_HAL_Driver/Src/stm32h7xx_ll_usb.c ****    */
 915:Drivers/STM32H7xx_HAL_Driver/Src/stm32h7xx_ll_usb.c **** HAL_StatusTypeDef USB_EPStopXfer(const USB_OTG_GlobalTypeDef *USBx, USB_OTG_EPTypeDef *ep)
 916:Drivers/STM32H7xx_HAL_Driver/Src/stm32h7xx_ll_usb.c **** {
 917:Drivers/STM32H7xx_HAL_Driver/Src/stm32h7xx_ll_usb.c ****   __IO uint32_t count = 0U;
 918:Drivers/STM32H7xx_HAL_Driver/Src/stm32h7xx_ll_usb.c ****   HAL_StatusTypeDef ret = HAL_OK;
 919:Drivers/STM32H7xx_HAL_Driver/Src/stm32h7xx_ll_usb.c ****   uint32_t USBx_BASE = (uint32_t)USBx;
 920:Drivers/STM32H7xx_HAL_Driver/Src/stm32h7xx_ll_usb.c **** 
 921:Drivers/STM32H7xx_HAL_Driver/Src/stm32h7xx_ll_usb.c ****   /* IN endpoint */
 922:Drivers/STM32H7xx_HAL_Driver/Src/stm32h7xx_ll_usb.c ****   if (ep->is_in == 1U)
 923:Drivers/STM32H7xx_HAL_Driver/Src/stm32h7xx_ll_usb.c ****   {
 924:Drivers/STM32H7xx_HAL_Driver/Src/stm32h7xx_ll_usb.c ****     /* EP enable, IN data in FIFO */
 925:Drivers/STM32H7xx_HAL_Driver/Src/stm32h7xx_ll_usb.c ****     if (((USBx_INEP(ep->num)->DIEPCTL) & USB_OTG_DIEPCTL_EPENA) == USB_OTG_DIEPCTL_EPENA)
 926:Drivers/STM32H7xx_HAL_Driver/Src/stm32h7xx_ll_usb.c ****     {
 927:Drivers/STM32H7xx_HAL_Driver/Src/stm32h7xx_ll_usb.c ****       USBx_INEP(ep->num)->DIEPCTL |= (USB_OTG_DIEPCTL_SNAK);
 928:Drivers/STM32H7xx_HAL_Driver/Src/stm32h7xx_ll_usb.c ****       USBx_INEP(ep->num)->DIEPCTL |= (USB_OTG_DIEPCTL_EPDIS);
 929:Drivers/STM32H7xx_HAL_Driver/Src/stm32h7xx_ll_usb.c **** 
 930:Drivers/STM32H7xx_HAL_Driver/Src/stm32h7xx_ll_usb.c ****       do
 931:Drivers/STM32H7xx_HAL_Driver/Src/stm32h7xx_ll_usb.c ****       {
 932:Drivers/STM32H7xx_HAL_Driver/Src/stm32h7xx_ll_usb.c ****         count++;
 933:Drivers/STM32H7xx_HAL_Driver/Src/stm32h7xx_ll_usb.c **** 
 934:Drivers/STM32H7xx_HAL_Driver/Src/stm32h7xx_ll_usb.c ****         if (count > 10000U)
 935:Drivers/STM32H7xx_HAL_Driver/Src/stm32h7xx_ll_usb.c ****         {
 936:Drivers/STM32H7xx_HAL_Driver/Src/stm32h7xx_ll_usb.c ****           ret = HAL_ERROR;
 937:Drivers/STM32H7xx_HAL_Driver/Src/stm32h7xx_ll_usb.c ****           break;
 938:Drivers/STM32H7xx_HAL_Driver/Src/stm32h7xx_ll_usb.c ****         }
 939:Drivers/STM32H7xx_HAL_Driver/Src/stm32h7xx_ll_usb.c ****       } while (((USBx_INEP(ep->num)->DIEPCTL) & USB_OTG_DIEPCTL_EPENA) ==  USB_OTG_DIEPCTL_EPENA);
 940:Drivers/STM32H7xx_HAL_Driver/Src/stm32h7xx_ll_usb.c ****     }
 941:Drivers/STM32H7xx_HAL_Driver/Src/stm32h7xx_ll_usb.c ****   }
 942:Drivers/STM32H7xx_HAL_Driver/Src/stm32h7xx_ll_usb.c ****   else /* OUT endpoint */
 943:Drivers/STM32H7xx_HAL_Driver/Src/stm32h7xx_ll_usb.c ****   {
ARM GAS  /tmp/ccdP7LVA.s 			page 18


 944:Drivers/STM32H7xx_HAL_Driver/Src/stm32h7xx_ll_usb.c ****     if (((USBx_OUTEP(ep->num)->DOEPCTL) & USB_OTG_DOEPCTL_EPENA) == USB_OTG_DOEPCTL_EPENA)
 945:Drivers/STM32H7xx_HAL_Driver/Src/stm32h7xx_ll_usb.c ****     {
 946:Drivers/STM32H7xx_HAL_Driver/Src/stm32h7xx_ll_usb.c ****       USBx_OUTEP(ep->num)->DOEPCTL |= (USB_OTG_DOEPCTL_SNAK);
 947:Drivers/STM32H7xx_HAL_Driver/Src/stm32h7xx_ll_usb.c ****       USBx_OUTEP(ep->num)->DOEPCTL |= (USB_OTG_DOEPCTL_EPDIS);
 948:Drivers/STM32H7xx_HAL_Driver/Src/stm32h7xx_ll_usb.c **** 
 949:Drivers/STM32H7xx_HAL_Driver/Src/stm32h7xx_ll_usb.c ****       do
 950:Drivers/STM32H7xx_HAL_Driver/Src/stm32h7xx_ll_usb.c ****       {
 951:Drivers/STM32H7xx_HAL_Driver/Src/stm32h7xx_ll_usb.c ****         count++;
 952:Drivers/STM32H7xx_HAL_Driver/Src/stm32h7xx_ll_usb.c **** 
 953:Drivers/STM32H7xx_HAL_Driver/Src/stm32h7xx_ll_usb.c ****         if (count > 10000U)
 954:Drivers/STM32H7xx_HAL_Driver/Src/stm32h7xx_ll_usb.c ****         {
 955:Drivers/STM32H7xx_HAL_Driver/Src/stm32h7xx_ll_usb.c ****           ret = HAL_ERROR;
 956:Drivers/STM32H7xx_HAL_Driver/Src/stm32h7xx_ll_usb.c ****           break;
 957:Drivers/STM32H7xx_HAL_Driver/Src/stm32h7xx_ll_usb.c ****         }
 958:Drivers/STM32H7xx_HAL_Driver/Src/stm32h7xx_ll_usb.c ****       } while (((USBx_OUTEP(ep->num)->DOEPCTL) & USB_OTG_DOEPCTL_EPENA) ==  USB_OTG_DOEPCTL_EPENA);
 959:Drivers/STM32H7xx_HAL_Driver/Src/stm32h7xx_ll_usb.c ****     }
 960:Drivers/STM32H7xx_HAL_Driver/Src/stm32h7xx_ll_usb.c ****   }
 961:Drivers/STM32H7xx_HAL_Driver/Src/stm32h7xx_ll_usb.c **** 
 962:Drivers/STM32H7xx_HAL_Driver/Src/stm32h7xx_ll_usb.c ****   return ret;
 963:Drivers/STM32H7xx_HAL_Driver/Src/stm32h7xx_ll_usb.c **** }
 964:Drivers/STM32H7xx_HAL_Driver/Src/stm32h7xx_ll_usb.c **** 
 965:Drivers/STM32H7xx_HAL_Driver/Src/stm32h7xx_ll_usb.c **** 
 966:Drivers/STM32H7xx_HAL_Driver/Src/stm32h7xx_ll_usb.c **** /**
 967:Drivers/STM32H7xx_HAL_Driver/Src/stm32h7xx_ll_usb.c ****   * @brief  USB_WritePacket : Writes a packet into the Tx FIFO associated
 968:Drivers/STM32H7xx_HAL_Driver/Src/stm32h7xx_ll_usb.c ****   *         with the EP/channel
 969:Drivers/STM32H7xx_HAL_Driver/Src/stm32h7xx_ll_usb.c ****   * @param  USBx  Selected device
 970:Drivers/STM32H7xx_HAL_Driver/Src/stm32h7xx_ll_usb.c ****   * @param  src   pointer to source buffer
 971:Drivers/STM32H7xx_HAL_Driver/Src/stm32h7xx_ll_usb.c ****   * @param  ch_ep_num  endpoint or host channel number
 972:Drivers/STM32H7xx_HAL_Driver/Src/stm32h7xx_ll_usb.c ****   * @param  len  Number of bytes to write
 973:Drivers/STM32H7xx_HAL_Driver/Src/stm32h7xx_ll_usb.c ****   * @param  dma USB dma enabled or disabled
 974:Drivers/STM32H7xx_HAL_Driver/Src/stm32h7xx_ll_usb.c ****   *          This parameter can be one of these values:
 975:Drivers/STM32H7xx_HAL_Driver/Src/stm32h7xx_ll_usb.c ****   *           0 : DMA feature not used
 976:Drivers/STM32H7xx_HAL_Driver/Src/stm32h7xx_ll_usb.c ****   *           1 : DMA feature used
 977:Drivers/STM32H7xx_HAL_Driver/Src/stm32h7xx_ll_usb.c ****   * @retval HAL status
 978:Drivers/STM32H7xx_HAL_Driver/Src/stm32h7xx_ll_usb.c ****   */
 979:Drivers/STM32H7xx_HAL_Driver/Src/stm32h7xx_ll_usb.c **** HAL_StatusTypeDef USB_WritePacket(const USB_OTG_GlobalTypeDef *USBx, uint8_t *src,
 980:Drivers/STM32H7xx_HAL_Driver/Src/stm32h7xx_ll_usb.c ****                                   uint8_t ch_ep_num, uint16_t len, uint8_t dma)
 981:Drivers/STM32H7xx_HAL_Driver/Src/stm32h7xx_ll_usb.c **** {
 982:Drivers/STM32H7xx_HAL_Driver/Src/stm32h7xx_ll_usb.c ****   uint32_t USBx_BASE = (uint32_t)USBx;
 983:Drivers/STM32H7xx_HAL_Driver/Src/stm32h7xx_ll_usb.c ****   uint8_t *pSrc = src;
 984:Drivers/STM32H7xx_HAL_Driver/Src/stm32h7xx_ll_usb.c ****   uint32_t count32b;
 985:Drivers/STM32H7xx_HAL_Driver/Src/stm32h7xx_ll_usb.c ****   uint32_t i;
 986:Drivers/STM32H7xx_HAL_Driver/Src/stm32h7xx_ll_usb.c **** 
 987:Drivers/STM32H7xx_HAL_Driver/Src/stm32h7xx_ll_usb.c ****   if (dma == 0U)
 988:Drivers/STM32H7xx_HAL_Driver/Src/stm32h7xx_ll_usb.c ****   {
 989:Drivers/STM32H7xx_HAL_Driver/Src/stm32h7xx_ll_usb.c ****     count32b = ((uint32_t)len + 3U) / 4U;
 990:Drivers/STM32H7xx_HAL_Driver/Src/stm32h7xx_ll_usb.c ****     for (i = 0U; i < count32b; i++)
 991:Drivers/STM32H7xx_HAL_Driver/Src/stm32h7xx_ll_usb.c ****     {
 992:Drivers/STM32H7xx_HAL_Driver/Src/stm32h7xx_ll_usb.c ****       USBx_DFIFO((uint32_t)ch_ep_num) = __UNALIGNED_UINT32_READ(pSrc);
 993:Drivers/STM32H7xx_HAL_Driver/Src/stm32h7xx_ll_usb.c ****       pSrc++;
 994:Drivers/STM32H7xx_HAL_Driver/Src/stm32h7xx_ll_usb.c ****       pSrc++;
 995:Drivers/STM32H7xx_HAL_Driver/Src/stm32h7xx_ll_usb.c ****       pSrc++;
 996:Drivers/STM32H7xx_HAL_Driver/Src/stm32h7xx_ll_usb.c ****       pSrc++;
 997:Drivers/STM32H7xx_HAL_Driver/Src/stm32h7xx_ll_usb.c ****     }
 998:Drivers/STM32H7xx_HAL_Driver/Src/stm32h7xx_ll_usb.c ****   }
 999:Drivers/STM32H7xx_HAL_Driver/Src/stm32h7xx_ll_usb.c **** 
1000:Drivers/STM32H7xx_HAL_Driver/Src/stm32h7xx_ll_usb.c ****   return HAL_OK;
ARM GAS  /tmp/ccdP7LVA.s 			page 19


1001:Drivers/STM32H7xx_HAL_Driver/Src/stm32h7xx_ll_usb.c **** }
1002:Drivers/STM32H7xx_HAL_Driver/Src/stm32h7xx_ll_usb.c **** 
1003:Drivers/STM32H7xx_HAL_Driver/Src/stm32h7xx_ll_usb.c **** /**
1004:Drivers/STM32H7xx_HAL_Driver/Src/stm32h7xx_ll_usb.c ****   * @brief  USB_ReadPacket : read a packet from the RX FIFO
1005:Drivers/STM32H7xx_HAL_Driver/Src/stm32h7xx_ll_usb.c ****   * @param  USBx  Selected device
1006:Drivers/STM32H7xx_HAL_Driver/Src/stm32h7xx_ll_usb.c ****   * @param  dest  source pointer
1007:Drivers/STM32H7xx_HAL_Driver/Src/stm32h7xx_ll_usb.c ****   * @param  len  Number of bytes to read
1008:Drivers/STM32H7xx_HAL_Driver/Src/stm32h7xx_ll_usb.c ****   * @retval pointer to destination buffer
1009:Drivers/STM32H7xx_HAL_Driver/Src/stm32h7xx_ll_usb.c ****   */
1010:Drivers/STM32H7xx_HAL_Driver/Src/stm32h7xx_ll_usb.c **** void *USB_ReadPacket(const USB_OTG_GlobalTypeDef *USBx, uint8_t *dest, uint16_t len)
1011:Drivers/STM32H7xx_HAL_Driver/Src/stm32h7xx_ll_usb.c **** {
1012:Drivers/STM32H7xx_HAL_Driver/Src/stm32h7xx_ll_usb.c ****   uint32_t USBx_BASE = (uint32_t)USBx;
1013:Drivers/STM32H7xx_HAL_Driver/Src/stm32h7xx_ll_usb.c ****   uint8_t *pDest = dest;
1014:Drivers/STM32H7xx_HAL_Driver/Src/stm32h7xx_ll_usb.c ****   uint32_t pData;
1015:Drivers/STM32H7xx_HAL_Driver/Src/stm32h7xx_ll_usb.c ****   uint32_t i;
1016:Drivers/STM32H7xx_HAL_Driver/Src/stm32h7xx_ll_usb.c ****   uint32_t count32b = (uint32_t)len >> 2U;
1017:Drivers/STM32H7xx_HAL_Driver/Src/stm32h7xx_ll_usb.c ****   uint16_t remaining_bytes = len % 4U;
1018:Drivers/STM32H7xx_HAL_Driver/Src/stm32h7xx_ll_usb.c **** 
1019:Drivers/STM32H7xx_HAL_Driver/Src/stm32h7xx_ll_usb.c ****   for (i = 0U; i < count32b; i++)
1020:Drivers/STM32H7xx_HAL_Driver/Src/stm32h7xx_ll_usb.c ****   {
1021:Drivers/STM32H7xx_HAL_Driver/Src/stm32h7xx_ll_usb.c ****     __UNALIGNED_UINT32_WRITE(pDest, USBx_DFIFO(0U));
1022:Drivers/STM32H7xx_HAL_Driver/Src/stm32h7xx_ll_usb.c ****     pDest++;
1023:Drivers/STM32H7xx_HAL_Driver/Src/stm32h7xx_ll_usb.c ****     pDest++;
1024:Drivers/STM32H7xx_HAL_Driver/Src/stm32h7xx_ll_usb.c ****     pDest++;
1025:Drivers/STM32H7xx_HAL_Driver/Src/stm32h7xx_ll_usb.c ****     pDest++;
1026:Drivers/STM32H7xx_HAL_Driver/Src/stm32h7xx_ll_usb.c ****   }
1027:Drivers/STM32H7xx_HAL_Driver/Src/stm32h7xx_ll_usb.c **** 
1028:Drivers/STM32H7xx_HAL_Driver/Src/stm32h7xx_ll_usb.c ****   /* When Number of data is not word aligned, read the remaining byte */
1029:Drivers/STM32H7xx_HAL_Driver/Src/stm32h7xx_ll_usb.c ****   if (remaining_bytes != 0U)
1030:Drivers/STM32H7xx_HAL_Driver/Src/stm32h7xx_ll_usb.c ****   {
1031:Drivers/STM32H7xx_HAL_Driver/Src/stm32h7xx_ll_usb.c ****     i = 0U;
1032:Drivers/STM32H7xx_HAL_Driver/Src/stm32h7xx_ll_usb.c ****     __UNALIGNED_UINT32_WRITE(&pData, USBx_DFIFO(0U));
1033:Drivers/STM32H7xx_HAL_Driver/Src/stm32h7xx_ll_usb.c **** 
1034:Drivers/STM32H7xx_HAL_Driver/Src/stm32h7xx_ll_usb.c ****     do
1035:Drivers/STM32H7xx_HAL_Driver/Src/stm32h7xx_ll_usb.c ****     {
1036:Drivers/STM32H7xx_HAL_Driver/Src/stm32h7xx_ll_usb.c ****       *(uint8_t *)pDest = (uint8_t)(pData >> (8U * (uint8_t)(i)));
1037:Drivers/STM32H7xx_HAL_Driver/Src/stm32h7xx_ll_usb.c ****       i++;
1038:Drivers/STM32H7xx_HAL_Driver/Src/stm32h7xx_ll_usb.c ****       pDest++;
1039:Drivers/STM32H7xx_HAL_Driver/Src/stm32h7xx_ll_usb.c ****       remaining_bytes--;
1040:Drivers/STM32H7xx_HAL_Driver/Src/stm32h7xx_ll_usb.c ****     } while (remaining_bytes != 0U);
1041:Drivers/STM32H7xx_HAL_Driver/Src/stm32h7xx_ll_usb.c ****   }
1042:Drivers/STM32H7xx_HAL_Driver/Src/stm32h7xx_ll_usb.c **** 
1043:Drivers/STM32H7xx_HAL_Driver/Src/stm32h7xx_ll_usb.c ****   return ((void *)pDest);
1044:Drivers/STM32H7xx_HAL_Driver/Src/stm32h7xx_ll_usb.c **** }
1045:Drivers/STM32H7xx_HAL_Driver/Src/stm32h7xx_ll_usb.c **** 
1046:Drivers/STM32H7xx_HAL_Driver/Src/stm32h7xx_ll_usb.c **** /**
1047:Drivers/STM32H7xx_HAL_Driver/Src/stm32h7xx_ll_usb.c ****   * @brief  USB_EPSetStall : set a stall condition over an EP
1048:Drivers/STM32H7xx_HAL_Driver/Src/stm32h7xx_ll_usb.c ****   * @param  USBx  Selected device
1049:Drivers/STM32H7xx_HAL_Driver/Src/stm32h7xx_ll_usb.c ****   * @param  ep pointer to endpoint structure
1050:Drivers/STM32H7xx_HAL_Driver/Src/stm32h7xx_ll_usb.c ****   * @retval HAL status
1051:Drivers/STM32H7xx_HAL_Driver/Src/stm32h7xx_ll_usb.c ****   */
1052:Drivers/STM32H7xx_HAL_Driver/Src/stm32h7xx_ll_usb.c **** HAL_StatusTypeDef USB_EPSetStall(const USB_OTG_GlobalTypeDef *USBx, const USB_OTG_EPTypeDef *ep)
1053:Drivers/STM32H7xx_HAL_Driver/Src/stm32h7xx_ll_usb.c **** {
1054:Drivers/STM32H7xx_HAL_Driver/Src/stm32h7xx_ll_usb.c ****   uint32_t USBx_BASE = (uint32_t)USBx;
1055:Drivers/STM32H7xx_HAL_Driver/Src/stm32h7xx_ll_usb.c ****   uint32_t epnum = (uint32_t)ep->num;
1056:Drivers/STM32H7xx_HAL_Driver/Src/stm32h7xx_ll_usb.c **** 
1057:Drivers/STM32H7xx_HAL_Driver/Src/stm32h7xx_ll_usb.c ****   if (ep->is_in == 1U)
ARM GAS  /tmp/ccdP7LVA.s 			page 20


1058:Drivers/STM32H7xx_HAL_Driver/Src/stm32h7xx_ll_usb.c ****   {
1059:Drivers/STM32H7xx_HAL_Driver/Src/stm32h7xx_ll_usb.c ****     if (((USBx_INEP(epnum)->DIEPCTL & USB_OTG_DIEPCTL_EPENA) == 0U) && (epnum != 0U))
1060:Drivers/STM32H7xx_HAL_Driver/Src/stm32h7xx_ll_usb.c ****     {
1061:Drivers/STM32H7xx_HAL_Driver/Src/stm32h7xx_ll_usb.c ****       USBx_INEP(epnum)->DIEPCTL &= ~(USB_OTG_DIEPCTL_EPDIS);
1062:Drivers/STM32H7xx_HAL_Driver/Src/stm32h7xx_ll_usb.c ****     }
1063:Drivers/STM32H7xx_HAL_Driver/Src/stm32h7xx_ll_usb.c ****     USBx_INEP(epnum)->DIEPCTL |= USB_OTG_DIEPCTL_STALL;
1064:Drivers/STM32H7xx_HAL_Driver/Src/stm32h7xx_ll_usb.c ****   }
1065:Drivers/STM32H7xx_HAL_Driver/Src/stm32h7xx_ll_usb.c ****   else
1066:Drivers/STM32H7xx_HAL_Driver/Src/stm32h7xx_ll_usb.c ****   {
1067:Drivers/STM32H7xx_HAL_Driver/Src/stm32h7xx_ll_usb.c ****     if (((USBx_OUTEP(epnum)->DOEPCTL & USB_OTG_DOEPCTL_EPENA) == 0U) && (epnum != 0U))
1068:Drivers/STM32H7xx_HAL_Driver/Src/stm32h7xx_ll_usb.c ****     {
1069:Drivers/STM32H7xx_HAL_Driver/Src/stm32h7xx_ll_usb.c ****       USBx_OUTEP(epnum)->DOEPCTL &= ~(USB_OTG_DOEPCTL_EPDIS);
1070:Drivers/STM32H7xx_HAL_Driver/Src/stm32h7xx_ll_usb.c ****     }
1071:Drivers/STM32H7xx_HAL_Driver/Src/stm32h7xx_ll_usb.c ****     USBx_OUTEP(epnum)->DOEPCTL |= USB_OTG_DOEPCTL_STALL;
1072:Drivers/STM32H7xx_HAL_Driver/Src/stm32h7xx_ll_usb.c ****   }
1073:Drivers/STM32H7xx_HAL_Driver/Src/stm32h7xx_ll_usb.c **** 
1074:Drivers/STM32H7xx_HAL_Driver/Src/stm32h7xx_ll_usb.c ****   return HAL_OK;
1075:Drivers/STM32H7xx_HAL_Driver/Src/stm32h7xx_ll_usb.c **** }
1076:Drivers/STM32H7xx_HAL_Driver/Src/stm32h7xx_ll_usb.c **** 
1077:Drivers/STM32H7xx_HAL_Driver/Src/stm32h7xx_ll_usb.c **** /**
1078:Drivers/STM32H7xx_HAL_Driver/Src/stm32h7xx_ll_usb.c ****   * @brief  USB_EPClearStall : Clear a stall condition over an EP
1079:Drivers/STM32H7xx_HAL_Driver/Src/stm32h7xx_ll_usb.c ****   * @param  USBx  Selected device
1080:Drivers/STM32H7xx_HAL_Driver/Src/stm32h7xx_ll_usb.c ****   * @param  ep pointer to endpoint structure
1081:Drivers/STM32H7xx_HAL_Driver/Src/stm32h7xx_ll_usb.c ****   * @retval HAL status
1082:Drivers/STM32H7xx_HAL_Driver/Src/stm32h7xx_ll_usb.c ****   */
1083:Drivers/STM32H7xx_HAL_Driver/Src/stm32h7xx_ll_usb.c **** HAL_StatusTypeDef USB_EPClearStall(const USB_OTG_GlobalTypeDef *USBx, const USB_OTG_EPTypeDef *ep)
1084:Drivers/STM32H7xx_HAL_Driver/Src/stm32h7xx_ll_usb.c **** {
1085:Drivers/STM32H7xx_HAL_Driver/Src/stm32h7xx_ll_usb.c ****   uint32_t USBx_BASE = (uint32_t)USBx;
1086:Drivers/STM32H7xx_HAL_Driver/Src/stm32h7xx_ll_usb.c ****   uint32_t epnum = (uint32_t)ep->num;
1087:Drivers/STM32H7xx_HAL_Driver/Src/stm32h7xx_ll_usb.c **** 
1088:Drivers/STM32H7xx_HAL_Driver/Src/stm32h7xx_ll_usb.c ****   if (ep->is_in == 1U)
1089:Drivers/STM32H7xx_HAL_Driver/Src/stm32h7xx_ll_usb.c ****   {
1090:Drivers/STM32H7xx_HAL_Driver/Src/stm32h7xx_ll_usb.c ****     USBx_INEP(epnum)->DIEPCTL &= ~USB_OTG_DIEPCTL_STALL;
1091:Drivers/STM32H7xx_HAL_Driver/Src/stm32h7xx_ll_usb.c ****     if ((ep->type == EP_TYPE_INTR) || (ep->type == EP_TYPE_BULK))
1092:Drivers/STM32H7xx_HAL_Driver/Src/stm32h7xx_ll_usb.c ****     {
1093:Drivers/STM32H7xx_HAL_Driver/Src/stm32h7xx_ll_usb.c ****       USBx_INEP(epnum)->DIEPCTL |= USB_OTG_DIEPCTL_SD0PID_SEVNFRM; /* DATA0 */
1094:Drivers/STM32H7xx_HAL_Driver/Src/stm32h7xx_ll_usb.c ****     }
1095:Drivers/STM32H7xx_HAL_Driver/Src/stm32h7xx_ll_usb.c ****   }
1096:Drivers/STM32H7xx_HAL_Driver/Src/stm32h7xx_ll_usb.c ****   else
1097:Drivers/STM32H7xx_HAL_Driver/Src/stm32h7xx_ll_usb.c ****   {
1098:Drivers/STM32H7xx_HAL_Driver/Src/stm32h7xx_ll_usb.c ****     USBx_OUTEP(epnum)->DOEPCTL &= ~USB_OTG_DOEPCTL_STALL;
1099:Drivers/STM32H7xx_HAL_Driver/Src/stm32h7xx_ll_usb.c ****     if ((ep->type == EP_TYPE_INTR) || (ep->type == EP_TYPE_BULK))
1100:Drivers/STM32H7xx_HAL_Driver/Src/stm32h7xx_ll_usb.c ****     {
1101:Drivers/STM32H7xx_HAL_Driver/Src/stm32h7xx_ll_usb.c ****       USBx_OUTEP(epnum)->DOEPCTL |= USB_OTG_DOEPCTL_SD0PID_SEVNFRM; /* DATA0 */
1102:Drivers/STM32H7xx_HAL_Driver/Src/stm32h7xx_ll_usb.c ****     }
1103:Drivers/STM32H7xx_HAL_Driver/Src/stm32h7xx_ll_usb.c ****   }
1104:Drivers/STM32H7xx_HAL_Driver/Src/stm32h7xx_ll_usb.c ****   return HAL_OK;
1105:Drivers/STM32H7xx_HAL_Driver/Src/stm32h7xx_ll_usb.c **** }
1106:Drivers/STM32H7xx_HAL_Driver/Src/stm32h7xx_ll_usb.c **** 
1107:Drivers/STM32H7xx_HAL_Driver/Src/stm32h7xx_ll_usb.c **** /**
1108:Drivers/STM32H7xx_HAL_Driver/Src/stm32h7xx_ll_usb.c ****   * @brief  USB_StopDevice : Stop the usb device mode
1109:Drivers/STM32H7xx_HAL_Driver/Src/stm32h7xx_ll_usb.c ****   * @param  USBx  Selected device
1110:Drivers/STM32H7xx_HAL_Driver/Src/stm32h7xx_ll_usb.c ****   * @retval HAL status
1111:Drivers/STM32H7xx_HAL_Driver/Src/stm32h7xx_ll_usb.c ****   */
1112:Drivers/STM32H7xx_HAL_Driver/Src/stm32h7xx_ll_usb.c **** HAL_StatusTypeDef USB_StopDevice(USB_OTG_GlobalTypeDef *USBx)
1113:Drivers/STM32H7xx_HAL_Driver/Src/stm32h7xx_ll_usb.c **** {
1114:Drivers/STM32H7xx_HAL_Driver/Src/stm32h7xx_ll_usb.c ****   HAL_StatusTypeDef ret;
ARM GAS  /tmp/ccdP7LVA.s 			page 21


1115:Drivers/STM32H7xx_HAL_Driver/Src/stm32h7xx_ll_usb.c ****   uint32_t USBx_BASE = (uint32_t)USBx;
1116:Drivers/STM32H7xx_HAL_Driver/Src/stm32h7xx_ll_usb.c ****   uint32_t i;
1117:Drivers/STM32H7xx_HAL_Driver/Src/stm32h7xx_ll_usb.c **** 
1118:Drivers/STM32H7xx_HAL_Driver/Src/stm32h7xx_ll_usb.c ****   /* Clear Pending interrupt */
1119:Drivers/STM32H7xx_HAL_Driver/Src/stm32h7xx_ll_usb.c ****   for (i = 0U; i < 15U; i++)
1120:Drivers/STM32H7xx_HAL_Driver/Src/stm32h7xx_ll_usb.c ****   {
1121:Drivers/STM32H7xx_HAL_Driver/Src/stm32h7xx_ll_usb.c ****     USBx_INEP(i)->DIEPINT = 0xFB7FU;
1122:Drivers/STM32H7xx_HAL_Driver/Src/stm32h7xx_ll_usb.c ****     USBx_OUTEP(i)->DOEPINT = 0xFB7FU;
1123:Drivers/STM32H7xx_HAL_Driver/Src/stm32h7xx_ll_usb.c ****   }
1124:Drivers/STM32H7xx_HAL_Driver/Src/stm32h7xx_ll_usb.c **** 
1125:Drivers/STM32H7xx_HAL_Driver/Src/stm32h7xx_ll_usb.c ****   /* Clear interrupt masks */
1126:Drivers/STM32H7xx_HAL_Driver/Src/stm32h7xx_ll_usb.c ****   USBx_DEVICE->DIEPMSK  = 0U;
1127:Drivers/STM32H7xx_HAL_Driver/Src/stm32h7xx_ll_usb.c ****   USBx_DEVICE->DOEPMSK  = 0U;
1128:Drivers/STM32H7xx_HAL_Driver/Src/stm32h7xx_ll_usb.c ****   USBx_DEVICE->DAINTMSK = 0U;
1129:Drivers/STM32H7xx_HAL_Driver/Src/stm32h7xx_ll_usb.c **** 
1130:Drivers/STM32H7xx_HAL_Driver/Src/stm32h7xx_ll_usb.c ****   /* Flush the FIFO */
1131:Drivers/STM32H7xx_HAL_Driver/Src/stm32h7xx_ll_usb.c ****   ret = USB_FlushRxFifo(USBx);
1132:Drivers/STM32H7xx_HAL_Driver/Src/stm32h7xx_ll_usb.c ****   if (ret != HAL_OK)
1133:Drivers/STM32H7xx_HAL_Driver/Src/stm32h7xx_ll_usb.c ****   {
1134:Drivers/STM32H7xx_HAL_Driver/Src/stm32h7xx_ll_usb.c ****     return ret;
1135:Drivers/STM32H7xx_HAL_Driver/Src/stm32h7xx_ll_usb.c ****   }
1136:Drivers/STM32H7xx_HAL_Driver/Src/stm32h7xx_ll_usb.c **** 
1137:Drivers/STM32H7xx_HAL_Driver/Src/stm32h7xx_ll_usb.c ****   ret = USB_FlushTxFifo(USBx,  0x10U);
1138:Drivers/STM32H7xx_HAL_Driver/Src/stm32h7xx_ll_usb.c ****   if (ret != HAL_OK)
1139:Drivers/STM32H7xx_HAL_Driver/Src/stm32h7xx_ll_usb.c ****   {
1140:Drivers/STM32H7xx_HAL_Driver/Src/stm32h7xx_ll_usb.c ****     return ret;
1141:Drivers/STM32H7xx_HAL_Driver/Src/stm32h7xx_ll_usb.c ****   }
1142:Drivers/STM32H7xx_HAL_Driver/Src/stm32h7xx_ll_usb.c **** 
1143:Drivers/STM32H7xx_HAL_Driver/Src/stm32h7xx_ll_usb.c ****   return ret;
1144:Drivers/STM32H7xx_HAL_Driver/Src/stm32h7xx_ll_usb.c **** }
1145:Drivers/STM32H7xx_HAL_Driver/Src/stm32h7xx_ll_usb.c **** 
1146:Drivers/STM32H7xx_HAL_Driver/Src/stm32h7xx_ll_usb.c **** /**
1147:Drivers/STM32H7xx_HAL_Driver/Src/stm32h7xx_ll_usb.c ****   * @brief  USB_SetDevAddress : Stop the usb device mode
1148:Drivers/STM32H7xx_HAL_Driver/Src/stm32h7xx_ll_usb.c ****   * @param  USBx  Selected device
1149:Drivers/STM32H7xx_HAL_Driver/Src/stm32h7xx_ll_usb.c ****   * @param  address  new device address to be assigned
1150:Drivers/STM32H7xx_HAL_Driver/Src/stm32h7xx_ll_usb.c ****   *          This parameter can be a value from 0 to 255
1151:Drivers/STM32H7xx_HAL_Driver/Src/stm32h7xx_ll_usb.c ****   * @retval HAL status
1152:Drivers/STM32H7xx_HAL_Driver/Src/stm32h7xx_ll_usb.c ****   */
1153:Drivers/STM32H7xx_HAL_Driver/Src/stm32h7xx_ll_usb.c **** HAL_StatusTypeDef USB_SetDevAddress(const USB_OTG_GlobalTypeDef *USBx, uint8_t address)
1154:Drivers/STM32H7xx_HAL_Driver/Src/stm32h7xx_ll_usb.c **** {
1155:Drivers/STM32H7xx_HAL_Driver/Src/stm32h7xx_ll_usb.c ****   uint32_t USBx_BASE = (uint32_t)USBx;
1156:Drivers/STM32H7xx_HAL_Driver/Src/stm32h7xx_ll_usb.c **** 
1157:Drivers/STM32H7xx_HAL_Driver/Src/stm32h7xx_ll_usb.c ****   USBx_DEVICE->DCFG &= ~(USB_OTG_DCFG_DAD);
1158:Drivers/STM32H7xx_HAL_Driver/Src/stm32h7xx_ll_usb.c ****   USBx_DEVICE->DCFG |= ((uint32_t)address << 4) & USB_OTG_DCFG_DAD;
1159:Drivers/STM32H7xx_HAL_Driver/Src/stm32h7xx_ll_usb.c **** 
1160:Drivers/STM32H7xx_HAL_Driver/Src/stm32h7xx_ll_usb.c ****   return HAL_OK;
1161:Drivers/STM32H7xx_HAL_Driver/Src/stm32h7xx_ll_usb.c **** }
1162:Drivers/STM32H7xx_HAL_Driver/Src/stm32h7xx_ll_usb.c **** 
1163:Drivers/STM32H7xx_HAL_Driver/Src/stm32h7xx_ll_usb.c **** /**
1164:Drivers/STM32H7xx_HAL_Driver/Src/stm32h7xx_ll_usb.c ****   * @brief  USB_DevConnect : Connect the USB device by enabling Rpu
1165:Drivers/STM32H7xx_HAL_Driver/Src/stm32h7xx_ll_usb.c ****   * @param  USBx  Selected device
1166:Drivers/STM32H7xx_HAL_Driver/Src/stm32h7xx_ll_usb.c ****   * @retval HAL status
1167:Drivers/STM32H7xx_HAL_Driver/Src/stm32h7xx_ll_usb.c ****   */
1168:Drivers/STM32H7xx_HAL_Driver/Src/stm32h7xx_ll_usb.c **** HAL_StatusTypeDef USB_DevConnect(const USB_OTG_GlobalTypeDef *USBx)
1169:Drivers/STM32H7xx_HAL_Driver/Src/stm32h7xx_ll_usb.c **** {
1170:Drivers/STM32H7xx_HAL_Driver/Src/stm32h7xx_ll_usb.c ****   uint32_t USBx_BASE = (uint32_t)USBx;
1171:Drivers/STM32H7xx_HAL_Driver/Src/stm32h7xx_ll_usb.c **** 
ARM GAS  /tmp/ccdP7LVA.s 			page 22


1172:Drivers/STM32H7xx_HAL_Driver/Src/stm32h7xx_ll_usb.c ****   /* In case phy is stopped, ensure to ungate and restore the phy CLK */
1173:Drivers/STM32H7xx_HAL_Driver/Src/stm32h7xx_ll_usb.c ****   USBx_PCGCCTL &= ~(USB_OTG_PCGCCTL_STOPCLK | USB_OTG_PCGCCTL_GATECLK);
1174:Drivers/STM32H7xx_HAL_Driver/Src/stm32h7xx_ll_usb.c **** 
1175:Drivers/STM32H7xx_HAL_Driver/Src/stm32h7xx_ll_usb.c ****   USBx_DEVICE->DCTL &= ~USB_OTG_DCTL_SDIS;
1176:Drivers/STM32H7xx_HAL_Driver/Src/stm32h7xx_ll_usb.c **** 
1177:Drivers/STM32H7xx_HAL_Driver/Src/stm32h7xx_ll_usb.c ****   return HAL_OK;
1178:Drivers/STM32H7xx_HAL_Driver/Src/stm32h7xx_ll_usb.c **** }
1179:Drivers/STM32H7xx_HAL_Driver/Src/stm32h7xx_ll_usb.c **** 
1180:Drivers/STM32H7xx_HAL_Driver/Src/stm32h7xx_ll_usb.c **** /**
1181:Drivers/STM32H7xx_HAL_Driver/Src/stm32h7xx_ll_usb.c ****   * @brief  USB_DevDisconnect : Disconnect the USB device by disabling Rpu
1182:Drivers/STM32H7xx_HAL_Driver/Src/stm32h7xx_ll_usb.c ****   * @param  USBx  Selected device
1183:Drivers/STM32H7xx_HAL_Driver/Src/stm32h7xx_ll_usb.c ****   * @retval HAL status
1184:Drivers/STM32H7xx_HAL_Driver/Src/stm32h7xx_ll_usb.c ****   */
1185:Drivers/STM32H7xx_HAL_Driver/Src/stm32h7xx_ll_usb.c **** HAL_StatusTypeDef USB_DevDisconnect(const USB_OTG_GlobalTypeDef *USBx)
1186:Drivers/STM32H7xx_HAL_Driver/Src/stm32h7xx_ll_usb.c **** {
1187:Drivers/STM32H7xx_HAL_Driver/Src/stm32h7xx_ll_usb.c ****   uint32_t USBx_BASE = (uint32_t)USBx;
1188:Drivers/STM32H7xx_HAL_Driver/Src/stm32h7xx_ll_usb.c **** 
1189:Drivers/STM32H7xx_HAL_Driver/Src/stm32h7xx_ll_usb.c ****   /* In case phy is stopped, ensure to ungate and restore the phy CLK */
1190:Drivers/STM32H7xx_HAL_Driver/Src/stm32h7xx_ll_usb.c ****   USBx_PCGCCTL &= ~(USB_OTG_PCGCCTL_STOPCLK | USB_OTG_PCGCCTL_GATECLK);
1191:Drivers/STM32H7xx_HAL_Driver/Src/stm32h7xx_ll_usb.c **** 
1192:Drivers/STM32H7xx_HAL_Driver/Src/stm32h7xx_ll_usb.c ****   USBx_DEVICE->DCTL |= USB_OTG_DCTL_SDIS;
1193:Drivers/STM32H7xx_HAL_Driver/Src/stm32h7xx_ll_usb.c **** 
1194:Drivers/STM32H7xx_HAL_Driver/Src/stm32h7xx_ll_usb.c ****   return HAL_OK;
1195:Drivers/STM32H7xx_HAL_Driver/Src/stm32h7xx_ll_usb.c **** }
1196:Drivers/STM32H7xx_HAL_Driver/Src/stm32h7xx_ll_usb.c **** 
1197:Drivers/STM32H7xx_HAL_Driver/Src/stm32h7xx_ll_usb.c **** /**
1198:Drivers/STM32H7xx_HAL_Driver/Src/stm32h7xx_ll_usb.c ****   * @brief  USB_ReadInterrupts: return the global USB interrupt status
1199:Drivers/STM32H7xx_HAL_Driver/Src/stm32h7xx_ll_usb.c ****   * @param  USBx  Selected device
1200:Drivers/STM32H7xx_HAL_Driver/Src/stm32h7xx_ll_usb.c ****   * @retval USB Global Interrupt status
1201:Drivers/STM32H7xx_HAL_Driver/Src/stm32h7xx_ll_usb.c ****   */
1202:Drivers/STM32H7xx_HAL_Driver/Src/stm32h7xx_ll_usb.c **** uint32_t USB_ReadInterrupts(USB_OTG_GlobalTypeDef const *USBx)
1203:Drivers/STM32H7xx_HAL_Driver/Src/stm32h7xx_ll_usb.c **** {
1204:Drivers/STM32H7xx_HAL_Driver/Src/stm32h7xx_ll_usb.c ****   uint32_t tmpreg;
1205:Drivers/STM32H7xx_HAL_Driver/Src/stm32h7xx_ll_usb.c **** 
1206:Drivers/STM32H7xx_HAL_Driver/Src/stm32h7xx_ll_usb.c ****   tmpreg = USBx->GINTSTS;
1207:Drivers/STM32H7xx_HAL_Driver/Src/stm32h7xx_ll_usb.c ****   tmpreg &= USBx->GINTMSK;
1208:Drivers/STM32H7xx_HAL_Driver/Src/stm32h7xx_ll_usb.c **** 
1209:Drivers/STM32H7xx_HAL_Driver/Src/stm32h7xx_ll_usb.c ****   return tmpreg;
1210:Drivers/STM32H7xx_HAL_Driver/Src/stm32h7xx_ll_usb.c **** }
1211:Drivers/STM32H7xx_HAL_Driver/Src/stm32h7xx_ll_usb.c **** 
1212:Drivers/STM32H7xx_HAL_Driver/Src/stm32h7xx_ll_usb.c **** /**
1213:Drivers/STM32H7xx_HAL_Driver/Src/stm32h7xx_ll_usb.c ****   * @brief  USB_ReadChInterrupts: return USB channel interrupt status
1214:Drivers/STM32H7xx_HAL_Driver/Src/stm32h7xx_ll_usb.c ****   * @param  USBx  Selected device
1215:Drivers/STM32H7xx_HAL_Driver/Src/stm32h7xx_ll_usb.c ****   * @param  chnum Channel number
1216:Drivers/STM32H7xx_HAL_Driver/Src/stm32h7xx_ll_usb.c ****   * @retval USB Channel Interrupt status
1217:Drivers/STM32H7xx_HAL_Driver/Src/stm32h7xx_ll_usb.c ****   */
1218:Drivers/STM32H7xx_HAL_Driver/Src/stm32h7xx_ll_usb.c **** uint32_t USB_ReadChInterrupts(const USB_OTG_GlobalTypeDef *USBx, uint8_t chnum)
1219:Drivers/STM32H7xx_HAL_Driver/Src/stm32h7xx_ll_usb.c **** {
1220:Drivers/STM32H7xx_HAL_Driver/Src/stm32h7xx_ll_usb.c ****   uint32_t USBx_BASE = (uint32_t)USBx;
1221:Drivers/STM32H7xx_HAL_Driver/Src/stm32h7xx_ll_usb.c ****   uint32_t tmpreg;
1222:Drivers/STM32H7xx_HAL_Driver/Src/stm32h7xx_ll_usb.c **** 
1223:Drivers/STM32H7xx_HAL_Driver/Src/stm32h7xx_ll_usb.c ****   tmpreg = USBx_HC(chnum)->HCINT;
1224:Drivers/STM32H7xx_HAL_Driver/Src/stm32h7xx_ll_usb.c ****   tmpreg &= USBx_HC(chnum)->HCINTMSK;
1225:Drivers/STM32H7xx_HAL_Driver/Src/stm32h7xx_ll_usb.c **** 
1226:Drivers/STM32H7xx_HAL_Driver/Src/stm32h7xx_ll_usb.c ****   return tmpreg;
1227:Drivers/STM32H7xx_HAL_Driver/Src/stm32h7xx_ll_usb.c **** }
1228:Drivers/STM32H7xx_HAL_Driver/Src/stm32h7xx_ll_usb.c **** 
ARM GAS  /tmp/ccdP7LVA.s 			page 23


1229:Drivers/STM32H7xx_HAL_Driver/Src/stm32h7xx_ll_usb.c **** /**
1230:Drivers/STM32H7xx_HAL_Driver/Src/stm32h7xx_ll_usb.c ****   * @brief  USB_ReadDevAllOutEpInterrupt: return the USB device OUT endpoints interrupt status
1231:Drivers/STM32H7xx_HAL_Driver/Src/stm32h7xx_ll_usb.c ****   * @param  USBx  Selected device
1232:Drivers/STM32H7xx_HAL_Driver/Src/stm32h7xx_ll_usb.c ****   * @retval USB Device OUT EP interrupt status
1233:Drivers/STM32H7xx_HAL_Driver/Src/stm32h7xx_ll_usb.c ****   */
1234:Drivers/STM32H7xx_HAL_Driver/Src/stm32h7xx_ll_usb.c **** uint32_t USB_ReadDevAllOutEpInterrupt(const USB_OTG_GlobalTypeDef *USBx)
1235:Drivers/STM32H7xx_HAL_Driver/Src/stm32h7xx_ll_usb.c **** {
1236:Drivers/STM32H7xx_HAL_Driver/Src/stm32h7xx_ll_usb.c ****   uint32_t USBx_BASE = (uint32_t)USBx;
1237:Drivers/STM32H7xx_HAL_Driver/Src/stm32h7xx_ll_usb.c ****   uint32_t tmpreg;
1238:Drivers/STM32H7xx_HAL_Driver/Src/stm32h7xx_ll_usb.c **** 
1239:Drivers/STM32H7xx_HAL_Driver/Src/stm32h7xx_ll_usb.c ****   tmpreg  = USBx_DEVICE->DAINT;
1240:Drivers/STM32H7xx_HAL_Driver/Src/stm32h7xx_ll_usb.c ****   tmpreg &= USBx_DEVICE->DAINTMSK;
1241:Drivers/STM32H7xx_HAL_Driver/Src/stm32h7xx_ll_usb.c **** 
1242:Drivers/STM32H7xx_HAL_Driver/Src/stm32h7xx_ll_usb.c ****   return ((tmpreg & 0xffff0000U) >> 16);
1243:Drivers/STM32H7xx_HAL_Driver/Src/stm32h7xx_ll_usb.c **** }
1244:Drivers/STM32H7xx_HAL_Driver/Src/stm32h7xx_ll_usb.c **** 
1245:Drivers/STM32H7xx_HAL_Driver/Src/stm32h7xx_ll_usb.c **** /**
1246:Drivers/STM32H7xx_HAL_Driver/Src/stm32h7xx_ll_usb.c ****   * @brief  USB_ReadDevAllInEpInterrupt: return the USB device IN endpoints interrupt status
1247:Drivers/STM32H7xx_HAL_Driver/Src/stm32h7xx_ll_usb.c ****   * @param  USBx  Selected device
1248:Drivers/STM32H7xx_HAL_Driver/Src/stm32h7xx_ll_usb.c ****   * @retval USB Device IN EP interrupt status
1249:Drivers/STM32H7xx_HAL_Driver/Src/stm32h7xx_ll_usb.c ****   */
1250:Drivers/STM32H7xx_HAL_Driver/Src/stm32h7xx_ll_usb.c **** uint32_t USB_ReadDevAllInEpInterrupt(const USB_OTG_GlobalTypeDef *USBx)
1251:Drivers/STM32H7xx_HAL_Driver/Src/stm32h7xx_ll_usb.c **** {
1252:Drivers/STM32H7xx_HAL_Driver/Src/stm32h7xx_ll_usb.c ****   uint32_t USBx_BASE = (uint32_t)USBx;
1253:Drivers/STM32H7xx_HAL_Driver/Src/stm32h7xx_ll_usb.c ****   uint32_t tmpreg;
1254:Drivers/STM32H7xx_HAL_Driver/Src/stm32h7xx_ll_usb.c **** 
1255:Drivers/STM32H7xx_HAL_Driver/Src/stm32h7xx_ll_usb.c ****   tmpreg  = USBx_DEVICE->DAINT;
1256:Drivers/STM32H7xx_HAL_Driver/Src/stm32h7xx_ll_usb.c ****   tmpreg &= USBx_DEVICE->DAINTMSK;
1257:Drivers/STM32H7xx_HAL_Driver/Src/stm32h7xx_ll_usb.c **** 
1258:Drivers/STM32H7xx_HAL_Driver/Src/stm32h7xx_ll_usb.c ****   return ((tmpreg & 0xFFFFU));
1259:Drivers/STM32H7xx_HAL_Driver/Src/stm32h7xx_ll_usb.c **** }
1260:Drivers/STM32H7xx_HAL_Driver/Src/stm32h7xx_ll_usb.c **** 
1261:Drivers/STM32H7xx_HAL_Driver/Src/stm32h7xx_ll_usb.c **** /**
1262:Drivers/STM32H7xx_HAL_Driver/Src/stm32h7xx_ll_usb.c ****   * @brief  Returns Device OUT EP Interrupt register
1263:Drivers/STM32H7xx_HAL_Driver/Src/stm32h7xx_ll_usb.c ****   * @param  USBx  Selected device
1264:Drivers/STM32H7xx_HAL_Driver/Src/stm32h7xx_ll_usb.c ****   * @param  epnum  endpoint number
1265:Drivers/STM32H7xx_HAL_Driver/Src/stm32h7xx_ll_usb.c ****   *          This parameter can be a value from 0 to 15
1266:Drivers/STM32H7xx_HAL_Driver/Src/stm32h7xx_ll_usb.c ****   * @retval Device OUT EP Interrupt register
1267:Drivers/STM32H7xx_HAL_Driver/Src/stm32h7xx_ll_usb.c ****   */
1268:Drivers/STM32H7xx_HAL_Driver/Src/stm32h7xx_ll_usb.c **** uint32_t USB_ReadDevOutEPInterrupt(const USB_OTG_GlobalTypeDef *USBx, uint8_t epnum)
1269:Drivers/STM32H7xx_HAL_Driver/Src/stm32h7xx_ll_usb.c **** {
1270:Drivers/STM32H7xx_HAL_Driver/Src/stm32h7xx_ll_usb.c ****   uint32_t USBx_BASE = (uint32_t)USBx;
1271:Drivers/STM32H7xx_HAL_Driver/Src/stm32h7xx_ll_usb.c ****   uint32_t tmpreg;
1272:Drivers/STM32H7xx_HAL_Driver/Src/stm32h7xx_ll_usb.c **** 
1273:Drivers/STM32H7xx_HAL_Driver/Src/stm32h7xx_ll_usb.c ****   tmpreg  = USBx_OUTEP((uint32_t)epnum)->DOEPINT;
1274:Drivers/STM32H7xx_HAL_Driver/Src/stm32h7xx_ll_usb.c ****   tmpreg &= USBx_DEVICE->DOEPMSK;
1275:Drivers/STM32H7xx_HAL_Driver/Src/stm32h7xx_ll_usb.c **** 
1276:Drivers/STM32H7xx_HAL_Driver/Src/stm32h7xx_ll_usb.c ****   return tmpreg;
1277:Drivers/STM32H7xx_HAL_Driver/Src/stm32h7xx_ll_usb.c **** }
1278:Drivers/STM32H7xx_HAL_Driver/Src/stm32h7xx_ll_usb.c **** 
1279:Drivers/STM32H7xx_HAL_Driver/Src/stm32h7xx_ll_usb.c **** /**
1280:Drivers/STM32H7xx_HAL_Driver/Src/stm32h7xx_ll_usb.c ****   * @brief  Returns Device IN EP Interrupt register
1281:Drivers/STM32H7xx_HAL_Driver/Src/stm32h7xx_ll_usb.c ****   * @param  USBx  Selected device
1282:Drivers/STM32H7xx_HAL_Driver/Src/stm32h7xx_ll_usb.c ****   * @param  epnum  endpoint number
1283:Drivers/STM32H7xx_HAL_Driver/Src/stm32h7xx_ll_usb.c ****   *          This parameter can be a value from 0 to 15
1284:Drivers/STM32H7xx_HAL_Driver/Src/stm32h7xx_ll_usb.c ****   * @retval Device IN EP Interrupt register
1285:Drivers/STM32H7xx_HAL_Driver/Src/stm32h7xx_ll_usb.c ****   */
ARM GAS  /tmp/ccdP7LVA.s 			page 24


1286:Drivers/STM32H7xx_HAL_Driver/Src/stm32h7xx_ll_usb.c **** uint32_t USB_ReadDevInEPInterrupt(const USB_OTG_GlobalTypeDef *USBx, uint8_t epnum)
1287:Drivers/STM32H7xx_HAL_Driver/Src/stm32h7xx_ll_usb.c **** {
1288:Drivers/STM32H7xx_HAL_Driver/Src/stm32h7xx_ll_usb.c ****   uint32_t USBx_BASE = (uint32_t)USBx;
1289:Drivers/STM32H7xx_HAL_Driver/Src/stm32h7xx_ll_usb.c ****   uint32_t tmpreg;
1290:Drivers/STM32H7xx_HAL_Driver/Src/stm32h7xx_ll_usb.c ****   uint32_t msk;
1291:Drivers/STM32H7xx_HAL_Driver/Src/stm32h7xx_ll_usb.c ****   uint32_t emp;
1292:Drivers/STM32H7xx_HAL_Driver/Src/stm32h7xx_ll_usb.c **** 
1293:Drivers/STM32H7xx_HAL_Driver/Src/stm32h7xx_ll_usb.c ****   msk = USBx_DEVICE->DIEPMSK;
1294:Drivers/STM32H7xx_HAL_Driver/Src/stm32h7xx_ll_usb.c ****   emp = USBx_DEVICE->DIEPEMPMSK;
1295:Drivers/STM32H7xx_HAL_Driver/Src/stm32h7xx_ll_usb.c ****   msk |= ((emp >> (epnum & EP_ADDR_MSK)) & 0x1U) << 7;
1296:Drivers/STM32H7xx_HAL_Driver/Src/stm32h7xx_ll_usb.c ****   tmpreg = USBx_INEP((uint32_t)epnum)->DIEPINT & msk;
1297:Drivers/STM32H7xx_HAL_Driver/Src/stm32h7xx_ll_usb.c **** 
1298:Drivers/STM32H7xx_HAL_Driver/Src/stm32h7xx_ll_usb.c ****   return tmpreg;
1299:Drivers/STM32H7xx_HAL_Driver/Src/stm32h7xx_ll_usb.c **** }
1300:Drivers/STM32H7xx_HAL_Driver/Src/stm32h7xx_ll_usb.c **** 
1301:Drivers/STM32H7xx_HAL_Driver/Src/stm32h7xx_ll_usb.c **** /**
1302:Drivers/STM32H7xx_HAL_Driver/Src/stm32h7xx_ll_usb.c ****   * @brief  USB_ClearInterrupts: clear a USB interrupt
1303:Drivers/STM32H7xx_HAL_Driver/Src/stm32h7xx_ll_usb.c ****   * @param  USBx  Selected device
1304:Drivers/STM32H7xx_HAL_Driver/Src/stm32h7xx_ll_usb.c ****   * @param  interrupt  flag
1305:Drivers/STM32H7xx_HAL_Driver/Src/stm32h7xx_ll_usb.c ****   * @retval None
1306:Drivers/STM32H7xx_HAL_Driver/Src/stm32h7xx_ll_usb.c ****   */
1307:Drivers/STM32H7xx_HAL_Driver/Src/stm32h7xx_ll_usb.c **** void  USB_ClearInterrupts(USB_OTG_GlobalTypeDef *USBx, uint32_t interrupt)
1308:Drivers/STM32H7xx_HAL_Driver/Src/stm32h7xx_ll_usb.c **** {
1309:Drivers/STM32H7xx_HAL_Driver/Src/stm32h7xx_ll_usb.c ****   USBx->GINTSTS &= interrupt;
1310:Drivers/STM32H7xx_HAL_Driver/Src/stm32h7xx_ll_usb.c **** }
1311:Drivers/STM32H7xx_HAL_Driver/Src/stm32h7xx_ll_usb.c **** 
1312:Drivers/STM32H7xx_HAL_Driver/Src/stm32h7xx_ll_usb.c **** /**
1313:Drivers/STM32H7xx_HAL_Driver/Src/stm32h7xx_ll_usb.c ****   * @brief  Returns USB core mode
1314:Drivers/STM32H7xx_HAL_Driver/Src/stm32h7xx_ll_usb.c ****   * @param  USBx  Selected device
1315:Drivers/STM32H7xx_HAL_Driver/Src/stm32h7xx_ll_usb.c ****   * @retval return core mode : Host or Device
1316:Drivers/STM32H7xx_HAL_Driver/Src/stm32h7xx_ll_usb.c ****   *          This parameter can be one of these values:
1317:Drivers/STM32H7xx_HAL_Driver/Src/stm32h7xx_ll_usb.c ****   *           0 : Host
1318:Drivers/STM32H7xx_HAL_Driver/Src/stm32h7xx_ll_usb.c ****   *           1 : Device
1319:Drivers/STM32H7xx_HAL_Driver/Src/stm32h7xx_ll_usb.c ****   */
1320:Drivers/STM32H7xx_HAL_Driver/Src/stm32h7xx_ll_usb.c **** uint32_t USB_GetMode(const USB_OTG_GlobalTypeDef *USBx)
1321:Drivers/STM32H7xx_HAL_Driver/Src/stm32h7xx_ll_usb.c **** {
1322:Drivers/STM32H7xx_HAL_Driver/Src/stm32h7xx_ll_usb.c ****   return ((USBx->GINTSTS) & 0x1U);
1323:Drivers/STM32H7xx_HAL_Driver/Src/stm32h7xx_ll_usb.c **** }
1324:Drivers/STM32H7xx_HAL_Driver/Src/stm32h7xx_ll_usb.c **** 
1325:Drivers/STM32H7xx_HAL_Driver/Src/stm32h7xx_ll_usb.c **** /**
1326:Drivers/STM32H7xx_HAL_Driver/Src/stm32h7xx_ll_usb.c ****   * @brief  Activate EP0 for Setup transactions
1327:Drivers/STM32H7xx_HAL_Driver/Src/stm32h7xx_ll_usb.c ****   * @param  USBx  Selected device
1328:Drivers/STM32H7xx_HAL_Driver/Src/stm32h7xx_ll_usb.c ****   * @retval HAL status
1329:Drivers/STM32H7xx_HAL_Driver/Src/stm32h7xx_ll_usb.c ****   */
1330:Drivers/STM32H7xx_HAL_Driver/Src/stm32h7xx_ll_usb.c **** HAL_StatusTypeDef USB_ActivateSetup(const USB_OTG_GlobalTypeDef *USBx)
1331:Drivers/STM32H7xx_HAL_Driver/Src/stm32h7xx_ll_usb.c **** {
1332:Drivers/STM32H7xx_HAL_Driver/Src/stm32h7xx_ll_usb.c ****   uint32_t USBx_BASE = (uint32_t)USBx;
1333:Drivers/STM32H7xx_HAL_Driver/Src/stm32h7xx_ll_usb.c **** 
1334:Drivers/STM32H7xx_HAL_Driver/Src/stm32h7xx_ll_usb.c ****   /* Set the MPS of the IN EP0 to 64 bytes */
1335:Drivers/STM32H7xx_HAL_Driver/Src/stm32h7xx_ll_usb.c ****   USBx_INEP(0U)->DIEPCTL &= ~USB_OTG_DIEPCTL_MPSIZ;
1336:Drivers/STM32H7xx_HAL_Driver/Src/stm32h7xx_ll_usb.c **** 
1337:Drivers/STM32H7xx_HAL_Driver/Src/stm32h7xx_ll_usb.c ****   USBx_DEVICE->DCTL |= USB_OTG_DCTL_CGINAK;
1338:Drivers/STM32H7xx_HAL_Driver/Src/stm32h7xx_ll_usb.c **** 
1339:Drivers/STM32H7xx_HAL_Driver/Src/stm32h7xx_ll_usb.c ****   return HAL_OK;
1340:Drivers/STM32H7xx_HAL_Driver/Src/stm32h7xx_ll_usb.c **** }
1341:Drivers/STM32H7xx_HAL_Driver/Src/stm32h7xx_ll_usb.c **** 
1342:Drivers/STM32H7xx_HAL_Driver/Src/stm32h7xx_ll_usb.c **** /**
ARM GAS  /tmp/ccdP7LVA.s 			page 25


1343:Drivers/STM32H7xx_HAL_Driver/Src/stm32h7xx_ll_usb.c ****   * @brief  Prepare the EP0 to start the first control setup
1344:Drivers/STM32H7xx_HAL_Driver/Src/stm32h7xx_ll_usb.c ****   * @param  USBx  Selected device
1345:Drivers/STM32H7xx_HAL_Driver/Src/stm32h7xx_ll_usb.c ****   * @param  dma USB dma enabled or disabled
1346:Drivers/STM32H7xx_HAL_Driver/Src/stm32h7xx_ll_usb.c ****   *          This parameter can be one of these values:
1347:Drivers/STM32H7xx_HAL_Driver/Src/stm32h7xx_ll_usb.c ****   *           0 : DMA feature not used
1348:Drivers/STM32H7xx_HAL_Driver/Src/stm32h7xx_ll_usb.c ****   *           1 : DMA feature used
1349:Drivers/STM32H7xx_HAL_Driver/Src/stm32h7xx_ll_usb.c ****   * @param  psetup  pointer to setup packet
1350:Drivers/STM32H7xx_HAL_Driver/Src/stm32h7xx_ll_usb.c ****   * @retval HAL status
1351:Drivers/STM32H7xx_HAL_Driver/Src/stm32h7xx_ll_usb.c ****   */
1352:Drivers/STM32H7xx_HAL_Driver/Src/stm32h7xx_ll_usb.c **** HAL_StatusTypeDef USB_EP0_OutStart(const USB_OTG_GlobalTypeDef *USBx, uint8_t dma, const uint8_t *p
1353:Drivers/STM32H7xx_HAL_Driver/Src/stm32h7xx_ll_usb.c **** {
1354:Drivers/STM32H7xx_HAL_Driver/Src/stm32h7xx_ll_usb.c ****   uint32_t USBx_BASE = (uint32_t)USBx;
1355:Drivers/STM32H7xx_HAL_Driver/Src/stm32h7xx_ll_usb.c ****   uint32_t gSNPSiD = *(__IO const uint32_t *)(&USBx->CID + 0x1U);
1356:Drivers/STM32H7xx_HAL_Driver/Src/stm32h7xx_ll_usb.c **** 
1357:Drivers/STM32H7xx_HAL_Driver/Src/stm32h7xx_ll_usb.c ****   if (gSNPSiD > USB_OTG_CORE_ID_300A)
1358:Drivers/STM32H7xx_HAL_Driver/Src/stm32h7xx_ll_usb.c ****   {
1359:Drivers/STM32H7xx_HAL_Driver/Src/stm32h7xx_ll_usb.c ****     if ((USBx_OUTEP(0U)->DOEPCTL & USB_OTG_DOEPCTL_EPENA) == USB_OTG_DOEPCTL_EPENA)
1360:Drivers/STM32H7xx_HAL_Driver/Src/stm32h7xx_ll_usb.c ****     {
1361:Drivers/STM32H7xx_HAL_Driver/Src/stm32h7xx_ll_usb.c ****       return HAL_OK;
1362:Drivers/STM32H7xx_HAL_Driver/Src/stm32h7xx_ll_usb.c ****     }
1363:Drivers/STM32H7xx_HAL_Driver/Src/stm32h7xx_ll_usb.c ****   }
1364:Drivers/STM32H7xx_HAL_Driver/Src/stm32h7xx_ll_usb.c **** 
1365:Drivers/STM32H7xx_HAL_Driver/Src/stm32h7xx_ll_usb.c ****   USBx_OUTEP(0U)->DOEPTSIZ = 0U;
1366:Drivers/STM32H7xx_HAL_Driver/Src/stm32h7xx_ll_usb.c ****   USBx_OUTEP(0U)->DOEPTSIZ |= (USB_OTG_DOEPTSIZ_PKTCNT & (1U << 19));
1367:Drivers/STM32H7xx_HAL_Driver/Src/stm32h7xx_ll_usb.c ****   USBx_OUTEP(0U)->DOEPTSIZ |= (3U * 8U);
1368:Drivers/STM32H7xx_HAL_Driver/Src/stm32h7xx_ll_usb.c ****   USBx_OUTEP(0U)->DOEPTSIZ |=  USB_OTG_DOEPTSIZ_STUPCNT;
1369:Drivers/STM32H7xx_HAL_Driver/Src/stm32h7xx_ll_usb.c **** 
1370:Drivers/STM32H7xx_HAL_Driver/Src/stm32h7xx_ll_usb.c ****   if (dma == 1U)
1371:Drivers/STM32H7xx_HAL_Driver/Src/stm32h7xx_ll_usb.c ****   {
1372:Drivers/STM32H7xx_HAL_Driver/Src/stm32h7xx_ll_usb.c ****     USBx_OUTEP(0U)->DOEPDMA = (uint32_t)psetup;
1373:Drivers/STM32H7xx_HAL_Driver/Src/stm32h7xx_ll_usb.c ****     /* EP enable */
1374:Drivers/STM32H7xx_HAL_Driver/Src/stm32h7xx_ll_usb.c ****     USBx_OUTEP(0U)->DOEPCTL |= USB_OTG_DOEPCTL_EPENA | USB_OTG_DOEPCTL_USBAEP;
1375:Drivers/STM32H7xx_HAL_Driver/Src/stm32h7xx_ll_usb.c ****   }
1376:Drivers/STM32H7xx_HAL_Driver/Src/stm32h7xx_ll_usb.c **** 
1377:Drivers/STM32H7xx_HAL_Driver/Src/stm32h7xx_ll_usb.c ****   return HAL_OK;
1378:Drivers/STM32H7xx_HAL_Driver/Src/stm32h7xx_ll_usb.c **** }
1379:Drivers/STM32H7xx_HAL_Driver/Src/stm32h7xx_ll_usb.c **** 
1380:Drivers/STM32H7xx_HAL_Driver/Src/stm32h7xx_ll_usb.c **** /**
1381:Drivers/STM32H7xx_HAL_Driver/Src/stm32h7xx_ll_usb.c ****   * @brief  Reset the USB Core (needed after USB clock settings change)
1382:Drivers/STM32H7xx_HAL_Driver/Src/stm32h7xx_ll_usb.c ****   * @param  USBx  Selected device
1383:Drivers/STM32H7xx_HAL_Driver/Src/stm32h7xx_ll_usb.c ****   * @retval HAL status
1384:Drivers/STM32H7xx_HAL_Driver/Src/stm32h7xx_ll_usb.c ****   */
1385:Drivers/STM32H7xx_HAL_Driver/Src/stm32h7xx_ll_usb.c **** static HAL_StatusTypeDef USB_CoreReset(USB_OTG_GlobalTypeDef *USBx)
1386:Drivers/STM32H7xx_HAL_Driver/Src/stm32h7xx_ll_usb.c **** {
  28              		.loc 1 1386 1 view -0
  29              		.cfi_startproc
  30              		@ args = 0, pretend = 0, frame = 8
  31              		@ frame_needed = 0, uses_anonymous_args = 0
  32              		@ link register save eliminated.
  33              		.loc 1 1386 1 is_stmt 0 view .LVU1
  34 0000 82B0     		sub	sp, sp, #8
  35              	.LCFI0:
  36              		.cfi_def_cfa_offset 8
1387:Drivers/STM32H7xx_HAL_Driver/Src/stm32h7xx_ll_usb.c ****   __IO uint32_t count = 0U;
  37              		.loc 1 1387 3 is_stmt 1 view .LVU2
  38              		.loc 1 1387 17 is_stmt 0 view .LVU3
  39 0002 0023     		movs	r3, #0
ARM GAS  /tmp/ccdP7LVA.s 			page 26


  40 0004 0193     		str	r3, [sp, #4]
  41              	.L3:
1388:Drivers/STM32H7xx_HAL_Driver/Src/stm32h7xx_ll_usb.c **** 
1389:Drivers/STM32H7xx_HAL_Driver/Src/stm32h7xx_ll_usb.c ****   /* Wait for AHB master IDLE state. */
1390:Drivers/STM32H7xx_HAL_Driver/Src/stm32h7xx_ll_usb.c ****   do
  42              		.loc 1 1390 3 is_stmt 1 view .LVU4
1391:Drivers/STM32H7xx_HAL_Driver/Src/stm32h7xx_ll_usb.c ****   {
1392:Drivers/STM32H7xx_HAL_Driver/Src/stm32h7xx_ll_usb.c ****     count++;
  43              		.loc 1 1392 5 view .LVU5
  44              		.loc 1 1392 10 is_stmt 0 view .LVU6
  45 0006 019B     		ldr	r3, [sp, #4]
  46 0008 0133     		adds	r3, r3, #1
  47 000a 0193     		str	r3, [sp, #4]
1393:Drivers/STM32H7xx_HAL_Driver/Src/stm32h7xx_ll_usb.c **** 
1394:Drivers/STM32H7xx_HAL_Driver/Src/stm32h7xx_ll_usb.c ****     if (count > HAL_USB_TIMEOUT)
  48              		.loc 1 1394 5 is_stmt 1 view .LVU7
  49              		.loc 1 1394 15 is_stmt 0 view .LVU8
  50 000c 019B     		ldr	r3, [sp, #4]
  51              		.loc 1 1394 8 view .LVU9
  52 000e B3F1706F 		cmp	r3, #251658240
  53 0012 15D8     		bhi	.L5
1395:Drivers/STM32H7xx_HAL_Driver/Src/stm32h7xx_ll_usb.c ****     {
1396:Drivers/STM32H7xx_HAL_Driver/Src/stm32h7xx_ll_usb.c ****       return HAL_TIMEOUT;
1397:Drivers/STM32H7xx_HAL_Driver/Src/stm32h7xx_ll_usb.c ****     }
1398:Drivers/STM32H7xx_HAL_Driver/Src/stm32h7xx_ll_usb.c ****   } while ((USBx->GRSTCTL & USB_OTG_GRSTCTL_AHBIDL) == 0U);
  54              		.loc 1 1398 11 is_stmt 1 view .LVU10
  55              		.loc 1 1398 17 is_stmt 0 view .LVU11
  56 0014 0369     		ldr	r3, [r0, #16]
  57              		.loc 1 1398 3 view .LVU12
  58 0016 002B     		cmp	r3, #0
  59 0018 F5DA     		bge	.L3
1399:Drivers/STM32H7xx_HAL_Driver/Src/stm32h7xx_ll_usb.c **** 
1400:Drivers/STM32H7xx_HAL_Driver/Src/stm32h7xx_ll_usb.c ****   /* Core Soft Reset */
1401:Drivers/STM32H7xx_HAL_Driver/Src/stm32h7xx_ll_usb.c ****   count = 0U;
  60              		.loc 1 1401 3 is_stmt 1 view .LVU13
  61              		.loc 1 1401 9 is_stmt 0 view .LVU14
  62 001a 0023     		movs	r3, #0
  63 001c 0193     		str	r3, [sp, #4]
1402:Drivers/STM32H7xx_HAL_Driver/Src/stm32h7xx_ll_usb.c ****   USBx->GRSTCTL |= USB_OTG_GRSTCTL_CSRST;
  64              		.loc 1 1402 3 is_stmt 1 view .LVU15
  65              		.loc 1 1402 17 is_stmt 0 view .LVU16
  66 001e 0369     		ldr	r3, [r0, #16]
  67 0020 43F00103 		orr	r3, r3, #1
  68 0024 0361     		str	r3, [r0, #16]
  69              	.L4:
1403:Drivers/STM32H7xx_HAL_Driver/Src/stm32h7xx_ll_usb.c **** 
1404:Drivers/STM32H7xx_HAL_Driver/Src/stm32h7xx_ll_usb.c ****   do
  70              		.loc 1 1404 3 is_stmt 1 view .LVU17
1405:Drivers/STM32H7xx_HAL_Driver/Src/stm32h7xx_ll_usb.c ****   {
1406:Drivers/STM32H7xx_HAL_Driver/Src/stm32h7xx_ll_usb.c ****     count++;
  71              		.loc 1 1406 5 view .LVU18
  72              		.loc 1 1406 10 is_stmt 0 view .LVU19
  73 0026 019B     		ldr	r3, [sp, #4]
  74 0028 0133     		adds	r3, r3, #1
  75 002a 0193     		str	r3, [sp, #4]
1407:Drivers/STM32H7xx_HAL_Driver/Src/stm32h7xx_ll_usb.c **** 
1408:Drivers/STM32H7xx_HAL_Driver/Src/stm32h7xx_ll_usb.c ****     if (count > HAL_USB_TIMEOUT)
ARM GAS  /tmp/ccdP7LVA.s 			page 27


  76              		.loc 1 1408 5 is_stmt 1 view .LVU20
  77              		.loc 1 1408 15 is_stmt 0 view .LVU21
  78 002c 019B     		ldr	r3, [sp, #4]
  79              		.loc 1 1408 8 view .LVU22
  80 002e B3F1706F 		cmp	r3, #251658240
  81 0032 08D8     		bhi	.L6
1409:Drivers/STM32H7xx_HAL_Driver/Src/stm32h7xx_ll_usb.c ****     {
1410:Drivers/STM32H7xx_HAL_Driver/Src/stm32h7xx_ll_usb.c ****       return HAL_TIMEOUT;
1411:Drivers/STM32H7xx_HAL_Driver/Src/stm32h7xx_ll_usb.c ****     }
1412:Drivers/STM32H7xx_HAL_Driver/Src/stm32h7xx_ll_usb.c ****   } while ((USBx->GRSTCTL & USB_OTG_GRSTCTL_CSRST) == USB_OTG_GRSTCTL_CSRST);
  82              		.loc 1 1412 11 is_stmt 1 view .LVU23
  83              		.loc 1 1412 17 is_stmt 0 view .LVU24
  84 0034 0369     		ldr	r3, [r0, #16]
  85              		.loc 1 1412 3 view .LVU25
  86 0036 13F0010F 		tst	r3, #1
  87 003a F4D1     		bne	.L4
1413:Drivers/STM32H7xx_HAL_Driver/Src/stm32h7xx_ll_usb.c **** 
1414:Drivers/STM32H7xx_HAL_Driver/Src/stm32h7xx_ll_usb.c ****   return HAL_OK;
  88              		.loc 1 1414 10 view .LVU26
  89 003c 0020     		movs	r0, #0
  90              	.LVL1:
  91              		.loc 1 1414 10 view .LVU27
  92 003e 00E0     		b	.L2
  93              	.LVL2:
  94              	.L5:
1396:Drivers/STM32H7xx_HAL_Driver/Src/stm32h7xx_ll_usb.c ****     }
  95              		.loc 1 1396 14 view .LVU28
  96 0040 0320     		movs	r0, #3
  97              	.LVL3:
  98              	.L2:
1415:Drivers/STM32H7xx_HAL_Driver/Src/stm32h7xx_ll_usb.c **** }
  99              		.loc 1 1415 1 view .LVU29
 100 0042 02B0     		add	sp, sp, #8
 101              	.LCFI1:
 102              		.cfi_remember_state
 103              		.cfi_def_cfa_offset 0
 104              		@ sp needed
 105 0044 7047     		bx	lr
 106              	.LVL4:
 107              	.L6:
 108              	.LCFI2:
 109              		.cfi_restore_state
1410:Drivers/STM32H7xx_HAL_Driver/Src/stm32h7xx_ll_usb.c ****     }
 110              		.loc 1 1410 14 view .LVU30
 111 0046 0320     		movs	r0, #3
 112              	.LVL5:
1410:Drivers/STM32H7xx_HAL_Driver/Src/stm32h7xx_ll_usb.c ****     }
 113              		.loc 1 1410 14 view .LVU31
 114 0048 FBE7     		b	.L2
 115              		.cfi_endproc
 116              	.LFE178:
 118              		.section	.text.USB_CoreInit,"ax",%progbits
 119              		.align	1
 120              		.global	USB_CoreInit
 121              		.syntax unified
 122              		.thumb
 123              		.thumb_func
ARM GAS  /tmp/ccdP7LVA.s 			page 28


 124              		.fpu fpv5-d16
 126              	USB_CoreInit:
 127              	.LVL6:
 128              	.LFB144:
  84:Drivers/STM32H7xx_HAL_Driver/Src/stm32h7xx_ll_usb.c ****   HAL_StatusTypeDef ret;
 129              		.loc 1 84 1 is_stmt 1 view -0
 130              		.cfi_startproc
 131              		@ args = 20, pretend = 16, frame = 0
 132              		@ frame_needed = 0, uses_anonymous_args = 0
  84:Drivers/STM32H7xx_HAL_Driver/Src/stm32h7xx_ll_usb.c ****   HAL_StatusTypeDef ret;
 133              		.loc 1 84 1 is_stmt 0 view .LVU33
 134 0000 84B0     		sub	sp, sp, #16
 135              	.LCFI3:
 136              		.cfi_def_cfa_offset 16
 137 0002 10B5     		push	{r4, lr}
 138              	.LCFI4:
 139              		.cfi_def_cfa_offset 24
 140              		.cfi_offset 4, -24
 141              		.cfi_offset 14, -20
 142 0004 0446     		mov	r4, r0
 143 0006 03A8     		add	r0, sp, #12
 144              	.LVL7:
  84:Drivers/STM32H7xx_HAL_Driver/Src/stm32h7xx_ll_usb.c ****   HAL_StatusTypeDef ret;
 145              		.loc 1 84 1 view .LVU34
 146 0008 80E80E00 		stm	r0, {r1, r2, r3}
  85:Drivers/STM32H7xx_HAL_Driver/Src/stm32h7xx_ll_usb.c ****   if (cfg.phy_itface == USB_OTG_ULPI_PHY)
 147              		.loc 1 85 3 is_stmt 1 view .LVU35
  86:Drivers/STM32H7xx_HAL_Driver/Src/stm32h7xx_ll_usb.c ****   {
 148              		.loc 1 86 3 view .LVU36
  86:Drivers/STM32H7xx_HAL_Driver/Src/stm32h7xx_ll_usb.c ****   {
 149              		.loc 1 86 10 is_stmt 0 view .LVU37
 150 000c 9DF81130 		ldrb	r3, [sp, #17]	@ zero_extendqisi2
  86:Drivers/STM32H7xx_HAL_Driver/Src/stm32h7xx_ll_usb.c ****   {
 151              		.loc 1 86 6 view .LVU38
 152 0010 012B     		cmp	r3, #1
 153 0012 1FD1     		bne	.L9
  88:Drivers/STM32H7xx_HAL_Driver/Src/stm32h7xx_ll_usb.c **** 
 154              		.loc 1 88 5 is_stmt 1 view .LVU39
  88:Drivers/STM32H7xx_HAL_Driver/Src/stm32h7xx_ll_usb.c **** 
 155              		.loc 1 88 17 is_stmt 0 view .LVU40
 156 0014 A36B     		ldr	r3, [r4, #56]
 157 0016 23F48033 		bic	r3, r3, #65536
 158 001a A363     		str	r3, [r4, #56]
  91:Drivers/STM32H7xx_HAL_Driver/Src/stm32h7xx_ll_usb.c **** 
 159              		.loc 1 91 5 is_stmt 1 view .LVU41
  91:Drivers/STM32H7xx_HAL_Driver/Src/stm32h7xx_ll_usb.c **** 
 160              		.loc 1 91 19 is_stmt 0 view .LVU42
 161 001c E268     		ldr	r2, [r4, #12]
 162 001e 1F4B     		ldr	r3, .L17
 163 0020 1340     		ands	r3, r3, r2
 164 0022 E360     		str	r3, [r4, #12]
  94:Drivers/STM32H7xx_HAL_Driver/Src/stm32h7xx_ll_usb.c ****     if (cfg.use_external_vbus == 1U)
 165              		.loc 1 94 5 is_stmt 1 view .LVU43
  94:Drivers/STM32H7xx_HAL_Driver/Src/stm32h7xx_ll_usb.c ****     if (cfg.use_external_vbus == 1U)
 166              		.loc 1 94 19 is_stmt 0 view .LVU44
 167 0024 E368     		ldr	r3, [r4, #12]
 168 0026 23F44013 		bic	r3, r3, #3145728
ARM GAS  /tmp/ccdP7LVA.s 			page 29


 169 002a E360     		str	r3, [r4, #12]
  95:Drivers/STM32H7xx_HAL_Driver/Src/stm32h7xx_ll_usb.c ****     {
 170              		.loc 1 95 5 is_stmt 1 view .LVU45
  95:Drivers/STM32H7xx_HAL_Driver/Src/stm32h7xx_ll_usb.c ****     {
 171              		.loc 1 95 12 is_stmt 0 view .LVU46
 172 002c 9DF81830 		ldrb	r3, [sp, #24]	@ zero_extendqisi2
  95:Drivers/STM32H7xx_HAL_Driver/Src/stm32h7xx_ll_usb.c ****     {
 173              		.loc 1 95 8 view .LVU47
 174 0030 012B     		cmp	r3, #1
 175 0032 0AD0     		beq	.L15
 176              	.L10:
 101:Drivers/STM32H7xx_HAL_Driver/Src/stm32h7xx_ll_usb.c ****   }
 177              		.loc 1 101 5 is_stmt 1 view .LVU48
 101:Drivers/STM32H7xx_HAL_Driver/Src/stm32h7xx_ll_usb.c ****   }
 178              		.loc 1 101 11 is_stmt 0 view .LVU49
 179 0034 2046     		mov	r0, r4
 180 0036 FFF7FEFF 		bl	USB_CoreReset
 181              	.LVL8:
 182              	.L11:
 123:Drivers/STM32H7xx_HAL_Driver/Src/stm32h7xx_ll_usb.c ****   {
 183              		.loc 1 123 3 is_stmt 1 view .LVU50
 123:Drivers/STM32H7xx_HAL_Driver/Src/stm32h7xx_ll_usb.c ****   {
 184              		.loc 1 123 10 is_stmt 0 view .LVU51
 185 003a 9DF80E30 		ldrb	r3, [sp, #14]	@ zero_extendqisi2
 123:Drivers/STM32H7xx_HAL_Driver/Src/stm32h7xx_ll_usb.c ****   {
 186              		.loc 1 123 6 view .LVU52
 187 003e 012B     		cmp	r3, #1
 188 0040 1CD0     		beq	.L16
 189              	.L13:
 133:Drivers/STM32H7xx_HAL_Driver/Src/stm32h7xx_ll_usb.c **** }
 190              		.loc 1 133 3 is_stmt 1 view .LVU53
 134:Drivers/STM32H7xx_HAL_Driver/Src/stm32h7xx_ll_usb.c **** 
 191              		.loc 1 134 1 is_stmt 0 view .LVU54
 192 0042 BDE81040 		pop	{r4, lr}
 193              	.LCFI5:
 194              		.cfi_remember_state
 195              		.cfi_restore 14
 196              		.cfi_restore 4
 197              		.cfi_def_cfa_offset 16
 198              	.LVL9:
 134:Drivers/STM32H7xx_HAL_Driver/Src/stm32h7xx_ll_usb.c **** 
 199              		.loc 1 134 1 view .LVU55
 200 0046 04B0     		add	sp, sp, #16
 201              	.LCFI6:
 202              		.cfi_def_cfa_offset 0
 203 0048 7047     		bx	lr
 204              	.LVL10:
 205              	.L15:
 206              	.LCFI7:
 207              		.cfi_restore_state
  97:Drivers/STM32H7xx_HAL_Driver/Src/stm32h7xx_ll_usb.c ****     }
 208              		.loc 1 97 7 is_stmt 1 view .LVU56
  97:Drivers/STM32H7xx_HAL_Driver/Src/stm32h7xx_ll_usb.c ****     }
 209              		.loc 1 97 21 is_stmt 0 view .LVU57
 210 004a E368     		ldr	r3, [r4, #12]
 211 004c 43F48013 		orr	r3, r3, #1048576
 212 0050 E360     		str	r3, [r4, #12]
ARM GAS  /tmp/ccdP7LVA.s 			page 30


 213 0052 EFE7     		b	.L10
 214              	.L9:
 106:Drivers/STM32H7xx_HAL_Driver/Src/stm32h7xx_ll_usb.c **** 
 215              		.loc 1 106 5 is_stmt 1 view .LVU58
 106:Drivers/STM32H7xx_HAL_Driver/Src/stm32h7xx_ll_usb.c **** 
 216              		.loc 1 106 19 is_stmt 0 view .LVU59
 217 0054 E368     		ldr	r3, [r4, #12]
 218 0056 43F04003 		orr	r3, r3, #64
 219 005a E360     		str	r3, [r4, #12]
 109:Drivers/STM32H7xx_HAL_Driver/Src/stm32h7xx_ll_usb.c **** 
 220              		.loc 1 109 5 is_stmt 1 view .LVU60
 109:Drivers/STM32H7xx_HAL_Driver/Src/stm32h7xx_ll_usb.c **** 
 221              		.loc 1 109 11 is_stmt 0 view .LVU61
 222 005c 2046     		mov	r0, r4
 223 005e FFF7FEFF 		bl	USB_CoreReset
 224              	.LVL11:
 111:Drivers/STM32H7xx_HAL_Driver/Src/stm32h7xx_ll_usb.c ****     {
 225              		.loc 1 111 5 is_stmt 1 view .LVU62
 111:Drivers/STM32H7xx_HAL_Driver/Src/stm32h7xx_ll_usb.c ****     {
 226              		.loc 1 111 12 is_stmt 0 view .LVU63
 227 0062 9DF81530 		ldrb	r3, [sp, #21]	@ zero_extendqisi2
 111:Drivers/STM32H7xx_HAL_Driver/Src/stm32h7xx_ll_usb.c ****     {
 228              		.loc 1 111 8 view .LVU64
 229 0066 23B9     		cbnz	r3, .L12
 114:Drivers/STM32H7xx_HAL_Driver/Src/stm32h7xx_ll_usb.c ****     }
 230              		.loc 1 114 7 is_stmt 1 view .LVU65
 114:Drivers/STM32H7xx_HAL_Driver/Src/stm32h7xx_ll_usb.c ****     }
 231              		.loc 1 114 19 is_stmt 0 view .LVU66
 232 0068 A36B     		ldr	r3, [r4, #56]
 233 006a 43F48033 		orr	r3, r3, #65536
 234 006e A363     		str	r3, [r4, #56]
 235 0070 E3E7     		b	.L11
 236              	.L12:
 119:Drivers/STM32H7xx_HAL_Driver/Src/stm32h7xx_ll_usb.c ****     }
 237              		.loc 1 119 7 is_stmt 1 view .LVU67
 119:Drivers/STM32H7xx_HAL_Driver/Src/stm32h7xx_ll_usb.c ****     }
 238              		.loc 1 119 19 is_stmt 0 view .LVU68
 239 0072 A36B     		ldr	r3, [r4, #56]
 240 0074 23F48033 		bic	r3, r3, #65536
 241 0078 A363     		str	r3, [r4, #56]
 242 007a DEE7     		b	.L11
 243              	.L16:
 126:Drivers/STM32H7xx_HAL_Driver/Src/stm32h7xx_ll_usb.c ****     USBx->GDFIFOCFG |= 0x3EEU << 16;
 244              		.loc 1 126 5 is_stmt 1 view .LVU69
 126:Drivers/STM32H7xx_HAL_Driver/Src/stm32h7xx_ll_usb.c ****     USBx->GDFIFOCFG |= 0x3EEU << 16;
 245              		.loc 1 126 21 is_stmt 0 view .LVU70
 246 007c E36D     		ldr	r3, [r4, #92]
 247 007e 9BB2     		uxth	r3, r3
 248 0080 E365     		str	r3, [r4, #92]
 127:Drivers/STM32H7xx_HAL_Driver/Src/stm32h7xx_ll_usb.c **** 
 249              		.loc 1 127 5 is_stmt 1 view .LVU71
 127:Drivers/STM32H7xx_HAL_Driver/Src/stm32h7xx_ll_usb.c **** 
 250              		.loc 1 127 21 is_stmt 0 view .LVU72
 251 0082 E26D     		ldr	r2, [r4, #92]
 252 0084 064B     		ldr	r3, .L17+4
 253 0086 1343     		orrs	r3, r3, r2
 254 0088 E365     		str	r3, [r4, #92]
ARM GAS  /tmp/ccdP7LVA.s 			page 31


 129:Drivers/STM32H7xx_HAL_Driver/Src/stm32h7xx_ll_usb.c ****     USBx->GAHBCFG |= USB_OTG_GAHBCFG_DMAEN;
 255              		.loc 1 129 5 is_stmt 1 view .LVU73
 129:Drivers/STM32H7xx_HAL_Driver/Src/stm32h7xx_ll_usb.c ****     USBx->GAHBCFG |= USB_OTG_GAHBCFG_DMAEN;
 256              		.loc 1 129 19 is_stmt 0 view .LVU74
 257 008a A368     		ldr	r3, [r4, #8]
 258 008c 43F00603 		orr	r3, r3, #6
 259 0090 A360     		str	r3, [r4, #8]
 130:Drivers/STM32H7xx_HAL_Driver/Src/stm32h7xx_ll_usb.c ****   }
 260              		.loc 1 130 5 is_stmt 1 view .LVU75
 130:Drivers/STM32H7xx_HAL_Driver/Src/stm32h7xx_ll_usb.c ****   }
 261              		.loc 1 130 19 is_stmt 0 view .LVU76
 262 0092 A368     		ldr	r3, [r4, #8]
 263 0094 43F02003 		orr	r3, r3, #32
 264 0098 A360     		str	r3, [r4, #8]
 265 009a D2E7     		b	.L13
 266              	.L18:
 267              		.align	2
 268              	.L17:
 269 009c BFFFBDFF 		.word	-4325441
 270 00a0 0000EE03 		.word	65929216
 271              		.cfi_endproc
 272              	.LFE144:
 274              		.section	.text.USB_SetTurnaroundTime,"ax",%progbits
 275              		.align	1
 276              		.global	USB_SetTurnaroundTime
 277              		.syntax unified
 278              		.thumb
 279              		.thumb_func
 280              		.fpu fpv5-d16
 282              	USB_SetTurnaroundTime:
 283              	.LVL12:
 284              	.LFB145:
 145:Drivers/STM32H7xx_HAL_Driver/Src/stm32h7xx_ll_usb.c ****   uint32_t UsbTrd;
 285              		.loc 1 145 1 is_stmt 1 view -0
 286              		.cfi_startproc
 287              		@ args = 0, pretend = 0, frame = 0
 288              		@ frame_needed = 0, uses_anonymous_args = 0
 289              		@ link register save eliminated.
 146:Drivers/STM32H7xx_HAL_Driver/Src/stm32h7xx_ll_usb.c **** 
 290              		.loc 1 146 3 view .LVU78
 152:Drivers/STM32H7xx_HAL_Driver/Src/stm32h7xx_ll_usb.c ****   {
 291              		.loc 1 152 3 view .LVU79
 152:Drivers/STM32H7xx_HAL_Driver/Src/stm32h7xx_ll_usb.c ****   {
 292              		.loc 1 152 6 is_stmt 0 view .LVU80
 293 0000 022A     		cmp	r2, #2
 294 0002 0AD0     		beq	.L31
 207:Drivers/STM32H7xx_HAL_Driver/Src/stm32h7xx_ll_usb.c ****   }
 295              		.loc 1 207 12 view .LVU81
 296 0004 0921     		movs	r1, #9
 297              	.LVL13:
 298              	.L20:
 214:Drivers/STM32H7xx_HAL_Driver/Src/stm32h7xx_ll_usb.c ****   USBx->GUSBCFG |= (uint32_t)((UsbTrd << 10) & USB_OTG_GUSBCFG_TRDT);
 299              		.loc 1 214 3 is_stmt 1 view .LVU82
 214:Drivers/STM32H7xx_HAL_Driver/Src/stm32h7xx_ll_usb.c ****   USBx->GUSBCFG |= (uint32_t)((UsbTrd << 10) & USB_OTG_GUSBCFG_TRDT);
 300              		.loc 1 214 17 is_stmt 0 view .LVU83
 301 0006 C268     		ldr	r2, [r0, #12]
 302 0008 22F47052 		bic	r2, r2, #15360
ARM GAS  /tmp/ccdP7LVA.s 			page 32


 303 000c C260     		str	r2, [r0, #12]
 215:Drivers/STM32H7xx_HAL_Driver/Src/stm32h7xx_ll_usb.c **** 
 304              		.loc 1 215 3 is_stmt 1 view .LVU84
 215:Drivers/STM32H7xx_HAL_Driver/Src/stm32h7xx_ll_usb.c **** 
 305              		.loc 1 215 17 is_stmt 0 view .LVU85
 306 000e C368     		ldr	r3, [r0, #12]
 307 0010 43EA8123 		orr	r3, r3, r1, lsl #10
 308 0014 C360     		str	r3, [r0, #12]
 217:Drivers/STM32H7xx_HAL_Driver/Src/stm32h7xx_ll_usb.c **** }
 309              		.loc 1 217 3 is_stmt 1 view .LVU86
 218:Drivers/STM32H7xx_HAL_Driver/Src/stm32h7xx_ll_usb.c **** 
 310              		.loc 1 218 1 is_stmt 0 view .LVU87
 311 0016 0020     		movs	r0, #0
 312              	.LVL14:
 218:Drivers/STM32H7xx_HAL_Driver/Src/stm32h7xx_ll_usb.c **** 
 313              		.loc 1 218 1 view .LVU88
 314 0018 7047     		bx	lr
 315              	.LVL15:
 316              	.L31:
 154:Drivers/STM32H7xx_HAL_Driver/Src/stm32h7xx_ll_usb.c ****     {
 317              		.loc 1 154 5 is_stmt 1 view .LVU89
 154:Drivers/STM32H7xx_HAL_Driver/Src/stm32h7xx_ll_usb.c ****     {
 318              		.loc 1 154 29 is_stmt 0 view .LVU90
 319 001a 204B     		ldr	r3, .L32
 320 001c 0B44     		add	r3, r3, r1
 154:Drivers/STM32H7xx_HAL_Driver/Src/stm32h7xx_ll_usb.c ****     {
 321              		.loc 1 154 8 view .LVU91
 322 001e 204A     		ldr	r2, .L32+4
 323              	.LVL16:
 154:Drivers/STM32H7xx_HAL_Driver/Src/stm32h7xx_ll_usb.c ****     {
 324              		.loc 1 154 8 view .LVU92
 325 0020 9342     		cmp	r3, r2
 326 0022 29D9     		bls	.L22
 159:Drivers/STM32H7xx_HAL_Driver/Src/stm32h7xx_ll_usb.c ****     {
 327              		.loc 1 159 10 is_stmt 1 view .LVU93
 159:Drivers/STM32H7xx_HAL_Driver/Src/stm32h7xx_ll_usb.c ****     {
 328              		.loc 1 159 34 is_stmt 0 view .LVU94
 329 0024 1F4B     		ldr	r3, .L32+8
 330 0026 0B44     		add	r3, r3, r1
 159:Drivers/STM32H7xx_HAL_Driver/Src/stm32h7xx_ll_usb.c ****     {
 331              		.loc 1 159 13 view .LVU95
 332 0028 1F4A     		ldr	r2, .L32+12
 333 002a 9342     		cmp	r3, r2
 334 002c 26D9     		bls	.L23
 164:Drivers/STM32H7xx_HAL_Driver/Src/stm32h7xx_ll_usb.c ****     {
 335              		.loc 1 164 10 is_stmt 1 view .LVU96
 164:Drivers/STM32H7xx_HAL_Driver/Src/stm32h7xx_ll_usb.c ****     {
 336              		.loc 1 164 34 is_stmt 0 view .LVU97
 337 002e 1F4B     		ldr	r3, .L32+16
 338 0030 0B44     		add	r3, r3, r1
 164:Drivers/STM32H7xx_HAL_Driver/Src/stm32h7xx_ll_usb.c ****     {
 339              		.loc 1 164 13 view .LVU98
 340 0032 1F4A     		ldr	r2, .L32+20
 341 0034 9342     		cmp	r3, r2
 342 0036 23D9     		bls	.L24
 169:Drivers/STM32H7xx_HAL_Driver/Src/stm32h7xx_ll_usb.c ****     {
 343              		.loc 1 169 10 is_stmt 1 view .LVU99
ARM GAS  /tmp/ccdP7LVA.s 			page 33


 169:Drivers/STM32H7xx_HAL_Driver/Src/stm32h7xx_ll_usb.c ****     {
 344              		.loc 1 169 34 is_stmt 0 view .LVU100
 345 0038 1E4B     		ldr	r3, .L32+24
 346 003a 0B44     		add	r3, r3, r1
 169:Drivers/STM32H7xx_HAL_Driver/Src/stm32h7xx_ll_usb.c ****     {
 347              		.loc 1 169 13 view .LVU101
 348 003c 1E4A     		ldr	r2, .L32+28
 349 003e 9342     		cmp	r3, r2
 350 0040 20D3     		bcc	.L25
 174:Drivers/STM32H7xx_HAL_Driver/Src/stm32h7xx_ll_usb.c ****     {
 351              		.loc 1 174 10 is_stmt 1 view .LVU102
 174:Drivers/STM32H7xx_HAL_Driver/Src/stm32h7xx_ll_usb.c ****     {
 352              		.loc 1 174 34 is_stmt 0 view .LVU103
 353 0042 1E4B     		ldr	r3, .L32+32
 354 0044 0B44     		add	r3, r3, r1
 174:Drivers/STM32H7xx_HAL_Driver/Src/stm32h7xx_ll_usb.c ****     {
 355              		.loc 1 174 13 view .LVU104
 356 0046 1E4A     		ldr	r2, .L32+36
 357 0048 9342     		cmp	r3, r2
 358 004a 1DD9     		bls	.L26
 179:Drivers/STM32H7xx_HAL_Driver/Src/stm32h7xx_ll_usb.c ****     {
 359              		.loc 1 179 10 is_stmt 1 view .LVU105
 179:Drivers/STM32H7xx_HAL_Driver/Src/stm32h7xx_ll_usb.c ****     {
 360              		.loc 1 179 34 is_stmt 0 view .LVU106
 361 004c 1D4B     		ldr	r3, .L32+40
 362 004e 0B44     		add	r3, r3, r1
 179:Drivers/STM32H7xx_HAL_Driver/Src/stm32h7xx_ll_usb.c ****     {
 363              		.loc 1 179 13 view .LVU107
 364 0050 1D4A     		ldr	r2, .L32+44
 365 0052 9342     		cmp	r3, r2
 366 0054 1AD3     		bcc	.L27
 184:Drivers/STM32H7xx_HAL_Driver/Src/stm32h7xx_ll_usb.c ****     {
 367              		.loc 1 184 10 is_stmt 1 view .LVU108
 184:Drivers/STM32H7xx_HAL_Driver/Src/stm32h7xx_ll_usb.c ****     {
 368              		.loc 1 184 34 is_stmt 0 view .LVU109
 369 0056 1D4B     		ldr	r3, .L32+48
 370 0058 0B44     		add	r3, r3, r1
 184:Drivers/STM32H7xx_HAL_Driver/Src/stm32h7xx_ll_usb.c ****     {
 371              		.loc 1 184 13 view .LVU110
 372 005a 1D4A     		ldr	r2, .L32+52
 373 005c 9342     		cmp	r3, r2
 374 005e 17D3     		bcc	.L28
 189:Drivers/STM32H7xx_HAL_Driver/Src/stm32h7xx_ll_usb.c ****     {
 375              		.loc 1 189 10 is_stmt 1 view .LVU111
 189:Drivers/STM32H7xx_HAL_Driver/Src/stm32h7xx_ll_usb.c ****     {
 376              		.loc 1 189 34 is_stmt 0 view .LVU112
 377 0060 1C4B     		ldr	r3, .L32+56
 378 0062 0B44     		add	r3, r3, r1
 189:Drivers/STM32H7xx_HAL_Driver/Src/stm32h7xx_ll_usb.c ****     {
 379              		.loc 1 189 13 view .LVU113
 380 0064 1C4A     		ldr	r2, .L32+60
 381 0066 9342     		cmp	r3, r2
 382 0068 14D3     		bcc	.L29
 194:Drivers/STM32H7xx_HAL_Driver/Src/stm32h7xx_ll_usb.c ****     {
 383              		.loc 1 194 10 is_stmt 1 view .LVU114
 194:Drivers/STM32H7xx_HAL_Driver/Src/stm32h7xx_ll_usb.c ****     {
 384              		.loc 1 194 34 is_stmt 0 view .LVU115
ARM GAS  /tmp/ccdP7LVA.s 			page 34


 385 006a 1C4B     		ldr	r3, .L32+64
 386 006c 0B44     		add	r3, r3, r1
 194:Drivers/STM32H7xx_HAL_Driver/Src/stm32h7xx_ll_usb.c ****     {
 387              		.loc 1 194 13 view .LVU116
 388 006e 1C4A     		ldr	r2, .L32+68
 389 0070 9342     		cmp	r3, r2
 390 0072 11D2     		bcs	.L30
 197:Drivers/STM32H7xx_HAL_Driver/Src/stm32h7xx_ll_usb.c ****     }
 391              		.loc 1 197 14 view .LVU117
 392 0074 0721     		movs	r1, #7
 393              	.LVL17:
 197:Drivers/STM32H7xx_HAL_Driver/Src/stm32h7xx_ll_usb.c ****     }
 394              		.loc 1 197 14 view .LVU118
 395 0076 C6E7     		b	.L20
 396              	.LVL18:
 397              	.L22:
 157:Drivers/STM32H7xx_HAL_Driver/Src/stm32h7xx_ll_usb.c ****     }
 398              		.loc 1 157 14 view .LVU119
 399 0078 0F21     		movs	r1, #15
 400              	.LVL19:
 157:Drivers/STM32H7xx_HAL_Driver/Src/stm32h7xx_ll_usb.c ****     }
 401              		.loc 1 157 14 view .LVU120
 402 007a C4E7     		b	.L20
 403              	.LVL20:
 404              	.L23:
 162:Drivers/STM32H7xx_HAL_Driver/Src/stm32h7xx_ll_usb.c ****     }
 405              		.loc 1 162 14 view .LVU121
 406 007c 0E21     		movs	r1, #14
 407              	.LVL21:
 162:Drivers/STM32H7xx_HAL_Driver/Src/stm32h7xx_ll_usb.c ****     }
 408              		.loc 1 162 14 view .LVU122
 409 007e C2E7     		b	.L20
 410              	.LVL22:
 411              	.L24:
 167:Drivers/STM32H7xx_HAL_Driver/Src/stm32h7xx_ll_usb.c ****     }
 412              		.loc 1 167 14 view .LVU123
 413 0080 0D21     		movs	r1, #13
 414              	.LVL23:
 167:Drivers/STM32H7xx_HAL_Driver/Src/stm32h7xx_ll_usb.c ****     }
 415              		.loc 1 167 14 view .LVU124
 416 0082 C0E7     		b	.L20
 417              	.LVL24:
 418              	.L25:
 172:Drivers/STM32H7xx_HAL_Driver/Src/stm32h7xx_ll_usb.c ****     }
 419              		.loc 1 172 14 view .LVU125
 420 0084 0C21     		movs	r1, #12
 421              	.LVL25:
 172:Drivers/STM32H7xx_HAL_Driver/Src/stm32h7xx_ll_usb.c ****     }
 422              		.loc 1 172 14 view .LVU126
 423 0086 BEE7     		b	.L20
 424              	.LVL26:
 425              	.L26:
 177:Drivers/STM32H7xx_HAL_Driver/Src/stm32h7xx_ll_usb.c ****     }
 426              		.loc 1 177 14 view .LVU127
 427 0088 0B21     		movs	r1, #11
 428              	.LVL27:
 177:Drivers/STM32H7xx_HAL_Driver/Src/stm32h7xx_ll_usb.c ****     }
ARM GAS  /tmp/ccdP7LVA.s 			page 35


 429              		.loc 1 177 14 view .LVU128
 430 008a BCE7     		b	.L20
 431              	.LVL28:
 432              	.L27:
 182:Drivers/STM32H7xx_HAL_Driver/Src/stm32h7xx_ll_usb.c ****     }
 433              		.loc 1 182 14 view .LVU129
 434 008c 0A21     		movs	r1, #10
 435              	.LVL29:
 182:Drivers/STM32H7xx_HAL_Driver/Src/stm32h7xx_ll_usb.c ****     }
 436              		.loc 1 182 14 view .LVU130
 437 008e BAE7     		b	.L20
 438              	.LVL30:
 439              	.L28:
 187:Drivers/STM32H7xx_HAL_Driver/Src/stm32h7xx_ll_usb.c ****     }
 440              		.loc 1 187 14 view .LVU131
 441 0090 0921     		movs	r1, #9
 442              	.LVL31:
 187:Drivers/STM32H7xx_HAL_Driver/Src/stm32h7xx_ll_usb.c ****     }
 443              		.loc 1 187 14 view .LVU132
 444 0092 B8E7     		b	.L20
 445              	.LVL32:
 446              	.L29:
 192:Drivers/STM32H7xx_HAL_Driver/Src/stm32h7xx_ll_usb.c ****     }
 447              		.loc 1 192 14 view .LVU133
 448 0094 0821     		movs	r1, #8
 449              	.LVL33:
 192:Drivers/STM32H7xx_HAL_Driver/Src/stm32h7xx_ll_usb.c ****     }
 450              		.loc 1 192 14 view .LVU134
 451 0096 B6E7     		b	.L20
 452              	.LVL34:
 453              	.L30:
 202:Drivers/STM32H7xx_HAL_Driver/Src/stm32h7xx_ll_usb.c ****     }
 454              		.loc 1 202 14 view .LVU135
 455 0098 0621     		movs	r1, #6
 456              	.LVL35:
 202:Drivers/STM32H7xx_HAL_Driver/Src/stm32h7xx_ll_usb.c ****     }
 457              		.loc 1 202 14 view .LVU136
 458 009a B4E7     		b	.L20
 459              	.L33:
 460              		.align	2
 461              	.L32:
 462 009c 405327FF 		.word	-14200000
 463 00a0 FF340C00 		.word	799999
 464 00a4 401E1BFF 		.word	-15000000
 465 00a8 3F420F00 		.word	999999
 466 00ac 00DC0BFF 		.word	-16000000
 467 00b0 7F4F1200 		.word	1199999
 468 00b4 808CF9FE 		.word	-17200000
 469 00b8 20D61300 		.word	1300000
 470 00bc 60B6E5FE 		.word	-18500000
 471 00c0 5FE31600 		.word	1499999
 472 00c4 00D3CEFE 		.word	-20000000
 473 00c8 40771B00 		.word	1800000
 474 00cc C05BB3FE 		.word	-21800000
 475 00d0 C0912100 		.word	2200000
 476 00d4 00CA91FE 		.word	-24000000
 477 00d8 20753800 		.word	3700000
ARM GAS  /tmp/ccdP7LVA.s 			page 36


 478 00dc E05459FE 		.word	-27700000
 479 00e0 E09C4100 		.word	4300000
 480              		.cfi_endproc
 481              	.LFE145:
 483              		.section	.text.USB_EnableGlobalInt,"ax",%progbits
 484              		.align	1
 485              		.global	USB_EnableGlobalInt
 486              		.syntax unified
 487              		.thumb
 488              		.thumb_func
 489              		.fpu fpv5-d16
 491              	USB_EnableGlobalInt:
 492              	.LVL36:
 493              	.LFB146:
 227:Drivers/STM32H7xx_HAL_Driver/Src/stm32h7xx_ll_usb.c ****   USBx->GAHBCFG |= USB_OTG_GAHBCFG_GINT;
 494              		.loc 1 227 1 is_stmt 1 view -0
 495              		.cfi_startproc
 496              		@ args = 0, pretend = 0, frame = 0
 497              		@ frame_needed = 0, uses_anonymous_args = 0
 498              		@ link register save eliminated.
 228:Drivers/STM32H7xx_HAL_Driver/Src/stm32h7xx_ll_usb.c ****   return HAL_OK;
 499              		.loc 1 228 3 view .LVU138
 228:Drivers/STM32H7xx_HAL_Driver/Src/stm32h7xx_ll_usb.c ****   return HAL_OK;
 500              		.loc 1 228 17 is_stmt 0 view .LVU139
 501 0000 8368     		ldr	r3, [r0, #8]
 502 0002 43F00103 		orr	r3, r3, #1
 503 0006 8360     		str	r3, [r0, #8]
 229:Drivers/STM32H7xx_HAL_Driver/Src/stm32h7xx_ll_usb.c **** }
 504              		.loc 1 229 3 is_stmt 1 view .LVU140
 230:Drivers/STM32H7xx_HAL_Driver/Src/stm32h7xx_ll_usb.c **** 
 505              		.loc 1 230 1 is_stmt 0 view .LVU141
 506 0008 0020     		movs	r0, #0
 507              	.LVL37:
 230:Drivers/STM32H7xx_HAL_Driver/Src/stm32h7xx_ll_usb.c **** 
 508              		.loc 1 230 1 view .LVU142
 509 000a 7047     		bx	lr
 510              		.cfi_endproc
 511              	.LFE146:
 513              		.section	.text.USB_DisableGlobalInt,"ax",%progbits
 514              		.align	1
 515              		.global	USB_DisableGlobalInt
 516              		.syntax unified
 517              		.thumb
 518              		.thumb_func
 519              		.fpu fpv5-d16
 521              	USB_DisableGlobalInt:
 522              	.LVL38:
 523              	.LFB147:
 239:Drivers/STM32H7xx_HAL_Driver/Src/stm32h7xx_ll_usb.c ****   USBx->GAHBCFG &= ~USB_OTG_GAHBCFG_GINT;
 524              		.loc 1 239 1 is_stmt 1 view -0
 525              		.cfi_startproc
 526              		@ args = 0, pretend = 0, frame = 0
 527              		@ frame_needed = 0, uses_anonymous_args = 0
 528              		@ link register save eliminated.
 240:Drivers/STM32H7xx_HAL_Driver/Src/stm32h7xx_ll_usb.c ****   return HAL_OK;
 529              		.loc 1 240 3 view .LVU144
 240:Drivers/STM32H7xx_HAL_Driver/Src/stm32h7xx_ll_usb.c ****   return HAL_OK;
ARM GAS  /tmp/ccdP7LVA.s 			page 37


 530              		.loc 1 240 17 is_stmt 0 view .LVU145
 531 0000 8368     		ldr	r3, [r0, #8]
 532 0002 23F00103 		bic	r3, r3, #1
 533 0006 8360     		str	r3, [r0, #8]
 241:Drivers/STM32H7xx_HAL_Driver/Src/stm32h7xx_ll_usb.c **** }
 534              		.loc 1 241 3 is_stmt 1 view .LVU146
 242:Drivers/STM32H7xx_HAL_Driver/Src/stm32h7xx_ll_usb.c **** 
 535              		.loc 1 242 1 is_stmt 0 view .LVU147
 536 0008 0020     		movs	r0, #0
 537              	.LVL39:
 242:Drivers/STM32H7xx_HAL_Driver/Src/stm32h7xx_ll_usb.c **** 
 538              		.loc 1 242 1 view .LVU148
 539 000a 7047     		bx	lr
 540              		.cfi_endproc
 541              	.LFE147:
 543              		.section	.text.USB_FlushTxFifo,"ax",%progbits
 544              		.align	1
 545              		.global	USB_FlushTxFifo
 546              		.syntax unified
 547              		.thumb
 548              		.thumb_func
 549              		.fpu fpv5-d16
 551              	USB_FlushTxFifo:
 552              	.LVL40:
 553              	.LFB150:
 453:Drivers/STM32H7xx_HAL_Driver/Src/stm32h7xx_ll_usb.c ****   __IO uint32_t count = 0U;
 554              		.loc 1 453 1 is_stmt 1 view -0
 555              		.cfi_startproc
 556              		@ args = 0, pretend = 0, frame = 8
 557              		@ frame_needed = 0, uses_anonymous_args = 0
 558              		@ link register save eliminated.
 453:Drivers/STM32H7xx_HAL_Driver/Src/stm32h7xx_ll_usb.c ****   __IO uint32_t count = 0U;
 559              		.loc 1 453 1 is_stmt 0 view .LVU150
 560 0000 82B0     		sub	sp, sp, #8
 561              	.LCFI8:
 562              		.cfi_def_cfa_offset 8
 454:Drivers/STM32H7xx_HAL_Driver/Src/stm32h7xx_ll_usb.c **** 
 563              		.loc 1 454 3 is_stmt 1 view .LVU151
 454:Drivers/STM32H7xx_HAL_Driver/Src/stm32h7xx_ll_usb.c **** 
 564              		.loc 1 454 17 is_stmt 0 view .LVU152
 565 0002 0023     		movs	r3, #0
 566 0004 0193     		str	r3, [sp, #4]
 567              	.L38:
 457:Drivers/STM32H7xx_HAL_Driver/Src/stm32h7xx_ll_usb.c ****   {
 568              		.loc 1 457 3 is_stmt 1 view .LVU153
 459:Drivers/STM32H7xx_HAL_Driver/Src/stm32h7xx_ll_usb.c **** 
 569              		.loc 1 459 5 view .LVU154
 459:Drivers/STM32H7xx_HAL_Driver/Src/stm32h7xx_ll_usb.c **** 
 570              		.loc 1 459 10 is_stmt 0 view .LVU155
 571 0006 019B     		ldr	r3, [sp, #4]
 572 0008 0133     		adds	r3, r3, #1
 573 000a 0193     		str	r3, [sp, #4]
 461:Drivers/STM32H7xx_HAL_Driver/Src/stm32h7xx_ll_usb.c ****     {
 574              		.loc 1 461 5 is_stmt 1 view .LVU156
 461:Drivers/STM32H7xx_HAL_Driver/Src/stm32h7xx_ll_usb.c ****     {
 575              		.loc 1 461 15 is_stmt 0 view .LVU157
 576 000c 019B     		ldr	r3, [sp, #4]
ARM GAS  /tmp/ccdP7LVA.s 			page 38


 461:Drivers/STM32H7xx_HAL_Driver/Src/stm32h7xx_ll_usb.c ****     {
 577              		.loc 1 461 8 view .LVU158
 578 000e B3F1706F 		cmp	r3, #251658240
 579 0012 15D8     		bhi	.L40
 465:Drivers/STM32H7xx_HAL_Driver/Src/stm32h7xx_ll_usb.c **** 
 580              		.loc 1 465 11 is_stmt 1 view .LVU159
 465:Drivers/STM32H7xx_HAL_Driver/Src/stm32h7xx_ll_usb.c **** 
 581              		.loc 1 465 17 is_stmt 0 view .LVU160
 582 0014 0369     		ldr	r3, [r0, #16]
 465:Drivers/STM32H7xx_HAL_Driver/Src/stm32h7xx_ll_usb.c **** 
 583              		.loc 1 465 3 view .LVU161
 584 0016 002B     		cmp	r3, #0
 585 0018 F5DA     		bge	.L38
 468:Drivers/STM32H7xx_HAL_Driver/Src/stm32h7xx_ll_usb.c ****   USBx->GRSTCTL = (USB_OTG_GRSTCTL_TXFFLSH | (num << 6));
 586              		.loc 1 468 3 is_stmt 1 view .LVU162
 468:Drivers/STM32H7xx_HAL_Driver/Src/stm32h7xx_ll_usb.c ****   USBx->GRSTCTL = (USB_OTG_GRSTCTL_TXFFLSH | (num << 6));
 587              		.loc 1 468 9 is_stmt 0 view .LVU163
 588 001a 0023     		movs	r3, #0
 589 001c 0193     		str	r3, [sp, #4]
 469:Drivers/STM32H7xx_HAL_Driver/Src/stm32h7xx_ll_usb.c **** 
 590              		.loc 1 469 3 is_stmt 1 view .LVU164
 469:Drivers/STM32H7xx_HAL_Driver/Src/stm32h7xx_ll_usb.c **** 
 591              		.loc 1 469 51 is_stmt 0 view .LVU165
 592 001e 8901     		lsls	r1, r1, #6
 593              	.LVL41:
 469:Drivers/STM32H7xx_HAL_Driver/Src/stm32h7xx_ll_usb.c **** 
 594              		.loc 1 469 44 view .LVU166
 595 0020 41F02001 		orr	r1, r1, #32
 469:Drivers/STM32H7xx_HAL_Driver/Src/stm32h7xx_ll_usb.c **** 
 596              		.loc 1 469 17 view .LVU167
 597 0024 0161     		str	r1, [r0, #16]
 598              	.L39:
 471:Drivers/STM32H7xx_HAL_Driver/Src/stm32h7xx_ll_usb.c ****   {
 599              		.loc 1 471 3 is_stmt 1 view .LVU168
 473:Drivers/STM32H7xx_HAL_Driver/Src/stm32h7xx_ll_usb.c **** 
 600              		.loc 1 473 5 view .LVU169
 473:Drivers/STM32H7xx_HAL_Driver/Src/stm32h7xx_ll_usb.c **** 
 601              		.loc 1 473 10 is_stmt 0 view .LVU170
 602 0026 019B     		ldr	r3, [sp, #4]
 603 0028 0133     		adds	r3, r3, #1
 604 002a 0193     		str	r3, [sp, #4]
 475:Drivers/STM32H7xx_HAL_Driver/Src/stm32h7xx_ll_usb.c ****     {
 605              		.loc 1 475 5 is_stmt 1 view .LVU171
 475:Drivers/STM32H7xx_HAL_Driver/Src/stm32h7xx_ll_usb.c ****     {
 606              		.loc 1 475 15 is_stmt 0 view .LVU172
 607 002c 019B     		ldr	r3, [sp, #4]
 475:Drivers/STM32H7xx_HAL_Driver/Src/stm32h7xx_ll_usb.c ****     {
 608              		.loc 1 475 8 view .LVU173
 609 002e B3F1706F 		cmp	r3, #251658240
 610 0032 08D8     		bhi	.L41
 479:Drivers/STM32H7xx_HAL_Driver/Src/stm32h7xx_ll_usb.c **** 
 611              		.loc 1 479 11 is_stmt 1 view .LVU174
 479:Drivers/STM32H7xx_HAL_Driver/Src/stm32h7xx_ll_usb.c **** 
 612              		.loc 1 479 17 is_stmt 0 view .LVU175
 613 0034 0369     		ldr	r3, [r0, #16]
 479:Drivers/STM32H7xx_HAL_Driver/Src/stm32h7xx_ll_usb.c **** 
 614              		.loc 1 479 3 view .LVU176
ARM GAS  /tmp/ccdP7LVA.s 			page 39


 615 0036 13F0200F 		tst	r3, #32
 616 003a F4D1     		bne	.L39
 481:Drivers/STM32H7xx_HAL_Driver/Src/stm32h7xx_ll_usb.c **** }
 617              		.loc 1 481 10 view .LVU177
 618 003c 0020     		movs	r0, #0
 619              	.LVL42:
 481:Drivers/STM32H7xx_HAL_Driver/Src/stm32h7xx_ll_usb.c **** }
 620              		.loc 1 481 10 view .LVU178
 621 003e 00E0     		b	.L37
 622              	.LVL43:
 623              	.L40:
 463:Drivers/STM32H7xx_HAL_Driver/Src/stm32h7xx_ll_usb.c ****     }
 624              		.loc 1 463 14 view .LVU179
 625 0040 0320     		movs	r0, #3
 626              	.LVL44:
 627              	.L37:
 482:Drivers/STM32H7xx_HAL_Driver/Src/stm32h7xx_ll_usb.c **** 
 628              		.loc 1 482 1 view .LVU180
 629 0042 02B0     		add	sp, sp, #8
 630              	.LCFI9:
 631              		.cfi_remember_state
 632              		.cfi_def_cfa_offset 0
 633              		@ sp needed
 634 0044 7047     		bx	lr
 635              	.LVL45:
 636              	.L41:
 637              	.LCFI10:
 638              		.cfi_restore_state
 477:Drivers/STM32H7xx_HAL_Driver/Src/stm32h7xx_ll_usb.c ****     }
 639              		.loc 1 477 14 view .LVU181
 640 0046 0320     		movs	r0, #3
 641              	.LVL46:
 477:Drivers/STM32H7xx_HAL_Driver/Src/stm32h7xx_ll_usb.c ****     }
 642              		.loc 1 477 14 view .LVU182
 643 0048 FBE7     		b	.L37
 644              		.cfi_endproc
 645              	.LFE150:
 647              		.section	.text.USB_FlushRxFifo,"ax",%progbits
 648              		.align	1
 649              		.global	USB_FlushRxFifo
 650              		.syntax unified
 651              		.thumb
 652              		.thumb_func
 653              		.fpu fpv5-d16
 655              	USB_FlushRxFifo:
 656              	.LVL47:
 657              	.LFB151:
 490:Drivers/STM32H7xx_HAL_Driver/Src/stm32h7xx_ll_usb.c ****   __IO uint32_t count = 0U;
 658              		.loc 1 490 1 is_stmt 1 view -0
 659              		.cfi_startproc
 660              		@ args = 0, pretend = 0, frame = 8
 661              		@ frame_needed = 0, uses_anonymous_args = 0
 662              		@ link register save eliminated.
 490:Drivers/STM32H7xx_HAL_Driver/Src/stm32h7xx_ll_usb.c ****   __IO uint32_t count = 0U;
 663              		.loc 1 490 1 is_stmt 0 view .LVU184
 664 0000 82B0     		sub	sp, sp, #8
 665              	.LCFI11:
ARM GAS  /tmp/ccdP7LVA.s 			page 40


 666              		.cfi_def_cfa_offset 8
 491:Drivers/STM32H7xx_HAL_Driver/Src/stm32h7xx_ll_usb.c **** 
 667              		.loc 1 491 3 is_stmt 1 view .LVU185
 491:Drivers/STM32H7xx_HAL_Driver/Src/stm32h7xx_ll_usb.c **** 
 668              		.loc 1 491 17 is_stmt 0 view .LVU186
 669 0002 0023     		movs	r3, #0
 670 0004 0193     		str	r3, [sp, #4]
 671              	.L45:
 494:Drivers/STM32H7xx_HAL_Driver/Src/stm32h7xx_ll_usb.c ****   {
 672              		.loc 1 494 3 is_stmt 1 view .LVU187
 496:Drivers/STM32H7xx_HAL_Driver/Src/stm32h7xx_ll_usb.c **** 
 673              		.loc 1 496 5 view .LVU188
 496:Drivers/STM32H7xx_HAL_Driver/Src/stm32h7xx_ll_usb.c **** 
 674              		.loc 1 496 10 is_stmt 0 view .LVU189
 675 0006 019B     		ldr	r3, [sp, #4]
 676 0008 0133     		adds	r3, r3, #1
 677 000a 0193     		str	r3, [sp, #4]
 498:Drivers/STM32H7xx_HAL_Driver/Src/stm32h7xx_ll_usb.c ****     {
 678              		.loc 1 498 5 is_stmt 1 view .LVU190
 498:Drivers/STM32H7xx_HAL_Driver/Src/stm32h7xx_ll_usb.c ****     {
 679              		.loc 1 498 15 is_stmt 0 view .LVU191
 680 000c 019B     		ldr	r3, [sp, #4]
 498:Drivers/STM32H7xx_HAL_Driver/Src/stm32h7xx_ll_usb.c ****     {
 681              		.loc 1 498 8 view .LVU192
 682 000e B3F1706F 		cmp	r3, #251658240
 683 0012 13D8     		bhi	.L47
 502:Drivers/STM32H7xx_HAL_Driver/Src/stm32h7xx_ll_usb.c **** 
 684              		.loc 1 502 11 is_stmt 1 view .LVU193
 502:Drivers/STM32H7xx_HAL_Driver/Src/stm32h7xx_ll_usb.c **** 
 685              		.loc 1 502 17 is_stmt 0 view .LVU194
 686 0014 0369     		ldr	r3, [r0, #16]
 502:Drivers/STM32H7xx_HAL_Driver/Src/stm32h7xx_ll_usb.c **** 
 687              		.loc 1 502 3 view .LVU195
 688 0016 002B     		cmp	r3, #0
 689 0018 F5DA     		bge	.L45
 505:Drivers/STM32H7xx_HAL_Driver/Src/stm32h7xx_ll_usb.c ****   USBx->GRSTCTL = USB_OTG_GRSTCTL_RXFFLSH;
 690              		.loc 1 505 3 is_stmt 1 view .LVU196
 505:Drivers/STM32H7xx_HAL_Driver/Src/stm32h7xx_ll_usb.c ****   USBx->GRSTCTL = USB_OTG_GRSTCTL_RXFFLSH;
 691              		.loc 1 505 9 is_stmt 0 view .LVU197
 692 001a 0023     		movs	r3, #0
 693 001c 0193     		str	r3, [sp, #4]
 506:Drivers/STM32H7xx_HAL_Driver/Src/stm32h7xx_ll_usb.c **** 
 694              		.loc 1 506 3 is_stmt 1 view .LVU198
 506:Drivers/STM32H7xx_HAL_Driver/Src/stm32h7xx_ll_usb.c **** 
 695              		.loc 1 506 17 is_stmt 0 view .LVU199
 696 001e 1023     		movs	r3, #16
 697 0020 0361     		str	r3, [r0, #16]
 698              	.L46:
 508:Drivers/STM32H7xx_HAL_Driver/Src/stm32h7xx_ll_usb.c ****   {
 699              		.loc 1 508 3 is_stmt 1 view .LVU200
 510:Drivers/STM32H7xx_HAL_Driver/Src/stm32h7xx_ll_usb.c **** 
 700              		.loc 1 510 5 view .LVU201
 510:Drivers/STM32H7xx_HAL_Driver/Src/stm32h7xx_ll_usb.c **** 
 701              		.loc 1 510 10 is_stmt 0 view .LVU202
 702 0022 019B     		ldr	r3, [sp, #4]
 703 0024 0133     		adds	r3, r3, #1
 704 0026 0193     		str	r3, [sp, #4]
ARM GAS  /tmp/ccdP7LVA.s 			page 41


 512:Drivers/STM32H7xx_HAL_Driver/Src/stm32h7xx_ll_usb.c ****     {
 705              		.loc 1 512 5 is_stmt 1 view .LVU203
 512:Drivers/STM32H7xx_HAL_Driver/Src/stm32h7xx_ll_usb.c ****     {
 706              		.loc 1 512 15 is_stmt 0 view .LVU204
 707 0028 019B     		ldr	r3, [sp, #4]
 512:Drivers/STM32H7xx_HAL_Driver/Src/stm32h7xx_ll_usb.c ****     {
 708              		.loc 1 512 8 view .LVU205
 709 002a B3F1706F 		cmp	r3, #251658240
 710 002e 08D8     		bhi	.L48
 516:Drivers/STM32H7xx_HAL_Driver/Src/stm32h7xx_ll_usb.c **** 
 711              		.loc 1 516 11 is_stmt 1 view .LVU206
 516:Drivers/STM32H7xx_HAL_Driver/Src/stm32h7xx_ll_usb.c **** 
 712              		.loc 1 516 17 is_stmt 0 view .LVU207
 713 0030 0369     		ldr	r3, [r0, #16]
 516:Drivers/STM32H7xx_HAL_Driver/Src/stm32h7xx_ll_usb.c **** 
 714              		.loc 1 516 3 view .LVU208
 715 0032 13F0100F 		tst	r3, #16
 716 0036 F4D1     		bne	.L46
 518:Drivers/STM32H7xx_HAL_Driver/Src/stm32h7xx_ll_usb.c **** }
 717              		.loc 1 518 10 view .LVU209
 718 0038 0020     		movs	r0, #0
 719              	.LVL48:
 518:Drivers/STM32H7xx_HAL_Driver/Src/stm32h7xx_ll_usb.c **** }
 720              		.loc 1 518 10 view .LVU210
 721 003a 00E0     		b	.L44
 722              	.LVL49:
 723              	.L47:
 500:Drivers/STM32H7xx_HAL_Driver/Src/stm32h7xx_ll_usb.c ****     }
 724              		.loc 1 500 14 view .LVU211
 725 003c 0320     		movs	r0, #3
 726              	.LVL50:
 727              	.L44:
 519:Drivers/STM32H7xx_HAL_Driver/Src/stm32h7xx_ll_usb.c **** 
 728              		.loc 1 519 1 view .LVU212
 729 003e 02B0     		add	sp, sp, #8
 730              	.LCFI12:
 731              		.cfi_remember_state
 732              		.cfi_def_cfa_offset 0
 733              		@ sp needed
 734 0040 7047     		bx	lr
 735              	.LVL51:
 736              	.L48:
 737              	.LCFI13:
 738              		.cfi_restore_state
 514:Drivers/STM32H7xx_HAL_Driver/Src/stm32h7xx_ll_usb.c ****     }
 739              		.loc 1 514 14 view .LVU213
 740 0042 0320     		movs	r0, #3
 741              	.LVL52:
 514:Drivers/STM32H7xx_HAL_Driver/Src/stm32h7xx_ll_usb.c ****     }
 742              		.loc 1 514 14 view .LVU214
 743 0044 FBE7     		b	.L44
 744              		.cfi_endproc
 745              	.LFE151:
 747              		.section	.text.USB_SetDevSpeed,"ax",%progbits
 748              		.align	1
 749              		.global	USB_SetDevSpeed
 750              		.syntax unified
ARM GAS  /tmp/ccdP7LVA.s 			page 42


 751              		.thumb
 752              		.thumb_func
 753              		.fpu fpv5-d16
 755              	USB_SetDevSpeed:
 756              	.LVL53:
 757              	.LFB152:
 533:Drivers/STM32H7xx_HAL_Driver/Src/stm32h7xx_ll_usb.c ****   uint32_t USBx_BASE = (uint32_t)USBx;
 758              		.loc 1 533 1 is_stmt 1 view -0
 759              		.cfi_startproc
 760              		@ args = 0, pretend = 0, frame = 0
 761              		@ frame_needed = 0, uses_anonymous_args = 0
 762              		@ link register save eliminated.
 534:Drivers/STM32H7xx_HAL_Driver/Src/stm32h7xx_ll_usb.c **** 
 763              		.loc 1 534 3 view .LVU216
 536:Drivers/STM32H7xx_HAL_Driver/Src/stm32h7xx_ll_usb.c ****   return HAL_OK;
 764              		.loc 1 536 3 view .LVU217
 536:Drivers/STM32H7xx_HAL_Driver/Src/stm32h7xx_ll_usb.c ****   return HAL_OK;
 765              		.loc 1 536 21 is_stmt 0 view .LVU218
 766 0000 D0F80038 		ldr	r3, [r0, #2048]
 767 0004 1943     		orrs	r1, r1, r3
 768              	.LVL54:
 536:Drivers/STM32H7xx_HAL_Driver/Src/stm32h7xx_ll_usb.c ****   return HAL_OK;
 769              		.loc 1 536 21 view .LVU219
 770 0006 C0F80018 		str	r1, [r0, #2048]
 537:Drivers/STM32H7xx_HAL_Driver/Src/stm32h7xx_ll_usb.c **** }
 771              		.loc 1 537 3 is_stmt 1 view .LVU220
 538:Drivers/STM32H7xx_HAL_Driver/Src/stm32h7xx_ll_usb.c **** 
 772              		.loc 1 538 1 is_stmt 0 view .LVU221
 773 000a 0020     		movs	r0, #0
 774              	.LVL55:
 538:Drivers/STM32H7xx_HAL_Driver/Src/stm32h7xx_ll_usb.c **** 
 775              		.loc 1 538 1 view .LVU222
 776 000c 7047     		bx	lr
 777              		.cfi_endproc
 778              	.LFE152:
 780              		.section	.text.USB_DevInit,"ax",%progbits
 781              		.align	1
 782              		.global	USB_DevInit
 783              		.syntax unified
 784              		.thumb
 785              		.thumb_func
 786              		.fpu fpv5-d16
 788              	USB_DevInit:
 789              	.LVL56:
 790              	.LFB149:
 301:Drivers/STM32H7xx_HAL_Driver/Src/stm32h7xx_ll_usb.c ****   HAL_StatusTypeDef ret = HAL_OK;
 791              		.loc 1 301 1 is_stmt 1 view -0
 792              		.cfi_startproc
 793              		@ args = 20, pretend = 16, frame = 0
 794              		@ frame_needed = 0, uses_anonymous_args = 0
 301:Drivers/STM32H7xx_HAL_Driver/Src/stm32h7xx_ll_usb.c ****   HAL_StatusTypeDef ret = HAL_OK;
 795              		.loc 1 301 1 is_stmt 0 view .LVU224
 796 0000 84B0     		sub	sp, sp, #16
 797              	.LCFI14:
 798              		.cfi_def_cfa_offset 16
 799 0002 F8B5     		push	{r3, r4, r5, r6, r7, lr}
 800              	.LCFI15:
ARM GAS  /tmp/ccdP7LVA.s 			page 43


 801              		.cfi_def_cfa_offset 40
 802              		.cfi_offset 3, -40
 803              		.cfi_offset 4, -36
 804              		.cfi_offset 5, -32
 805              		.cfi_offset 6, -28
 806              		.cfi_offset 7, -24
 807              		.cfi_offset 14, -20
 808 0004 0446     		mov	r4, r0
 809 0006 07A8     		add	r0, sp, #28
 810              	.LVL57:
 301:Drivers/STM32H7xx_HAL_Driver/Src/stm32h7xx_ll_usb.c ****   HAL_StatusTypeDef ret = HAL_OK;
 811              		.loc 1 301 1 view .LVU225
 812 0008 80E80E00 		stm	r0, {r1, r2, r3}
 302:Drivers/STM32H7xx_HAL_Driver/Src/stm32h7xx_ll_usb.c ****   uint32_t USBx_BASE = (uint32_t)USBx;
 813              		.loc 1 302 3 is_stmt 1 view .LVU226
 814              	.LVL58:
 303:Drivers/STM32H7xx_HAL_Driver/Src/stm32h7xx_ll_usb.c ****   uint32_t i;
 815              		.loc 1 303 3 view .LVU227
 303:Drivers/STM32H7xx_HAL_Driver/Src/stm32h7xx_ll_usb.c ****   uint32_t i;
 816              		.loc 1 303 12 is_stmt 0 view .LVU228
 817 000c 2546     		mov	r5, r4
 818              	.LVL59:
 304:Drivers/STM32H7xx_HAL_Driver/Src/stm32h7xx_ll_usb.c **** 
 819              		.loc 1 304 3 is_stmt 1 view .LVU229
 306:Drivers/STM32H7xx_HAL_Driver/Src/stm32h7xx_ll_usb.c ****   {
 820              		.loc 1 306 3 view .LVU230
 306:Drivers/STM32H7xx_HAL_Driver/Src/stm32h7xx_ll_usb.c ****   {
 821              		.loc 1 306 10 is_stmt 0 view .LVU231
 822 000e 0023     		movs	r3, #0
 306:Drivers/STM32H7xx_HAL_Driver/Src/stm32h7xx_ll_usb.c ****   {
 823              		.loc 1 306 3 view .LVU232
 824 0010 06E0     		b	.L52
 825              	.LVL60:
 826              	.L53:
 308:Drivers/STM32H7xx_HAL_Driver/Src/stm32h7xx_ll_usb.c ****   }
 827              		.loc 1 308 5 is_stmt 1 discriminator 3 view .LVU233
 308:Drivers/STM32H7xx_HAL_Driver/Src/stm32h7xx_ll_usb.c ****   }
 828              		.loc 1 308 22 is_stmt 0 discriminator 3 view .LVU234
 829 0012 03F14002 		add	r2, r3, #64
 830 0016 04EB8202 		add	r2, r4, r2, lsl #2
 831 001a 0021     		movs	r1, #0
 832 001c 5160     		str	r1, [r2, #4]
 306:Drivers/STM32H7xx_HAL_Driver/Src/stm32h7xx_ll_usb.c ****   {
 833              		.loc 1 306 25 is_stmt 1 discriminator 3 view .LVU235
 306:Drivers/STM32H7xx_HAL_Driver/Src/stm32h7xx_ll_usb.c ****   {
 834              		.loc 1 306 26 is_stmt 0 discriminator 3 view .LVU236
 835 001e 0133     		adds	r3, r3, #1
 836              	.LVL61:
 837              	.L52:
 306:Drivers/STM32H7xx_HAL_Driver/Src/stm32h7xx_ll_usb.c ****   {
 838              		.loc 1 306 16 is_stmt 1 discriminator 1 view .LVU237
 306:Drivers/STM32H7xx_HAL_Driver/Src/stm32h7xx_ll_usb.c ****   {
 839              		.loc 1 306 3 is_stmt 0 discriminator 1 view .LVU238
 840 0020 0E2B     		cmp	r3, #14
 841 0022 F6D9     		bls	.L53
 312:Drivers/STM32H7xx_HAL_Driver/Src/stm32h7xx_ll_usb.c ****   {
 842              		.loc 1 312 3 is_stmt 1 view .LVU239
ARM GAS  /tmp/ccdP7LVA.s 			page 44


 312:Drivers/STM32H7xx_HAL_Driver/Src/stm32h7xx_ll_usb.c ****   {
 843              		.loc 1 312 10 is_stmt 0 view .LVU240
 844 0024 9DF82670 		ldrb	r7, [sp, #38]	@ zero_extendqisi2
 312:Drivers/STM32H7xx_HAL_Driver/Src/stm32h7xx_ll_usb.c ****   {
 845              		.loc 1 312 6 view .LVU241
 846 0028 07BB     		cbnz	r7, .L54
 314:Drivers/STM32H7xx_HAL_Driver/Src/stm32h7xx_ll_usb.c **** 
 847              		.loc 1 314 5 is_stmt 1 view .LVU242
 314:Drivers/STM32H7xx_HAL_Driver/Src/stm32h7xx_ll_usb.c **** 
 848              		.loc 1 314 23 is_stmt 0 view .LVU243
 849 002a D4F80438 		ldr	r3, [r4, #2052]
 850              	.LVL62:
 314:Drivers/STM32H7xx_HAL_Driver/Src/stm32h7xx_ll_usb.c **** 
 851              		.loc 1 314 23 view .LVU244
 852 002e 43F00203 		orr	r3, r3, #2
 853 0032 C4F80438 		str	r3, [r4, #2052]
 317:Drivers/STM32H7xx_HAL_Driver/Src/stm32h7xx_ll_usb.c **** 
 854              		.loc 1 317 5 is_stmt 1 view .LVU245
 317:Drivers/STM32H7xx_HAL_Driver/Src/stm32h7xx_ll_usb.c **** 
 855              		.loc 1 317 17 is_stmt 0 view .LVU246
 856 0036 A36B     		ldr	r3, [r4, #56]
 857 0038 23F40013 		bic	r3, r3, #2097152
 858 003c A363     		str	r3, [r4, #56]
 320:Drivers/STM32H7xx_HAL_Driver/Src/stm32h7xx_ll_usb.c ****     USBx->GOTGCTL |= USB_OTG_GOTGCTL_BVALOVAL;
 859              		.loc 1 320 5 is_stmt 1 view .LVU247
 320:Drivers/STM32H7xx_HAL_Driver/Src/stm32h7xx_ll_usb.c ****     USBx->GOTGCTL |= USB_OTG_GOTGCTL_BVALOVAL;
 860              		.loc 1 320 19 is_stmt 0 view .LVU248
 861 003e 2368     		ldr	r3, [r4]
 862 0040 43F04003 		orr	r3, r3, #64
 863 0044 2360     		str	r3, [r4]
 321:Drivers/STM32H7xx_HAL_Driver/Src/stm32h7xx_ll_usb.c ****   }
 864              		.loc 1 321 5 is_stmt 1 view .LVU249
 321:Drivers/STM32H7xx_HAL_Driver/Src/stm32h7xx_ll_usb.c ****   }
 865              		.loc 1 321 19 is_stmt 0 view .LVU250
 866 0046 2368     		ldr	r3, [r4]
 867 0048 43F08003 		orr	r3, r3, #128
 868 004c 2360     		str	r3, [r4]
 869              	.L55:
 330:Drivers/STM32H7xx_HAL_Driver/Src/stm32h7xx_ll_usb.c **** 
 870              		.loc 1 330 3 is_stmt 1 view .LVU251
 330:Drivers/STM32H7xx_HAL_Driver/Src/stm32h7xx_ll_usb.c **** 
 871              		.loc 1 330 16 is_stmt 0 view .LVU252
 872 004e 0023     		movs	r3, #0
 873 0050 C4F8003E 		str	r3, [r4, #3584]
 332:Drivers/STM32H7xx_HAL_Driver/Src/stm32h7xx_ll_usb.c ****   {
 874              		.loc 1 332 3 is_stmt 1 view .LVU253
 332:Drivers/STM32H7xx_HAL_Driver/Src/stm32h7xx_ll_usb.c ****   {
 875              		.loc 1 332 10 is_stmt 0 view .LVU254
 876 0054 9DF82130 		ldrb	r3, [sp, #33]	@ zero_extendqisi2
 332:Drivers/STM32H7xx_HAL_Driver/Src/stm32h7xx_ll_usb.c ****   {
 877              		.loc 1 332 6 view .LVU255
 878 0058 012B     		cmp	r3, #1
 879 005a 11D1     		bne	.L56
 334:Drivers/STM32H7xx_HAL_Driver/Src/stm32h7xx_ll_usb.c ****     {
 880              		.loc 1 334 5 is_stmt 1 view .LVU256
 334:Drivers/STM32H7xx_HAL_Driver/Src/stm32h7xx_ll_usb.c ****     {
 881              		.loc 1 334 12 is_stmt 0 view .LVU257
ARM GAS  /tmp/ccdP7LVA.s 			page 45


 882 005c 9DF81F30 		ldrb	r3, [sp, #31]	@ zero_extendqisi2
 334:Drivers/STM32H7xx_HAL_Driver/Src/stm32h7xx_ll_usb.c ****     {
 883              		.loc 1 334 8 view .LVU258
 884 0060 4BB9     		cbnz	r3, .L57
 337:Drivers/STM32H7xx_HAL_Driver/Src/stm32h7xx_ll_usb.c ****     }
 885              		.loc 1 337 7 is_stmt 1 view .LVU259
 337:Drivers/STM32H7xx_HAL_Driver/Src/stm32h7xx_ll_usb.c ****     }
 886              		.loc 1 337 13 is_stmt 0 view .LVU260
 887 0062 0021     		movs	r1, #0
 888 0064 2046     		mov	r0, r4
 889 0066 FFF7FEFF 		bl	USB_SetDevSpeed
 890              	.LVL63:
 891 006a 0DE0     		b	.L58
 892              	.LVL64:
 893              	.L54:
 326:Drivers/STM32H7xx_HAL_Driver/Src/stm32h7xx_ll_usb.c ****   }
 894              		.loc 1 326 5 is_stmt 1 view .LVU261
 326:Drivers/STM32H7xx_HAL_Driver/Src/stm32h7xx_ll_usb.c ****   }
 895              		.loc 1 326 17 is_stmt 0 view .LVU262
 896 006c A36B     		ldr	r3, [r4, #56]
 897              	.LVL65:
 326:Drivers/STM32H7xx_HAL_Driver/Src/stm32h7xx_ll_usb.c ****   }
 898              		.loc 1 326 17 view .LVU263
 899 006e 43F40013 		orr	r3, r3, #2097152
 900 0072 A363     		str	r3, [r4, #56]
 901 0074 EBE7     		b	.L55
 902              	.L57:
 342:Drivers/STM32H7xx_HAL_Driver/Src/stm32h7xx_ll_usb.c ****     }
 903              		.loc 1 342 7 is_stmt 1 view .LVU264
 342:Drivers/STM32H7xx_HAL_Driver/Src/stm32h7xx_ll_usb.c ****     }
 904              		.loc 1 342 13 is_stmt 0 view .LVU265
 905 0076 0121     		movs	r1, #1
 906 0078 2046     		mov	r0, r4
 907 007a FFF7FEFF 		bl	USB_SetDevSpeed
 908              	.LVL66:
 909 007e 03E0     		b	.L58
 910              	.L56:
 348:Drivers/STM32H7xx_HAL_Driver/Src/stm32h7xx_ll_usb.c ****   }
 911              		.loc 1 348 5 is_stmt 1 view .LVU266
 348:Drivers/STM32H7xx_HAL_Driver/Src/stm32h7xx_ll_usb.c ****   }
 912              		.loc 1 348 11 is_stmt 0 view .LVU267
 913 0080 0321     		movs	r1, #3
 914 0082 2046     		mov	r0, r4
 915 0084 FFF7FEFF 		bl	USB_SetDevSpeed
 916              	.LVL67:
 917              	.L58:
 352:Drivers/STM32H7xx_HAL_Driver/Src/stm32h7xx_ll_usb.c ****   {
 918              		.loc 1 352 3 is_stmt 1 view .LVU268
 352:Drivers/STM32H7xx_HAL_Driver/Src/stm32h7xx_ll_usb.c ****   {
 919              		.loc 1 352 7 is_stmt 0 view .LVU269
 920 0088 1021     		movs	r1, #16
 921 008a 2046     		mov	r0, r4
 922 008c FFF7FEFF 		bl	USB_FlushTxFifo
 923              	.LVL68:
 352:Drivers/STM32H7xx_HAL_Driver/Src/stm32h7xx_ll_usb.c ****   {
 924              		.loc 1 352 6 view .LVU270
 925 0090 0646     		mov	r6, r0
ARM GAS  /tmp/ccdP7LVA.s 			page 46


 926 0092 00B1     		cbz	r0, .L59
 354:Drivers/STM32H7xx_HAL_Driver/Src/stm32h7xx_ll_usb.c ****   }
 927              		.loc 1 354 9 view .LVU271
 928 0094 0126     		movs	r6, #1
 929              	.L59:
 930              	.LVL69:
 357:Drivers/STM32H7xx_HAL_Driver/Src/stm32h7xx_ll_usb.c ****   {
 931              		.loc 1 357 3 is_stmt 1 view .LVU272
 357:Drivers/STM32H7xx_HAL_Driver/Src/stm32h7xx_ll_usb.c ****   {
 932              		.loc 1 357 7 is_stmt 0 view .LVU273
 933 0096 2046     		mov	r0, r4
 934 0098 FFF7FEFF 		bl	USB_FlushRxFifo
 935              	.LVL70:
 357:Drivers/STM32H7xx_HAL_Driver/Src/stm32h7xx_ll_usb.c ****   {
 936              		.loc 1 357 6 view .LVU274
 937 009c 00B1     		cbz	r0, .L60
 359:Drivers/STM32H7xx_HAL_Driver/Src/stm32h7xx_ll_usb.c ****   }
 938              		.loc 1 359 9 view .LVU275
 939 009e 0126     		movs	r6, #1
 940              	.LVL71:
 941              	.L60:
 363:Drivers/STM32H7xx_HAL_Driver/Src/stm32h7xx_ll_usb.c ****   USBx_DEVICE->DOEPMSK = 0U;
 942              		.loc 1 363 3 is_stmt 1 view .LVU276
 943 00a0 04F5006C 		add	ip, r4, #2048
 363:Drivers/STM32H7xx_HAL_Driver/Src/stm32h7xx_ll_usb.c ****   USBx_DEVICE->DOEPMSK = 0U;
 944              		.loc 1 363 24 is_stmt 0 view .LVU277
 945 00a4 0023     		movs	r3, #0
 946 00a6 CCF81030 		str	r3, [ip, #16]
 364:Drivers/STM32H7xx_HAL_Driver/Src/stm32h7xx_ll_usb.c ****   USBx_DEVICE->DAINTMSK = 0U;
 947              		.loc 1 364 3 is_stmt 1 view .LVU278
 364:Drivers/STM32H7xx_HAL_Driver/Src/stm32h7xx_ll_usb.c ****   USBx_DEVICE->DAINTMSK = 0U;
 948              		.loc 1 364 24 is_stmt 0 view .LVU279
 949 00aa CCF81430 		str	r3, [ip, #20]
 365:Drivers/STM32H7xx_HAL_Driver/Src/stm32h7xx_ll_usb.c **** 
 950              		.loc 1 365 3 is_stmt 1 view .LVU280
 365:Drivers/STM32H7xx_HAL_Driver/Src/stm32h7xx_ll_usb.c **** 
 951              		.loc 1 365 25 is_stmt 0 view .LVU281
 952 00ae CCF81C30 		str	r3, [ip, #28]
 367:Drivers/STM32H7xx_HAL_Driver/Src/stm32h7xx_ll_usb.c ****   {
 953              		.loc 1 367 3 is_stmt 1 view .LVU282
 954              	.LVL72:
 367:Drivers/STM32H7xx_HAL_Driver/Src/stm32h7xx_ll_usb.c ****   {
 955              		.loc 1 367 3 is_stmt 0 view .LVU283
 956 00b2 0AE0     		b	.L61
 957              	.LVL73:
 958              	.L78:
 371:Drivers/STM32H7xx_HAL_Driver/Src/stm32h7xx_ll_usb.c ****       {
 959              		.loc 1 371 7 is_stmt 1 view .LVU284
 371:Drivers/STM32H7xx_HAL_Driver/Src/stm32h7xx_ll_usb.c ****       {
 960              		.loc 1 371 10 is_stmt 0 view .LVU285
 961 00b4 CBB9     		cbnz	r3, .L63
 373:Drivers/STM32H7xx_HAL_Driver/Src/stm32h7xx_ll_usb.c ****       }
 962              		.loc 1 373 9 is_stmt 1 view .LVU286
 373:Drivers/STM32H7xx_HAL_Driver/Src/stm32h7xx_ll_usb.c ****       }
 963              		.loc 1 373 31 is_stmt 0 view .LVU287
 964 00b6 4FF00060 		mov	r0, #134217728
 965 00ba C2F80009 		str	r0, [r2, #2304]
ARM GAS  /tmp/ccdP7LVA.s 			page 47


 966              	.L64:
 385:Drivers/STM32H7xx_HAL_Driver/Src/stm32h7xx_ll_usb.c ****     USBx_INEP(i)->DIEPINT  = 0xFB7FU;
 967              		.loc 1 385 5 is_stmt 1 discriminator 2 view .LVU288
 385:Drivers/STM32H7xx_HAL_Driver/Src/stm32h7xx_ll_usb.c ****     USBx_INEP(i)->DIEPINT  = 0xFB7FU;
 968              		.loc 1 385 28 is_stmt 0 discriminator 2 view .LVU289
 969 00be 0022     		movs	r2, #0
 970 00c0 0A61     		str	r2, [r1, #16]
 386:Drivers/STM32H7xx_HAL_Driver/Src/stm32h7xx_ll_usb.c ****   }
 971              		.loc 1 386 5 is_stmt 1 discriminator 2 view .LVU290
 386:Drivers/STM32H7xx_HAL_Driver/Src/stm32h7xx_ll_usb.c ****   }
 972              		.loc 1 386 28 is_stmt 0 discriminator 2 view .LVU291
 973 00c2 4FF67F32 		movw	r2, #64383
 974 00c6 8A60     		str	r2, [r1, #8]
 367:Drivers/STM32H7xx_HAL_Driver/Src/stm32h7xx_ll_usb.c ****   {
 975              		.loc 1 367 39 is_stmt 1 discriminator 2 view .LVU292
 367:Drivers/STM32H7xx_HAL_Driver/Src/stm32h7xx_ll_usb.c ****   {
 976              		.loc 1 367 40 is_stmt 0 discriminator 2 view .LVU293
 977 00c8 0133     		adds	r3, r3, #1
 978              	.LVL74:
 979              	.L61:
 367:Drivers/STM32H7xx_HAL_Driver/Src/stm32h7xx_ll_usb.c ****   {
 980              		.loc 1 367 16 is_stmt 1 discriminator 1 view .LVU294
 367:Drivers/STM32H7xx_HAL_Driver/Src/stm32h7xx_ll_usb.c ****   {
 981              		.loc 1 367 23 is_stmt 0 discriminator 1 view .LVU295
 982 00ca 9DF81CE0 		ldrb	lr, [sp, #28]	@ zero_extendqisi2
 367:Drivers/STM32H7xx_HAL_Driver/Src/stm32h7xx_ll_usb.c ****   {
 983              		.loc 1 367 3 discriminator 1 view .LVU296
 984 00ce 9E45     		cmp	lr, r3
 985 00d0 10D9     		bls	.L77
 369:Drivers/STM32H7xx_HAL_Driver/Src/stm32h7xx_ll_usb.c ****     {
 986              		.loc 1 369 5 is_stmt 1 view .LVU297
 369:Drivers/STM32H7xx_HAL_Driver/Src/stm32h7xx_ll_usb.c ****     {
 987              		.loc 1 369 10 is_stmt 0 view .LVU298
 988 00d2 05EB4312 		add	r2, r5, r3, lsl #5
 989 00d6 02F51061 		add	r1, r2, #2304
 369:Drivers/STM32H7xx_HAL_Driver/Src/stm32h7xx_ll_usb.c ****     {
 990              		.loc 1 369 22 view .LVU299
 991 00da D2F80009 		ldr	r0, [r2, #2304]
 369:Drivers/STM32H7xx_HAL_Driver/Src/stm32h7xx_ll_usb.c ****     {
 992              		.loc 1 369 8 view .LVU300
 993 00de 0028     		cmp	r0, #0
 994 00e0 E8DB     		blt	.L78
 382:Drivers/STM32H7xx_HAL_Driver/Src/stm32h7xx_ll_usb.c ****     }
 995              		.loc 1 382 7 is_stmt 1 view .LVU301
 382:Drivers/STM32H7xx_HAL_Driver/Src/stm32h7xx_ll_usb.c ****     }
 996              		.loc 1 382 29 is_stmt 0 view .LVU302
 997 00e2 0020     		movs	r0, #0
 998 00e4 C2F80009 		str	r0, [r2, #2304]
 999 00e8 E9E7     		b	.L64
 1000              	.L63:
 377:Drivers/STM32H7xx_HAL_Driver/Src/stm32h7xx_ll_usb.c ****       }
 1001              		.loc 1 377 9 is_stmt 1 view .LVU303
 377:Drivers/STM32H7xx_HAL_Driver/Src/stm32h7xx_ll_usb.c ****       }
 1002              		.loc 1 377 31 is_stmt 0 view .LVU304
 1003 00ea 4FF09040 		mov	r0, #1207959552
 1004 00ee C2F80009 		str	r0, [r2, #2304]
 1005 00f2 E4E7     		b	.L64
ARM GAS  /tmp/ccdP7LVA.s 			page 48


 1006              	.L77:
 389:Drivers/STM32H7xx_HAL_Driver/Src/stm32h7xx_ll_usb.c ****   {
 1007              		.loc 1 389 10 view .LVU305
 1008 00f4 0023     		movs	r3, #0
 1009              	.LVL75:
 389:Drivers/STM32H7xx_HAL_Driver/Src/stm32h7xx_ll_usb.c ****   {
 1010              		.loc 1 389 10 view .LVU306
 1011 00f6 0AE0     		b	.L66
 1012              	.LVL76:
 1013              	.L81:
 393:Drivers/STM32H7xx_HAL_Driver/Src/stm32h7xx_ll_usb.c ****       {
 1014              		.loc 1 393 7 is_stmt 1 view .LVU307
 393:Drivers/STM32H7xx_HAL_Driver/Src/stm32h7xx_ll_usb.c ****       {
 1015              		.loc 1 393 10 is_stmt 0 view .LVU308
 1016 00f8 BBB1     		cbz	r3, .L79
 399:Drivers/STM32H7xx_HAL_Driver/Src/stm32h7xx_ll_usb.c ****       }
 1017              		.loc 1 399 9 is_stmt 1 view .LVU309
 399:Drivers/STM32H7xx_HAL_Driver/Src/stm32h7xx_ll_usb.c ****       }
 1018              		.loc 1 399 32 is_stmt 0 view .LVU310
 1019 00fa 4FF09040 		mov	r0, #1207959552
 1020 00fe C2F8000B 		str	r0, [r2, #2816]
 1021              	.L69:
 407:Drivers/STM32H7xx_HAL_Driver/Src/stm32h7xx_ll_usb.c ****     USBx_OUTEP(i)->DOEPINT  = 0xFB7FU;
 1022              		.loc 1 407 5 is_stmt 1 discriminator 2 view .LVU311
 407:Drivers/STM32H7xx_HAL_Driver/Src/stm32h7xx_ll_usb.c ****     USBx_OUTEP(i)->DOEPINT  = 0xFB7FU;
 1023              		.loc 1 407 29 is_stmt 0 discriminator 2 view .LVU312
 1024 0102 0022     		movs	r2, #0
 1025 0104 0A61     		str	r2, [r1, #16]
 408:Drivers/STM32H7xx_HAL_Driver/Src/stm32h7xx_ll_usb.c ****   }
 1026              		.loc 1 408 5 is_stmt 1 discriminator 2 view .LVU313
 408:Drivers/STM32H7xx_HAL_Driver/Src/stm32h7xx_ll_usb.c ****   }
 1027              		.loc 1 408 29 is_stmt 0 discriminator 2 view .LVU314
 1028 0106 4FF67F32 		movw	r2, #64383
 1029 010a 8A60     		str	r2, [r1, #8]
 389:Drivers/STM32H7xx_HAL_Driver/Src/stm32h7xx_ll_usb.c ****   {
 1030              		.loc 1 389 39 is_stmt 1 discriminator 2 view .LVU315
 389:Drivers/STM32H7xx_HAL_Driver/Src/stm32h7xx_ll_usb.c ****   {
 1031              		.loc 1 389 40 is_stmt 0 discriminator 2 view .LVU316
 1032 010c 0133     		adds	r3, r3, #1
 1033              	.LVL77:
 1034              	.L66:
 389:Drivers/STM32H7xx_HAL_Driver/Src/stm32h7xx_ll_usb.c ****   {
 1035              		.loc 1 389 16 is_stmt 1 discriminator 1 view .LVU317
 389:Drivers/STM32H7xx_HAL_Driver/Src/stm32h7xx_ll_usb.c ****   {
 1036              		.loc 1 389 3 is_stmt 0 discriminator 1 view .LVU318
 1037 010e 9E45     		cmp	lr, r3
 1038 0110 10D9     		bls	.L80
 391:Drivers/STM32H7xx_HAL_Driver/Src/stm32h7xx_ll_usb.c ****     {
 1039              		.loc 1 391 5 is_stmt 1 view .LVU319
 391:Drivers/STM32H7xx_HAL_Driver/Src/stm32h7xx_ll_usb.c ****     {
 1040              		.loc 1 391 10 is_stmt 0 view .LVU320
 1041 0112 05EB4312 		add	r2, r5, r3, lsl #5
 1042 0116 02F53061 		add	r1, r2, #2816
 391:Drivers/STM32H7xx_HAL_Driver/Src/stm32h7xx_ll_usb.c ****     {
 1043              		.loc 1 391 23 view .LVU321
 1044 011a D2F8000B 		ldr	r0, [r2, #2816]
 391:Drivers/STM32H7xx_HAL_Driver/Src/stm32h7xx_ll_usb.c ****     {
ARM GAS  /tmp/ccdP7LVA.s 			page 49


 1045              		.loc 1 391 8 view .LVU322
 1046 011e 0028     		cmp	r0, #0
 1047 0120 EADB     		blt	.L81
 404:Drivers/STM32H7xx_HAL_Driver/Src/stm32h7xx_ll_usb.c ****     }
 1048              		.loc 1 404 7 is_stmt 1 view .LVU323
 404:Drivers/STM32H7xx_HAL_Driver/Src/stm32h7xx_ll_usb.c ****     }
 1049              		.loc 1 404 30 is_stmt 0 view .LVU324
 1050 0122 0020     		movs	r0, #0
 1051 0124 C2F8000B 		str	r0, [r2, #2816]
 1052 0128 EBE7     		b	.L69
 1053              	.L79:
 395:Drivers/STM32H7xx_HAL_Driver/Src/stm32h7xx_ll_usb.c ****       }
 1054              		.loc 1 395 9 is_stmt 1 view .LVU325
 395:Drivers/STM32H7xx_HAL_Driver/Src/stm32h7xx_ll_usb.c ****       }
 1055              		.loc 1 395 32 is_stmt 0 view .LVU326
 1056 012a 4FF00060 		mov	r0, #134217728
 1057 012e C2F8000B 		str	r0, [r2, #2816]
 1058 0132 E6E7     		b	.L69
 1059              	.L80:
 411:Drivers/STM32H7xx_HAL_Driver/Src/stm32h7xx_ll_usb.c **** 
 1060              		.loc 1 411 3 is_stmt 1 view .LVU327
 411:Drivers/STM32H7xx_HAL_Driver/Src/stm32h7xx_ll_usb.c **** 
 1061              		.loc 1 411 24 is_stmt 0 view .LVU328
 1062 0134 DCF81030 		ldr	r3, [ip, #16]
 1063              	.LVL78:
 411:Drivers/STM32H7xx_HAL_Driver/Src/stm32h7xx_ll_usb.c **** 
 1064              		.loc 1 411 24 view .LVU329
 1065 0138 23F48073 		bic	r3, r3, #256
 1066 013c CCF81030 		str	r3, [ip, #16]
 414:Drivers/STM32H7xx_HAL_Driver/Src/stm32h7xx_ll_usb.c **** 
 1067              		.loc 1 414 3 is_stmt 1 view .LVU330
 414:Drivers/STM32H7xx_HAL_Driver/Src/stm32h7xx_ll_usb.c **** 
 1068              		.loc 1 414 17 is_stmt 0 view .LVU331
 1069 0140 0023     		movs	r3, #0
 1070 0142 A361     		str	r3, [r4, #24]
 417:Drivers/STM32H7xx_HAL_Driver/Src/stm32h7xx_ll_usb.c **** 
 1071              		.loc 1 417 3 is_stmt 1 view .LVU332
 417:Drivers/STM32H7xx_HAL_Driver/Src/stm32h7xx_ll_usb.c **** 
 1072              		.loc 1 417 17 is_stmt 0 view .LVU333
 1073 0144 6FF08043 		mvn	r3, #1073741824
 1074 0148 6361     		str	r3, [r4, #20]
 420:Drivers/STM32H7xx_HAL_Driver/Src/stm32h7xx_ll_usb.c ****   {
 1075              		.loc 1 420 3 is_stmt 1 view .LVU334
 420:Drivers/STM32H7xx_HAL_Driver/Src/stm32h7xx_ll_usb.c ****   {
 1076              		.loc 1 420 10 is_stmt 0 view .LVU335
 1077 014a 9DF81E30 		ldrb	r3, [sp, #30]	@ zero_extendqisi2
 420:Drivers/STM32H7xx_HAL_Driver/Src/stm32h7xx_ll_usb.c ****   {
 1078              		.loc 1 420 6 view .LVU336
 1079 014e 1BB9     		cbnz	r3, .L71
 422:Drivers/STM32H7xx_HAL_Driver/Src/stm32h7xx_ll_usb.c ****   }
 1080              		.loc 1 422 5 is_stmt 1 view .LVU337
 422:Drivers/STM32H7xx_HAL_Driver/Src/stm32h7xx_ll_usb.c ****   }
 1081              		.loc 1 422 19 is_stmt 0 view .LVU338
 1082 0150 A369     		ldr	r3, [r4, #24]
 1083 0152 43F01003 		orr	r3, r3, #16
 1084 0156 A361     		str	r3, [r4, #24]
 1085              	.L71:
ARM GAS  /tmp/ccdP7LVA.s 			page 50


 426:Drivers/STM32H7xx_HAL_Driver/Src/stm32h7xx_ll_usb.c ****                    USB_OTG_GINTMSK_ENUMDNEM | USB_OTG_GINTMSK_IEPINT |
 1086              		.loc 1 426 3 is_stmt 1 view .LVU339
 426:Drivers/STM32H7xx_HAL_Driver/Src/stm32h7xx_ll_usb.c ****                    USB_OTG_GINTMSK_ENUMDNEM | USB_OTG_GINTMSK_IEPINT |
 1087              		.loc 1 426 17 is_stmt 0 view .LVU340
 1088 0158 A269     		ldr	r2, [r4, #24]
 1089 015a 0B4B     		ldr	r3, .L83
 1090 015c 1343     		orrs	r3, r3, r2
 1091 015e A361     		str	r3, [r4, #24]
 431:Drivers/STM32H7xx_HAL_Driver/Src/stm32h7xx_ll_usb.c ****   {
 1092              		.loc 1 431 3 is_stmt 1 view .LVU341
 431:Drivers/STM32H7xx_HAL_Driver/Src/stm32h7xx_ll_usb.c ****   {
 1093              		.loc 1 431 10 is_stmt 0 view .LVU342
 1094 0160 9DF82230 		ldrb	r3, [sp, #34]	@ zero_extendqisi2
 431:Drivers/STM32H7xx_HAL_Driver/Src/stm32h7xx_ll_usb.c ****   {
 1095              		.loc 1 431 6 view .LVU343
 1096 0164 1BB1     		cbz	r3, .L72
 433:Drivers/STM32H7xx_HAL_Driver/Src/stm32h7xx_ll_usb.c ****   }
 1097              		.loc 1 433 5 is_stmt 1 view .LVU344
 433:Drivers/STM32H7xx_HAL_Driver/Src/stm32h7xx_ll_usb.c ****   }
 1098              		.loc 1 433 19 is_stmt 0 view .LVU345
 1099 0166 A369     		ldr	r3, [r4, #24]
 1100 0168 43F00803 		orr	r3, r3, #8
 1101 016c A361     		str	r3, [r4, #24]
 1102              	.L72:
 436:Drivers/STM32H7xx_HAL_Driver/Src/stm32h7xx_ll_usb.c ****   {
 1103              		.loc 1 436 3 is_stmt 1 view .LVU346
 436:Drivers/STM32H7xx_HAL_Driver/Src/stm32h7xx_ll_usb.c ****   {
 1104              		.loc 1 436 6 is_stmt 0 view .LVU347
 1105 016e 012F     		cmp	r7, #1
 1106 0170 04D0     		beq	.L82
 1107              	.L73:
 441:Drivers/STM32H7xx_HAL_Driver/Src/stm32h7xx_ll_usb.c **** }
 1108              		.loc 1 441 3 is_stmt 1 view .LVU348
 442:Drivers/STM32H7xx_HAL_Driver/Src/stm32h7xx_ll_usb.c **** 
 1109              		.loc 1 442 1 is_stmt 0 view .LVU349
 1110 0172 3046     		mov	r0, r6
 1111 0174 BDE8F840 		pop	{r3, r4, r5, r6, r7, lr}
 1112              	.LCFI16:
 1113              		.cfi_remember_state
 1114              		.cfi_restore 14
 1115              		.cfi_restore 7
 1116              		.cfi_restore 6
 1117              		.cfi_restore 5
 1118              		.cfi_restore 4
 1119              		.cfi_restore 3
 1120              		.cfi_def_cfa_offset 16
 1121              	.LVL79:
 442:Drivers/STM32H7xx_HAL_Driver/Src/stm32h7xx_ll_usb.c **** 
 1122              		.loc 1 442 1 view .LVU350
 1123 0178 04B0     		add	sp, sp, #16
 1124              	.LCFI17:
 1125              		.cfi_def_cfa_offset 0
 1126 017a 7047     		bx	lr
 1127              	.LVL80:
 1128              	.L82:
 1129              	.LCFI18:
 1130              		.cfi_restore_state
ARM GAS  /tmp/ccdP7LVA.s 			page 51


 438:Drivers/STM32H7xx_HAL_Driver/Src/stm32h7xx_ll_usb.c ****   }
 1131              		.loc 1 438 5 is_stmt 1 view .LVU351
 438:Drivers/STM32H7xx_HAL_Driver/Src/stm32h7xx_ll_usb.c ****   }
 1132              		.loc 1 438 19 is_stmt 0 view .LVU352
 1133 017c A269     		ldr	r2, [r4, #24]
 1134 017e 034B     		ldr	r3, .L83+4
 1135 0180 1343     		orrs	r3, r3, r2
 1136 0182 A361     		str	r3, [r4, #24]
 1137 0184 F5E7     		b	.L73
 1138              	.L84:
 1139 0186 00BF     		.align	2
 1140              	.L83:
 1141 0188 00383C80 		.word	-2143537152
 1142 018c 04000040 		.word	1073741828
 1143              		.cfi_endproc
 1144              	.LFE149:
 1146              		.section	.text.USB_GetDevSpeed,"ax",%progbits
 1147              		.align	1
 1148              		.global	USB_GetDevSpeed
 1149              		.syntax unified
 1150              		.thumb
 1151              		.thumb_func
 1152              		.fpu fpv5-d16
 1154              	USB_GetDevSpeed:
 1155              	.LVL81:
 1156              	.LFB153:
 549:Drivers/STM32H7xx_HAL_Driver/Src/stm32h7xx_ll_usb.c ****   uint32_t USBx_BASE = (uint32_t)USBx;
 1157              		.loc 1 549 1 is_stmt 1 view -0
 1158              		.cfi_startproc
 1159              		@ args = 0, pretend = 0, frame = 0
 1160              		@ frame_needed = 0, uses_anonymous_args = 0
 1161              		@ link register save eliminated.
 550:Drivers/STM32H7xx_HAL_Driver/Src/stm32h7xx_ll_usb.c ****   uint8_t speed;
 1162              		.loc 1 550 3 view .LVU354
 551:Drivers/STM32H7xx_HAL_Driver/Src/stm32h7xx_ll_usb.c ****   uint32_t DevEnumSpeed = USBx_DEVICE->DSTS & USB_OTG_DSTS_ENUMSPD;
 1163              		.loc 1 551 3 view .LVU355
 552:Drivers/STM32H7xx_HAL_Driver/Src/stm32h7xx_ll_usb.c **** 
 1164              		.loc 1 552 3 view .LVU356
 552:Drivers/STM32H7xx_HAL_Driver/Src/stm32h7xx_ll_usb.c **** 
 1165              		.loc 1 552 38 is_stmt 0 view .LVU357
 1166 0000 D0F80838 		ldr	r3, [r0, #2056]
 1167              	.LVL82:
 554:Drivers/STM32H7xx_HAL_Driver/Src/stm32h7xx_ll_usb.c ****   {
 1168              		.loc 1 554 3 is_stmt 1 view .LVU358
 554:Drivers/STM32H7xx_HAL_Driver/Src/stm32h7xx_ll_usb.c ****   {
 1169              		.loc 1 554 6 is_stmt 0 view .LVU359
 1170 0004 13F00603 		ands	r3, r3, #6
 1171              	.LVL83:
 554:Drivers/STM32H7xx_HAL_Driver/Src/stm32h7xx_ll_usb.c ****   {
 1172              		.loc 1 554 6 view .LVU360
 1173 0008 05D0     		beq	.L87
 558:Drivers/STM32H7xx_HAL_Driver/Src/stm32h7xx_ll_usb.c ****            (DevEnumSpeed == DSTS_ENUMSPD_FS_PHY_48MHZ))
 1174              		.loc 1 558 8 is_stmt 1 view .LVU361
 558:Drivers/STM32H7xx_HAL_Driver/Src/stm32h7xx_ll_usb.c ****            (DevEnumSpeed == DSTS_ENUMSPD_FS_PHY_48MHZ))
 1175              		.loc 1 558 11 is_stmt 0 view .LVU362
 1176 000a 062B     		cmp	r3, #6
 1177 000c 18BF     		it	ne
ARM GAS  /tmp/ccdP7LVA.s 			page 52


 1178 000e 022B     		cmpne	r3, #2
 1179 0010 03D1     		bne	.L88
 561:Drivers/STM32H7xx_HAL_Driver/Src/stm32h7xx_ll_usb.c ****   }
 1180              		.loc 1 561 11 view .LVU363
 1181 0012 0220     		movs	r0, #2
 1182              	.LVL84:
 561:Drivers/STM32H7xx_HAL_Driver/Src/stm32h7xx_ll_usb.c ****   }
 1183              		.loc 1 561 11 view .LVU364
 1184 0014 7047     		bx	lr
 1185              	.LVL85:
 1186              	.L87:
 556:Drivers/STM32H7xx_HAL_Driver/Src/stm32h7xx_ll_usb.c ****   }
 1187              		.loc 1 556 11 view .LVU365
 1188 0016 0020     		movs	r0, #0
 1189              	.LVL86:
 556:Drivers/STM32H7xx_HAL_Driver/Src/stm32h7xx_ll_usb.c ****   }
 1190              		.loc 1 556 11 view .LVU366
 1191 0018 7047     		bx	lr
 1192              	.LVL87:
 1193              	.L88:
 565:Drivers/STM32H7xx_HAL_Driver/Src/stm32h7xx_ll_usb.c ****   }
 1194              		.loc 1 565 11 view .LVU367
 1195 001a 0F20     		movs	r0, #15
 1196              	.LVL88:
 568:Drivers/STM32H7xx_HAL_Driver/Src/stm32h7xx_ll_usb.c **** }
 1197              		.loc 1 568 3 is_stmt 1 view .LVU368
 569:Drivers/STM32H7xx_HAL_Driver/Src/stm32h7xx_ll_usb.c **** 
 1198              		.loc 1 569 1 is_stmt 0 view .LVU369
 1199 001c 7047     		bx	lr
 1200              		.cfi_endproc
 1201              	.LFE153:
 1203              		.section	.text.USB_ActivateEndpoint,"ax",%progbits
 1204              		.align	1
 1205              		.global	USB_ActivateEndpoint
 1206              		.syntax unified
 1207              		.thumb
 1208              		.thumb_func
 1209              		.fpu fpv5-d16
 1211              	USB_ActivateEndpoint:
 1212              	.LVL89:
 1213              	.LFB154:
 578:Drivers/STM32H7xx_HAL_Driver/Src/stm32h7xx_ll_usb.c ****   uint32_t USBx_BASE = (uint32_t)USBx;
 1214              		.loc 1 578 1 is_stmt 1 view -0
 1215              		.cfi_startproc
 1216              		@ args = 0, pretend = 0, frame = 0
 1217              		@ frame_needed = 0, uses_anonymous_args = 0
 1218              		@ link register save eliminated.
 578:Drivers/STM32H7xx_HAL_Driver/Src/stm32h7xx_ll_usb.c ****   uint32_t USBx_BASE = (uint32_t)USBx;
 1219              		.loc 1 578 1 is_stmt 0 view .LVU371
 1220 0000 70B4     		push	{r4, r5, r6}
 1221              	.LCFI19:
 1222              		.cfi_def_cfa_offset 12
 1223              		.cfi_offset 4, -12
 1224              		.cfi_offset 5, -8
 1225              		.cfi_offset 6, -4
 579:Drivers/STM32H7xx_HAL_Driver/Src/stm32h7xx_ll_usb.c ****   uint32_t epnum = (uint32_t)ep->num;
 1226              		.loc 1 579 3 is_stmt 1 view .LVU372
ARM GAS  /tmp/ccdP7LVA.s 			page 53


 1227              	.LVL90:
 580:Drivers/STM32H7xx_HAL_Driver/Src/stm32h7xx_ll_usb.c **** 
 1228              		.loc 1 580 3 view .LVU373
 580:Drivers/STM32H7xx_HAL_Driver/Src/stm32h7xx_ll_usb.c **** 
 1229              		.loc 1 580 32 is_stmt 0 view .LVU374
 1230 0002 0C78     		ldrb	r4, [r1]	@ zero_extendqisi2
 1231              	.LVL91:
 582:Drivers/STM32H7xx_HAL_Driver/Src/stm32h7xx_ll_usb.c ****   {
 1232              		.loc 1 582 3 is_stmt 1 view .LVU375
 582:Drivers/STM32H7xx_HAL_Driver/Src/stm32h7xx_ll_usb.c ****   {
 1233              		.loc 1 582 9 is_stmt 0 view .LVU376
 1234 0004 4B78     		ldrb	r3, [r1, #1]	@ zero_extendqisi2
 582:Drivers/STM32H7xx_HAL_Driver/Src/stm32h7xx_ll_usb.c ****   {
 1235              		.loc 1 582 6 view .LVU377
 1236 0006 012B     		cmp	r3, #1
 1237 0008 20D0     		beq	.L93
 596:Drivers/STM32H7xx_HAL_Driver/Src/stm32h7xx_ll_usb.c **** 
 1238              		.loc 1 596 5 is_stmt 1 view .LVU378
 596:Drivers/STM32H7xx_HAL_Driver/Src/stm32h7xx_ll_usb.c **** 
 1239              		.loc 1 596 27 is_stmt 0 view .LVU379
 1240 000a D0F81C38 		ldr	r3, [r0, #2076]
 596:Drivers/STM32H7xx_HAL_Driver/Src/stm32h7xx_ll_usb.c **** 
 1241              		.loc 1 596 82 view .LVU380
 1242 000e 04F00F06 		and	r6, r4, #15
 596:Drivers/STM32H7xx_HAL_Driver/Src/stm32h7xx_ll_usb.c **** 
 1243              		.loc 1 596 55 view .LVU381
 1244 0012 0122     		movs	r2, #1
 1245 0014 B240     		lsls	r2, r2, r6
 596:Drivers/STM32H7xx_HAL_Driver/Src/stm32h7xx_ll_usb.c **** 
 1246              		.loc 1 596 27 view .LVU382
 1247 0016 43EA0243 		orr	r3, r3, r2, lsl #16
 1248 001a C0F81C38 		str	r3, [r0, #2076]
 598:Drivers/STM32H7xx_HAL_Driver/Src/stm32h7xx_ll_usb.c ****     {
 1249              		.loc 1 598 5 is_stmt 1 view .LVU383
 598:Drivers/STM32H7xx_HAL_Driver/Src/stm32h7xx_ll_usb.c ****     {
 1250              		.loc 1 598 11 is_stmt 0 view .LVU384
 1251 001e 00EB4410 		add	r0, r0, r4, lsl #5
 1252              	.LVL92:
 598:Drivers/STM32H7xx_HAL_Driver/Src/stm32h7xx_ll_usb.c ****     {
 1253              		.loc 1 598 28 view .LVU385
 1254 0022 D0F8003B 		ldr	r3, [r0, #2816]
 598:Drivers/STM32H7xx_HAL_Driver/Src/stm32h7xx_ll_usb.c ****     {
 1255              		.loc 1 598 8 view .LVU386
 1256 0026 13F4004F 		tst	r3, #32768
 1257 002a 0CD1     		bne	.L91
 600:Drivers/STM32H7xx_HAL_Driver/Src/stm32h7xx_ll_usb.c ****                                     ((uint32_t)ep->type << 18) |
 1258              		.loc 1 600 7 is_stmt 1 view .LVU387
 600:Drivers/STM32H7xx_HAL_Driver/Src/stm32h7xx_ll_usb.c ****                                     ((uint32_t)ep->type << 18) |
 1259              		.loc 1 600 34 is_stmt 0 view .LVU388
 1260 002c D0F8002B 		ldr	r2, [r0, #2816]
 600:Drivers/STM32H7xx_HAL_Driver/Src/stm32h7xx_ll_usb.c ****                                     ((uint32_t)ep->type << 18) |
 1261              		.loc 1 600 40 view .LVU389
 1262 0030 8B68     		ldr	r3, [r1, #8]
 600:Drivers/STM32H7xx_HAL_Driver/Src/stm32h7xx_ll_usb.c ****                                     ((uint32_t)ep->type << 18) |
 1263              		.loc 1 600 52 view .LVU390
 1264 0032 C3F30A03 		ubfx	r3, r3, #0, #11
 601:Drivers/STM32H7xx_HAL_Driver/Src/stm32h7xx_ll_usb.c ****                                     USB_OTG_DIEPCTL_SD0PID_SEVNFRM |
ARM GAS  /tmp/ccdP7LVA.s 			page 54


 1265              		.loc 1 601 50 view .LVU391
 1266 0036 0979     		ldrb	r1, [r1, #4]	@ zero_extendqisi2
 1267              	.LVL93:
 600:Drivers/STM32H7xx_HAL_Driver/Src/stm32h7xx_ll_usb.c ****                                     ((uint32_t)ep->type << 18) |
 1268              		.loc 1 600 77 view .LVU392
 1269 0038 43EA8143 		orr	r3, r3, r1, lsl #18
 600:Drivers/STM32H7xx_HAL_Driver/Src/stm32h7xx_ll_usb.c ****                                     ((uint32_t)ep->type << 18) |
 1270              		.loc 1 600 34 view .LVU393
 1271 003c 1343     		orrs	r3, r3, r2
 1272 003e 134A     		ldr	r2, .L94
 1273 0040 1A43     		orrs	r2, r2, r3
 1274 0042 C0F8002B 		str	r2, [r0, #2816]
 1275              	.LVL94:
 1276              	.L91:
 606:Drivers/STM32H7xx_HAL_Driver/Src/stm32h7xx_ll_usb.c **** }
 1277              		.loc 1 606 3 is_stmt 1 view .LVU394
 607:Drivers/STM32H7xx_HAL_Driver/Src/stm32h7xx_ll_usb.c **** 
 1278              		.loc 1 607 1 is_stmt 0 view .LVU395
 1279 0046 0020     		movs	r0, #0
 1280 0048 70BC     		pop	{r4, r5, r6}
 1281              	.LCFI20:
 1282              		.cfi_remember_state
 1283              		.cfi_restore 6
 1284              		.cfi_restore 5
 1285              		.cfi_restore 4
 1286              		.cfi_def_cfa_offset 0
 1287 004a 7047     		bx	lr
 1288              	.LVL95:
 1289              	.L93:
 1290              	.LCFI21:
 1291              		.cfi_restore_state
 584:Drivers/STM32H7xx_HAL_Driver/Src/stm32h7xx_ll_usb.c **** 
 1292              		.loc 1 584 5 is_stmt 1 view .LVU396
 584:Drivers/STM32H7xx_HAL_Driver/Src/stm32h7xx_ll_usb.c **** 
 1293              		.loc 1 584 27 is_stmt 0 view .LVU397
 1294 004c D0F81C28 		ldr	r2, [r0, #2076]
 584:Drivers/STM32H7xx_HAL_Driver/Src/stm32h7xx_ll_usb.c **** 
 1295              		.loc 1 584 81 view .LVU398
 1296 0050 04F00F06 		and	r6, r4, #15
 584:Drivers/STM32H7xx_HAL_Driver/Src/stm32h7xx_ll_usb.c **** 
 1297              		.loc 1 584 54 view .LVU399
 1298 0054 B340     		lsls	r3, r3, r6
 584:Drivers/STM32H7xx_HAL_Driver/Src/stm32h7xx_ll_usb.c **** 
 1299              		.loc 1 584 52 view .LVU400
 1300 0056 9BB2     		uxth	r3, r3
 584:Drivers/STM32H7xx_HAL_Driver/Src/stm32h7xx_ll_usb.c **** 
 1301              		.loc 1 584 27 view .LVU401
 1302 0058 1343     		orrs	r3, r3, r2
 1303 005a C0F81C38 		str	r3, [r0, #2076]
 586:Drivers/STM32H7xx_HAL_Driver/Src/stm32h7xx_ll_usb.c ****     {
 1304              		.loc 1 586 5 is_stmt 1 view .LVU402
 586:Drivers/STM32H7xx_HAL_Driver/Src/stm32h7xx_ll_usb.c ****     {
 1305              		.loc 1 586 10 is_stmt 0 view .LVU403
 1306 005e 00EB4410 		add	r0, r0, r4, lsl #5
 1307              	.LVL96:
 586:Drivers/STM32H7xx_HAL_Driver/Src/stm32h7xx_ll_usb.c ****     {
 1308              		.loc 1 586 26 view .LVU404
ARM GAS  /tmp/ccdP7LVA.s 			page 55


 1309 0062 D0F80039 		ldr	r3, [r0, #2304]
 586:Drivers/STM32H7xx_HAL_Driver/Src/stm32h7xx_ll_usb.c ****     {
 1310              		.loc 1 586 8 view .LVU405
 1311 0066 13F4004F 		tst	r3, #32768
 1312 006a ECD1     		bne	.L91
 588:Drivers/STM32H7xx_HAL_Driver/Src/stm32h7xx_ll_usb.c ****                                    ((uint32_t)ep->type << 18) | (epnum << 22) |
 1313              		.loc 1 588 7 is_stmt 1 view .LVU406
 588:Drivers/STM32H7xx_HAL_Driver/Src/stm32h7xx_ll_usb.c ****                                    ((uint32_t)ep->type << 18) | (epnum << 22) |
 1314              		.loc 1 588 33 is_stmt 0 view .LVU407
 1315 006c D0F80029 		ldr	r2, [r0, #2304]
 588:Drivers/STM32H7xx_HAL_Driver/Src/stm32h7xx_ll_usb.c ****                                    ((uint32_t)ep->type << 18) | (epnum << 22) |
 1316              		.loc 1 588 39 view .LVU408
 1317 0070 8B68     		ldr	r3, [r1, #8]
 588:Drivers/STM32H7xx_HAL_Driver/Src/stm32h7xx_ll_usb.c ****                                    ((uint32_t)ep->type << 18) | (epnum << 22) |
 1318              		.loc 1 588 51 view .LVU409
 1319 0072 C3F30A03 		ubfx	r3, r3, #0, #11
 589:Drivers/STM32H7xx_HAL_Driver/Src/stm32h7xx_ll_usb.c ****                                    USB_OTG_DIEPCTL_SD0PID_SEVNFRM |
 1320              		.loc 1 589 49 view .LVU410
 1321 0076 0979     		ldrb	r1, [r1, #4]	@ zero_extendqisi2
 1322              	.LVL97:
 588:Drivers/STM32H7xx_HAL_Driver/Src/stm32h7xx_ll_usb.c ****                                    ((uint32_t)ep->type << 18) | (epnum << 22) |
 1323              		.loc 1 588 76 view .LVU411
 1324 0078 43EA8143 		orr	r3, r3, r1, lsl #18
 589:Drivers/STM32H7xx_HAL_Driver/Src/stm32h7xx_ll_usb.c ****                                    USB_OTG_DIEPCTL_SD0PID_SEVNFRM |
 1325              		.loc 1 589 63 view .LVU412
 1326 007c 43EA8454 		orr	r4, r3, r4, lsl #22
 1327              	.LVL98:
 588:Drivers/STM32H7xx_HAL_Driver/Src/stm32h7xx_ll_usb.c ****                                    ((uint32_t)ep->type << 18) | (epnum << 22) |
 1328              		.loc 1 588 33 view .LVU413
 1329 0080 1443     		orrs	r4, r4, r2
 1330 0082 024B     		ldr	r3, .L94
 1331 0084 2343     		orrs	r3, r3, r4
 1332 0086 C0F80039 		str	r3, [r0, #2304]
 1333 008a DCE7     		b	.L91
 1334              	.L95:
 1335              		.align	2
 1336              	.L94:
 1337 008c 00800010 		.word	268468224
 1338              		.cfi_endproc
 1339              	.LFE154:
 1341              		.section	.text.USB_ActivateDedicatedEndpoint,"ax",%progbits
 1342              		.align	1
 1343              		.global	USB_ActivateDedicatedEndpoint
 1344              		.syntax unified
 1345              		.thumb
 1346              		.thumb_func
 1347              		.fpu fpv5-d16
 1349              	USB_ActivateDedicatedEndpoint:
 1350              	.LVL99:
 1351              	.LFB155:
 616:Drivers/STM32H7xx_HAL_Driver/Src/stm32h7xx_ll_usb.c ****   uint32_t USBx_BASE = (uint32_t)USBx;
 1352              		.loc 1 616 1 is_stmt 1 view -0
 1353              		.cfi_startproc
 1354              		@ args = 0, pretend = 0, frame = 0
 1355              		@ frame_needed = 0, uses_anonymous_args = 0
 1356              		@ link register save eliminated.
 616:Drivers/STM32H7xx_HAL_Driver/Src/stm32h7xx_ll_usb.c ****   uint32_t USBx_BASE = (uint32_t)USBx;
ARM GAS  /tmp/ccdP7LVA.s 			page 56


 1357              		.loc 1 616 1 is_stmt 0 view .LVU415
 1358 0000 70B4     		push	{r4, r5, r6}
 1359              	.LCFI22:
 1360              		.cfi_def_cfa_offset 12
 1361              		.cfi_offset 4, -12
 1362              		.cfi_offset 5, -8
 1363              		.cfi_offset 6, -4
 617:Drivers/STM32H7xx_HAL_Driver/Src/stm32h7xx_ll_usb.c ****   uint32_t epnum = (uint32_t)ep->num;
 1364              		.loc 1 617 3 is_stmt 1 view .LVU416
 1365              	.LVL100:
 618:Drivers/STM32H7xx_HAL_Driver/Src/stm32h7xx_ll_usb.c **** 
 1366              		.loc 1 618 3 view .LVU417
 618:Drivers/STM32H7xx_HAL_Driver/Src/stm32h7xx_ll_usb.c **** 
 1367              		.loc 1 618 32 is_stmt 0 view .LVU418
 1368 0002 0A78     		ldrb	r2, [r1]	@ zero_extendqisi2
 1369              	.LVL101:
 621:Drivers/STM32H7xx_HAL_Driver/Src/stm32h7xx_ll_usb.c ****   {
 1370              		.loc 1 621 3 is_stmt 1 view .LVU419
 621:Drivers/STM32H7xx_HAL_Driver/Src/stm32h7xx_ll_usb.c ****   {
 1371              		.loc 1 621 9 is_stmt 0 view .LVU420
 1372 0004 4B78     		ldrb	r3, [r1, #1]	@ zero_extendqisi2
 621:Drivers/STM32H7xx_HAL_Driver/Src/stm32h7xx_ll_usb.c ****   {
 1373              		.loc 1 621 6 view .LVU421
 1374 0006 012B     		cmp	r3, #1
 1375 0008 23D0     		beq	.L102
 635:Drivers/STM32H7xx_HAL_Driver/Src/stm32h7xx_ll_usb.c ****     {
 1376              		.loc 1 635 5 is_stmt 1 view .LVU422
 635:Drivers/STM32H7xx_HAL_Driver/Src/stm32h7xx_ll_usb.c ****     {
 1377              		.loc 1 635 11 is_stmt 0 view .LVU423
 1378 000a 00EB4214 		add	r4, r0, r2, lsl #5
 635:Drivers/STM32H7xx_HAL_Driver/Src/stm32h7xx_ll_usb.c ****     {
 1379              		.loc 1 635 28 view .LVU424
 1380 000e D4F8003B 		ldr	r3, [r4, #2816]
 635:Drivers/STM32H7xx_HAL_Driver/Src/stm32h7xx_ll_usb.c ****     {
 1381              		.loc 1 635 8 view .LVU425
 1382 0012 13F4004F 		tst	r3, #32768
 1383 0016 0ED1     		bne	.L100
 637:Drivers/STM32H7xx_HAL_Driver/Src/stm32h7xx_ll_usb.c ****                                     ((uint32_t)ep->type << 18) | (epnum << 22) |
 1384              		.loc 1 637 7 is_stmt 1 view .LVU426
 637:Drivers/STM32H7xx_HAL_Driver/Src/stm32h7xx_ll_usb.c ****                                     ((uint32_t)ep->type << 18) | (epnum << 22) |
 1385              		.loc 1 637 34 is_stmt 0 view .LVU427
 1386 0018 D4F8005B 		ldr	r5, [r4, #2816]
 637:Drivers/STM32H7xx_HAL_Driver/Src/stm32h7xx_ll_usb.c ****                                     ((uint32_t)ep->type << 18) | (epnum << 22) |
 1387              		.loc 1 637 40 view .LVU428
 1388 001c 8B68     		ldr	r3, [r1, #8]
 637:Drivers/STM32H7xx_HAL_Driver/Src/stm32h7xx_ll_usb.c ****                                     ((uint32_t)ep->type << 18) | (epnum << 22) |
 1389              		.loc 1 637 52 view .LVU429
 1390 001e C3F30A03 		ubfx	r3, r3, #0, #11
 638:Drivers/STM32H7xx_HAL_Driver/Src/stm32h7xx_ll_usb.c ****                                     USB_OTG_DOEPCTL_USBAEP;
 1391              		.loc 1 638 50 view .LVU430
 1392 0022 0E79     		ldrb	r6, [r1, #4]	@ zero_extendqisi2
 637:Drivers/STM32H7xx_HAL_Driver/Src/stm32h7xx_ll_usb.c ****                                     ((uint32_t)ep->type << 18) | (epnum << 22) |
 1393              		.loc 1 637 77 view .LVU431
 1394 0024 43EA8643 		orr	r3, r3, r6, lsl #18
 638:Drivers/STM32H7xx_HAL_Driver/Src/stm32h7xx_ll_usb.c ****                                     USB_OTG_DOEPCTL_USBAEP;
 1395              		.loc 1 638 64 view .LVU432
 1396 0028 43EA8253 		orr	r3, r3, r2, lsl #22
ARM GAS  /tmp/ccdP7LVA.s 			page 57


 637:Drivers/STM32H7xx_HAL_Driver/Src/stm32h7xx_ll_usb.c ****                                     ((uint32_t)ep->type << 18) | (epnum << 22) |
 1397              		.loc 1 637 34 view .LVU433
 1398 002c 2B43     		orrs	r3, r3, r5
 1399 002e 43F40043 		orr	r3, r3, #32768
 1400 0032 C4F8003B 		str	r3, [r4, #2816]
 1401              	.L100:
 642:Drivers/STM32H7xx_HAL_Driver/Src/stm32h7xx_ll_usb.c ****   }
 1402              		.loc 1 642 5 is_stmt 1 view .LVU434
 642:Drivers/STM32H7xx_HAL_Driver/Src/stm32h7xx_ll_usb.c ****   }
 1403              		.loc 1 642 27 is_stmt 0 view .LVU435
 1404 0036 D0F83C38 		ldr	r3, [r0, #2108]
 642:Drivers/STM32H7xx_HAL_Driver/Src/stm32h7xx_ll_usb.c ****   }
 1405              		.loc 1 642 76 view .LVU436
 1406 003a 0A78     		ldrb	r2, [r1]	@ zero_extendqisi2
 1407              	.LVL102:
 642:Drivers/STM32H7xx_HAL_Driver/Src/stm32h7xx_ll_usb.c ****   }
 1408              		.loc 1 642 82 view .LVU437
 1409 003c 02F00F01 		and	r1, r2, #15
 1410              	.LVL103:
 642:Drivers/STM32H7xx_HAL_Driver/Src/stm32h7xx_ll_usb.c ****   }
 1411              		.loc 1 642 55 view .LVU438
 1412 0040 0122     		movs	r2, #1
 1413 0042 8A40     		lsls	r2, r2, r1
 642:Drivers/STM32H7xx_HAL_Driver/Src/stm32h7xx_ll_usb.c ****   }
 1414              		.loc 1 642 27 view .LVU439
 1415 0044 43EA0243 		orr	r3, r3, r2, lsl #16
 1416 0048 C0F83C38 		str	r3, [r0, #2108]
 1417              	.L99:
 645:Drivers/STM32H7xx_HAL_Driver/Src/stm32h7xx_ll_usb.c **** }
 1418              		.loc 1 645 3 is_stmt 1 view .LVU440
 646:Drivers/STM32H7xx_HAL_Driver/Src/stm32h7xx_ll_usb.c **** 
 1419              		.loc 1 646 1 is_stmt 0 view .LVU441
 1420 004c 0020     		movs	r0, #0
 1421              	.LVL104:
 646:Drivers/STM32H7xx_HAL_Driver/Src/stm32h7xx_ll_usb.c **** 
 1422              		.loc 1 646 1 view .LVU442
 1423 004e 70BC     		pop	{r4, r5, r6}
 1424              	.LCFI23:
 1425              		.cfi_remember_state
 1426              		.cfi_restore 6
 1427              		.cfi_restore 5
 1428              		.cfi_restore 4
 1429              		.cfi_def_cfa_offset 0
 1430 0050 7047     		bx	lr
 1431              	.LVL105:
 1432              	.L102:
 1433              	.LCFI24:
 1434              		.cfi_restore_state
 623:Drivers/STM32H7xx_HAL_Driver/Src/stm32h7xx_ll_usb.c ****     {
 1435              		.loc 1 623 5 is_stmt 1 view .LVU443
 623:Drivers/STM32H7xx_HAL_Driver/Src/stm32h7xx_ll_usb.c ****     {
 1436              		.loc 1 623 11 is_stmt 0 view .LVU444
 1437 0052 00EB4215 		add	r5, r0, r2, lsl #5
 623:Drivers/STM32H7xx_HAL_Driver/Src/stm32h7xx_ll_usb.c ****     {
 1438              		.loc 1 623 27 view .LVU445
 1439 0056 D5F80039 		ldr	r3, [r5, #2304]
 623:Drivers/STM32H7xx_HAL_Driver/Src/stm32h7xx_ll_usb.c ****     {
ARM GAS  /tmp/ccdP7LVA.s 			page 58


 1440              		.loc 1 623 8 view .LVU446
 1441 005a 13F4004F 		tst	r3, #32768
 1442 005e 0ED1     		bne	.L98
 625:Drivers/STM32H7xx_HAL_Driver/Src/stm32h7xx_ll_usb.c ****                                    ((uint32_t)ep->type << 18) | (epnum << 22) |
 1443              		.loc 1 625 7 is_stmt 1 view .LVU447
 625:Drivers/STM32H7xx_HAL_Driver/Src/stm32h7xx_ll_usb.c ****                                    ((uint32_t)ep->type << 18) | (epnum << 22) |
 1444              		.loc 1 625 33 is_stmt 0 view .LVU448
 1445 0060 D5F80069 		ldr	r6, [r5, #2304]
 625:Drivers/STM32H7xx_HAL_Driver/Src/stm32h7xx_ll_usb.c ****                                    ((uint32_t)ep->type << 18) | (epnum << 22) |
 1446              		.loc 1 625 39 view .LVU449
 1447 0064 8C68     		ldr	r4, [r1, #8]
 625:Drivers/STM32H7xx_HAL_Driver/Src/stm32h7xx_ll_usb.c ****                                    ((uint32_t)ep->type << 18) | (epnum << 22) |
 1448              		.loc 1 625 51 view .LVU450
 1449 0066 C4F30A03 		ubfx	r3, r4, #0, #11
 626:Drivers/STM32H7xx_HAL_Driver/Src/stm32h7xx_ll_usb.c ****                                    USB_OTG_DIEPCTL_SD0PID_SEVNFRM |
 1450              		.loc 1 626 49 view .LVU451
 1451 006a 0C79     		ldrb	r4, [r1, #4]	@ zero_extendqisi2
 625:Drivers/STM32H7xx_HAL_Driver/Src/stm32h7xx_ll_usb.c ****                                    ((uint32_t)ep->type << 18) | (epnum << 22) |
 1452              		.loc 1 625 76 view .LVU452
 1453 006c 43EA8443 		orr	r3, r3, r4, lsl #18
 626:Drivers/STM32H7xx_HAL_Driver/Src/stm32h7xx_ll_usb.c ****                                    USB_OTG_DIEPCTL_SD0PID_SEVNFRM |
 1454              		.loc 1 626 63 view .LVU453
 1455 0070 43EA8253 		orr	r3, r3, r2, lsl #22
 625:Drivers/STM32H7xx_HAL_Driver/Src/stm32h7xx_ll_usb.c ****                                    ((uint32_t)ep->type << 18) | (epnum << 22) |
 1456              		.loc 1 625 33 view .LVU454
 1457 0074 3343     		orrs	r3, r3, r6
 1458 0076 084C     		ldr	r4, .L103
 1459 0078 1C43     		orrs	r4, r4, r3
 1460 007a C5F80049 		str	r4, [r5, #2304]
 1461              	.L98:
 631:Drivers/STM32H7xx_HAL_Driver/Src/stm32h7xx_ll_usb.c ****   }
 1462              		.loc 1 631 5 is_stmt 1 view .LVU455
 631:Drivers/STM32H7xx_HAL_Driver/Src/stm32h7xx_ll_usb.c ****   }
 1463              		.loc 1 631 27 is_stmt 0 view .LVU456
 1464 007e D0F83C28 		ldr	r2, [r0, #2108]
 1465              	.LVL106:
 631:Drivers/STM32H7xx_HAL_Driver/Src/stm32h7xx_ll_usb.c ****   }
 1466              		.loc 1 631 75 view .LVU457
 1467 0082 0B78     		ldrb	r3, [r1]	@ zero_extendqisi2
 631:Drivers/STM32H7xx_HAL_Driver/Src/stm32h7xx_ll_usb.c ****   }
 1468              		.loc 1 631 81 view .LVU458
 1469 0084 03F00F01 		and	r1, r3, #15
 1470              	.LVL107:
 631:Drivers/STM32H7xx_HAL_Driver/Src/stm32h7xx_ll_usb.c ****   }
 1471              		.loc 1 631 54 view .LVU459
 1472 0088 0123     		movs	r3, #1
 1473 008a 8B40     		lsls	r3, r3, r1
 631:Drivers/STM32H7xx_HAL_Driver/Src/stm32h7xx_ll_usb.c ****   }
 1474              		.loc 1 631 52 view .LVU460
 1475 008c 9BB2     		uxth	r3, r3
 631:Drivers/STM32H7xx_HAL_Driver/Src/stm32h7xx_ll_usb.c ****   }
 1476              		.loc 1 631 27 view .LVU461
 1477 008e 1343     		orrs	r3, r3, r2
 1478 0090 C0F83C38 		str	r3, [r0, #2108]
 1479 0094 DAE7     		b	.L99
 1480              	.L104:
 1481 0096 00BF     		.align	2
ARM GAS  /tmp/ccdP7LVA.s 			page 59


 1482              	.L103:
 1483 0098 00800010 		.word	268468224
 1484              		.cfi_endproc
 1485              	.LFE155:
 1487              		.section	.text.USB_DeactivateEndpoint,"ax",%progbits
 1488              		.align	1
 1489              		.global	USB_DeactivateEndpoint
 1490              		.syntax unified
 1491              		.thumb
 1492              		.thumb_func
 1493              		.fpu fpv5-d16
 1495              	USB_DeactivateEndpoint:
 1496              	.LVL108:
 1497              	.LFB156:
 655:Drivers/STM32H7xx_HAL_Driver/Src/stm32h7xx_ll_usb.c ****   uint32_t USBx_BASE = (uint32_t)USBx;
 1498              		.loc 1 655 1 is_stmt 1 view -0
 1499              		.cfi_startproc
 1500              		@ args = 0, pretend = 0, frame = 0
 1501              		@ frame_needed = 0, uses_anonymous_args = 0
 1502              		@ link register save eliminated.
 655:Drivers/STM32H7xx_HAL_Driver/Src/stm32h7xx_ll_usb.c ****   uint32_t USBx_BASE = (uint32_t)USBx;
 1503              		.loc 1 655 1 is_stmt 0 view .LVU463
 1504 0000 30B4     		push	{r4, r5}
 1505              	.LCFI25:
 1506              		.cfi_def_cfa_offset 8
 1507              		.cfi_offset 4, -8
 1508              		.cfi_offset 5, -4
 656:Drivers/STM32H7xx_HAL_Driver/Src/stm32h7xx_ll_usb.c ****   uint32_t epnum = (uint32_t)ep->num;
 1509              		.loc 1 656 3 is_stmt 1 view .LVU464
 1510              	.LVL109:
 657:Drivers/STM32H7xx_HAL_Driver/Src/stm32h7xx_ll_usb.c **** 
 1511              		.loc 1 657 3 view .LVU465
 657:Drivers/STM32H7xx_HAL_Driver/Src/stm32h7xx_ll_usb.c **** 
 1512              		.loc 1 657 32 is_stmt 0 view .LVU466
 1513 0002 0B78     		ldrb	r3, [r1]	@ zero_extendqisi2
 1514              	.LVL110:
 660:Drivers/STM32H7xx_HAL_Driver/Src/stm32h7xx_ll_usb.c ****   {
 1515              		.loc 1 660 3 is_stmt 1 view .LVU467
 660:Drivers/STM32H7xx_HAL_Driver/Src/stm32h7xx_ll_usb.c ****   {
 1516              		.loc 1 660 9 is_stmt 0 view .LVU468
 1517 0004 4A78     		ldrb	r2, [r1, #1]	@ zero_extendqisi2
 660:Drivers/STM32H7xx_HAL_Driver/Src/stm32h7xx_ll_usb.c ****   {
 1518              		.loc 1 660 6 view .LVU469
 1519 0006 012A     		cmp	r2, #1
 1520 0008 24D0     		beq	.L111
 678:Drivers/STM32H7xx_HAL_Driver/Src/stm32h7xx_ll_usb.c ****     {
 1521              		.loc 1 678 5 is_stmt 1 view .LVU470
 678:Drivers/STM32H7xx_HAL_Driver/Src/stm32h7xx_ll_usb.c ****     {
 1522              		.loc 1 678 10 is_stmt 0 view .LVU471
 1523 000a 00EB4313 		add	r3, r0, r3, lsl #5
 1524              	.LVL111:
 678:Drivers/STM32H7xx_HAL_Driver/Src/stm32h7xx_ll_usb.c ****     {
 1525              		.loc 1 678 27 view .LVU472
 1526 000e D3F8002B 		ldr	r2, [r3, #2816]
 678:Drivers/STM32H7xx_HAL_Driver/Src/stm32h7xx_ll_usb.c ****     {
 1527              		.loc 1 678 8 view .LVU473
 1528 0012 002A     		cmp	r2, #0
ARM GAS  /tmp/ccdP7LVA.s 			page 60


 1529 0014 50DB     		blt	.L112
 1530              	.LVL112:
 1531              	.L109:
 684:Drivers/STM32H7xx_HAL_Driver/Src/stm32h7xx_ll_usb.c ****     USBx_DEVICE->DAINTMSK &= ~(USB_OTG_DAINTMSK_OEPM & ((uint32_t)(1UL << (ep->num & EP_ADDR_MSK)) 
 1532              		.loc 1 684 5 is_stmt 1 view .LVU474
 684:Drivers/STM32H7xx_HAL_Driver/Src/stm32h7xx_ll_usb.c ****     USBx_DEVICE->DAINTMSK &= ~(USB_OTG_DAINTMSK_OEPM & ((uint32_t)(1UL << (ep->num & EP_ADDR_MSK)) 
 1533              		.loc 1 684 27 is_stmt 0 view .LVU475
 1534 0016 D0F83C58 		ldr	r5, [r0, #2108]
 684:Drivers/STM32H7xx_HAL_Driver/Src/stm32h7xx_ll_usb.c ****     USBx_DEVICE->DAINTMSK &= ~(USB_OTG_DAINTMSK_OEPM & ((uint32_t)(1UL << (ep->num & EP_ADDR_MSK)) 
 1535              		.loc 1 684 78 view .LVU476
 1536 001a 0A78     		ldrb	r2, [r1]	@ zero_extendqisi2
 684:Drivers/STM32H7xx_HAL_Driver/Src/stm32h7xx_ll_usb.c ****     USBx_DEVICE->DAINTMSK &= ~(USB_OTG_DAINTMSK_OEPM & ((uint32_t)(1UL << (ep->num & EP_ADDR_MSK)) 
 1537              		.loc 1 684 84 view .LVU477
 1538 001c 02F00F02 		and	r2, r2, #15
 684:Drivers/STM32H7xx_HAL_Driver/Src/stm32h7xx_ll_usb.c ****     USBx_DEVICE->DAINTMSK &= ~(USB_OTG_DAINTMSK_OEPM & ((uint32_t)(1UL << (ep->num & EP_ADDR_MSK)) 
 1539              		.loc 1 684 57 view .LVU478
 1540 0020 0124     		movs	r4, #1
 1541 0022 04FA02F2 		lsl	r2, r4, r2
 684:Drivers/STM32H7xx_HAL_Driver/Src/stm32h7xx_ll_usb.c ****     USBx_DEVICE->DAINTMSK &= ~(USB_OTG_DAINTMSK_OEPM & ((uint32_t)(1UL << (ep->num & EP_ADDR_MSK)) 
 1542              		.loc 1 684 27 view .LVU479
 1543 0026 25EA0242 		bic	r2, r5, r2, lsl #16
 1544 002a C0F83C28 		str	r2, [r0, #2108]
 685:Drivers/STM32H7xx_HAL_Driver/Src/stm32h7xx_ll_usb.c ****     USBx_OUTEP(epnum)->DOEPCTL &= ~(USB_OTG_DOEPCTL_USBAEP |
 1545              		.loc 1 685 5 is_stmt 1 view .LVU480
 685:Drivers/STM32H7xx_HAL_Driver/Src/stm32h7xx_ll_usb.c ****     USBx_OUTEP(epnum)->DOEPCTL &= ~(USB_OTG_DOEPCTL_USBAEP |
 1546              		.loc 1 685 27 is_stmt 0 view .LVU481
 1547 002e D0F81C28 		ldr	r2, [r0, #2076]
 685:Drivers/STM32H7xx_HAL_Driver/Src/stm32h7xx_ll_usb.c ****     USBx_OUTEP(epnum)->DOEPCTL &= ~(USB_OTG_DOEPCTL_USBAEP |
 1548              		.loc 1 685 78 view .LVU482
 1549 0032 0978     		ldrb	r1, [r1]	@ zero_extendqisi2
 1550              	.LVL113:
 685:Drivers/STM32H7xx_HAL_Driver/Src/stm32h7xx_ll_usb.c ****     USBx_OUTEP(epnum)->DOEPCTL &= ~(USB_OTG_DOEPCTL_USBAEP |
 1551              		.loc 1 685 84 view .LVU483
 1552 0034 01F00F01 		and	r1, r1, #15
 685:Drivers/STM32H7xx_HAL_Driver/Src/stm32h7xx_ll_usb.c ****     USBx_OUTEP(epnum)->DOEPCTL &= ~(USB_OTG_DOEPCTL_USBAEP |
 1553              		.loc 1 685 57 view .LVU484
 1554 0038 8C40     		lsls	r4, r4, r1
 685:Drivers/STM32H7xx_HAL_Driver/Src/stm32h7xx_ll_usb.c ****     USBx_OUTEP(epnum)->DOEPCTL &= ~(USB_OTG_DOEPCTL_USBAEP |
 1555              		.loc 1 685 27 view .LVU485
 1556 003a 22EA0444 		bic	r4, r2, r4, lsl #16
 1557 003e C0F81C48 		str	r4, [r0, #2076]
 686:Drivers/STM32H7xx_HAL_Driver/Src/stm32h7xx_ll_usb.c ****                                     USB_OTG_DOEPCTL_MPSIZ |
 1558              		.loc 1 686 5 is_stmt 1 view .LVU486
 686:Drivers/STM32H7xx_HAL_Driver/Src/stm32h7xx_ll_usb.c ****                                     USB_OTG_DOEPCTL_MPSIZ |
 1559              		.loc 1 686 32 is_stmt 0 view .LVU487
 1560 0042 D3F8001B 		ldr	r1, [r3, #2816]
 1561 0046 234A     		ldr	r2, .L114
 1562 0048 0A40     		ands	r2, r2, r1
 1563 004a C3F8002B 		str	r2, [r3, #2816]
 1564              	.L108:
 692:Drivers/STM32H7xx_HAL_Driver/Src/stm32h7xx_ll_usb.c **** }
 1565              		.loc 1 692 3 is_stmt 1 view .LVU488
 693:Drivers/STM32H7xx_HAL_Driver/Src/stm32h7xx_ll_usb.c **** 
 1566              		.loc 1 693 1 is_stmt 0 view .LVU489
 1567 004e 0020     		movs	r0, #0
 1568              	.LVL114:
 693:Drivers/STM32H7xx_HAL_Driver/Src/stm32h7xx_ll_usb.c **** 
ARM GAS  /tmp/ccdP7LVA.s 			page 61


 1569              		.loc 1 693 1 view .LVU490
 1570 0050 30BC     		pop	{r4, r5}
 1571              	.LCFI26:
 1572              		.cfi_remember_state
 1573              		.cfi_restore 5
 1574              		.cfi_restore 4
 1575              		.cfi_def_cfa_offset 0
 1576 0052 7047     		bx	lr
 1577              	.LVL115:
 1578              	.L111:
 1579              	.LCFI27:
 1580              		.cfi_restore_state
 662:Drivers/STM32H7xx_HAL_Driver/Src/stm32h7xx_ll_usb.c ****     {
 1581              		.loc 1 662 5 is_stmt 1 view .LVU491
 662:Drivers/STM32H7xx_HAL_Driver/Src/stm32h7xx_ll_usb.c ****     {
 1582              		.loc 1 662 10 is_stmt 0 view .LVU492
 1583 0054 00EB4313 		add	r3, r0, r3, lsl #5
 1584              	.LVL116:
 662:Drivers/STM32H7xx_HAL_Driver/Src/stm32h7xx_ll_usb.c ****     {
 1585              		.loc 1 662 26 view .LVU493
 1586 0058 D3F80029 		ldr	r2, [r3, #2304]
 662:Drivers/STM32H7xx_HAL_Driver/Src/stm32h7xx_ll_usb.c ****     {
 1587              		.loc 1 662 8 view .LVU494
 1588 005c 002A     		cmp	r2, #0
 1589 005e 1EDB     		blt	.L113
 1590              	.LVL117:
 1591              	.L107:
 668:Drivers/STM32H7xx_HAL_Driver/Src/stm32h7xx_ll_usb.c ****     USBx_DEVICE->DAINTMSK &= ~(USB_OTG_DAINTMSK_IEPM & (uint32_t)(1UL << (ep->num & EP_ADDR_MSK)));
 1592              		.loc 1 668 5 is_stmt 1 view .LVU495
 668:Drivers/STM32H7xx_HAL_Driver/Src/stm32h7xx_ll_usb.c ****     USBx_DEVICE->DAINTMSK &= ~(USB_OTG_DAINTMSK_IEPM & (uint32_t)(1UL << (ep->num & EP_ADDR_MSK)));
 1593              		.loc 1 668 27 is_stmt 0 view .LVU496
 1594 0060 D0F83C58 		ldr	r5, [r0, #2108]
 668:Drivers/STM32H7xx_HAL_Driver/Src/stm32h7xx_ll_usb.c ****     USBx_DEVICE->DAINTMSK &= ~(USB_OTG_DAINTMSK_IEPM & (uint32_t)(1UL << (ep->num & EP_ADDR_MSK)));
 1595              		.loc 1 668 77 view .LVU497
 1596 0064 0A78     		ldrb	r2, [r1]	@ zero_extendqisi2
 668:Drivers/STM32H7xx_HAL_Driver/Src/stm32h7xx_ll_usb.c ****     USBx_DEVICE->DAINTMSK &= ~(USB_OTG_DAINTMSK_IEPM & (uint32_t)(1UL << (ep->num & EP_ADDR_MSK)));
 1597              		.loc 1 668 83 view .LVU498
 1598 0066 02F00F02 		and	r2, r2, #15
 668:Drivers/STM32H7xx_HAL_Driver/Src/stm32h7xx_ll_usb.c ****     USBx_DEVICE->DAINTMSK &= ~(USB_OTG_DAINTMSK_IEPM & (uint32_t)(1UL << (ep->num & EP_ADDR_MSK)));
 1599              		.loc 1 668 56 view .LVU499
 1600 006a 0124     		movs	r4, #1
 1601 006c 04FA02F2 		lsl	r2, r4, r2
 668:Drivers/STM32H7xx_HAL_Driver/Src/stm32h7xx_ll_usb.c ****     USBx_DEVICE->DAINTMSK &= ~(USB_OTG_DAINTMSK_IEPM & (uint32_t)(1UL << (ep->num & EP_ADDR_MSK)));
 1602              		.loc 1 668 54 view .LVU500
 1603 0070 92B2     		uxth	r2, r2
 668:Drivers/STM32H7xx_HAL_Driver/Src/stm32h7xx_ll_usb.c ****     USBx_DEVICE->DAINTMSK &= ~(USB_OTG_DAINTMSK_IEPM & (uint32_t)(1UL << (ep->num & EP_ADDR_MSK)));
 1604              		.loc 1 668 27 view .LVU501
 1605 0072 25EA0202 		bic	r2, r5, r2
 1606 0076 C0F83C28 		str	r2, [r0, #2108]
 669:Drivers/STM32H7xx_HAL_Driver/Src/stm32h7xx_ll_usb.c ****     USBx_INEP(epnum)->DIEPCTL &= ~(USB_OTG_DIEPCTL_USBAEP |
 1607              		.loc 1 669 5 is_stmt 1 view .LVU502
 669:Drivers/STM32H7xx_HAL_Driver/Src/stm32h7xx_ll_usb.c ****     USBx_INEP(epnum)->DIEPCTL &= ~(USB_OTG_DIEPCTL_USBAEP |
 1608              		.loc 1 669 27 is_stmt 0 view .LVU503
 1609 007a D0F81C28 		ldr	r2, [r0, #2076]
 669:Drivers/STM32H7xx_HAL_Driver/Src/stm32h7xx_ll_usb.c ****     USBx_INEP(epnum)->DIEPCTL &= ~(USB_OTG_DIEPCTL_USBAEP |
 1610              		.loc 1 669 77 view .LVU504
 1611 007e 0978     		ldrb	r1, [r1]	@ zero_extendqisi2
ARM GAS  /tmp/ccdP7LVA.s 			page 62


 1612              	.LVL118:
 669:Drivers/STM32H7xx_HAL_Driver/Src/stm32h7xx_ll_usb.c ****     USBx_INEP(epnum)->DIEPCTL &= ~(USB_OTG_DIEPCTL_USBAEP |
 1613              		.loc 1 669 83 view .LVU505
 1614 0080 01F00F01 		and	r1, r1, #15
 669:Drivers/STM32H7xx_HAL_Driver/Src/stm32h7xx_ll_usb.c ****     USBx_INEP(epnum)->DIEPCTL &= ~(USB_OTG_DIEPCTL_USBAEP |
 1615              		.loc 1 669 56 view .LVU506
 1616 0084 8C40     		lsls	r4, r4, r1
 669:Drivers/STM32H7xx_HAL_Driver/Src/stm32h7xx_ll_usb.c ****     USBx_INEP(epnum)->DIEPCTL &= ~(USB_OTG_DIEPCTL_USBAEP |
 1617              		.loc 1 669 54 view .LVU507
 1618 0086 A4B2     		uxth	r4, r4
 669:Drivers/STM32H7xx_HAL_Driver/Src/stm32h7xx_ll_usb.c ****     USBx_INEP(epnum)->DIEPCTL &= ~(USB_OTG_DIEPCTL_USBAEP |
 1619              		.loc 1 669 27 view .LVU508
 1620 0088 22EA0404 		bic	r4, r2, r4
 1621 008c C0F81C48 		str	r4, [r0, #2076]
 670:Drivers/STM32H7xx_HAL_Driver/Src/stm32h7xx_ll_usb.c ****                                    USB_OTG_DIEPCTL_MPSIZ |
 1622              		.loc 1 670 5 is_stmt 1 view .LVU509
 670:Drivers/STM32H7xx_HAL_Driver/Src/stm32h7xx_ll_usb.c ****                                    USB_OTG_DIEPCTL_MPSIZ |
 1623              		.loc 1 670 31 is_stmt 0 view .LVU510
 1624 0090 D3F80019 		ldr	r1, [r3, #2304]
 1625 0094 104A     		ldr	r2, .L114+4
 1626 0096 0A40     		ands	r2, r2, r1
 1627 0098 C3F80029 		str	r2, [r3, #2304]
 1628 009c D7E7     		b	.L108
 1629              	.LVL119:
 1630              	.L113:
 664:Drivers/STM32H7xx_HAL_Driver/Src/stm32h7xx_ll_usb.c ****       USBx_INEP(epnum)->DIEPCTL |= USB_OTG_DIEPCTL_EPDIS;
 1631              		.loc 1 664 7 is_stmt 1 view .LVU511
 664:Drivers/STM32H7xx_HAL_Driver/Src/stm32h7xx_ll_usb.c ****       USBx_INEP(epnum)->DIEPCTL |= USB_OTG_DIEPCTL_EPDIS;
 1632              		.loc 1 664 33 is_stmt 0 view .LVU512
 1633 009e D3F80029 		ldr	r2, [r3, #2304]
 1634 00a2 42F00062 		orr	r2, r2, #134217728
 1635 00a6 C3F80029 		str	r2, [r3, #2304]
 1636              	.LVL120:
 665:Drivers/STM32H7xx_HAL_Driver/Src/stm32h7xx_ll_usb.c ****     }
 1637              		.loc 1 665 7 is_stmt 1 view .LVU513
 665:Drivers/STM32H7xx_HAL_Driver/Src/stm32h7xx_ll_usb.c ****     }
 1638              		.loc 1 665 33 is_stmt 0 view .LVU514
 1639 00aa D3F80029 		ldr	r2, [r3, #2304]
 1640 00ae 42F08042 		orr	r2, r2, #1073741824
 1641 00b2 C3F80029 		str	r2, [r3, #2304]
 1642 00b6 D3E7     		b	.L107
 1643              	.LVL121:
 1644              	.L112:
 680:Drivers/STM32H7xx_HAL_Driver/Src/stm32h7xx_ll_usb.c ****       USBx_OUTEP(epnum)->DOEPCTL |= USB_OTG_DOEPCTL_EPDIS;
 1645              		.loc 1 680 7 is_stmt 1 view .LVU515
 680:Drivers/STM32H7xx_HAL_Driver/Src/stm32h7xx_ll_usb.c ****       USBx_OUTEP(epnum)->DOEPCTL |= USB_OTG_DOEPCTL_EPDIS;
 1646              		.loc 1 680 34 is_stmt 0 view .LVU516
 1647 00b8 D3F8002B 		ldr	r2, [r3, #2816]
 1648 00bc 42F00062 		orr	r2, r2, #134217728
 1649 00c0 C3F8002B 		str	r2, [r3, #2816]
 1650              	.LVL122:
 681:Drivers/STM32H7xx_HAL_Driver/Src/stm32h7xx_ll_usb.c ****     }
 1651              		.loc 1 681 7 is_stmt 1 view .LVU517
 681:Drivers/STM32H7xx_HAL_Driver/Src/stm32h7xx_ll_usb.c ****     }
 1652              		.loc 1 681 34 is_stmt 0 view .LVU518
 1653 00c4 D3F8002B 		ldr	r2, [r3, #2816]
 1654 00c8 42F08042 		orr	r2, r2, #1073741824
ARM GAS  /tmp/ccdP7LVA.s 			page 63


 1655 00cc C3F8002B 		str	r2, [r3, #2816]
 1656 00d0 A1E7     		b	.L109
 1657              	.L115:
 1658 00d2 00BF     		.align	2
 1659              	.L114:
 1660 00d4 0078F3EF 		.word	-269256704
 1661 00d8 007833EC 		.word	-332171264
 1662              		.cfi_endproc
 1663              	.LFE156:
 1665              		.section	.text.USB_DeactivateDedicatedEndpoint,"ax",%progbits
 1666              		.align	1
 1667              		.global	USB_DeactivateDedicatedEndpoint
 1668              		.syntax unified
 1669              		.thumb
 1670              		.thumb_func
 1671              		.fpu fpv5-d16
 1673              	USB_DeactivateDedicatedEndpoint:
 1674              	.LVL123:
 1675              	.LFB157:
 702:Drivers/STM32H7xx_HAL_Driver/Src/stm32h7xx_ll_usb.c ****   uint32_t USBx_BASE = (uint32_t)USBx;
 1676              		.loc 1 702 1 is_stmt 1 view -0
 1677              		.cfi_startproc
 1678              		@ args = 0, pretend = 0, frame = 0
 1679              		@ frame_needed = 0, uses_anonymous_args = 0
 1680              		@ link register save eliminated.
 703:Drivers/STM32H7xx_HAL_Driver/Src/stm32h7xx_ll_usb.c ****   uint32_t epnum = (uint32_t)ep->num;
 1681              		.loc 1 703 3 view .LVU520
 704:Drivers/STM32H7xx_HAL_Driver/Src/stm32h7xx_ll_usb.c **** 
 1682              		.loc 1 704 3 view .LVU521
 704:Drivers/STM32H7xx_HAL_Driver/Src/stm32h7xx_ll_usb.c **** 
 1683              		.loc 1 704 32 is_stmt 0 view .LVU522
 1684 0000 0B78     		ldrb	r3, [r1]	@ zero_extendqisi2
 1685              	.LVL124:
 707:Drivers/STM32H7xx_HAL_Driver/Src/stm32h7xx_ll_usb.c ****   {
 1686              		.loc 1 707 3 is_stmt 1 view .LVU523
 707:Drivers/STM32H7xx_HAL_Driver/Src/stm32h7xx_ll_usb.c ****   {
 1687              		.loc 1 707 9 is_stmt 0 view .LVU524
 1688 0002 4A78     		ldrb	r2, [r1, #1]	@ zero_extendqisi2
 707:Drivers/STM32H7xx_HAL_Driver/Src/stm32h7xx_ll_usb.c ****   {
 1689              		.loc 1 707 6 view .LVU525
 1690 0004 012A     		cmp	r2, #1
 1691 0006 18D0     		beq	.L121
 720:Drivers/STM32H7xx_HAL_Driver/Src/stm32h7xx_ll_usb.c ****     {
 1692              		.loc 1 720 5 is_stmt 1 view .LVU526
 720:Drivers/STM32H7xx_HAL_Driver/Src/stm32h7xx_ll_usb.c ****     {
 1693              		.loc 1 720 10 is_stmt 0 view .LVU527
 1694 0008 00EB4313 		add	r3, r0, r3, lsl #5
 1695              	.LVL125:
 720:Drivers/STM32H7xx_HAL_Driver/Src/stm32h7xx_ll_usb.c ****     {
 1696              		.loc 1 720 27 view .LVU528
 1697 000c D3F8002B 		ldr	r2, [r3, #2816]
 720:Drivers/STM32H7xx_HAL_Driver/Src/stm32h7xx_ll_usb.c ****     {
 1698              		.loc 1 720 8 view .LVU529
 1699 0010 002A     		cmp	r2, #0
 1700 0012 38DB     		blt	.L122
 1701              	.LVL126:
 1702              	.L120:
ARM GAS  /tmp/ccdP7LVA.s 			page 64


 726:Drivers/STM32H7xx_HAL_Driver/Src/stm32h7xx_ll_usb.c ****     USBx_DEVICE->DAINTMSK &= ~(USB_OTG_DAINTMSK_OEPM & ((uint32_t)(1UL << (ep->num & EP_ADDR_MSK)) 
 1703              		.loc 1 726 5 is_stmt 1 view .LVU530
 726:Drivers/STM32H7xx_HAL_Driver/Src/stm32h7xx_ll_usb.c ****     USBx_DEVICE->DAINTMSK &= ~(USB_OTG_DAINTMSK_OEPM & ((uint32_t)(1UL << (ep->num & EP_ADDR_MSK)) 
 1704              		.loc 1 726 32 is_stmt 0 view .LVU531
 1705 0014 D3F8002B 		ldr	r2, [r3, #2816]
 1706 0018 22F40042 		bic	r2, r2, #32768
 1707 001c C3F8002B 		str	r2, [r3, #2816]
 727:Drivers/STM32H7xx_HAL_Driver/Src/stm32h7xx_ll_usb.c ****   }
 1708              		.loc 1 727 5 is_stmt 1 view .LVU532
 727:Drivers/STM32H7xx_HAL_Driver/Src/stm32h7xx_ll_usb.c ****   }
 1709              		.loc 1 727 27 is_stmt 0 view .LVU533
 1710 0020 D0F81C38 		ldr	r3, [r0, #2076]
 727:Drivers/STM32H7xx_HAL_Driver/Src/stm32h7xx_ll_usb.c ****   }
 1711              		.loc 1 727 78 view .LVU534
 1712 0024 0A78     		ldrb	r2, [r1]	@ zero_extendqisi2
 727:Drivers/STM32H7xx_HAL_Driver/Src/stm32h7xx_ll_usb.c ****   }
 1713              		.loc 1 727 84 view .LVU535
 1714 0026 02F00F01 		and	r1, r2, #15
 1715              	.LVL127:
 727:Drivers/STM32H7xx_HAL_Driver/Src/stm32h7xx_ll_usb.c ****   }
 1716              		.loc 1 727 57 view .LVU536
 1717 002a 0122     		movs	r2, #1
 1718 002c 8A40     		lsls	r2, r2, r1
 727:Drivers/STM32H7xx_HAL_Driver/Src/stm32h7xx_ll_usb.c ****   }
 1719              		.loc 1 727 27 view .LVU537
 1720 002e 23EA0243 		bic	r3, r3, r2, lsl #16
 1721 0032 C0F81C38 		str	r3, [r0, #2076]
 1722              	.L119:
 730:Drivers/STM32H7xx_HAL_Driver/Src/stm32h7xx_ll_usb.c **** }
 1723              		.loc 1 730 3 is_stmt 1 view .LVU538
 731:Drivers/STM32H7xx_HAL_Driver/Src/stm32h7xx_ll_usb.c **** 
 1724              		.loc 1 731 1 is_stmt 0 view .LVU539
 1725 0036 0020     		movs	r0, #0
 1726              	.LVL128:
 731:Drivers/STM32H7xx_HAL_Driver/Src/stm32h7xx_ll_usb.c **** 
 1727              		.loc 1 731 1 view .LVU540
 1728 0038 7047     		bx	lr
 1729              	.LVL129:
 1730              	.L121:
 709:Drivers/STM32H7xx_HAL_Driver/Src/stm32h7xx_ll_usb.c ****     {
 1731              		.loc 1 709 5 is_stmt 1 view .LVU541
 709:Drivers/STM32H7xx_HAL_Driver/Src/stm32h7xx_ll_usb.c ****     {
 1732              		.loc 1 709 10 is_stmt 0 view .LVU542
 1733 003a 00EB4313 		add	r3, r0, r3, lsl #5
 1734              	.LVL130:
 709:Drivers/STM32H7xx_HAL_Driver/Src/stm32h7xx_ll_usb.c ****     {
 1735              		.loc 1 709 26 view .LVU543
 1736 003e D3F80029 		ldr	r2, [r3, #2304]
 709:Drivers/STM32H7xx_HAL_Driver/Src/stm32h7xx_ll_usb.c ****     {
 1737              		.loc 1 709 8 view .LVU544
 1738 0042 002A     		cmp	r2, #0
 1739 0044 12DB     		blt	.L123
 1740              	.LVL131:
 1741              	.L118:
 715:Drivers/STM32H7xx_HAL_Driver/Src/stm32h7xx_ll_usb.c ****     USBx_DEVICE->DAINTMSK &= ~(USB_OTG_DAINTMSK_IEPM & (uint32_t)(1UL << (ep->num & EP_ADDR_MSK)));
 1742              		.loc 1 715 5 is_stmt 1 view .LVU545
 715:Drivers/STM32H7xx_HAL_Driver/Src/stm32h7xx_ll_usb.c ****     USBx_DEVICE->DAINTMSK &= ~(USB_OTG_DAINTMSK_IEPM & (uint32_t)(1UL << (ep->num & EP_ADDR_MSK)));
ARM GAS  /tmp/ccdP7LVA.s 			page 65


 1743              		.loc 1 715 31 is_stmt 0 view .LVU546
 1744 0046 D3F80029 		ldr	r2, [r3, #2304]
 1745 004a 22F40042 		bic	r2, r2, #32768
 1746 004e C3F80029 		str	r2, [r3, #2304]
 716:Drivers/STM32H7xx_HAL_Driver/Src/stm32h7xx_ll_usb.c ****   }
 1747              		.loc 1 716 5 is_stmt 1 view .LVU547
 716:Drivers/STM32H7xx_HAL_Driver/Src/stm32h7xx_ll_usb.c ****   }
 1748              		.loc 1 716 27 is_stmt 0 view .LVU548
 1749 0052 D0F81C28 		ldr	r2, [r0, #2076]
 716:Drivers/STM32H7xx_HAL_Driver/Src/stm32h7xx_ll_usb.c ****   }
 1750              		.loc 1 716 77 view .LVU549
 1751 0056 0B78     		ldrb	r3, [r1]	@ zero_extendqisi2
 716:Drivers/STM32H7xx_HAL_Driver/Src/stm32h7xx_ll_usb.c ****   }
 1752              		.loc 1 716 83 view .LVU550
 1753 0058 03F00F01 		and	r1, r3, #15
 1754              	.LVL132:
 716:Drivers/STM32H7xx_HAL_Driver/Src/stm32h7xx_ll_usb.c ****   }
 1755              		.loc 1 716 56 view .LVU551
 1756 005c 0123     		movs	r3, #1
 1757 005e 8B40     		lsls	r3, r3, r1
 716:Drivers/STM32H7xx_HAL_Driver/Src/stm32h7xx_ll_usb.c ****   }
 1758              		.loc 1 716 54 view .LVU552
 1759 0060 9BB2     		uxth	r3, r3
 716:Drivers/STM32H7xx_HAL_Driver/Src/stm32h7xx_ll_usb.c ****   }
 1760              		.loc 1 716 27 view .LVU553
 1761 0062 22EA0303 		bic	r3, r2, r3
 1762 0066 C0F81C38 		str	r3, [r0, #2076]
 1763 006a E4E7     		b	.L119
 1764              	.LVL133:
 1765              	.L123:
 711:Drivers/STM32H7xx_HAL_Driver/Src/stm32h7xx_ll_usb.c ****       USBx_INEP(epnum)->DIEPCTL  |= USB_OTG_DIEPCTL_EPDIS;
 1766              		.loc 1 711 7 is_stmt 1 view .LVU554
 711:Drivers/STM32H7xx_HAL_Driver/Src/stm32h7xx_ll_usb.c ****       USBx_INEP(epnum)->DIEPCTL  |= USB_OTG_DIEPCTL_EPDIS;
 1767              		.loc 1 711 34 is_stmt 0 view .LVU555
 1768 006c D3F80029 		ldr	r2, [r3, #2304]
 1769 0070 42F00062 		orr	r2, r2, #134217728
 1770 0074 C3F80029 		str	r2, [r3, #2304]
 1771              	.LVL134:
 712:Drivers/STM32H7xx_HAL_Driver/Src/stm32h7xx_ll_usb.c ****     }
 1772              		.loc 1 712 7 is_stmt 1 view .LVU556
 712:Drivers/STM32H7xx_HAL_Driver/Src/stm32h7xx_ll_usb.c ****     }
 1773              		.loc 1 712 34 is_stmt 0 view .LVU557
 1774 0078 D3F80029 		ldr	r2, [r3, #2304]
 1775 007c 42F08042 		orr	r2, r2, #1073741824
 1776 0080 C3F80029 		str	r2, [r3, #2304]
 1777 0084 DFE7     		b	.L118
 1778              	.LVL135:
 1779              	.L122:
 722:Drivers/STM32H7xx_HAL_Driver/Src/stm32h7xx_ll_usb.c ****       USBx_OUTEP(epnum)->DOEPCTL  |= USB_OTG_DOEPCTL_EPDIS;
 1780              		.loc 1 722 7 is_stmt 1 view .LVU558
 722:Drivers/STM32H7xx_HAL_Driver/Src/stm32h7xx_ll_usb.c ****       USBx_OUTEP(epnum)->DOEPCTL  |= USB_OTG_DOEPCTL_EPDIS;
 1781              		.loc 1 722 35 is_stmt 0 view .LVU559
 1782 0086 D3F8002B 		ldr	r2, [r3, #2816]
 1783 008a 42F00062 		orr	r2, r2, #134217728
 1784 008e C3F8002B 		str	r2, [r3, #2816]
 1785              	.LVL136:
 723:Drivers/STM32H7xx_HAL_Driver/Src/stm32h7xx_ll_usb.c ****     }
ARM GAS  /tmp/ccdP7LVA.s 			page 66


 1786              		.loc 1 723 7 is_stmt 1 view .LVU560
 723:Drivers/STM32H7xx_HAL_Driver/Src/stm32h7xx_ll_usb.c ****     }
 1787              		.loc 1 723 35 is_stmt 0 view .LVU561
 1788 0092 D3F8002B 		ldr	r2, [r3, #2816]
 1789 0096 42F08042 		orr	r2, r2, #1073741824
 1790 009a C3F8002B 		str	r2, [r3, #2816]
 1791 009e B9E7     		b	.L120
 1792              		.cfi_endproc
 1793              	.LFE157:
 1795              		.section	.text.USB_EPStopXfer,"ax",%progbits
 1796              		.align	1
 1797              		.global	USB_EPStopXfer
 1798              		.syntax unified
 1799              		.thumb
 1800              		.thumb_func
 1801              		.fpu fpv5-d16
 1803              	USB_EPStopXfer:
 1804              	.LVL137:
 1805              	.LFB159:
 916:Drivers/STM32H7xx_HAL_Driver/Src/stm32h7xx_ll_usb.c ****   __IO uint32_t count = 0U;
 1806              		.loc 1 916 1 is_stmt 1 view -0
 1807              		.cfi_startproc
 1808              		@ args = 0, pretend = 0, frame = 8
 1809              		@ frame_needed = 0, uses_anonymous_args = 0
 1810              		@ link register save eliminated.
 916:Drivers/STM32H7xx_HAL_Driver/Src/stm32h7xx_ll_usb.c ****   __IO uint32_t count = 0U;
 1811              		.loc 1 916 1 is_stmt 0 view .LVU563
 1812 0000 30B4     		push	{r4, r5}
 1813              	.LCFI28:
 1814              		.cfi_def_cfa_offset 8
 1815              		.cfi_offset 4, -8
 1816              		.cfi_offset 5, -4
 1817 0002 82B0     		sub	sp, sp, #8
 1818              	.LCFI29:
 1819              		.cfi_def_cfa_offset 16
 1820 0004 0346     		mov	r3, r0
 917:Drivers/STM32H7xx_HAL_Driver/Src/stm32h7xx_ll_usb.c ****   HAL_StatusTypeDef ret = HAL_OK;
 1821              		.loc 1 917 3 is_stmt 1 view .LVU564
 917:Drivers/STM32H7xx_HAL_Driver/Src/stm32h7xx_ll_usb.c ****   HAL_StatusTypeDef ret = HAL_OK;
 1822              		.loc 1 917 17 is_stmt 0 view .LVU565
 1823 0006 0022     		movs	r2, #0
 1824 0008 0192     		str	r2, [sp, #4]
 918:Drivers/STM32H7xx_HAL_Driver/Src/stm32h7xx_ll_usb.c ****   uint32_t USBx_BASE = (uint32_t)USBx;
 1825              		.loc 1 918 3 is_stmt 1 view .LVU566
 1826              	.LVL138:
 919:Drivers/STM32H7xx_HAL_Driver/Src/stm32h7xx_ll_usb.c **** 
 1827              		.loc 1 919 3 view .LVU567
 919:Drivers/STM32H7xx_HAL_Driver/Src/stm32h7xx_ll_usb.c **** 
 1828              		.loc 1 919 12 is_stmt 0 view .LVU568
 1829 000a 0446     		mov	r4, r0
 1830              	.LVL139:
 922:Drivers/STM32H7xx_HAL_Driver/Src/stm32h7xx_ll_usb.c ****   {
 1831              		.loc 1 922 3 is_stmt 1 view .LVU569
 922:Drivers/STM32H7xx_HAL_Driver/Src/stm32h7xx_ll_usb.c ****   {
 1832              		.loc 1 922 9 is_stmt 0 view .LVU570
 1833 000c 4878     		ldrb	r0, [r1, #1]	@ zero_extendqisi2
 1834              	.LVL140:
ARM GAS  /tmp/ccdP7LVA.s 			page 67


 922:Drivers/STM32H7xx_HAL_Driver/Src/stm32h7xx_ll_usb.c ****   {
 1835              		.loc 1 922 6 view .LVU571
 1836 000e 0128     		cmp	r0, #1
 1837 0010 0AD0     		beq	.L133
 944:Drivers/STM32H7xx_HAL_Driver/Src/stm32h7xx_ll_usb.c ****     {
 1838              		.loc 1 944 5 is_stmt 1 view .LVU572
 944:Drivers/STM32H7xx_HAL_Driver/Src/stm32h7xx_ll_usb.c ****     {
 1839              		.loc 1 944 11 is_stmt 0 view .LVU573
 1840 0012 0A78     		ldrb	r2, [r1]	@ zero_extendqisi2
 1841 0014 03EB4212 		add	r2, r3, r2, lsl #5
 944:Drivers/STM32H7xx_HAL_Driver/Src/stm32h7xx_ll_usb.c ****     {
 1842              		.loc 1 944 30 view .LVU574
 1843 0018 D2F8000B 		ldr	r0, [r2, #2816]
 944:Drivers/STM32H7xx_HAL_Driver/Src/stm32h7xx_ll_usb.c ****     {
 1844              		.loc 1 944 8 view .LVU575
 1845 001c 0028     		cmp	r0, #0
 1846 001e 2CDB     		blt	.L134
 918:Drivers/STM32H7xx_HAL_Driver/Src/stm32h7xx_ll_usb.c ****   uint32_t USBx_BASE = (uint32_t)USBx;
 1847              		.loc 1 918 21 view .LVU576
 1848 0020 0020     		movs	r0, #0
 1849              	.LVL141:
 1850              	.L126:
 962:Drivers/STM32H7xx_HAL_Driver/Src/stm32h7xx_ll_usb.c **** }
 1851              		.loc 1 962 3 is_stmt 1 view .LVU577
 963:Drivers/STM32H7xx_HAL_Driver/Src/stm32h7xx_ll_usb.c **** 
 1852              		.loc 1 963 1 is_stmt 0 view .LVU578
 1853 0022 02B0     		add	sp, sp, #8
 1854              	.LCFI30:
 1855              		.cfi_remember_state
 1856              		.cfi_def_cfa_offset 8
 1857              		@ sp needed
 1858 0024 30BC     		pop	{r4, r5}
 1859              	.LCFI31:
 1860              		.cfi_restore 5
 1861              		.cfi_restore 4
 1862              		.cfi_def_cfa_offset 0
 1863              	.LVL142:
 963:Drivers/STM32H7xx_HAL_Driver/Src/stm32h7xx_ll_usb.c **** 
 1864              		.loc 1 963 1 view .LVU579
 1865 0026 7047     		bx	lr
 1866              	.LVL143:
 1867              	.L133:
 1868              	.LCFI32:
 1869              		.cfi_restore_state
 925:Drivers/STM32H7xx_HAL_Driver/Src/stm32h7xx_ll_usb.c ****     {
 1870              		.loc 1 925 5 is_stmt 1 view .LVU580
 925:Drivers/STM32H7xx_HAL_Driver/Src/stm32h7xx_ll_usb.c ****     {
 1871              		.loc 1 925 11 is_stmt 0 view .LVU581
 1872 0028 0A78     		ldrb	r2, [r1]	@ zero_extendqisi2
 1873 002a 03EB4212 		add	r2, r3, r2, lsl #5
 925:Drivers/STM32H7xx_HAL_Driver/Src/stm32h7xx_ll_usb.c ****     {
 1874              		.loc 1 925 29 view .LVU582
 1875 002e D2F80059 		ldr	r5, [r2, #2304]
 925:Drivers/STM32H7xx_HAL_Driver/Src/stm32h7xx_ll_usb.c ****     {
 1876              		.loc 1 925 8 view .LVU583
 1877 0032 002D     		cmp	r5, #0
 1878 0034 01DB     		blt	.L135
ARM GAS  /tmp/ccdP7LVA.s 			page 68


 918:Drivers/STM32H7xx_HAL_Driver/Src/stm32h7xx_ll_usb.c ****   uint32_t USBx_BASE = (uint32_t)USBx;
 1879              		.loc 1 918 21 view .LVU584
 1880 0036 0020     		movs	r0, #0
 1881 0038 F3E7     		b	.L126
 1882              	.L135:
 927:Drivers/STM32H7xx_HAL_Driver/Src/stm32h7xx_ll_usb.c ****       USBx_INEP(ep->num)->DIEPCTL |= (USB_OTG_DIEPCTL_EPDIS);
 1883              		.loc 1 927 7 is_stmt 1 view .LVU585
 927:Drivers/STM32H7xx_HAL_Driver/Src/stm32h7xx_ll_usb.c ****       USBx_INEP(ep->num)->DIEPCTL |= (USB_OTG_DIEPCTL_EPDIS);
 1884              		.loc 1 927 35 is_stmt 0 view .LVU586
 1885 003a D2F80059 		ldr	r5, [r2, #2304]
 1886 003e 45F00065 		orr	r5, r5, #134217728
 1887 0042 C2F80059 		str	r5, [r2, #2304]
 928:Drivers/STM32H7xx_HAL_Driver/Src/stm32h7xx_ll_usb.c **** 
 1888              		.loc 1 928 7 is_stmt 1 view .LVU587
 1889 0046 0A78     		ldrb	r2, [r1]	@ zero_extendqisi2
 928:Drivers/STM32H7xx_HAL_Driver/Src/stm32h7xx_ll_usb.c **** 
 1890              		.loc 1 928 35 is_stmt 0 view .LVU588
 1891 0048 03EB4213 		add	r3, r3, r2, lsl #5
 1892              	.LVL144:
 928:Drivers/STM32H7xx_HAL_Driver/Src/stm32h7xx_ll_usb.c **** 
 1893              		.loc 1 928 35 view .LVU589
 1894 004c D3F80029 		ldr	r2, [r3, #2304]
 1895 0050 42F08042 		orr	r2, r2, #1073741824
 1896 0054 C3F80029 		str	r2, [r3, #2304]
 1897              	.L127:
 930:Drivers/STM32H7xx_HAL_Driver/Src/stm32h7xx_ll_usb.c ****       {
 1898              		.loc 1 930 7 is_stmt 1 view .LVU590
 932:Drivers/STM32H7xx_HAL_Driver/Src/stm32h7xx_ll_usb.c **** 
 1899              		.loc 1 932 9 view .LVU591
 932:Drivers/STM32H7xx_HAL_Driver/Src/stm32h7xx_ll_usb.c **** 
 1900              		.loc 1 932 14 is_stmt 0 view .LVU592
 1901 0058 019B     		ldr	r3, [sp, #4]
 1902 005a 0133     		adds	r3, r3, #1
 1903 005c 0193     		str	r3, [sp, #4]
 934:Drivers/STM32H7xx_HAL_Driver/Src/stm32h7xx_ll_usb.c ****         {
 1904              		.loc 1 934 9 is_stmt 1 view .LVU593
 934:Drivers/STM32H7xx_HAL_Driver/Src/stm32h7xx_ll_usb.c ****         {
 1905              		.loc 1 934 19 is_stmt 0 view .LVU594
 1906 005e 019A     		ldr	r2, [sp, #4]
 934:Drivers/STM32H7xx_HAL_Driver/Src/stm32h7xx_ll_usb.c ****         {
 1907              		.loc 1 934 12 view .LVU595
 1908 0060 42F21073 		movw	r3, #10000
 1909 0064 9A42     		cmp	r2, r3
 1910 0066 DCD8     		bhi	.L126
 939:Drivers/STM32H7xx_HAL_Driver/Src/stm32h7xx_ll_usb.c ****     }
 1911              		.loc 1 939 15 is_stmt 1 view .LVU596
 939:Drivers/STM32H7xx_HAL_Driver/Src/stm32h7xx_ll_usb.c ****     }
 1912              		.loc 1 939 18 is_stmt 0 view .LVU597
 1913 0068 0B78     		ldrb	r3, [r1]	@ zero_extendqisi2
 1914 006a 04EB4313 		add	r3, r4, r3, lsl #5
 939:Drivers/STM32H7xx_HAL_Driver/Src/stm32h7xx_ll_usb.c ****     }
 1915              		.loc 1 939 36 view .LVU598
 1916 006e D3F80039 		ldr	r3, [r3, #2304]
 939:Drivers/STM32H7xx_HAL_Driver/Src/stm32h7xx_ll_usb.c ****     }
 1917              		.loc 1 939 7 view .LVU599
 1918 0072 002B     		cmp	r3, #0
 1919 0074 F0DB     		blt	.L127
ARM GAS  /tmp/ccdP7LVA.s 			page 69


 918:Drivers/STM32H7xx_HAL_Driver/Src/stm32h7xx_ll_usb.c ****   uint32_t USBx_BASE = (uint32_t)USBx;
 1920              		.loc 1 918 21 view .LVU600
 1921 0076 0020     		movs	r0, #0
 1922 0078 D3E7     		b	.L126
 1923              	.LVL145:
 1924              	.L134:
 946:Drivers/STM32H7xx_HAL_Driver/Src/stm32h7xx_ll_usb.c ****       USBx_OUTEP(ep->num)->DOEPCTL |= (USB_OTG_DOEPCTL_EPDIS);
 1925              		.loc 1 946 7 is_stmt 1 view .LVU601
 946:Drivers/STM32H7xx_HAL_Driver/Src/stm32h7xx_ll_usb.c ****       USBx_OUTEP(ep->num)->DOEPCTL |= (USB_OTG_DOEPCTL_EPDIS);
 1926              		.loc 1 946 36 is_stmt 0 view .LVU602
 1927 007a D2F8000B 		ldr	r0, [r2, #2816]
 1928 007e 40F00060 		orr	r0, r0, #134217728
 1929 0082 C2F8000B 		str	r0, [r2, #2816]
 947:Drivers/STM32H7xx_HAL_Driver/Src/stm32h7xx_ll_usb.c **** 
 1930              		.loc 1 947 7 is_stmt 1 view .LVU603
 1931 0086 0878     		ldrb	r0, [r1]	@ zero_extendqisi2
 947:Drivers/STM32H7xx_HAL_Driver/Src/stm32h7xx_ll_usb.c **** 
 1932              		.loc 1 947 36 is_stmt 0 view .LVU604
 1933 0088 03EB4013 		add	r3, r3, r0, lsl #5
 1934              	.LVL146:
 947:Drivers/STM32H7xx_HAL_Driver/Src/stm32h7xx_ll_usb.c **** 
 1935              		.loc 1 947 36 view .LVU605
 1936 008c D3F8002B 		ldr	r2, [r3, #2816]
 1937 0090 42F08042 		orr	r2, r2, #1073741824
 1938 0094 C3F8002B 		str	r2, [r3, #2816]
 1939              	.L128:
 949:Drivers/STM32H7xx_HAL_Driver/Src/stm32h7xx_ll_usb.c ****       {
 1940              		.loc 1 949 7 is_stmt 1 view .LVU606
 951:Drivers/STM32H7xx_HAL_Driver/Src/stm32h7xx_ll_usb.c **** 
 1941              		.loc 1 951 9 view .LVU607
 951:Drivers/STM32H7xx_HAL_Driver/Src/stm32h7xx_ll_usb.c **** 
 1942              		.loc 1 951 14 is_stmt 0 view .LVU608
 1943 0098 019B     		ldr	r3, [sp, #4]
 1944 009a 0133     		adds	r3, r3, #1
 1945 009c 0193     		str	r3, [sp, #4]
 953:Drivers/STM32H7xx_HAL_Driver/Src/stm32h7xx_ll_usb.c ****         {
 1946              		.loc 1 953 9 is_stmt 1 view .LVU609
 953:Drivers/STM32H7xx_HAL_Driver/Src/stm32h7xx_ll_usb.c ****         {
 1947              		.loc 1 953 19 is_stmt 0 view .LVU610
 1948 009e 019A     		ldr	r2, [sp, #4]
 953:Drivers/STM32H7xx_HAL_Driver/Src/stm32h7xx_ll_usb.c ****         {
 1949              		.loc 1 953 12 view .LVU611
 1950 00a0 42F21073 		movw	r3, #10000
 1951 00a4 9A42     		cmp	r2, r3
 1952 00a6 08D8     		bhi	.L131
 958:Drivers/STM32H7xx_HAL_Driver/Src/stm32h7xx_ll_usb.c ****     }
 1953              		.loc 1 958 15 is_stmt 1 view .LVU612
 958:Drivers/STM32H7xx_HAL_Driver/Src/stm32h7xx_ll_usb.c ****     }
 1954              		.loc 1 958 18 is_stmt 0 view .LVU613
 1955 00a8 0B78     		ldrb	r3, [r1]	@ zero_extendqisi2
 1956 00aa 04EB4313 		add	r3, r4, r3, lsl #5
 958:Drivers/STM32H7xx_HAL_Driver/Src/stm32h7xx_ll_usb.c ****     }
 1957              		.loc 1 958 37 view .LVU614
 1958 00ae D3F8003B 		ldr	r3, [r3, #2816]
 958:Drivers/STM32H7xx_HAL_Driver/Src/stm32h7xx_ll_usb.c ****     }
 1959              		.loc 1 958 7 view .LVU615
 1960 00b2 002B     		cmp	r3, #0
ARM GAS  /tmp/ccdP7LVA.s 			page 70


 1961 00b4 F0DB     		blt	.L128
 918:Drivers/STM32H7xx_HAL_Driver/Src/stm32h7xx_ll_usb.c ****   uint32_t USBx_BASE = (uint32_t)USBx;
 1962              		.loc 1 918 21 view .LVU616
 1963 00b6 0020     		movs	r0, #0
 1964 00b8 B3E7     		b	.L126
 1965              	.L131:
 955:Drivers/STM32H7xx_HAL_Driver/Src/stm32h7xx_ll_usb.c ****           break;
 1966              		.loc 1 955 15 view .LVU617
 1967 00ba 0120     		movs	r0, #1
 1968 00bc B1E7     		b	.L126
 1969              		.cfi_endproc
 1970              	.LFE159:
 1972              		.section	.text.USB_WritePacket,"ax",%progbits
 1973              		.align	1
 1974              		.global	USB_WritePacket
 1975              		.syntax unified
 1976              		.thumb
 1977              		.thumb_func
 1978              		.fpu fpv5-d16
 1980              	USB_WritePacket:
 1981              	.LVL147:
 1982              	.LFB160:
 981:Drivers/STM32H7xx_HAL_Driver/Src/stm32h7xx_ll_usb.c ****   uint32_t USBx_BASE = (uint32_t)USBx;
 1983              		.loc 1 981 1 is_stmt 1 view -0
 1984              		.cfi_startproc
 1985              		@ args = 4, pretend = 0, frame = 0
 1986              		@ frame_needed = 0, uses_anonymous_args = 0
 1987              		@ link register save eliminated.
 981:Drivers/STM32H7xx_HAL_Driver/Src/stm32h7xx_ll_usb.c ****   uint32_t USBx_BASE = (uint32_t)USBx;
 1988              		.loc 1 981 1 is_stmt 0 view .LVU619
 1989 0000 70B4     		push	{r4, r5, r6}
 1990              	.LCFI33:
 1991              		.cfi_def_cfa_offset 12
 1992              		.cfi_offset 4, -12
 1993              		.cfi_offset 5, -8
 1994              		.cfi_offset 6, -4
 1995 0002 9DF80C40 		ldrb	r4, [sp, #12]	@ zero_extendqisi2
 982:Drivers/STM32H7xx_HAL_Driver/Src/stm32h7xx_ll_usb.c ****   uint8_t *pSrc = src;
 1996              		.loc 1 982 3 is_stmt 1 view .LVU620
 1997              	.LVL148:
 983:Drivers/STM32H7xx_HAL_Driver/Src/stm32h7xx_ll_usb.c ****   uint32_t count32b;
 1998              		.loc 1 983 3 view .LVU621
 984:Drivers/STM32H7xx_HAL_Driver/Src/stm32h7xx_ll_usb.c ****   uint32_t i;
 1999              		.loc 1 984 3 view .LVU622
 985:Drivers/STM32H7xx_HAL_Driver/Src/stm32h7xx_ll_usb.c **** 
 2000              		.loc 1 985 3 view .LVU623
 987:Drivers/STM32H7xx_HAL_Driver/Src/stm32h7xx_ll_usb.c ****   {
 2001              		.loc 1 987 3 view .LVU624
 987:Drivers/STM32H7xx_HAL_Driver/Src/stm32h7xx_ll_usb.c ****   {
 2002              		.loc 1 987 6 is_stmt 0 view .LVU625
 2003 0006 64B9     		cbnz	r4, .L137
 989:Drivers/STM32H7xx_HAL_Driver/Src/stm32h7xx_ll_usb.c ****     for (i = 0U; i < count32b; i++)
 2004              		.loc 1 989 5 is_stmt 1 view .LVU626
 989:Drivers/STM32H7xx_HAL_Driver/Src/stm32h7xx_ll_usb.c ****     for (i = 0U; i < count32b; i++)
 2005              		.loc 1 989 31 is_stmt 0 view .LVU627
 2006 0008 0333     		adds	r3, r3, #3
 2007              	.LVL149:
ARM GAS  /tmp/ccdP7LVA.s 			page 71


 989:Drivers/STM32H7xx_HAL_Driver/Src/stm32h7xx_ll_usb.c ****     for (i = 0U; i < count32b; i++)
 2008              		.loc 1 989 14 view .LVU628
 2009 000a 9D08     		lsrs	r5, r3, #2
 2010              	.LVL150:
 990:Drivers/STM32H7xx_HAL_Driver/Src/stm32h7xx_ll_usb.c ****     {
 2011              		.loc 1 990 5 is_stmt 1 view .LVU629
 2012              	.L138:
 990:Drivers/STM32H7xx_HAL_Driver/Src/stm32h7xx_ll_usb.c ****     {
 2013              		.loc 1 990 18 discriminator 1 view .LVU630
 990:Drivers/STM32H7xx_HAL_Driver/Src/stm32h7xx_ll_usb.c ****     {
 2014              		.loc 1 990 5 is_stmt 0 discriminator 1 view .LVU631
 2015 000c AC42     		cmp	r4, r5
 2016 000e 08D2     		bcs	.L137
 992:Drivers/STM32H7xx_HAL_Driver/Src/stm32h7xx_ll_usb.c ****       pSrc++;
 2017              		.loc 1 992 7 is_stmt 1 discriminator 3 view .LVU632
 2018 0010 00EB0233 		add	r3, r0, r2, lsl #12
 2019 0014 03F58053 		add	r3, r3, #4096
 992:Drivers/STM32H7xx_HAL_Driver/Src/stm32h7xx_ll_usb.c ****       pSrc++;
 2020              		.loc 1 992 41 is_stmt 0 discriminator 3 view .LVU633
 2021 0018 51F8046B 		ldr	r6, [r1], #4	@ unaligned
 2022              	.LVL151:
 992:Drivers/STM32H7xx_HAL_Driver/Src/stm32h7xx_ll_usb.c ****       pSrc++;
 2023              		.loc 1 992 39 discriminator 3 view .LVU634
 2024 001c 1E60     		str	r6, [r3]
 993:Drivers/STM32H7xx_HAL_Driver/Src/stm32h7xx_ll_usb.c ****       pSrc++;
 2025              		.loc 1 993 7 is_stmt 1 discriminator 3 view .LVU635
 2026              	.LVL152:
 994:Drivers/STM32H7xx_HAL_Driver/Src/stm32h7xx_ll_usb.c ****       pSrc++;
 2027              		.loc 1 994 7 discriminator 3 view .LVU636
 995:Drivers/STM32H7xx_HAL_Driver/Src/stm32h7xx_ll_usb.c ****       pSrc++;
 2028              		.loc 1 995 7 discriminator 3 view .LVU637
 996:Drivers/STM32H7xx_HAL_Driver/Src/stm32h7xx_ll_usb.c ****     }
 2029              		.loc 1 996 7 discriminator 3 view .LVU638
 990:Drivers/STM32H7xx_HAL_Driver/Src/stm32h7xx_ll_usb.c ****     {
 2030              		.loc 1 990 32 discriminator 3 view .LVU639
 990:Drivers/STM32H7xx_HAL_Driver/Src/stm32h7xx_ll_usb.c ****     {
 2031              		.loc 1 990 33 is_stmt 0 discriminator 3 view .LVU640
 2032 001e 0134     		adds	r4, r4, #1
 2033              	.LVL153:
 990:Drivers/STM32H7xx_HAL_Driver/Src/stm32h7xx_ll_usb.c ****     {
 2034              		.loc 1 990 33 discriminator 3 view .LVU641
 2035 0020 F4E7     		b	.L138
 2036              	.LVL154:
 2037              	.L137:
1000:Drivers/STM32H7xx_HAL_Driver/Src/stm32h7xx_ll_usb.c **** }
 2038              		.loc 1 1000 3 is_stmt 1 view .LVU642
1001:Drivers/STM32H7xx_HAL_Driver/Src/stm32h7xx_ll_usb.c **** 
 2039              		.loc 1 1001 1 is_stmt 0 view .LVU643
 2040 0022 0020     		movs	r0, #0
 2041              	.LVL155:
1001:Drivers/STM32H7xx_HAL_Driver/Src/stm32h7xx_ll_usb.c **** 
 2042              		.loc 1 1001 1 view .LVU644
 2043 0024 70BC     		pop	{r4, r5, r6}
 2044              	.LCFI34:
 2045              		.cfi_restore 6
 2046              		.cfi_restore 5
 2047              		.cfi_restore 4
ARM GAS  /tmp/ccdP7LVA.s 			page 72


 2048              		.cfi_def_cfa_offset 0
 2049              	.LVL156:
1001:Drivers/STM32H7xx_HAL_Driver/Src/stm32h7xx_ll_usb.c **** 
 2050              		.loc 1 1001 1 view .LVU645
 2051 0026 7047     		bx	lr
 2052              		.cfi_endproc
 2053              	.LFE160:
 2055              		.section	.text.USB_EPStartXfer,"ax",%progbits
 2056              		.align	1
 2057              		.global	USB_EPStartXfer
 2058              		.syntax unified
 2059              		.thumb
 2060              		.thumb_func
 2061              		.fpu fpv5-d16
 2063              	USB_EPStartXfer:
 2064              	.LVL157:
 2065              	.LFB158:
 744:Drivers/STM32H7xx_HAL_Driver/Src/stm32h7xx_ll_usb.c ****   uint32_t USBx_BASE = (uint32_t)USBx;
 2066              		.loc 1 744 1 is_stmt 1 view -0
 2067              		.cfi_startproc
 2068              		@ args = 0, pretend = 0, frame = 0
 2069              		@ frame_needed = 0, uses_anonymous_args = 0
 744:Drivers/STM32H7xx_HAL_Driver/Src/stm32h7xx_ll_usb.c ****   uint32_t USBx_BASE = (uint32_t)USBx;
 2070              		.loc 1 744 1 is_stmt 0 view .LVU647
 2071 0000 F0B5     		push	{r4, r5, r6, r7, lr}
 2072              	.LCFI35:
 2073              		.cfi_def_cfa_offset 20
 2074              		.cfi_offset 4, -20
 2075              		.cfi_offset 5, -16
 2076              		.cfi_offset 6, -12
 2077              		.cfi_offset 7, -8
 2078              		.cfi_offset 14, -4
 2079 0002 83B0     		sub	sp, sp, #12
 2080              	.LCFI36:
 2081              		.cfi_def_cfa_offset 32
 745:Drivers/STM32H7xx_HAL_Driver/Src/stm32h7xx_ll_usb.c ****   uint32_t epnum = (uint32_t)ep->num;
 2082              		.loc 1 745 3 is_stmt 1 view .LVU648
 2083              	.LVL158:
 746:Drivers/STM32H7xx_HAL_Driver/Src/stm32h7xx_ll_usb.c ****   uint16_t pktcnt;
 2084              		.loc 1 746 3 view .LVU649
 746:Drivers/STM32H7xx_HAL_Driver/Src/stm32h7xx_ll_usb.c ****   uint16_t pktcnt;
 2085              		.loc 1 746 32 is_stmt 0 view .LVU650
 2086 0004 0C78     		ldrb	r4, [r1]	@ zero_extendqisi2
 2087              	.LVL159:
 747:Drivers/STM32H7xx_HAL_Driver/Src/stm32h7xx_ll_usb.c **** 
 2088              		.loc 1 747 3 is_stmt 1 view .LVU651
 750:Drivers/STM32H7xx_HAL_Driver/Src/stm32h7xx_ll_usb.c ****   {
 2089              		.loc 1 750 3 view .LVU652
 750:Drivers/STM32H7xx_HAL_Driver/Src/stm32h7xx_ll_usb.c ****   {
 2090              		.loc 1 750 9 is_stmt 0 view .LVU653
 2091 0006 4B78     		ldrb	r3, [r1, #1]	@ zero_extendqisi2
 750:Drivers/STM32H7xx_HAL_Driver/Src/stm32h7xx_ll_usb.c ****   {
 2092              		.loc 1 750 6 view .LVU654
 2093 0008 012B     		cmp	r3, #1
 2094 000a 2DD0     		beq	.L164
 849:Drivers/STM32H7xx_HAL_Driver/Src/stm32h7xx_ll_usb.c ****     USBx_OUTEP(epnum)->DOEPTSIZ &= ~(USB_OTG_DOEPTSIZ_PKTCNT);
 2095              		.loc 1 849 5 is_stmt 1 view .LVU655
ARM GAS  /tmp/ccdP7LVA.s 			page 73


 849:Drivers/STM32H7xx_HAL_Driver/Src/stm32h7xx_ll_usb.c ****     USBx_OUTEP(epnum)->DOEPTSIZ &= ~(USB_OTG_DOEPTSIZ_PKTCNT);
 2096              		.loc 1 849 33 is_stmt 0 view .LVU656
 2097 000c 00EB4416 		add	r6, r0, r4, lsl #5
 2098 0010 06F53063 		add	r3, r6, #2816
 2099 0014 1F69     		ldr	r7, [r3, #16]
 2100 0016 864D     		ldr	r5, .L169
 2101 0018 3D40     		ands	r5, r5, r7
 2102 001a 1D61     		str	r5, [r3, #16]
 850:Drivers/STM32H7xx_HAL_Driver/Src/stm32h7xx_ll_usb.c **** 
 2103              		.loc 1 850 5 is_stmt 1 view .LVU657
 850:Drivers/STM32H7xx_HAL_Driver/Src/stm32h7xx_ll_usb.c **** 
 2104              		.loc 1 850 33 is_stmt 0 view .LVU658
 2105 001c 1F69     		ldr	r7, [r3, #16]
 2106 001e 854D     		ldr	r5, .L169+4
 2107 0020 3D40     		ands	r5, r5, r7
 2108 0022 1D61     		str	r5, [r3, #16]
 852:Drivers/STM32H7xx_HAL_Driver/Src/stm32h7xx_ll_usb.c ****     {
 2109              		.loc 1 852 5 is_stmt 1 view .LVU659
 852:Drivers/STM32H7xx_HAL_Driver/Src/stm32h7xx_ll_usb.c ****     {
 2110              		.loc 1 852 8 is_stmt 0 view .LVU660
 2111 0024 002C     		cmp	r4, #0
 2112 0026 40F0C780 		bne	.L156
 854:Drivers/STM32H7xx_HAL_Driver/Src/stm32h7xx_ll_usb.c ****       {
 2113              		.loc 1 854 7 is_stmt 1 view .LVU661
 854:Drivers/STM32H7xx_HAL_Driver/Src/stm32h7xx_ll_usb.c ****       {
 2114              		.loc 1 854 13 is_stmt 0 view .LVU662
 2115 002a 0C69     		ldr	r4, [r1, #16]
 2116              	.LVL160:
 854:Drivers/STM32H7xx_HAL_Driver/Src/stm32h7xx_ll_usb.c ****       {
 2117              		.loc 1 854 10 view .LVU663
 2118 002c 0CB1     		cbz	r4, .L157
 856:Drivers/STM32H7xx_HAL_Driver/Src/stm32h7xx_ll_usb.c ****       }
 2119              		.loc 1 856 9 is_stmt 1 view .LVU664
 856:Drivers/STM32H7xx_HAL_Driver/Src/stm32h7xx_ll_usb.c ****       }
 2120              		.loc 1 856 26 is_stmt 0 view .LVU665
 2121 002e 8C68     		ldr	r4, [r1, #8]
 856:Drivers/STM32H7xx_HAL_Driver/Src/stm32h7xx_ll_usb.c ****       }
 2122              		.loc 1 856 22 view .LVU666
 2123 0030 0C61     		str	r4, [r1, #16]
 2124              	.L157:
 860:Drivers/STM32H7xx_HAL_Driver/Src/stm32h7xx_ll_usb.c **** 
 2125              		.loc 1 860 7 is_stmt 1 view .LVU667
 860:Drivers/STM32H7xx_HAL_Driver/Src/stm32h7xx_ll_usb.c **** 
 2126              		.loc 1 860 25 is_stmt 0 view .LVU668
 2127 0032 8C68     		ldr	r4, [r1, #8]
 860:Drivers/STM32H7xx_HAL_Driver/Src/stm32h7xx_ll_usb.c **** 
 2128              		.loc 1 860 21 view .LVU669
 2129 0034 0C62     		str	r4, [r1, #32]
 862:Drivers/STM32H7xx_HAL_Driver/Src/stm32h7xx_ll_usb.c ****       USBx_OUTEP(epnum)->DOEPTSIZ |= (USB_OTG_DOEPTSIZ_PKTCNT & (1U << 19));
 2130              		.loc 1 862 7 is_stmt 1 view .LVU670
 862:Drivers/STM32H7xx_HAL_Driver/Src/stm32h7xx_ll_usb.c ****       USBx_OUTEP(epnum)->DOEPTSIZ |= (USB_OTG_DOEPTSIZ_PKTCNT & (1U << 19));
 2131              		.loc 1 862 35 is_stmt 0 view .LVU671
 2132 0036 1D69     		ldr	r5, [r3, #16]
 862:Drivers/STM32H7xx_HAL_Driver/Src/stm32h7xx_ll_usb.c ****       USBx_OUTEP(epnum)->DOEPTSIZ |= (USB_OTG_DOEPTSIZ_PKTCNT & (1U << 19));
 2133              		.loc 1 862 63 view .LVU672
 2134 0038 C4F31204 		ubfx	r4, r4, #0, #19
 862:Drivers/STM32H7xx_HAL_Driver/Src/stm32h7xx_ll_usb.c ****       USBx_OUTEP(epnum)->DOEPTSIZ |= (USB_OTG_DOEPTSIZ_PKTCNT & (1U << 19));
ARM GAS  /tmp/ccdP7LVA.s 			page 74


 2135              		.loc 1 862 35 view .LVU673
 2136 003c 2C43     		orrs	r4, r4, r5
 2137 003e 1C61     		str	r4, [r3, #16]
 863:Drivers/STM32H7xx_HAL_Driver/Src/stm32h7xx_ll_usb.c ****     }
 2138              		.loc 1 863 7 is_stmt 1 view .LVU674
 863:Drivers/STM32H7xx_HAL_Driver/Src/stm32h7xx_ll_usb.c ****     }
 2139              		.loc 1 863 35 is_stmt 0 view .LVU675
 2140 0040 1C69     		ldr	r4, [r3, #16]
 2141 0042 44F40024 		orr	r4, r4, #524288
 2142 0046 1C61     		str	r4, [r3, #16]
 2143              	.L158:
 882:Drivers/STM32H7xx_HAL_Driver/Src/stm32h7xx_ll_usb.c ****     {
 2144              		.loc 1 882 5 is_stmt 1 view .LVU676
 882:Drivers/STM32H7xx_HAL_Driver/Src/stm32h7xx_ll_usb.c ****     {
 2145              		.loc 1 882 8 is_stmt 0 view .LVU677
 2146 0048 012A     		cmp	r2, #1
 2147 004a 00F0D880 		beq	.L165
 2148              	.LVL161:
 2149              	.L160:
 890:Drivers/STM32H7xx_HAL_Driver/Src/stm32h7xx_ll_usb.c ****     {
 2150              		.loc 1 890 5 is_stmt 1 view .LVU678
 890:Drivers/STM32H7xx_HAL_Driver/Src/stm32h7xx_ll_usb.c ****     {
 2151              		.loc 1 890 11 is_stmt 0 view .LVU679
 2152 004e 0B79     		ldrb	r3, [r1, #4]	@ zero_extendqisi2
 890:Drivers/STM32H7xx_HAL_Driver/Src/stm32h7xx_ll_usb.c ****     {
 2153              		.loc 1 890 8 view .LVU680
 2154 0050 012B     		cmp	r3, #1
 2155 0052 00F0DA80 		beq	.L166
 2156              	.L161:
 902:Drivers/STM32H7xx_HAL_Driver/Src/stm32h7xx_ll_usb.c ****   }
 2157              		.loc 1 902 5 is_stmt 1 view .LVU681
 902:Drivers/STM32H7xx_HAL_Driver/Src/stm32h7xx_ll_usb.c ****   }
 2158              		.loc 1 902 32 is_stmt 0 view .LVU682
 2159 0056 D6F8003B 		ldr	r3, [r6, #2816]
 2160 005a 43F00443 		orr	r3, r3, #-2080374784
 2161 005e C6F8003B 		str	r3, [r6, #2816]
 2162              	.LVL162:
 2163              	.L152:
 905:Drivers/STM32H7xx_HAL_Driver/Src/stm32h7xx_ll_usb.c **** }
 2164              		.loc 1 905 3 is_stmt 1 view .LVU683
 906:Drivers/STM32H7xx_HAL_Driver/Src/stm32h7xx_ll_usb.c **** 
 2165              		.loc 1 906 1 is_stmt 0 view .LVU684
 2166 0062 0020     		movs	r0, #0
 2167 0064 03B0     		add	sp, sp, #12
 2168              	.LCFI37:
 2169              		.cfi_remember_state
 2170              		.cfi_def_cfa_offset 20
 2171              		@ sp needed
 2172 0066 F0BD     		pop	{r4, r5, r6, r7, pc}
 2173              	.LVL163:
 2174              	.L164:
 2175              	.LCFI38:
 2176              		.cfi_restore_state
 753:Drivers/STM32H7xx_HAL_Driver/Src/stm32h7xx_ll_usb.c ****     {
 2177              		.loc 1 753 5 is_stmt 1 view .LVU685
 753:Drivers/STM32H7xx_HAL_Driver/Src/stm32h7xx_ll_usb.c ****     {
 2178              		.loc 1 753 11 is_stmt 0 view .LVU686
ARM GAS  /tmp/ccdP7LVA.s 			page 75


 2179 0068 0B69     		ldr	r3, [r1, #16]
 753:Drivers/STM32H7xx_HAL_Driver/Src/stm32h7xx_ll_usb.c ****     {
 2180              		.loc 1 753 8 view .LVU687
 2181 006a 73BB     		cbnz	r3, .L143
 755:Drivers/STM32H7xx_HAL_Driver/Src/stm32h7xx_ll_usb.c ****       USBx_INEP(epnum)->DIEPTSIZ |= (USB_OTG_DIEPTSIZ_PKTCNT & (1U << 19));
 2182              		.loc 1 755 7 is_stmt 1 view .LVU688
 755:Drivers/STM32H7xx_HAL_Driver/Src/stm32h7xx_ll_usb.c ****       USBx_INEP(epnum)->DIEPTSIZ |= (USB_OTG_DIEPTSIZ_PKTCNT & (1U << 19));
 2183              		.loc 1 755 34 is_stmt 0 view .LVU689
 2184 006c 00EB4413 		add	r3, r0, r4, lsl #5
 2185 0070 D3F81069 		ldr	r6, [r3, #2320]
 2186 0074 6F4D     		ldr	r5, .L169+4
 2187 0076 3540     		ands	r5, r5, r6
 2188 0078 C3F81059 		str	r5, [r3, #2320]
 756:Drivers/STM32H7xx_HAL_Driver/Src/stm32h7xx_ll_usb.c ****       USBx_INEP(epnum)->DIEPTSIZ &= ~(USB_OTG_DIEPTSIZ_XFRSIZ);
 2189              		.loc 1 756 7 is_stmt 1 view .LVU690
 756:Drivers/STM32H7xx_HAL_Driver/Src/stm32h7xx_ll_usb.c ****       USBx_INEP(epnum)->DIEPTSIZ &= ~(USB_OTG_DIEPTSIZ_XFRSIZ);
 2190              		.loc 1 756 34 is_stmt 0 view .LVU691
 2191 007c D3F81059 		ldr	r5, [r3, #2320]
 2192 0080 45F40025 		orr	r5, r5, #524288
 2193 0084 C3F81059 		str	r5, [r3, #2320]
 757:Drivers/STM32H7xx_HAL_Driver/Src/stm32h7xx_ll_usb.c ****     }
 2194              		.loc 1 757 7 is_stmt 1 view .LVU692
 757:Drivers/STM32H7xx_HAL_Driver/Src/stm32h7xx_ll_usb.c ****     }
 2195              		.loc 1 757 34 is_stmt 0 view .LVU693
 2196 0088 D3F81069 		ldr	r6, [r3, #2320]
 2197 008c 684D     		ldr	r5, .L169
 2198 008e 3540     		ands	r5, r5, r6
 2199 0090 C3F81059 		str	r5, [r3, #2320]
 2200              	.L144:
 793:Drivers/STM32H7xx_HAL_Driver/Src/stm32h7xx_ll_usb.c ****     {
 2201              		.loc 1 793 5 is_stmt 1 view .LVU694
 793:Drivers/STM32H7xx_HAL_Driver/Src/stm32h7xx_ll_usb.c ****     {
 2202              		.loc 1 793 8 is_stmt 0 view .LVU695
 2203 0094 012A     		cmp	r2, #1
 2204 0096 4DD0     		beq	.L167
 818:Drivers/STM32H7xx_HAL_Driver/Src/stm32h7xx_ll_usb.c **** 
 2205              		.loc 1 818 7 is_stmt 1 view .LVU696
 818:Drivers/STM32H7xx_HAL_Driver/Src/stm32h7xx_ll_usb.c **** 
 2206              		.loc 1 818 33 is_stmt 0 view .LVU697
 2207 0098 00EB4414 		add	r4, r0, r4, lsl #5
 2208              	.LVL164:
 818:Drivers/STM32H7xx_HAL_Driver/Src/stm32h7xx_ll_usb.c **** 
 2209              		.loc 1 818 33 view .LVU698
 2210 009c D4F80039 		ldr	r3, [r4, #2304]
 2211 00a0 43F00443 		orr	r3, r3, #-2080374784
 2212 00a4 C4F80039 		str	r3, [r4, #2304]
 820:Drivers/STM32H7xx_HAL_Driver/Src/stm32h7xx_ll_usb.c ****       {
 2213              		.loc 1 820 7 is_stmt 1 view .LVU699
 820:Drivers/STM32H7xx_HAL_Driver/Src/stm32h7xx_ll_usb.c ****       {
 2214              		.loc 1 820 13 is_stmt 0 view .LVU700
 2215 00a8 0B79     		ldrb	r3, [r1, #4]	@ zero_extendqisi2
 820:Drivers/STM32H7xx_HAL_Driver/Src/stm32h7xx_ll_usb.c ****       {
 2216              		.loc 1 820 10 view .LVU701
 2217 00aa 012B     		cmp	r3, #1
 2218 00ac 6BD0     		beq	.L153
 823:Drivers/STM32H7xx_HAL_Driver/Src/stm32h7xx_ll_usb.c ****         {
 2219              		.loc 1 823 9 is_stmt 1 view .LVU702
ARM GAS  /tmp/ccdP7LVA.s 			page 76


 823:Drivers/STM32H7xx_HAL_Driver/Src/stm32h7xx_ll_usb.c ****         {
 2220              		.loc 1 823 15 is_stmt 0 view .LVU703
 2221 00ae 0B69     		ldr	r3, [r1, #16]
 823:Drivers/STM32H7xx_HAL_Driver/Src/stm32h7xx_ll_usb.c ****         {
 2222              		.loc 1 823 12 view .LVU704
 2223 00b0 002B     		cmp	r3, #0
 2224 00b2 D6D0     		beq	.L152
 825:Drivers/STM32H7xx_HAL_Driver/Src/stm32h7xx_ll_usb.c ****         }
 2225              		.loc 1 825 11 is_stmt 1 view .LVU705
 825:Drivers/STM32H7xx_HAL_Driver/Src/stm32h7xx_ll_usb.c ****         }
 2226              		.loc 1 825 35 is_stmt 0 view .LVU706
 2227 00b4 D0F83438 		ldr	r3, [r0, #2100]
 825:Drivers/STM32H7xx_HAL_Driver/Src/stm32h7xx_ll_usb.c ****         }
 2228              		.loc 1 825 48 view .LVU707
 2229 00b8 0A78     		ldrb	r2, [r1]	@ zero_extendqisi2
 2230              	.LVL165:
 825:Drivers/STM32H7xx_HAL_Driver/Src/stm32h7xx_ll_usb.c ****         }
 2231              		.loc 1 825 54 view .LVU708
 2232 00ba 02F00F01 		and	r1, r2, #15
 2233              	.LVL166:
 825:Drivers/STM32H7xx_HAL_Driver/Src/stm32h7xx_ll_usb.c ****         }
 2234              		.loc 1 825 42 view .LVU709
 2235 00be 0122     		movs	r2, #1
 2236 00c0 8A40     		lsls	r2, r2, r1
 825:Drivers/STM32H7xx_HAL_Driver/Src/stm32h7xx_ll_usb.c ****         }
 2237              		.loc 1 825 35 view .LVU710
 2238 00c2 1343     		orrs	r3, r3, r2
 2239 00c4 C0F83438 		str	r3, [r0, #2100]
 2240 00c8 CBE7     		b	.L152
 2241              	.LVL167:
 2242              	.L143:
 766:Drivers/STM32H7xx_HAL_Driver/Src/stm32h7xx_ll_usb.c ****       USBx_INEP(epnum)->DIEPTSIZ &= ~(USB_OTG_DIEPTSIZ_PKTCNT);
 2243              		.loc 1 766 7 is_stmt 1 view .LVU711
 766:Drivers/STM32H7xx_HAL_Driver/Src/stm32h7xx_ll_usb.c ****       USBx_INEP(epnum)->DIEPTSIZ &= ~(USB_OTG_DIEPTSIZ_PKTCNT);
 2244              		.loc 1 766 34 is_stmt 0 view .LVU712
 2245 00ca 00EB4413 		add	r3, r0, r4, lsl #5
 2246 00ce 03F51063 		add	r3, r3, #2304
 2247 00d2 1E69     		ldr	r6, [r3, #16]
 2248 00d4 564D     		ldr	r5, .L169
 2249 00d6 3540     		ands	r5, r5, r6
 2250 00d8 1D61     		str	r5, [r3, #16]
 767:Drivers/STM32H7xx_HAL_Driver/Src/stm32h7xx_ll_usb.c **** 
 2251              		.loc 1 767 7 is_stmt 1 view .LVU713
 767:Drivers/STM32H7xx_HAL_Driver/Src/stm32h7xx_ll_usb.c **** 
 2252              		.loc 1 767 34 is_stmt 0 view .LVU714
 2253 00da 1E69     		ldr	r6, [r3, #16]
 2254 00dc 554D     		ldr	r5, .L169+4
 2255 00de 3540     		ands	r5, r5, r6
 2256 00e0 1D61     		str	r5, [r3, #16]
 769:Drivers/STM32H7xx_HAL_Driver/Src/stm32h7xx_ll_usb.c ****       {
 2257              		.loc 1 769 7 is_stmt 1 view .LVU715
 769:Drivers/STM32H7xx_HAL_Driver/Src/stm32h7xx_ll_usb.c ****       {
 2258              		.loc 1 769 10 is_stmt 0 view .LVU716
 2259 00e2 D4B9     		cbnz	r4, .L145
 771:Drivers/STM32H7xx_HAL_Driver/Src/stm32h7xx_ll_usb.c ****         {
 2260              		.loc 1 771 9 is_stmt 1 view .LVU717
 771:Drivers/STM32H7xx_HAL_Driver/Src/stm32h7xx_ll_usb.c ****         {
ARM GAS  /tmp/ccdP7LVA.s 			page 77


 2261              		.loc 1 771 15 is_stmt 0 view .LVU718
 2262 00e4 0E69     		ldr	r6, [r1, #16]
 771:Drivers/STM32H7xx_HAL_Driver/Src/stm32h7xx_ll_usb.c ****         {
 2263              		.loc 1 771 30 view .LVU719
 2264 00e6 8D68     		ldr	r5, [r1, #8]
 771:Drivers/STM32H7xx_HAL_Driver/Src/stm32h7xx_ll_usb.c ****         {
 2265              		.loc 1 771 12 view .LVU720
 2266 00e8 AE42     		cmp	r6, r5
 2267 00ea 00D9     		bls	.L146
 773:Drivers/STM32H7xx_HAL_Driver/Src/stm32h7xx_ll_usb.c ****         }
 2268              		.loc 1 773 11 is_stmt 1 view .LVU721
 773:Drivers/STM32H7xx_HAL_Driver/Src/stm32h7xx_ll_usb.c ****         }
 2269              		.loc 1 773 24 is_stmt 0 view .LVU722
 2270 00ec 0D61     		str	r5, [r1, #16]
 2271              	.L146:
 776:Drivers/STM32H7xx_HAL_Driver/Src/stm32h7xx_ll_usb.c ****       }
 2272              		.loc 1 776 9 is_stmt 1 view .LVU723
 776:Drivers/STM32H7xx_HAL_Driver/Src/stm32h7xx_ll_usb.c ****       }
 2273              		.loc 1 776 36 is_stmt 0 view .LVU724
 2274 00ee 1D69     		ldr	r5, [r3, #16]
 2275 00f0 45F40025 		orr	r5, r5, #524288
 2276 00f4 1D61     		str	r5, [r3, #16]
 2277              	.L147:
 784:Drivers/STM32H7xx_HAL_Driver/Src/stm32h7xx_ll_usb.c **** 
 2278              		.loc 1 784 7 is_stmt 1 view .LVU725
 784:Drivers/STM32H7xx_HAL_Driver/Src/stm32h7xx_ll_usb.c **** 
 2279              		.loc 1 784 34 is_stmt 0 view .LVU726
 2280 00f6 1D69     		ldr	r5, [r3, #16]
 784:Drivers/STM32H7xx_HAL_Driver/Src/stm32h7xx_ll_usb.c **** 
 2281              		.loc 1 784 66 view .LVU727
 2282 00f8 0E69     		ldr	r6, [r1, #16]
 784:Drivers/STM32H7xx_HAL_Driver/Src/stm32h7xx_ll_usb.c **** 
 2283              		.loc 1 784 62 view .LVU728
 2284 00fa C6F31206 		ubfx	r6, r6, #0, #19
 784:Drivers/STM32H7xx_HAL_Driver/Src/stm32h7xx_ll_usb.c **** 
 2285              		.loc 1 784 34 view .LVU729
 2286 00fe 3543     		orrs	r5, r5, r6
 2287 0100 1D61     		str	r5, [r3, #16]
 786:Drivers/STM32H7xx_HAL_Driver/Src/stm32h7xx_ll_usb.c ****       {
 2288              		.loc 1 786 7 is_stmt 1 view .LVU730
 786:Drivers/STM32H7xx_HAL_Driver/Src/stm32h7xx_ll_usb.c ****       {
 2289              		.loc 1 786 13 is_stmt 0 view .LVU731
 2290 0102 0D79     		ldrb	r5, [r1, #4]	@ zero_extendqisi2
 786:Drivers/STM32H7xx_HAL_Driver/Src/stm32h7xx_ll_usb.c ****       {
 2291              		.loc 1 786 10 view .LVU732
 2292 0104 012D     		cmp	r5, #1
 2293 0106 C5D1     		bne	.L144
 788:Drivers/STM32H7xx_HAL_Driver/Src/stm32h7xx_ll_usb.c ****         USBx_INEP(epnum)->DIEPTSIZ |= (USB_OTG_DIEPTSIZ_MULCNT & (1U << 29));
 2294              		.loc 1 788 9 is_stmt 1 view .LVU733
 788:Drivers/STM32H7xx_HAL_Driver/Src/stm32h7xx_ll_usb.c ****         USBx_INEP(epnum)->DIEPTSIZ |= (USB_OTG_DIEPTSIZ_MULCNT & (1U << 29));
 2295              		.loc 1 788 36 is_stmt 0 view .LVU734
 2296 0108 1D69     		ldr	r5, [r3, #16]
 2297 010a 25F0C045 		bic	r5, r5, #1610612736
 2298 010e 1D61     		str	r5, [r3, #16]
 789:Drivers/STM32H7xx_HAL_Driver/Src/stm32h7xx_ll_usb.c ****       }
 2299              		.loc 1 789 9 is_stmt 1 view .LVU735
 789:Drivers/STM32H7xx_HAL_Driver/Src/stm32h7xx_ll_usb.c ****       }
ARM GAS  /tmp/ccdP7LVA.s 			page 78


 2300              		.loc 1 789 36 is_stmt 0 view .LVU736
 2301 0110 1D69     		ldr	r5, [r3, #16]
 2302 0112 45F00055 		orr	r5, r5, #536870912
 2303 0116 1D61     		str	r5, [r3, #16]
 2304 0118 BCE7     		b	.L144
 2305              	.L145:
 780:Drivers/STM32H7xx_HAL_Driver/Src/stm32h7xx_ll_usb.c ****                                        (((ep->xfer_len + ep->maxpacket - 1U) / ep->maxpacket) << 19
 2306              		.loc 1 780 9 is_stmt 1 view .LVU737
 780:Drivers/STM32H7xx_HAL_Driver/Src/stm32h7xx_ll_usb.c ****                                        (((ep->xfer_len + ep->maxpacket - 1U) / ep->maxpacket) << 19
 2307              		.loc 1 780 36 is_stmt 0 view .LVU738
 2308 011a 1E69     		ldr	r6, [r3, #16]
 781:Drivers/STM32H7xx_HAL_Driver/Src/stm32h7xx_ll_usb.c ****       }
 2309              		.loc 1 781 45 view .LVU739
 2310 011c 0D69     		ldr	r5, [r1, #16]
 781:Drivers/STM32H7xx_HAL_Driver/Src/stm32h7xx_ll_usb.c ****       }
 2311              		.loc 1 781 60 view .LVU740
 2312 011e 8F68     		ldr	r7, [r1, #8]
 781:Drivers/STM32H7xx_HAL_Driver/Src/stm32h7xx_ll_usb.c ****       }
 2313              		.loc 1 781 56 view .LVU741
 2314 0120 3D44     		add	r5, r5, r7
 781:Drivers/STM32H7xx_HAL_Driver/Src/stm32h7xx_ll_usb.c ****       }
 2315              		.loc 1 781 72 view .LVU742
 2316 0122 013D     		subs	r5, r5, #1
 781:Drivers/STM32H7xx_HAL_Driver/Src/stm32h7xx_ll_usb.c ****       }
 2317              		.loc 1 781 78 view .LVU743
 2318 0124 B5FBF7F5 		udiv	r5, r5, r7
 780:Drivers/STM32H7xx_HAL_Driver/Src/stm32h7xx_ll_usb.c ****                                        (((ep->xfer_len + ep->maxpacket - 1U) / ep->maxpacket) << 19
 2319              		.loc 1 780 64 view .LVU744
 2320 0128 434F     		ldr	r7, .L169+8
 2321 012a 07EAC545 		and	r5, r7, r5, lsl #19
 780:Drivers/STM32H7xx_HAL_Driver/Src/stm32h7xx_ll_usb.c ****                                        (((ep->xfer_len + ep->maxpacket - 1U) / ep->maxpacket) << 19
 2322              		.loc 1 780 36 view .LVU745
 2323 012e 3543     		orrs	r5, r5, r6
 2324 0130 1D61     		str	r5, [r3, #16]
 2325 0132 E0E7     		b	.L147
 2326              	.L167:
 795:Drivers/STM32H7xx_HAL_Driver/Src/stm32h7xx_ll_usb.c ****       {
 2327              		.loc 1 795 7 is_stmt 1 view .LVU746
 795:Drivers/STM32H7xx_HAL_Driver/Src/stm32h7xx_ll_usb.c ****       {
 2328              		.loc 1 795 23 is_stmt 0 view .LVU747
 2329 0134 CB69     		ldr	r3, [r1, #28]
 795:Drivers/STM32H7xx_HAL_Driver/Src/stm32h7xx_ll_usb.c ****       {
 2330              		.loc 1 795 10 view .LVU748
 2331 0136 1BB1     		cbz	r3, .L149
 797:Drivers/STM32H7xx_HAL_Driver/Src/stm32h7xx_ll_usb.c ****       }
 2332              		.loc 1 797 9 is_stmt 1 view .LVU749
 2333 0138 00EB4412 		add	r2, r0, r4, lsl #5
 2334              	.LVL168:
 797:Drivers/STM32H7xx_HAL_Driver/Src/stm32h7xx_ll_usb.c ****       }
 2335              		.loc 1 797 35 is_stmt 0 view .LVU750
 2336 013c C2F81439 		str	r3, [r2, #2324]
 2337              	.L149:
 800:Drivers/STM32H7xx_HAL_Driver/Src/stm32h7xx_ll_usb.c ****       {
 2338              		.loc 1 800 7 is_stmt 1 view .LVU751
 800:Drivers/STM32H7xx_HAL_Driver/Src/stm32h7xx_ll_usb.c ****       {
 2339              		.loc 1 800 13 is_stmt 0 view .LVU752
 2340 0140 0B79     		ldrb	r3, [r1, #4]	@ zero_extendqisi2
ARM GAS  /tmp/ccdP7LVA.s 			page 79


 800:Drivers/STM32H7xx_HAL_Driver/Src/stm32h7xx_ll_usb.c ****       {
 2341              		.loc 1 800 10 view .LVU753
 2342 0142 012B     		cmp	r3, #1
 2343 0144 08D0     		beq	.L168
 2344              	.L150:
 813:Drivers/STM32H7xx_HAL_Driver/Src/stm32h7xx_ll_usb.c ****     }
 2345              		.loc 1 813 7 is_stmt 1 view .LVU754
 813:Drivers/STM32H7xx_HAL_Driver/Src/stm32h7xx_ll_usb.c ****     }
 2346              		.loc 1 813 33 is_stmt 0 view .LVU755
 2347 0146 00EB4410 		add	r0, r0, r4, lsl #5
 2348              	.LVL169:
 813:Drivers/STM32H7xx_HAL_Driver/Src/stm32h7xx_ll_usb.c ****     }
 2349              		.loc 1 813 33 view .LVU756
 2350 014a D0F80039 		ldr	r3, [r0, #2304]
 2351 014e 43F00443 		orr	r3, r3, #-2080374784
 2352 0152 C0F80039 		str	r3, [r0, #2304]
 2353 0156 84E7     		b	.L152
 2354              	.LVL170:
 2355              	.L168:
 802:Drivers/STM32H7xx_HAL_Driver/Src/stm32h7xx_ll_usb.c ****         {
 2356              		.loc 1 802 9 is_stmt 1 view .LVU757
 802:Drivers/STM32H7xx_HAL_Driver/Src/stm32h7xx_ll_usb.c ****         {
 2357              		.loc 1 802 25 is_stmt 0 view .LVU758
 2358 0158 D0F80838 		ldr	r3, [r0, #2056]
 802:Drivers/STM32H7xx_HAL_Driver/Src/stm32h7xx_ll_usb.c ****         {
 2359              		.loc 1 802 12 view .LVU759
 2360 015c 13F4807F 		tst	r3, #256
 2361 0160 08D1     		bne	.L151
 804:Drivers/STM32H7xx_HAL_Driver/Src/stm32h7xx_ll_usb.c ****         }
 2362              		.loc 1 804 11 is_stmt 1 view .LVU760
 804:Drivers/STM32H7xx_HAL_Driver/Src/stm32h7xx_ll_usb.c ****         }
 2363              		.loc 1 804 37 is_stmt 0 view .LVU761
 2364 0162 00EB4412 		add	r2, r0, r4, lsl #5
 2365 0166 D2F80039 		ldr	r3, [r2, #2304]
 2366 016a 43F00053 		orr	r3, r3, #536870912
 2367 016e C2F80039 		str	r3, [r2, #2304]
 2368 0172 E8E7     		b	.L150
 2369              	.L151:
 808:Drivers/STM32H7xx_HAL_Driver/Src/stm32h7xx_ll_usb.c ****         }
 2370              		.loc 1 808 11 is_stmt 1 view .LVU762
 808:Drivers/STM32H7xx_HAL_Driver/Src/stm32h7xx_ll_usb.c ****         }
 2371              		.loc 1 808 37 is_stmt 0 view .LVU763
 2372 0174 00EB4412 		add	r2, r0, r4, lsl #5
 2373 0178 D2F80039 		ldr	r3, [r2, #2304]
 2374 017c 43F08053 		orr	r3, r3, #268435456
 2375 0180 C2F80039 		str	r3, [r2, #2304]
 2376 0184 DFE7     		b	.L150
 2377              	.LVL171:
 2378              	.L153:
 830:Drivers/STM32H7xx_HAL_Driver/Src/stm32h7xx_ll_usb.c ****         {
 2379              		.loc 1 830 9 is_stmt 1 view .LVU764
 830:Drivers/STM32H7xx_HAL_Driver/Src/stm32h7xx_ll_usb.c ****         {
 2380              		.loc 1 830 25 is_stmt 0 view .LVU765
 2381 0186 D0F80838 		ldr	r3, [r0, #2056]
 830:Drivers/STM32H7xx_HAL_Driver/Src/stm32h7xx_ll_usb.c ****         {
 2382              		.loc 1 830 12 view .LVU766
 2383 018a 13F4807F 		tst	r3, #256
ARM GAS  /tmp/ccdP7LVA.s 			page 80


 2384 018e 0CD1     		bne	.L154
 832:Drivers/STM32H7xx_HAL_Driver/Src/stm32h7xx_ll_usb.c ****         }
 2385              		.loc 1 832 11 is_stmt 1 view .LVU767
 832:Drivers/STM32H7xx_HAL_Driver/Src/stm32h7xx_ll_usb.c ****         }
 2386              		.loc 1 832 37 is_stmt 0 view .LVU768
 2387 0190 D4F80039 		ldr	r3, [r4, #2304]
 2388 0194 43F00053 		orr	r3, r3, #536870912
 2389 0198 C4F80039 		str	r3, [r4, #2304]
 2390              	.L155:
 839:Drivers/STM32H7xx_HAL_Driver/Src/stm32h7xx_ll_usb.c ****       }
 2391              		.loc 1 839 9 is_stmt 1 view .LVU769
 839:Drivers/STM32H7xx_HAL_Driver/Src/stm32h7xx_ll_usb.c ****       }
 2392              		.loc 1 839 15 is_stmt 0 view .LVU770
 2393 019c 0092     		str	r2, [sp]
 2394 019e 0B8A     		ldrh	r3, [r1, #16]
 2395 01a0 0A78     		ldrb	r2, [r1]	@ zero_extendqisi2
 2396              	.LVL172:
 839:Drivers/STM32H7xx_HAL_Driver/Src/stm32h7xx_ll_usb.c ****       }
 2397              		.loc 1 839 15 view .LVU771
 2398 01a2 C968     		ldr	r1, [r1, #12]
 2399              	.LVL173:
 839:Drivers/STM32H7xx_HAL_Driver/Src/stm32h7xx_ll_usb.c ****       }
 2400              		.loc 1 839 15 view .LVU772
 2401 01a4 FFF7FEFF 		bl	USB_WritePacket
 2402              	.LVL174:
 839:Drivers/STM32H7xx_HAL_Driver/Src/stm32h7xx_ll_usb.c ****       }
 2403              		.loc 1 839 15 view .LVU773
 2404 01a8 5BE7     		b	.L152
 2405              	.LVL175:
 2406              	.L154:
 836:Drivers/STM32H7xx_HAL_Driver/Src/stm32h7xx_ll_usb.c ****         }
 2407              		.loc 1 836 11 is_stmt 1 view .LVU774
 836:Drivers/STM32H7xx_HAL_Driver/Src/stm32h7xx_ll_usb.c ****         }
 2408              		.loc 1 836 37 is_stmt 0 view .LVU775
 2409 01aa D4F80039 		ldr	r3, [r4, #2304]
 2410 01ae 43F08053 		orr	r3, r3, #268435456
 2411 01b2 C4F80039 		str	r3, [r4, #2304]
 2412 01b6 F1E7     		b	.L155
 2413              	.LVL176:
 2414              	.L156:
 867:Drivers/STM32H7xx_HAL_Driver/Src/stm32h7xx_ll_usb.c ****       {
 2415              		.loc 1 867 7 is_stmt 1 view .LVU776
 867:Drivers/STM32H7xx_HAL_Driver/Src/stm32h7xx_ll_usb.c ****       {
 2416              		.loc 1 867 13 is_stmt 0 view .LVU777
 2417 01b8 0C69     		ldr	r4, [r1, #16]
 2418              	.LVL177:
 867:Drivers/STM32H7xx_HAL_Driver/Src/stm32h7xx_ll_usb.c ****       {
 2419              		.loc 1 867 10 view .LVU778
 2420 01ba 54B9     		cbnz	r4, .L159
 869:Drivers/STM32H7xx_HAL_Driver/Src/stm32h7xx_ll_usb.c ****         USBx_OUTEP(epnum)->DOEPTSIZ |= (USB_OTG_DOEPTSIZ_PKTCNT & (1U << 19));
 2421              		.loc 1 869 9 is_stmt 1 view .LVU779
 869:Drivers/STM32H7xx_HAL_Driver/Src/stm32h7xx_ll_usb.c ****         USBx_OUTEP(epnum)->DOEPTSIZ |= (USB_OTG_DOEPTSIZ_PKTCNT & (1U << 19));
 2422              		.loc 1 869 37 is_stmt 0 view .LVU780
 2423 01bc 1C69     		ldr	r4, [r3, #16]
 869:Drivers/STM32H7xx_HAL_Driver/Src/stm32h7xx_ll_usb.c ****         USBx_OUTEP(epnum)->DOEPTSIZ |= (USB_OTG_DOEPTSIZ_PKTCNT & (1U << 19));
 2424              		.loc 1 869 69 view .LVU781
 2425 01be 8D68     		ldr	r5, [r1, #8]
ARM GAS  /tmp/ccdP7LVA.s 			page 81


 869:Drivers/STM32H7xx_HAL_Driver/Src/stm32h7xx_ll_usb.c ****         USBx_OUTEP(epnum)->DOEPTSIZ |= (USB_OTG_DOEPTSIZ_PKTCNT & (1U << 19));
 2426              		.loc 1 869 65 view .LVU782
 2427 01c0 C5F31205 		ubfx	r5, r5, #0, #19
 869:Drivers/STM32H7xx_HAL_Driver/Src/stm32h7xx_ll_usb.c ****         USBx_OUTEP(epnum)->DOEPTSIZ |= (USB_OTG_DOEPTSIZ_PKTCNT & (1U << 19));
 2428              		.loc 1 869 37 view .LVU783
 2429 01c4 2C43     		orrs	r4, r4, r5
 2430 01c6 1C61     		str	r4, [r3, #16]
 870:Drivers/STM32H7xx_HAL_Driver/Src/stm32h7xx_ll_usb.c ****       }
 2431              		.loc 1 870 9 is_stmt 1 view .LVU784
 870:Drivers/STM32H7xx_HAL_Driver/Src/stm32h7xx_ll_usb.c ****       }
 2432              		.loc 1 870 37 is_stmt 0 view .LVU785
 2433 01c8 1C69     		ldr	r4, [r3, #16]
 2434 01ca 44F40024 		orr	r4, r4, #524288
 2435 01ce 1C61     		str	r4, [r3, #16]
 2436 01d0 3AE7     		b	.L158
 2437              	.L159:
 874:Drivers/STM32H7xx_HAL_Driver/Src/stm32h7xx_ll_usb.c ****         ep->xfer_size = ep->maxpacket * pktcnt;
 2438              		.loc 1 874 9 is_stmt 1 view .LVU786
 874:Drivers/STM32H7xx_HAL_Driver/Src/stm32h7xx_ll_usb.c ****         ep->xfer_size = ep->maxpacket * pktcnt;
 2439              		.loc 1 874 47 is_stmt 0 view .LVU787
 2440 01d2 8D68     		ldr	r5, [r1, #8]
 874:Drivers/STM32H7xx_HAL_Driver/Src/stm32h7xx_ll_usb.c ****         ep->xfer_size = ep->maxpacket * pktcnt;
 2441              		.loc 1 874 43 view .LVU788
 2442 01d4 2C44     		add	r4, r4, r5
 874:Drivers/STM32H7xx_HAL_Driver/Src/stm32h7xx_ll_usb.c ****         ep->xfer_size = ep->maxpacket * pktcnt;
 2443              		.loc 1 874 59 view .LVU789
 2444 01d6 013C     		subs	r4, r4, #1
 874:Drivers/STM32H7xx_HAL_Driver/Src/stm32h7xx_ll_usb.c ****         ep->xfer_size = ep->maxpacket * pktcnt;
 2445              		.loc 1 874 65 view .LVU790
 2446 01d8 B4FBF5F4 		udiv	r4, r4, r5
 2447              	.LVL178:
 875:Drivers/STM32H7xx_HAL_Driver/Src/stm32h7xx_ll_usb.c **** 
 2448              		.loc 1 875 9 is_stmt 1 view .LVU791
 875:Drivers/STM32H7xx_HAL_Driver/Src/stm32h7xx_ll_usb.c **** 
 2449              		.loc 1 875 39 is_stmt 0 view .LVU792
 2450 01dc A7B2     		uxth	r7, r4
 2451 01de 05FB07F5 		mul	r5, r5, r7
 875:Drivers/STM32H7xx_HAL_Driver/Src/stm32h7xx_ll_usb.c **** 
 2452              		.loc 1 875 23 view .LVU793
 2453 01e2 0D62     		str	r5, [r1, #32]
 877:Drivers/STM32H7xx_HAL_Driver/Src/stm32h7xx_ll_usb.c ****         USBx_OUTEP(epnum)->DOEPTSIZ |= USB_OTG_DOEPTSIZ_XFRSIZ & ep->xfer_size;
 2454              		.loc 1 877 9 is_stmt 1 view .LVU794
 877:Drivers/STM32H7xx_HAL_Driver/Src/stm32h7xx_ll_usb.c ****         USBx_OUTEP(epnum)->DOEPTSIZ |= USB_OTG_DOEPTSIZ_XFRSIZ & ep->xfer_size;
 2455              		.loc 1 877 37 is_stmt 0 view .LVU795
 2456 01e4 1D69     		ldr	r5, [r3, #16]
 877:Drivers/STM32H7xx_HAL_Driver/Src/stm32h7xx_ll_usb.c ****         USBx_OUTEP(epnum)->DOEPTSIZ |= USB_OTG_DOEPTSIZ_XFRSIZ & ep->xfer_size;
 2457              		.loc 1 877 64 view .LVU796
 2458 01e6 144F     		ldr	r7, .L169+8
 2459 01e8 07EAC444 		and	r4, r7, r4, lsl #19
 2460              	.LVL179:
 877:Drivers/STM32H7xx_HAL_Driver/Src/stm32h7xx_ll_usb.c ****         USBx_OUTEP(epnum)->DOEPTSIZ |= USB_OTG_DOEPTSIZ_XFRSIZ & ep->xfer_size;
 2461              		.loc 1 877 37 view .LVU797
 2462 01ec 2C43     		orrs	r4, r4, r5
 2463 01ee 1C61     		str	r4, [r3, #16]
 2464              	.LVL180:
 878:Drivers/STM32H7xx_HAL_Driver/Src/stm32h7xx_ll_usb.c ****       }
 2465              		.loc 1 878 9 is_stmt 1 view .LVU798
ARM GAS  /tmp/ccdP7LVA.s 			page 82


 878:Drivers/STM32H7xx_HAL_Driver/Src/stm32h7xx_ll_usb.c ****       }
 2466              		.loc 1 878 37 is_stmt 0 view .LVU799
 2467 01f0 1C69     		ldr	r4, [r3, #16]
 878:Drivers/STM32H7xx_HAL_Driver/Src/stm32h7xx_ll_usb.c ****       }
 2468              		.loc 1 878 68 view .LVU800
 2469 01f2 0D6A     		ldr	r5, [r1, #32]
 878:Drivers/STM32H7xx_HAL_Driver/Src/stm32h7xx_ll_usb.c ****       }
 2470              		.loc 1 878 64 view .LVU801
 2471 01f4 C5F31205 		ubfx	r5, r5, #0, #19
 878:Drivers/STM32H7xx_HAL_Driver/Src/stm32h7xx_ll_usb.c ****       }
 2472              		.loc 1 878 37 view .LVU802
 2473 01f8 2C43     		orrs	r4, r4, r5
 2474 01fa 1C61     		str	r4, [r3, #16]
 2475 01fc 24E7     		b	.L158
 2476              	.L165:
 884:Drivers/STM32H7xx_HAL_Driver/Src/stm32h7xx_ll_usb.c ****       {
 2477              		.loc 1 884 7 is_stmt 1 view .LVU803
 884:Drivers/STM32H7xx_HAL_Driver/Src/stm32h7xx_ll_usb.c ****       {
 2478              		.loc 1 884 23 is_stmt 0 view .LVU804
 2479 01fe CA68     		ldr	r2, [r1, #12]
 2480              	.LVL181:
 884:Drivers/STM32H7xx_HAL_Driver/Src/stm32h7xx_ll_usb.c ****       {
 2481              		.loc 1 884 10 view .LVU805
 2482 0200 002A     		cmp	r2, #0
 2483 0202 3FF424AF 		beq	.L160
 886:Drivers/STM32H7xx_HAL_Driver/Src/stm32h7xx_ll_usb.c ****       }
 2484              		.loc 1 886 9 is_stmt 1 view .LVU806
 886:Drivers/STM32H7xx_HAL_Driver/Src/stm32h7xx_ll_usb.c ****       }
 2485              		.loc 1 886 36 is_stmt 0 view .LVU807
 2486 0206 5A61     		str	r2, [r3, #20]
 2487 0208 21E7     		b	.L160
 2488              	.L166:
 892:Drivers/STM32H7xx_HAL_Driver/Src/stm32h7xx_ll_usb.c ****       {
 2489              		.loc 1 892 7 is_stmt 1 view .LVU808
 892:Drivers/STM32H7xx_HAL_Driver/Src/stm32h7xx_ll_usb.c ****       {
 2490              		.loc 1 892 23 is_stmt 0 view .LVU809
 2491 020a D0F80838 		ldr	r3, [r0, #2056]
 892:Drivers/STM32H7xx_HAL_Driver/Src/stm32h7xx_ll_usb.c ****       {
 2492              		.loc 1 892 10 view .LVU810
 2493 020e 13F4807F 		tst	r3, #256
 2494 0212 06D1     		bne	.L162
 894:Drivers/STM32H7xx_HAL_Driver/Src/stm32h7xx_ll_usb.c ****       }
 2495              		.loc 1 894 9 is_stmt 1 view .LVU811
 894:Drivers/STM32H7xx_HAL_Driver/Src/stm32h7xx_ll_usb.c ****       }
 2496              		.loc 1 894 36 is_stmt 0 view .LVU812
 2497 0214 D6F8003B 		ldr	r3, [r6, #2816]
 2498 0218 43F00053 		orr	r3, r3, #536870912
 2499 021c C6F8003B 		str	r3, [r6, #2816]
 2500 0220 19E7     		b	.L161
 2501              	.L162:
 898:Drivers/STM32H7xx_HAL_Driver/Src/stm32h7xx_ll_usb.c ****       }
 2502              		.loc 1 898 9 is_stmt 1 view .LVU813
 898:Drivers/STM32H7xx_HAL_Driver/Src/stm32h7xx_ll_usb.c ****       }
 2503              		.loc 1 898 36 is_stmt 0 view .LVU814
 2504 0222 D6F8003B 		ldr	r3, [r6, #2816]
 2505 0226 43F08053 		orr	r3, r3, #268435456
 2506 022a C6F8003B 		str	r3, [r6, #2816]
ARM GAS  /tmp/ccdP7LVA.s 			page 83


 2507 022e 12E7     		b	.L161
 2508              	.L170:
 2509              		.align	2
 2510              	.L169:
 2511 0230 0000F8FF 		.word	-524288
 2512 0234 FFFF07E0 		.word	-536346625
 2513 0238 0000F81F 		.word	536346624
 2514              		.cfi_endproc
 2515              	.LFE158:
 2517              		.section	.text.USB_ReadPacket,"ax",%progbits
 2518              		.align	1
 2519              		.global	USB_ReadPacket
 2520              		.syntax unified
 2521              		.thumb
 2522              		.thumb_func
 2523              		.fpu fpv5-d16
 2525              	USB_ReadPacket:
 2526              	.LVL182:
 2527              	.LFB161:
1011:Drivers/STM32H7xx_HAL_Driver/Src/stm32h7xx_ll_usb.c ****   uint32_t USBx_BASE = (uint32_t)USBx;
 2528              		.loc 1 1011 1 is_stmt 1 view -0
 2529              		.cfi_startproc
 2530              		@ args = 0, pretend = 0, frame = 8
 2531              		@ frame_needed = 0, uses_anonymous_args = 0
 2532              		@ link register save eliminated.
1011:Drivers/STM32H7xx_HAL_Driver/Src/stm32h7xx_ll_usb.c ****   uint32_t USBx_BASE = (uint32_t)USBx;
 2533              		.loc 1 1011 1 is_stmt 0 view .LVU816
 2534 0000 F0B4     		push	{r4, r5, r6, r7}
 2535              	.LCFI39:
 2536              		.cfi_def_cfa_offset 16
 2537              		.cfi_offset 4, -16
 2538              		.cfi_offset 5, -12
 2539              		.cfi_offset 6, -8
 2540              		.cfi_offset 7, -4
 2541 0002 82B0     		sub	sp, sp, #8
 2542              	.LCFI40:
 2543              		.cfi_def_cfa_offset 24
 2544 0004 0746     		mov	r7, r0
 2545 0006 0846     		mov	r0, r1
 2546              	.LVL183:
1012:Drivers/STM32H7xx_HAL_Driver/Src/stm32h7xx_ll_usb.c ****   uint8_t *pDest = dest;
 2547              		.loc 1 1012 3 is_stmt 1 view .LVU817
1012:Drivers/STM32H7xx_HAL_Driver/Src/stm32h7xx_ll_usb.c ****   uint8_t *pDest = dest;
 2548              		.loc 1 1012 12 is_stmt 0 view .LVU818
 2549 0008 3E46     		mov	r6, r7
 2550              	.LVL184:
1013:Drivers/STM32H7xx_HAL_Driver/Src/stm32h7xx_ll_usb.c ****   uint32_t pData;
 2551              		.loc 1 1013 3 is_stmt 1 view .LVU819
1014:Drivers/STM32H7xx_HAL_Driver/Src/stm32h7xx_ll_usb.c ****   uint32_t i;
 2552              		.loc 1 1014 3 view .LVU820
1015:Drivers/STM32H7xx_HAL_Driver/Src/stm32h7xx_ll_usb.c ****   uint32_t count32b = (uint32_t)len >> 2U;
 2553              		.loc 1 1015 3 view .LVU821
1016:Drivers/STM32H7xx_HAL_Driver/Src/stm32h7xx_ll_usb.c ****   uint16_t remaining_bytes = len % 4U;
 2554              		.loc 1 1016 3 view .LVU822
1016:Drivers/STM32H7xx_HAL_Driver/Src/stm32h7xx_ll_usb.c ****   uint16_t remaining_bytes = len % 4U;
 2555              		.loc 1 1016 37 is_stmt 0 view .LVU823
 2556 000a 9508     		lsrs	r5, r2, #2
ARM GAS  /tmp/ccdP7LVA.s 			page 84


 2557              	.LVL185:
1017:Drivers/STM32H7xx_HAL_Driver/Src/stm32h7xx_ll_usb.c **** 
 2558              		.loc 1 1017 3 is_stmt 1 view .LVU824
1017:Drivers/STM32H7xx_HAL_Driver/Src/stm32h7xx_ll_usb.c **** 
 2559              		.loc 1 1017 12 is_stmt 0 view .LVU825
 2560 000c 02F00302 		and	r2, r2, #3
 2561              	.LVL186:
1019:Drivers/STM32H7xx_HAL_Driver/Src/stm32h7xx_ll_usb.c ****   {
 2562              		.loc 1 1019 3 is_stmt 1 view .LVU826
1019:Drivers/STM32H7xx_HAL_Driver/Src/stm32h7xx_ll_usb.c ****   {
 2563              		.loc 1 1019 10 is_stmt 0 view .LVU827
 2564 0010 0023     		movs	r3, #0
 2565              	.LVL187:
 2566              	.L172:
1019:Drivers/STM32H7xx_HAL_Driver/Src/stm32h7xx_ll_usb.c ****   {
 2567              		.loc 1 1019 16 is_stmt 1 discriminator 1 view .LVU828
1019:Drivers/STM32H7xx_HAL_Driver/Src/stm32h7xx_ll_usb.c ****   {
 2568              		.loc 1 1019 3 is_stmt 0 discriminator 1 view .LVU829
 2569 0012 AB42     		cmp	r3, r5
 2570 0014 06D2     		bcs	.L177
1021:Drivers/STM32H7xx_HAL_Driver/Src/stm32h7xx_ll_usb.c ****     pDest++;
 2571              		.loc 1 1021 5 is_stmt 1 discriminator 3 view .LVU830
 2572 0016 06F58054 		add	r4, r6, #4096
 2573 001a 2468     		ldr	r4, [r4]
 2574 001c 40F8044B 		str	r4, [r0], #4	@ unaligned
 2575              	.LVL188:
1022:Drivers/STM32H7xx_HAL_Driver/Src/stm32h7xx_ll_usb.c ****     pDest++;
 2576              		.loc 1 1022 5 discriminator 3 view .LVU831
1023:Drivers/STM32H7xx_HAL_Driver/Src/stm32h7xx_ll_usb.c ****     pDest++;
 2577              		.loc 1 1023 5 discriminator 3 view .LVU832
1024:Drivers/STM32H7xx_HAL_Driver/Src/stm32h7xx_ll_usb.c ****     pDest++;
 2578              		.loc 1 1024 5 discriminator 3 view .LVU833
1025:Drivers/STM32H7xx_HAL_Driver/Src/stm32h7xx_ll_usb.c ****   }
 2579              		.loc 1 1025 5 discriminator 3 view .LVU834
1019:Drivers/STM32H7xx_HAL_Driver/Src/stm32h7xx_ll_usb.c ****   {
 2580              		.loc 1 1019 30 discriminator 3 view .LVU835
1019:Drivers/STM32H7xx_HAL_Driver/Src/stm32h7xx_ll_usb.c ****   {
 2581              		.loc 1 1019 31 is_stmt 0 discriminator 3 view .LVU836
 2582 0020 0133     		adds	r3, r3, #1
 2583              	.LVL189:
1019:Drivers/STM32H7xx_HAL_Driver/Src/stm32h7xx_ll_usb.c ****   {
 2584              		.loc 1 1019 31 discriminator 3 view .LVU837
 2585 0022 F6E7     		b	.L172
 2586              	.LVL190:
 2587              	.L177:
1029:Drivers/STM32H7xx_HAL_Driver/Src/stm32h7xx_ll_usb.c ****   {
 2588              		.loc 1 1029 3 is_stmt 1 view .LVU838
1029:Drivers/STM32H7xx_HAL_Driver/Src/stm32h7xx_ll_usb.c ****   {
 2589              		.loc 1 1029 6 is_stmt 0 view .LVU839
 2590 0024 7AB1     		cbz	r2, .L174
1031:Drivers/STM32H7xx_HAL_Driver/Src/stm32h7xx_ll_usb.c ****     __UNALIGNED_UINT32_WRITE(&pData, USBx_DFIFO(0U));
 2591              		.loc 1 1031 5 is_stmt 1 view .LVU840
 2592              	.LVL191:
1032:Drivers/STM32H7xx_HAL_Driver/Src/stm32h7xx_ll_usb.c **** 
 2593              		.loc 1 1032 5 view .LVU841
 2594 0026 07F58057 		add	r7, r7, #4096
 2595 002a 3B68     		ldr	r3, [r7]
ARM GAS  /tmp/ccdP7LVA.s 			page 85


 2596 002c 0193     		str	r3, [sp, #4]
1031:Drivers/STM32H7xx_HAL_Driver/Src/stm32h7xx_ll_usb.c ****     __UNALIGNED_UINT32_WRITE(&pData, USBx_DFIFO(0U));
 2597              		.loc 1 1031 7 is_stmt 0 view .LVU842
 2598 002e 0025     		movs	r5, #0
 2599              	.LVL192:
 2600              	.L175:
1034:Drivers/STM32H7xx_HAL_Driver/Src/stm32h7xx_ll_usb.c ****     {
 2601              		.loc 1 1034 5 is_stmt 1 discriminator 1 view .LVU843
1036:Drivers/STM32H7xx_HAL_Driver/Src/stm32h7xx_ll_usb.c ****       i++;
 2602              		.loc 1 1036 7 discriminator 1 view .LVU844
1036:Drivers/STM32H7xx_HAL_Driver/Src/stm32h7xx_ll_usb.c ****       i++;
 2603              		.loc 1 1036 50 is_stmt 0 discriminator 1 view .LVU845
 2604 0030 EBB2     		uxtb	r3, r5
 2605 0032 DC00     		lsls	r4, r3, #3
1036:Drivers/STM32H7xx_HAL_Driver/Src/stm32h7xx_ll_usb.c ****       i++;
 2606              		.loc 1 1036 43 discriminator 1 view .LVU846
 2607 0034 019B     		ldr	r3, [sp, #4]
 2608 0036 E340     		lsrs	r3, r3, r4
1036:Drivers/STM32H7xx_HAL_Driver/Src/stm32h7xx_ll_usb.c ****       i++;
 2609              		.loc 1 1036 25 discriminator 1 view .LVU847
 2610 0038 00F8013B 		strb	r3, [r0], #1
 2611              	.LVL193:
1037:Drivers/STM32H7xx_HAL_Driver/Src/stm32h7xx_ll_usb.c ****       pDest++;
 2612              		.loc 1 1037 7 is_stmt 1 discriminator 1 view .LVU848
1037:Drivers/STM32H7xx_HAL_Driver/Src/stm32h7xx_ll_usb.c ****       pDest++;
 2613              		.loc 1 1037 8 is_stmt 0 discriminator 1 view .LVU849
 2614 003c 0135     		adds	r5, r5, #1
 2615              	.LVL194:
1038:Drivers/STM32H7xx_HAL_Driver/Src/stm32h7xx_ll_usb.c ****       remaining_bytes--;
 2616              		.loc 1 1038 7 is_stmt 1 discriminator 1 view .LVU850
1039:Drivers/STM32H7xx_HAL_Driver/Src/stm32h7xx_ll_usb.c ****     } while (remaining_bytes != 0U);
 2617              		.loc 1 1039 7 discriminator 1 view .LVU851
1039:Drivers/STM32H7xx_HAL_Driver/Src/stm32h7xx_ll_usb.c ****     } while (remaining_bytes != 0U);
 2618              		.loc 1 1039 22 is_stmt 0 discriminator 1 view .LVU852
 2619 003e 013A     		subs	r2, r2, #1
 2620              	.LVL195:
1039:Drivers/STM32H7xx_HAL_Driver/Src/stm32h7xx_ll_usb.c ****     } while (remaining_bytes != 0U);
 2621              		.loc 1 1039 22 discriminator 1 view .LVU853
 2622 0040 92B2     		uxth	r2, r2
 2623              	.LVL196:
1040:Drivers/STM32H7xx_HAL_Driver/Src/stm32h7xx_ll_usb.c ****   }
 2624              		.loc 1 1040 13 is_stmt 1 discriminator 1 view .LVU854
1040:Drivers/STM32H7xx_HAL_Driver/Src/stm32h7xx_ll_usb.c ****   }
 2625              		.loc 1 1040 5 is_stmt 0 discriminator 1 view .LVU855
 2626 0042 002A     		cmp	r2, #0
 2627 0044 F4D1     		bne	.L175
 2628              	.LVL197:
 2629              	.L174:
1043:Drivers/STM32H7xx_HAL_Driver/Src/stm32h7xx_ll_usb.c **** }
 2630              		.loc 1 1043 3 is_stmt 1 view .LVU856
1044:Drivers/STM32H7xx_HAL_Driver/Src/stm32h7xx_ll_usb.c **** 
 2631              		.loc 1 1044 1 is_stmt 0 view .LVU857
 2632 0046 02B0     		add	sp, sp, #8
 2633              	.LCFI41:
 2634              		.cfi_def_cfa_offset 16
 2635              		@ sp needed
 2636 0048 F0BC     		pop	{r4, r5, r6, r7}
ARM GAS  /tmp/ccdP7LVA.s 			page 86


 2637              	.LCFI42:
 2638              		.cfi_restore 7
 2639              		.cfi_restore 6
 2640              		.cfi_restore 5
 2641              		.cfi_restore 4
 2642              		.cfi_def_cfa_offset 0
 2643              	.LVL198:
1044:Drivers/STM32H7xx_HAL_Driver/Src/stm32h7xx_ll_usb.c **** 
 2644              		.loc 1 1044 1 view .LVU858
 2645 004a 7047     		bx	lr
 2646              		.cfi_endproc
 2647              	.LFE161:
 2649              		.section	.text.USB_EPSetStall,"ax",%progbits
 2650              		.align	1
 2651              		.global	USB_EPSetStall
 2652              		.syntax unified
 2653              		.thumb
 2654              		.thumb_func
 2655              		.fpu fpv5-d16
 2657              	USB_EPSetStall:
 2658              	.LVL199:
 2659              	.LFB162:
1053:Drivers/STM32H7xx_HAL_Driver/Src/stm32h7xx_ll_usb.c ****   uint32_t USBx_BASE = (uint32_t)USBx;
 2660              		.loc 1 1053 1 is_stmt 1 view -0
 2661              		.cfi_startproc
 2662              		@ args = 0, pretend = 0, frame = 0
 2663              		@ frame_needed = 0, uses_anonymous_args = 0
 2664              		@ link register save eliminated.
1054:Drivers/STM32H7xx_HAL_Driver/Src/stm32h7xx_ll_usb.c ****   uint32_t epnum = (uint32_t)ep->num;
 2665              		.loc 1 1054 3 view .LVU860
1055:Drivers/STM32H7xx_HAL_Driver/Src/stm32h7xx_ll_usb.c **** 
 2666              		.loc 1 1055 3 view .LVU861
1055:Drivers/STM32H7xx_HAL_Driver/Src/stm32h7xx_ll_usb.c **** 
 2667              		.loc 1 1055 32 is_stmt 0 view .LVU862
 2668 0000 0B78     		ldrb	r3, [r1]	@ zero_extendqisi2
 2669              	.LVL200:
1057:Drivers/STM32H7xx_HAL_Driver/Src/stm32h7xx_ll_usb.c ****   {
 2670              		.loc 1 1057 3 is_stmt 1 view .LVU863
1057:Drivers/STM32H7xx_HAL_Driver/Src/stm32h7xx_ll_usb.c ****   {
 2671              		.loc 1 1057 9 is_stmt 0 view .LVU864
 2672 0002 4A78     		ldrb	r2, [r1, #1]	@ zero_extendqisi2
1057:Drivers/STM32H7xx_HAL_Driver/Src/stm32h7xx_ll_usb.c ****   {
 2673              		.loc 1 1057 6 view .LVU865
 2674 0004 012A     		cmp	r2, #1
 2675 0006 14D0     		beq	.L183
1067:Drivers/STM32H7xx_HAL_Driver/Src/stm32h7xx_ll_usb.c ****     {
 2676              		.loc 1 1067 5 is_stmt 1 view .LVU866
1067:Drivers/STM32H7xx_HAL_Driver/Src/stm32h7xx_ll_usb.c ****     {
 2677              		.loc 1 1067 11 is_stmt 0 view .LVU867
 2678 0008 00EB4310 		add	r0, r0, r3, lsl #5
 2679              	.LVL201:
1067:Drivers/STM32H7xx_HAL_Driver/Src/stm32h7xx_ll_usb.c ****     {
 2680              		.loc 1 1067 28 view .LVU868
 2681 000c D0F8002B 		ldr	r2, [r0, #2816]
1067:Drivers/STM32H7xx_HAL_Driver/Src/stm32h7xx_ll_usb.c ****     {
 2682              		.loc 1 1067 8 view .LVU869
 2683 0010 002A     		cmp	r2, #0
ARM GAS  /tmp/ccdP7LVA.s 			page 87


 2684 0012 06DB     		blt	.L182
1067:Drivers/STM32H7xx_HAL_Driver/Src/stm32h7xx_ll_usb.c ****     {
 2685              		.loc 1 1067 70 discriminator 1 view .LVU870
 2686 0014 2BB1     		cbz	r3, .L182
1069:Drivers/STM32H7xx_HAL_Driver/Src/stm32h7xx_ll_usb.c ****     }
 2687              		.loc 1 1069 7 is_stmt 1 view .LVU871
1069:Drivers/STM32H7xx_HAL_Driver/Src/stm32h7xx_ll_usb.c ****     }
 2688              		.loc 1 1069 34 is_stmt 0 view .LVU872
 2689 0016 D0F8003B 		ldr	r3, [r0, #2816]
 2690              	.LVL202:
1069:Drivers/STM32H7xx_HAL_Driver/Src/stm32h7xx_ll_usb.c ****     }
 2691              		.loc 1 1069 34 view .LVU873
 2692 001a 23F08043 		bic	r3, r3, #1073741824
 2693 001e C0F8003B 		str	r3, [r0, #2816]
 2694              	.LVL203:
 2695              	.L182:
1071:Drivers/STM32H7xx_HAL_Driver/Src/stm32h7xx_ll_usb.c ****   }
 2696              		.loc 1 1071 5 is_stmt 1 view .LVU874
1071:Drivers/STM32H7xx_HAL_Driver/Src/stm32h7xx_ll_usb.c ****   }
 2697              		.loc 1 1071 32 is_stmt 0 view .LVU875
 2698 0022 D0F8003B 		ldr	r3, [r0, #2816]
 2699 0026 43F40013 		orr	r3, r3, #2097152
 2700 002a C0F8003B 		str	r3, [r0, #2816]
 2701              	.L181:
1074:Drivers/STM32H7xx_HAL_Driver/Src/stm32h7xx_ll_usb.c **** }
 2702              		.loc 1 1074 3 is_stmt 1 view .LVU876
1075:Drivers/STM32H7xx_HAL_Driver/Src/stm32h7xx_ll_usb.c **** 
 2703              		.loc 1 1075 1 is_stmt 0 view .LVU877
 2704 002e 0020     		movs	r0, #0
 2705 0030 7047     		bx	lr
 2706              	.LVL204:
 2707              	.L183:
1059:Drivers/STM32H7xx_HAL_Driver/Src/stm32h7xx_ll_usb.c ****     {
 2708              		.loc 1 1059 5 is_stmt 1 view .LVU878
1059:Drivers/STM32H7xx_HAL_Driver/Src/stm32h7xx_ll_usb.c ****     {
 2709              		.loc 1 1059 11 is_stmt 0 view .LVU879
 2710 0032 00EB4310 		add	r0, r0, r3, lsl #5
 2711              	.LVL205:
1059:Drivers/STM32H7xx_HAL_Driver/Src/stm32h7xx_ll_usb.c ****     {
 2712              		.loc 1 1059 27 view .LVU880
 2713 0036 D0F80029 		ldr	r2, [r0, #2304]
1059:Drivers/STM32H7xx_HAL_Driver/Src/stm32h7xx_ll_usb.c ****     {
 2714              		.loc 1 1059 8 view .LVU881
 2715 003a 002A     		cmp	r2, #0
 2716 003c 06DB     		blt	.L180
1059:Drivers/STM32H7xx_HAL_Driver/Src/stm32h7xx_ll_usb.c ****     {
 2717              		.loc 1 1059 69 discriminator 1 view .LVU882
 2718 003e 2BB1     		cbz	r3, .L180
1061:Drivers/STM32H7xx_HAL_Driver/Src/stm32h7xx_ll_usb.c ****     }
 2719              		.loc 1 1061 7 is_stmt 1 view .LVU883
1061:Drivers/STM32H7xx_HAL_Driver/Src/stm32h7xx_ll_usb.c ****     }
 2720              		.loc 1 1061 33 is_stmt 0 view .LVU884
 2721 0040 D0F80039 		ldr	r3, [r0, #2304]
 2722              	.LVL206:
1061:Drivers/STM32H7xx_HAL_Driver/Src/stm32h7xx_ll_usb.c ****     }
 2723              		.loc 1 1061 33 view .LVU885
 2724 0044 23F08043 		bic	r3, r3, #1073741824
ARM GAS  /tmp/ccdP7LVA.s 			page 88


 2725 0048 C0F80039 		str	r3, [r0, #2304]
 2726              	.LVL207:
 2727              	.L180:
1063:Drivers/STM32H7xx_HAL_Driver/Src/stm32h7xx_ll_usb.c ****   }
 2728              		.loc 1 1063 5 is_stmt 1 view .LVU886
1063:Drivers/STM32H7xx_HAL_Driver/Src/stm32h7xx_ll_usb.c ****   }
 2729              		.loc 1 1063 31 is_stmt 0 view .LVU887
 2730 004c D0F80039 		ldr	r3, [r0, #2304]
 2731 0050 43F40013 		orr	r3, r3, #2097152
 2732 0054 C0F80039 		str	r3, [r0, #2304]
 2733 0058 E9E7     		b	.L181
 2734              		.cfi_endproc
 2735              	.LFE162:
 2737              		.section	.text.USB_EPClearStall,"ax",%progbits
 2738              		.align	1
 2739              		.global	USB_EPClearStall
 2740              		.syntax unified
 2741              		.thumb
 2742              		.thumb_func
 2743              		.fpu fpv5-d16
 2745              	USB_EPClearStall:
 2746              	.LVL208:
 2747              	.LFB163:
1084:Drivers/STM32H7xx_HAL_Driver/Src/stm32h7xx_ll_usb.c ****   uint32_t USBx_BASE = (uint32_t)USBx;
 2748              		.loc 1 1084 1 is_stmt 1 view -0
 2749              		.cfi_startproc
 2750              		@ args = 0, pretend = 0, frame = 0
 2751              		@ frame_needed = 0, uses_anonymous_args = 0
 2752              		@ link register save eliminated.
1085:Drivers/STM32H7xx_HAL_Driver/Src/stm32h7xx_ll_usb.c ****   uint32_t epnum = (uint32_t)ep->num;
 2753              		.loc 1 1085 3 view .LVU889
1086:Drivers/STM32H7xx_HAL_Driver/Src/stm32h7xx_ll_usb.c **** 
 2754              		.loc 1 1086 3 view .LVU890
1086:Drivers/STM32H7xx_HAL_Driver/Src/stm32h7xx_ll_usb.c **** 
 2755              		.loc 1 1086 32 is_stmt 0 view .LVU891
 2756 0000 0B78     		ldrb	r3, [r1]	@ zero_extendqisi2
 2757              	.LVL209:
1088:Drivers/STM32H7xx_HAL_Driver/Src/stm32h7xx_ll_usb.c ****   {
 2758              		.loc 1 1088 3 is_stmt 1 view .LVU892
1088:Drivers/STM32H7xx_HAL_Driver/Src/stm32h7xx_ll_usb.c ****   {
 2759              		.loc 1 1088 9 is_stmt 0 view .LVU893
 2760 0002 4A78     		ldrb	r2, [r1, #1]	@ zero_extendqisi2
1088:Drivers/STM32H7xx_HAL_Driver/Src/stm32h7xx_ll_usb.c ****   {
 2761              		.loc 1 1088 6 view .LVU894
 2762 0004 012A     		cmp	r2, #1
 2763 0006 0ED0     		beq	.L187
1098:Drivers/STM32H7xx_HAL_Driver/Src/stm32h7xx_ll_usb.c ****     if ((ep->type == EP_TYPE_INTR) || (ep->type == EP_TYPE_BULK))
 2764              		.loc 1 1098 5 is_stmt 1 view .LVU895
1098:Drivers/STM32H7xx_HAL_Driver/Src/stm32h7xx_ll_usb.c ****     if ((ep->type == EP_TYPE_INTR) || (ep->type == EP_TYPE_BULK))
 2765              		.loc 1 1098 32 is_stmt 0 view .LVU896
 2766 0008 00EB4310 		add	r0, r0, r3, lsl #5
 2767              	.LVL210:
1098:Drivers/STM32H7xx_HAL_Driver/Src/stm32h7xx_ll_usb.c ****     if ((ep->type == EP_TYPE_INTR) || (ep->type == EP_TYPE_BULK))
 2768              		.loc 1 1098 32 view .LVU897
 2769 000c D0F8003B 		ldr	r3, [r0, #2816]
 2770              	.LVL211:
1098:Drivers/STM32H7xx_HAL_Driver/Src/stm32h7xx_ll_usb.c ****     if ((ep->type == EP_TYPE_INTR) || (ep->type == EP_TYPE_BULK))
ARM GAS  /tmp/ccdP7LVA.s 			page 89


 2771              		.loc 1 1098 32 view .LVU898
 2772 0010 23F40013 		bic	r3, r3, #2097152
 2773 0014 C0F8003B 		str	r3, [r0, #2816]
 2774              	.LVL212:
1099:Drivers/STM32H7xx_HAL_Driver/Src/stm32h7xx_ll_usb.c ****     {
 2775              		.loc 1 1099 5 is_stmt 1 view .LVU899
1099:Drivers/STM32H7xx_HAL_Driver/Src/stm32h7xx_ll_usb.c ****     {
 2776              		.loc 1 1099 12 is_stmt 0 view .LVU900
 2777 0018 0B79     		ldrb	r3, [r1, #4]	@ zero_extendqisi2
1099:Drivers/STM32H7xx_HAL_Driver/Src/stm32h7xx_ll_usb.c ****     {
 2778              		.loc 1 1099 36 view .LVU901
 2779 001a 023B     		subs	r3, r3, #2
 2780 001c DBB2     		uxtb	r3, r3
1099:Drivers/STM32H7xx_HAL_Driver/Src/stm32h7xx_ll_usb.c ****     {
 2781              		.loc 1 1099 8 view .LVU902
 2782 001e 012B     		cmp	r3, #1
 2783 0020 15D9     		bls	.L188
 2784              	.L186:
1104:Drivers/STM32H7xx_HAL_Driver/Src/stm32h7xx_ll_usb.c **** }
 2785              		.loc 1 1104 3 is_stmt 1 view .LVU903
1105:Drivers/STM32H7xx_HAL_Driver/Src/stm32h7xx_ll_usb.c **** 
 2786              		.loc 1 1105 1 is_stmt 0 view .LVU904
 2787 0022 0020     		movs	r0, #0
 2788 0024 7047     		bx	lr
 2789              	.LVL213:
 2790              	.L187:
1090:Drivers/STM32H7xx_HAL_Driver/Src/stm32h7xx_ll_usb.c ****     if ((ep->type == EP_TYPE_INTR) || (ep->type == EP_TYPE_BULK))
 2791              		.loc 1 1090 5 is_stmt 1 view .LVU905
1090:Drivers/STM32H7xx_HAL_Driver/Src/stm32h7xx_ll_usb.c ****     if ((ep->type == EP_TYPE_INTR) || (ep->type == EP_TYPE_BULK))
 2792              		.loc 1 1090 31 is_stmt 0 view .LVU906
 2793 0026 00EB4310 		add	r0, r0, r3, lsl #5
 2794              	.LVL214:
1090:Drivers/STM32H7xx_HAL_Driver/Src/stm32h7xx_ll_usb.c ****     if ((ep->type == EP_TYPE_INTR) || (ep->type == EP_TYPE_BULK))
 2795              		.loc 1 1090 31 view .LVU907
 2796 002a D0F80039 		ldr	r3, [r0, #2304]
 2797              	.LVL215:
1090:Drivers/STM32H7xx_HAL_Driver/Src/stm32h7xx_ll_usb.c ****     if ((ep->type == EP_TYPE_INTR) || (ep->type == EP_TYPE_BULK))
 2798              		.loc 1 1090 31 view .LVU908
 2799 002e 23F40013 		bic	r3, r3, #2097152
 2800 0032 C0F80039 		str	r3, [r0, #2304]
 2801              	.LVL216:
1091:Drivers/STM32H7xx_HAL_Driver/Src/stm32h7xx_ll_usb.c ****     {
 2802              		.loc 1 1091 5 is_stmt 1 view .LVU909
1091:Drivers/STM32H7xx_HAL_Driver/Src/stm32h7xx_ll_usb.c ****     {
 2803              		.loc 1 1091 12 is_stmt 0 view .LVU910
 2804 0036 0B79     		ldrb	r3, [r1, #4]	@ zero_extendqisi2
1091:Drivers/STM32H7xx_HAL_Driver/Src/stm32h7xx_ll_usb.c ****     {
 2805              		.loc 1 1091 36 view .LVU911
 2806 0038 023B     		subs	r3, r3, #2
 2807 003a DBB2     		uxtb	r3, r3
1091:Drivers/STM32H7xx_HAL_Driver/Src/stm32h7xx_ll_usb.c ****     {
 2808              		.loc 1 1091 8 view .LVU912
 2809 003c 012B     		cmp	r3, #1
 2810 003e F0D8     		bhi	.L186
1093:Drivers/STM32H7xx_HAL_Driver/Src/stm32h7xx_ll_usb.c ****     }
 2811              		.loc 1 1093 7 is_stmt 1 view .LVU913
1093:Drivers/STM32H7xx_HAL_Driver/Src/stm32h7xx_ll_usb.c ****     }
ARM GAS  /tmp/ccdP7LVA.s 			page 90


 2812              		.loc 1 1093 33 is_stmt 0 view .LVU914
 2813 0040 D0F80039 		ldr	r3, [r0, #2304]
 2814 0044 43F08053 		orr	r3, r3, #268435456
 2815 0048 C0F80039 		str	r3, [r0, #2304]
 2816 004c E9E7     		b	.L186
 2817              	.L188:
1101:Drivers/STM32H7xx_HAL_Driver/Src/stm32h7xx_ll_usb.c ****     }
 2818              		.loc 1 1101 7 is_stmt 1 view .LVU915
1101:Drivers/STM32H7xx_HAL_Driver/Src/stm32h7xx_ll_usb.c ****     }
 2819              		.loc 1 1101 34 is_stmt 0 view .LVU916
 2820 004e D0F8003B 		ldr	r3, [r0, #2816]
 2821 0052 43F08053 		orr	r3, r3, #268435456
 2822 0056 C0F8003B 		str	r3, [r0, #2816]
 2823 005a E2E7     		b	.L186
 2824              		.cfi_endproc
 2825              	.LFE163:
 2827              		.section	.text.USB_StopDevice,"ax",%progbits
 2828              		.align	1
 2829              		.global	USB_StopDevice
 2830              		.syntax unified
 2831              		.thumb
 2832              		.thumb_func
 2833              		.fpu fpv5-d16
 2835              	USB_StopDevice:
 2836              	.LVL217:
 2837              	.LFB164:
1113:Drivers/STM32H7xx_HAL_Driver/Src/stm32h7xx_ll_usb.c ****   HAL_StatusTypeDef ret;
 2838              		.loc 1 1113 1 is_stmt 1 view -0
 2839              		.cfi_startproc
 2840              		@ args = 0, pretend = 0, frame = 0
 2841              		@ frame_needed = 0, uses_anonymous_args = 0
1113:Drivers/STM32H7xx_HAL_Driver/Src/stm32h7xx_ll_usb.c ****   HAL_StatusTypeDef ret;
 2842              		.loc 1 1113 1 is_stmt 0 view .LVU918
 2843 0000 70B5     		push	{r4, r5, r6, lr}
 2844              	.LCFI43:
 2845              		.cfi_def_cfa_offset 16
 2846              		.cfi_offset 4, -16
 2847              		.cfi_offset 5, -12
 2848              		.cfi_offset 6, -8
 2849              		.cfi_offset 14, -4
 2850 0002 0646     		mov	r6, r0
1114:Drivers/STM32H7xx_HAL_Driver/Src/stm32h7xx_ll_usb.c ****   uint32_t USBx_BASE = (uint32_t)USBx;
 2851              		.loc 1 1114 3 is_stmt 1 view .LVU919
1115:Drivers/STM32H7xx_HAL_Driver/Src/stm32h7xx_ll_usb.c ****   uint32_t i;
 2852              		.loc 1 1115 3 view .LVU920
1115:Drivers/STM32H7xx_HAL_Driver/Src/stm32h7xx_ll_usb.c ****   uint32_t i;
 2853              		.loc 1 1115 12 is_stmt 0 view .LVU921
 2854 0004 0546     		mov	r5, r0
 2855              	.LVL218:
1116:Drivers/STM32H7xx_HAL_Driver/Src/stm32h7xx_ll_usb.c **** 
 2856              		.loc 1 1116 3 is_stmt 1 view .LVU922
1119:Drivers/STM32H7xx_HAL_Driver/Src/stm32h7xx_ll_usb.c ****   {
 2857              		.loc 1 1119 3 view .LVU923
1119:Drivers/STM32H7xx_HAL_Driver/Src/stm32h7xx_ll_usb.c ****   {
 2858              		.loc 1 1119 10 is_stmt 0 view .LVU924
 2859 0006 0022     		movs	r2, #0
1119:Drivers/STM32H7xx_HAL_Driver/Src/stm32h7xx_ll_usb.c ****   {
ARM GAS  /tmp/ccdP7LVA.s 			page 91


 2860              		.loc 1 1119 3 view .LVU925
 2861 0008 08E0     		b	.L190
 2862              	.LVL219:
 2863              	.L191:
1121:Drivers/STM32H7xx_HAL_Driver/Src/stm32h7xx_ll_usb.c ****     USBx_OUTEP(i)->DOEPINT = 0xFB7FU;
 2864              		.loc 1 1121 5 is_stmt 1 discriminator 3 view .LVU926
 2865 000a 05EB4213 		add	r3, r5, r2, lsl #5
1121:Drivers/STM32H7xx_HAL_Driver/Src/stm32h7xx_ll_usb.c ****     USBx_OUTEP(i)->DOEPINT = 0xFB7FU;
 2866              		.loc 1 1121 27 is_stmt 0 discriminator 3 view .LVU927
 2867 000e 4FF67F31 		movw	r1, #64383
 2868 0012 C3F80819 		str	r1, [r3, #2312]
1122:Drivers/STM32H7xx_HAL_Driver/Src/stm32h7xx_ll_usb.c ****   }
 2869              		.loc 1 1122 5 is_stmt 1 discriminator 3 view .LVU928
1122:Drivers/STM32H7xx_HAL_Driver/Src/stm32h7xx_ll_usb.c ****   }
 2870              		.loc 1 1122 28 is_stmt 0 discriminator 3 view .LVU929
 2871 0016 C3F8081B 		str	r1, [r3, #2824]
1119:Drivers/STM32H7xx_HAL_Driver/Src/stm32h7xx_ll_usb.c ****   {
 2872              		.loc 1 1119 25 is_stmt 1 discriminator 3 view .LVU930
1119:Drivers/STM32H7xx_HAL_Driver/Src/stm32h7xx_ll_usb.c ****   {
 2873              		.loc 1 1119 26 is_stmt 0 discriminator 3 view .LVU931
 2874 001a 0132     		adds	r2, r2, #1
 2875              	.LVL220:
 2876              	.L190:
1119:Drivers/STM32H7xx_HAL_Driver/Src/stm32h7xx_ll_usb.c ****   {
 2877              		.loc 1 1119 16 is_stmt 1 discriminator 1 view .LVU932
1119:Drivers/STM32H7xx_HAL_Driver/Src/stm32h7xx_ll_usb.c ****   {
 2878              		.loc 1 1119 3 is_stmt 0 discriminator 1 view .LVU933
 2879 001c 0E2A     		cmp	r2, #14
 2880 001e F4D9     		bls	.L191
1126:Drivers/STM32H7xx_HAL_Driver/Src/stm32h7xx_ll_usb.c ****   USBx_DEVICE->DOEPMSK  = 0U;
 2881              		.loc 1 1126 3 is_stmt 1 view .LVU934
1126:Drivers/STM32H7xx_HAL_Driver/Src/stm32h7xx_ll_usb.c ****   USBx_DEVICE->DOEPMSK  = 0U;
 2882              		.loc 1 1126 25 is_stmt 0 view .LVU935
 2883 0020 0022     		movs	r2, #0
 2884              	.LVL221:
1126:Drivers/STM32H7xx_HAL_Driver/Src/stm32h7xx_ll_usb.c ****   USBx_DEVICE->DOEPMSK  = 0U;
 2885              		.loc 1 1126 25 view .LVU936
 2886 0022 C6F81028 		str	r2, [r6, #2064]
1127:Drivers/STM32H7xx_HAL_Driver/Src/stm32h7xx_ll_usb.c ****   USBx_DEVICE->DAINTMSK = 0U;
 2887              		.loc 1 1127 3 is_stmt 1 view .LVU937
1127:Drivers/STM32H7xx_HAL_Driver/Src/stm32h7xx_ll_usb.c ****   USBx_DEVICE->DAINTMSK = 0U;
 2888              		.loc 1 1127 25 is_stmt 0 view .LVU938
 2889 0026 C6F81428 		str	r2, [r6, #2068]
1128:Drivers/STM32H7xx_HAL_Driver/Src/stm32h7xx_ll_usb.c **** 
 2890              		.loc 1 1128 3 is_stmt 1 view .LVU939
1128:Drivers/STM32H7xx_HAL_Driver/Src/stm32h7xx_ll_usb.c **** 
 2891              		.loc 1 1128 25 is_stmt 0 view .LVU940
 2892 002a C6F81C28 		str	r2, [r6, #2076]
1131:Drivers/STM32H7xx_HAL_Driver/Src/stm32h7xx_ll_usb.c ****   if (ret != HAL_OK)
 2893              		.loc 1 1131 3 is_stmt 1 view .LVU941
1131:Drivers/STM32H7xx_HAL_Driver/Src/stm32h7xx_ll_usb.c ****   if (ret != HAL_OK)
 2894              		.loc 1 1131 9 is_stmt 0 view .LVU942
 2895 002e 3046     		mov	r0, r6
 2896              	.LVL222:
1131:Drivers/STM32H7xx_HAL_Driver/Src/stm32h7xx_ll_usb.c ****   if (ret != HAL_OK)
 2897              		.loc 1 1131 9 view .LVU943
 2898 0030 FFF7FEFF 		bl	USB_FlushRxFifo
ARM GAS  /tmp/ccdP7LVA.s 			page 92


 2899              	.LVL223:
1132:Drivers/STM32H7xx_HAL_Driver/Src/stm32h7xx_ll_usb.c ****   {
 2900              		.loc 1 1132 3 is_stmt 1 view .LVU944
1132:Drivers/STM32H7xx_HAL_Driver/Src/stm32h7xx_ll_usb.c ****   {
 2901              		.loc 1 1132 6 is_stmt 0 view .LVU945
 2902 0034 00B1     		cbz	r0, .L194
 2903              	.L192:
1144:Drivers/STM32H7xx_HAL_Driver/Src/stm32h7xx_ll_usb.c **** 
 2904              		.loc 1 1144 1 view .LVU946
 2905 0036 70BD     		pop	{r4, r5, r6, pc}
 2906              	.LVL224:
 2907              	.L194:
1137:Drivers/STM32H7xx_HAL_Driver/Src/stm32h7xx_ll_usb.c ****   if (ret != HAL_OK)
 2908              		.loc 1 1137 3 is_stmt 1 view .LVU947
1137:Drivers/STM32H7xx_HAL_Driver/Src/stm32h7xx_ll_usb.c ****   if (ret != HAL_OK)
 2909              		.loc 1 1137 9 is_stmt 0 view .LVU948
 2910 0038 1021     		movs	r1, #16
 2911 003a 3046     		mov	r0, r6
 2912              	.LVL225:
1137:Drivers/STM32H7xx_HAL_Driver/Src/stm32h7xx_ll_usb.c ****   if (ret != HAL_OK)
 2913              		.loc 1 1137 9 view .LVU949
 2914 003c FFF7FEFF 		bl	USB_FlushTxFifo
 2915              	.LVL226:
1138:Drivers/STM32H7xx_HAL_Driver/Src/stm32h7xx_ll_usb.c ****   {
 2916              		.loc 1 1138 3 is_stmt 1 view .LVU950
 2917 0040 F9E7     		b	.L192
 2918              		.cfi_endproc
 2919              	.LFE164:
 2921              		.section	.text.USB_SetDevAddress,"ax",%progbits
 2922              		.align	1
 2923              		.global	USB_SetDevAddress
 2924              		.syntax unified
 2925              		.thumb
 2926              		.thumb_func
 2927              		.fpu fpv5-d16
 2929              	USB_SetDevAddress:
 2930              	.LVL227:
 2931              	.LFB165:
1154:Drivers/STM32H7xx_HAL_Driver/Src/stm32h7xx_ll_usb.c ****   uint32_t USBx_BASE = (uint32_t)USBx;
 2932              		.loc 1 1154 1 view -0
 2933              		.cfi_startproc
 2934              		@ args = 0, pretend = 0, frame = 0
 2935              		@ frame_needed = 0, uses_anonymous_args = 0
 2936              		@ link register save eliminated.
1155:Drivers/STM32H7xx_HAL_Driver/Src/stm32h7xx_ll_usb.c **** 
 2937              		.loc 1 1155 3 view .LVU952
1157:Drivers/STM32H7xx_HAL_Driver/Src/stm32h7xx_ll_usb.c ****   USBx_DEVICE->DCFG |= ((uint32_t)address << 4) & USB_OTG_DCFG_DAD;
 2938              		.loc 1 1157 3 view .LVU953
1157:Drivers/STM32H7xx_HAL_Driver/Src/stm32h7xx_ll_usb.c ****   USBx_DEVICE->DCFG |= ((uint32_t)address << 4) & USB_OTG_DCFG_DAD;
 2939              		.loc 1 1157 21 is_stmt 0 view .LVU954
 2940 0000 D0F80038 		ldr	r3, [r0, #2048]
 2941 0004 23F4FE63 		bic	r3, r3, #2032
 2942 0008 C0F80038 		str	r3, [r0, #2048]
1158:Drivers/STM32H7xx_HAL_Driver/Src/stm32h7xx_ll_usb.c **** 
 2943              		.loc 1 1158 3 is_stmt 1 view .LVU955
1158:Drivers/STM32H7xx_HAL_Driver/Src/stm32h7xx_ll_usb.c **** 
 2944              		.loc 1 1158 21 is_stmt 0 view .LVU956
ARM GAS  /tmp/ccdP7LVA.s 			page 93


 2945 000c D0F80038 		ldr	r3, [r0, #2048]
1158:Drivers/STM32H7xx_HAL_Driver/Src/stm32h7xx_ll_usb.c **** 
 2946              		.loc 1 1158 43 view .LVU957
 2947 0010 0901     		lsls	r1, r1, #4
 2948              	.LVL228:
1158:Drivers/STM32H7xx_HAL_Driver/Src/stm32h7xx_ll_usb.c **** 
 2949              		.loc 1 1158 49 view .LVU958
 2950 0012 01F4FE61 		and	r1, r1, #2032
1158:Drivers/STM32H7xx_HAL_Driver/Src/stm32h7xx_ll_usb.c **** 
 2951              		.loc 1 1158 21 view .LVU959
 2952 0016 1943     		orrs	r1, r1, r3
 2953 0018 C0F80018 		str	r1, [r0, #2048]
1160:Drivers/STM32H7xx_HAL_Driver/Src/stm32h7xx_ll_usb.c **** }
 2954              		.loc 1 1160 3 is_stmt 1 view .LVU960
1161:Drivers/STM32H7xx_HAL_Driver/Src/stm32h7xx_ll_usb.c **** 
 2955              		.loc 1 1161 1 is_stmt 0 view .LVU961
 2956 001c 0020     		movs	r0, #0
 2957              	.LVL229:
1161:Drivers/STM32H7xx_HAL_Driver/Src/stm32h7xx_ll_usb.c **** 
 2958              		.loc 1 1161 1 view .LVU962
 2959 001e 7047     		bx	lr
 2960              		.cfi_endproc
 2961              	.LFE165:
 2963              		.section	.text.USB_DevConnect,"ax",%progbits
 2964              		.align	1
 2965              		.global	USB_DevConnect
 2966              		.syntax unified
 2967              		.thumb
 2968              		.thumb_func
 2969              		.fpu fpv5-d16
 2971              	USB_DevConnect:
 2972              	.LVL230:
 2973              	.LFB166:
1169:Drivers/STM32H7xx_HAL_Driver/Src/stm32h7xx_ll_usb.c ****   uint32_t USBx_BASE = (uint32_t)USBx;
 2974              		.loc 1 1169 1 is_stmt 1 view -0
 2975              		.cfi_startproc
 2976              		@ args = 0, pretend = 0, frame = 0
 2977              		@ frame_needed = 0, uses_anonymous_args = 0
 2978              		@ link register save eliminated.
1170:Drivers/STM32H7xx_HAL_Driver/Src/stm32h7xx_ll_usb.c **** 
 2979              		.loc 1 1170 3 view .LVU964
1173:Drivers/STM32H7xx_HAL_Driver/Src/stm32h7xx_ll_usb.c **** 
 2980              		.loc 1 1173 3 view .LVU965
1173:Drivers/STM32H7xx_HAL_Driver/Src/stm32h7xx_ll_usb.c **** 
 2981              		.loc 1 1173 16 is_stmt 0 view .LVU966
 2982 0000 D0F8003E 		ldr	r3, [r0, #3584]
 2983 0004 23F00303 		bic	r3, r3, #3
 2984 0008 C0F8003E 		str	r3, [r0, #3584]
1175:Drivers/STM32H7xx_HAL_Driver/Src/stm32h7xx_ll_usb.c **** 
 2985              		.loc 1 1175 3 is_stmt 1 view .LVU967
1175:Drivers/STM32H7xx_HAL_Driver/Src/stm32h7xx_ll_usb.c **** 
 2986              		.loc 1 1175 21 is_stmt 0 view .LVU968
 2987 000c D0F80438 		ldr	r3, [r0, #2052]
 2988 0010 23F00203 		bic	r3, r3, #2
 2989 0014 C0F80438 		str	r3, [r0, #2052]
1177:Drivers/STM32H7xx_HAL_Driver/Src/stm32h7xx_ll_usb.c **** }
 2990              		.loc 1 1177 3 is_stmt 1 view .LVU969
ARM GAS  /tmp/ccdP7LVA.s 			page 94


1178:Drivers/STM32H7xx_HAL_Driver/Src/stm32h7xx_ll_usb.c **** 
 2991              		.loc 1 1178 1 is_stmt 0 view .LVU970
 2992 0018 0020     		movs	r0, #0
 2993              	.LVL231:
1178:Drivers/STM32H7xx_HAL_Driver/Src/stm32h7xx_ll_usb.c **** 
 2994              		.loc 1 1178 1 view .LVU971
 2995 001a 7047     		bx	lr
 2996              		.cfi_endproc
 2997              	.LFE166:
 2999              		.section	.text.USB_DevDisconnect,"ax",%progbits
 3000              		.align	1
 3001              		.global	USB_DevDisconnect
 3002              		.syntax unified
 3003              		.thumb
 3004              		.thumb_func
 3005              		.fpu fpv5-d16
 3007              	USB_DevDisconnect:
 3008              	.LVL232:
 3009              	.LFB167:
1186:Drivers/STM32H7xx_HAL_Driver/Src/stm32h7xx_ll_usb.c ****   uint32_t USBx_BASE = (uint32_t)USBx;
 3010              		.loc 1 1186 1 is_stmt 1 view -0
 3011              		.cfi_startproc
 3012              		@ args = 0, pretend = 0, frame = 0
 3013              		@ frame_needed = 0, uses_anonymous_args = 0
 3014              		@ link register save eliminated.
1187:Drivers/STM32H7xx_HAL_Driver/Src/stm32h7xx_ll_usb.c **** 
 3015              		.loc 1 1187 3 view .LVU973
1190:Drivers/STM32H7xx_HAL_Driver/Src/stm32h7xx_ll_usb.c **** 
 3016              		.loc 1 1190 3 view .LVU974
1190:Drivers/STM32H7xx_HAL_Driver/Src/stm32h7xx_ll_usb.c **** 
 3017              		.loc 1 1190 16 is_stmt 0 view .LVU975
 3018 0000 D0F8003E 		ldr	r3, [r0, #3584]
 3019 0004 23F00303 		bic	r3, r3, #3
 3020 0008 C0F8003E 		str	r3, [r0, #3584]
1192:Drivers/STM32H7xx_HAL_Driver/Src/stm32h7xx_ll_usb.c **** 
 3021              		.loc 1 1192 3 is_stmt 1 view .LVU976
1192:Drivers/STM32H7xx_HAL_Driver/Src/stm32h7xx_ll_usb.c **** 
 3022              		.loc 1 1192 21 is_stmt 0 view .LVU977
 3023 000c D0F80438 		ldr	r3, [r0, #2052]
 3024 0010 43F00203 		orr	r3, r3, #2
 3025 0014 C0F80438 		str	r3, [r0, #2052]
1194:Drivers/STM32H7xx_HAL_Driver/Src/stm32h7xx_ll_usb.c **** }
 3026              		.loc 1 1194 3 is_stmt 1 view .LVU978
1195:Drivers/STM32H7xx_HAL_Driver/Src/stm32h7xx_ll_usb.c **** 
 3027              		.loc 1 1195 1 is_stmt 0 view .LVU979
 3028 0018 0020     		movs	r0, #0
 3029              	.LVL233:
1195:Drivers/STM32H7xx_HAL_Driver/Src/stm32h7xx_ll_usb.c **** 
 3030              		.loc 1 1195 1 view .LVU980
 3031 001a 7047     		bx	lr
 3032              		.cfi_endproc
 3033              	.LFE167:
 3035              		.section	.text.USB_ReadInterrupts,"ax",%progbits
 3036              		.align	1
 3037              		.global	USB_ReadInterrupts
 3038              		.syntax unified
 3039              		.thumb
ARM GAS  /tmp/ccdP7LVA.s 			page 95


 3040              		.thumb_func
 3041              		.fpu fpv5-d16
 3043              	USB_ReadInterrupts:
 3044              	.LVL234:
 3045              	.LFB168:
1203:Drivers/STM32H7xx_HAL_Driver/Src/stm32h7xx_ll_usb.c ****   uint32_t tmpreg;
 3046              		.loc 1 1203 1 is_stmt 1 view -0
 3047              		.cfi_startproc
 3048              		@ args = 0, pretend = 0, frame = 0
 3049              		@ frame_needed = 0, uses_anonymous_args = 0
 3050              		@ link register save eliminated.
1204:Drivers/STM32H7xx_HAL_Driver/Src/stm32h7xx_ll_usb.c **** 
 3051              		.loc 1 1204 3 view .LVU982
1206:Drivers/STM32H7xx_HAL_Driver/Src/stm32h7xx_ll_usb.c ****   tmpreg &= USBx->GINTMSK;
 3052              		.loc 1 1206 3 view .LVU983
1206:Drivers/STM32H7xx_HAL_Driver/Src/stm32h7xx_ll_usb.c ****   tmpreg &= USBx->GINTMSK;
 3053              		.loc 1 1206 10 is_stmt 0 view .LVU984
 3054 0000 4269     		ldr	r2, [r0, #20]
 3055              	.LVL235:
1207:Drivers/STM32H7xx_HAL_Driver/Src/stm32h7xx_ll_usb.c **** 
 3056              		.loc 1 1207 3 is_stmt 1 view .LVU985
1207:Drivers/STM32H7xx_HAL_Driver/Src/stm32h7xx_ll_usb.c **** 
 3057              		.loc 1 1207 17 is_stmt 0 view .LVU986
 3058 0002 8069     		ldr	r0, [r0, #24]
 3059              	.LVL236:
1209:Drivers/STM32H7xx_HAL_Driver/Src/stm32h7xx_ll_usb.c **** }
 3060              		.loc 1 1209 3 is_stmt 1 view .LVU987
1210:Drivers/STM32H7xx_HAL_Driver/Src/stm32h7xx_ll_usb.c **** 
 3061              		.loc 1 1210 1 is_stmt 0 view .LVU988
 3062 0004 1040     		ands	r0, r0, r2
 3063              	.LVL237:
1210:Drivers/STM32H7xx_HAL_Driver/Src/stm32h7xx_ll_usb.c **** 
 3064              		.loc 1 1210 1 view .LVU989
 3065 0006 7047     		bx	lr
 3066              		.cfi_endproc
 3067              	.LFE168:
 3069              		.section	.text.USB_ReadChInterrupts,"ax",%progbits
 3070              		.align	1
 3071              		.global	USB_ReadChInterrupts
 3072              		.syntax unified
 3073              		.thumb
 3074              		.thumb_func
 3075              		.fpu fpv5-d16
 3077              	USB_ReadChInterrupts:
 3078              	.LVL238:
 3079              	.LFB169:
1219:Drivers/STM32H7xx_HAL_Driver/Src/stm32h7xx_ll_usb.c ****   uint32_t USBx_BASE = (uint32_t)USBx;
 3080              		.loc 1 1219 1 is_stmt 1 view -0
 3081              		.cfi_startproc
 3082              		@ args = 0, pretend = 0, frame = 0
 3083              		@ frame_needed = 0, uses_anonymous_args = 0
 3084              		@ link register save eliminated.
1220:Drivers/STM32H7xx_HAL_Driver/Src/stm32h7xx_ll_usb.c ****   uint32_t tmpreg;
 3085              		.loc 1 1220 3 view .LVU991
1221:Drivers/STM32H7xx_HAL_Driver/Src/stm32h7xx_ll_usb.c **** 
 3086              		.loc 1 1221 3 view .LVU992
1223:Drivers/STM32H7xx_HAL_Driver/Src/stm32h7xx_ll_usb.c ****   tmpreg &= USBx_HC(chnum)->HCINTMSK;
ARM GAS  /tmp/ccdP7LVA.s 			page 96


 3087              		.loc 1 1223 3 view .LVU993
1223:Drivers/STM32H7xx_HAL_Driver/Src/stm32h7xx_ll_usb.c ****   tmpreg &= USBx_HC(chnum)->HCINTMSK;
 3088              		.loc 1 1223 12 is_stmt 0 view .LVU994
 3089 0000 00EB4111 		add	r1, r0, r1, lsl #5
 3090              	.LVL239:
1223:Drivers/STM32H7xx_HAL_Driver/Src/stm32h7xx_ll_usb.c ****   tmpreg &= USBx_HC(chnum)->HCINTMSK;
 3091              		.loc 1 1223 10 view .LVU995
 3092 0004 D1F80805 		ldr	r0, [r1, #1288]
 3093              	.LVL240:
1224:Drivers/STM32H7xx_HAL_Driver/Src/stm32h7xx_ll_usb.c **** 
 3094              		.loc 1 1224 3 is_stmt 1 view .LVU996
1224:Drivers/STM32H7xx_HAL_Driver/Src/stm32h7xx_ll_usb.c **** 
 3095              		.loc 1 1224 27 is_stmt 0 view .LVU997
 3096 0008 D1F80C35 		ldr	r3, [r1, #1292]
 3097              	.LVL241:
1226:Drivers/STM32H7xx_HAL_Driver/Src/stm32h7xx_ll_usb.c **** }
 3098              		.loc 1 1226 3 is_stmt 1 view .LVU998
1227:Drivers/STM32H7xx_HAL_Driver/Src/stm32h7xx_ll_usb.c **** 
 3099              		.loc 1 1227 1 is_stmt 0 view .LVU999
 3100 000c 1840     		ands	r0, r0, r3
 3101              	.LVL242:
1227:Drivers/STM32H7xx_HAL_Driver/Src/stm32h7xx_ll_usb.c **** 
 3102              		.loc 1 1227 1 view .LVU1000
 3103 000e 7047     		bx	lr
 3104              		.cfi_endproc
 3105              	.LFE169:
 3107              		.section	.text.USB_ReadDevAllOutEpInterrupt,"ax",%progbits
 3108              		.align	1
 3109              		.global	USB_ReadDevAllOutEpInterrupt
 3110              		.syntax unified
 3111              		.thumb
 3112              		.thumb_func
 3113              		.fpu fpv5-d16
 3115              	USB_ReadDevAllOutEpInterrupt:
 3116              	.LVL243:
 3117              	.LFB170:
1235:Drivers/STM32H7xx_HAL_Driver/Src/stm32h7xx_ll_usb.c ****   uint32_t USBx_BASE = (uint32_t)USBx;
 3118              		.loc 1 1235 1 is_stmt 1 view -0
 3119              		.cfi_startproc
 3120              		@ args = 0, pretend = 0, frame = 0
 3121              		@ frame_needed = 0, uses_anonymous_args = 0
 3122              		@ link register save eliminated.
1236:Drivers/STM32H7xx_HAL_Driver/Src/stm32h7xx_ll_usb.c ****   uint32_t tmpreg;
 3123              		.loc 1 1236 3 view .LVU1002
1237:Drivers/STM32H7xx_HAL_Driver/Src/stm32h7xx_ll_usb.c **** 
 3124              		.loc 1 1237 3 view .LVU1003
1239:Drivers/STM32H7xx_HAL_Driver/Src/stm32h7xx_ll_usb.c ****   tmpreg &= USBx_DEVICE->DAINTMSK;
 3125              		.loc 1 1239 3 view .LVU1004
1239:Drivers/STM32H7xx_HAL_Driver/Src/stm32h7xx_ll_usb.c ****   tmpreg &= USBx_DEVICE->DAINTMSK;
 3126              		.loc 1 1239 11 is_stmt 0 view .LVU1005
 3127 0000 D0F81838 		ldr	r3, [r0, #2072]
1239:Drivers/STM32H7xx_HAL_Driver/Src/stm32h7xx_ll_usb.c ****   tmpreg &= USBx_DEVICE->DAINTMSK;
 3128              		.loc 1 1239 13 view .LVU1006
 3129 0004 00F50060 		add	r0, r0, #2048
 3130              	.LVL244:
1240:Drivers/STM32H7xx_HAL_Driver/Src/stm32h7xx_ll_usb.c **** 
 3131              		.loc 1 1240 3 is_stmt 1 view .LVU1007
ARM GAS  /tmp/ccdP7LVA.s 			page 97


1240:Drivers/STM32H7xx_HAL_Driver/Src/stm32h7xx_ll_usb.c **** 
 3132              		.loc 1 1240 24 is_stmt 0 view .LVU1008
 3133 0008 C069     		ldr	r0, [r0, #28]
 3134              	.LVL245:
1240:Drivers/STM32H7xx_HAL_Driver/Src/stm32h7xx_ll_usb.c **** 
 3135              		.loc 1 1240 10 view .LVU1009
 3136 000a 1840     		ands	r0, r0, r3
 3137              	.LVL246:
1242:Drivers/STM32H7xx_HAL_Driver/Src/stm32h7xx_ll_usb.c **** }
 3138              		.loc 1 1242 3 is_stmt 1 view .LVU1010
1243:Drivers/STM32H7xx_HAL_Driver/Src/stm32h7xx_ll_usb.c **** 
 3139              		.loc 1 1243 1 is_stmt 0 view .LVU1011
 3140 000c 000C     		lsrs	r0, r0, #16
 3141              	.LVL247:
1243:Drivers/STM32H7xx_HAL_Driver/Src/stm32h7xx_ll_usb.c **** 
 3142              		.loc 1 1243 1 view .LVU1012
 3143 000e 7047     		bx	lr
 3144              		.cfi_endproc
 3145              	.LFE170:
 3147              		.section	.text.USB_ReadDevAllInEpInterrupt,"ax",%progbits
 3148              		.align	1
 3149              		.global	USB_ReadDevAllInEpInterrupt
 3150              		.syntax unified
 3151              		.thumb
 3152              		.thumb_func
 3153              		.fpu fpv5-d16
 3155              	USB_ReadDevAllInEpInterrupt:
 3156              	.LVL248:
 3157              	.LFB171:
1251:Drivers/STM32H7xx_HAL_Driver/Src/stm32h7xx_ll_usb.c ****   uint32_t USBx_BASE = (uint32_t)USBx;
 3158              		.loc 1 1251 1 is_stmt 1 view -0
 3159              		.cfi_startproc
 3160              		@ args = 0, pretend = 0, frame = 0
 3161              		@ frame_needed = 0, uses_anonymous_args = 0
 3162              		@ link register save eliminated.
1252:Drivers/STM32H7xx_HAL_Driver/Src/stm32h7xx_ll_usb.c ****   uint32_t tmpreg;
 3163              		.loc 1 1252 3 view .LVU1014
1253:Drivers/STM32H7xx_HAL_Driver/Src/stm32h7xx_ll_usb.c **** 
 3164              		.loc 1 1253 3 view .LVU1015
1255:Drivers/STM32H7xx_HAL_Driver/Src/stm32h7xx_ll_usb.c ****   tmpreg &= USBx_DEVICE->DAINTMSK;
 3165              		.loc 1 1255 3 view .LVU1016
1255:Drivers/STM32H7xx_HAL_Driver/Src/stm32h7xx_ll_usb.c ****   tmpreg &= USBx_DEVICE->DAINTMSK;
 3166              		.loc 1 1255 11 is_stmt 0 view .LVU1017
 3167 0000 D0F81838 		ldr	r3, [r0, #2072]
1255:Drivers/STM32H7xx_HAL_Driver/Src/stm32h7xx_ll_usb.c ****   tmpreg &= USBx_DEVICE->DAINTMSK;
 3168              		.loc 1 1255 13 view .LVU1018
 3169 0004 00F50060 		add	r0, r0, #2048
 3170              	.LVL249:
1256:Drivers/STM32H7xx_HAL_Driver/Src/stm32h7xx_ll_usb.c **** 
 3171              		.loc 1 1256 3 is_stmt 1 view .LVU1019
1256:Drivers/STM32H7xx_HAL_Driver/Src/stm32h7xx_ll_usb.c **** 
 3172              		.loc 1 1256 24 is_stmt 0 view .LVU1020
 3173 0008 C069     		ldr	r0, [r0, #28]
 3174              	.LVL250:
1256:Drivers/STM32H7xx_HAL_Driver/Src/stm32h7xx_ll_usb.c **** 
 3175              		.loc 1 1256 10 view .LVU1021
 3176 000a 1840     		ands	r0, r0, r3
ARM GAS  /tmp/ccdP7LVA.s 			page 98


 3177              	.LVL251:
1258:Drivers/STM32H7xx_HAL_Driver/Src/stm32h7xx_ll_usb.c **** }
 3178              		.loc 1 1258 3 is_stmt 1 view .LVU1022
1259:Drivers/STM32H7xx_HAL_Driver/Src/stm32h7xx_ll_usb.c **** 
 3179              		.loc 1 1259 1 is_stmt 0 view .LVU1023
 3180 000c 80B2     		uxth	r0, r0
 3181              	.LVL252:
1259:Drivers/STM32H7xx_HAL_Driver/Src/stm32h7xx_ll_usb.c **** 
 3182              		.loc 1 1259 1 view .LVU1024
 3183 000e 7047     		bx	lr
 3184              		.cfi_endproc
 3185              	.LFE171:
 3187              		.section	.text.USB_ReadDevOutEPInterrupt,"ax",%progbits
 3188              		.align	1
 3189              		.global	USB_ReadDevOutEPInterrupt
 3190              		.syntax unified
 3191              		.thumb
 3192              		.thumb_func
 3193              		.fpu fpv5-d16
 3195              	USB_ReadDevOutEPInterrupt:
 3196              	.LVL253:
 3197              	.LFB172:
1269:Drivers/STM32H7xx_HAL_Driver/Src/stm32h7xx_ll_usb.c ****   uint32_t USBx_BASE = (uint32_t)USBx;
 3198              		.loc 1 1269 1 is_stmt 1 view -0
 3199              		.cfi_startproc
 3200              		@ args = 0, pretend = 0, frame = 0
 3201              		@ frame_needed = 0, uses_anonymous_args = 0
 3202              		@ link register save eliminated.
1270:Drivers/STM32H7xx_HAL_Driver/Src/stm32h7xx_ll_usb.c ****   uint32_t tmpreg;
 3203              		.loc 1 1270 3 view .LVU1026
1271:Drivers/STM32H7xx_HAL_Driver/Src/stm32h7xx_ll_usb.c **** 
 3204              		.loc 1 1271 3 view .LVU1027
1273:Drivers/STM32H7xx_HAL_Driver/Src/stm32h7xx_ll_usb.c ****   tmpreg &= USBx_DEVICE->DOEPMSK;
 3205              		.loc 1 1273 3 view .LVU1028
1273:Drivers/STM32H7xx_HAL_Driver/Src/stm32h7xx_ll_usb.c ****   tmpreg &= USBx_DEVICE->DOEPMSK;
 3206              		.loc 1 1273 13 is_stmt 0 view .LVU1029
 3207 0000 00EB4111 		add	r1, r0, r1, lsl #5
 3208              	.LVL254:
1273:Drivers/STM32H7xx_HAL_Driver/Src/stm32h7xx_ll_usb.c ****   tmpreg &= USBx_DEVICE->DOEPMSK;
 3209              		.loc 1 1273 11 view .LVU1030
 3210 0004 D1F8082B 		ldr	r2, [r1, #2824]
 3211              	.LVL255:
1274:Drivers/STM32H7xx_HAL_Driver/Src/stm32h7xx_ll_usb.c **** 
 3212              		.loc 1 1274 3 is_stmt 1 view .LVU1031
1274:Drivers/STM32H7xx_HAL_Driver/Src/stm32h7xx_ll_usb.c **** 
 3213              		.loc 1 1274 13 is_stmt 0 view .LVU1032
 3214 0008 00F50060 		add	r0, r0, #2048
 3215              	.LVL256:
1274:Drivers/STM32H7xx_HAL_Driver/Src/stm32h7xx_ll_usb.c **** 
 3216              		.loc 1 1274 24 view .LVU1033
 3217 000c 4069     		ldr	r0, [r0, #20]
 3218              	.LVL257:
1276:Drivers/STM32H7xx_HAL_Driver/Src/stm32h7xx_ll_usb.c **** }
 3219              		.loc 1 1276 3 is_stmt 1 view .LVU1034
1277:Drivers/STM32H7xx_HAL_Driver/Src/stm32h7xx_ll_usb.c **** 
 3220              		.loc 1 1277 1 is_stmt 0 view .LVU1035
 3221 000e 1040     		ands	r0, r0, r2
ARM GAS  /tmp/ccdP7LVA.s 			page 99


 3222              	.LVL258:
1277:Drivers/STM32H7xx_HAL_Driver/Src/stm32h7xx_ll_usb.c **** 
 3223              		.loc 1 1277 1 view .LVU1036
 3224 0010 7047     		bx	lr
 3225              		.cfi_endproc
 3226              	.LFE172:
 3228              		.section	.text.USB_ReadDevInEPInterrupt,"ax",%progbits
 3229              		.align	1
 3230              		.global	USB_ReadDevInEPInterrupt
 3231              		.syntax unified
 3232              		.thumb
 3233              		.thumb_func
 3234              		.fpu fpv5-d16
 3236              	USB_ReadDevInEPInterrupt:
 3237              	.LVL259:
 3238              	.LFB173:
1287:Drivers/STM32H7xx_HAL_Driver/Src/stm32h7xx_ll_usb.c ****   uint32_t USBx_BASE = (uint32_t)USBx;
 3239              		.loc 1 1287 1 is_stmt 1 view -0
 3240              		.cfi_startproc
 3241              		@ args = 0, pretend = 0, frame = 0
 3242              		@ frame_needed = 0, uses_anonymous_args = 0
 3243              		@ link register save eliminated.
1287:Drivers/STM32H7xx_HAL_Driver/Src/stm32h7xx_ll_usb.c ****   uint32_t USBx_BASE = (uint32_t)USBx;
 3244              		.loc 1 1287 1 is_stmt 0 view .LVU1038
 3245 0000 10B4     		push	{r4}
 3246              	.LCFI44:
 3247              		.cfi_def_cfa_offset 4
 3248              		.cfi_offset 4, -4
1288:Drivers/STM32H7xx_HAL_Driver/Src/stm32h7xx_ll_usb.c ****   uint32_t tmpreg;
 3249              		.loc 1 1288 3 is_stmt 1 view .LVU1039
 3250              	.LVL260:
1289:Drivers/STM32H7xx_HAL_Driver/Src/stm32h7xx_ll_usb.c ****   uint32_t msk;
 3251              		.loc 1 1289 3 view .LVU1040
1290:Drivers/STM32H7xx_HAL_Driver/Src/stm32h7xx_ll_usb.c ****   uint32_t emp;
 3252              		.loc 1 1290 3 view .LVU1041
1291:Drivers/STM32H7xx_HAL_Driver/Src/stm32h7xx_ll_usb.c **** 
 3253              		.loc 1 1291 3 view .LVU1042
1293:Drivers/STM32H7xx_HAL_Driver/Src/stm32h7xx_ll_usb.c ****   emp = USBx_DEVICE->DIEPEMPMSK;
 3254              		.loc 1 1293 3 view .LVU1043
1293:Drivers/STM32H7xx_HAL_Driver/Src/stm32h7xx_ll_usb.c ****   emp = USBx_DEVICE->DIEPEMPMSK;
 3255              		.loc 1 1293 7 is_stmt 0 view .LVU1044
 3256 0002 D0F81048 		ldr	r4, [r0, #2064]
 3257              	.LVL261:
1294:Drivers/STM32H7xx_HAL_Driver/Src/stm32h7xx_ll_usb.c ****   msk |= ((emp >> (epnum & EP_ADDR_MSK)) & 0x1U) << 7;
 3258              		.loc 1 1294 3 is_stmt 1 view .LVU1045
1294:Drivers/STM32H7xx_HAL_Driver/Src/stm32h7xx_ll_usb.c ****   msk |= ((emp >> (epnum & EP_ADDR_MSK)) & 0x1U) << 7;
 3259              		.loc 1 1294 7 is_stmt 0 view .LVU1046
 3260 0006 D0F83438 		ldr	r3, [r0, #2100]
 3261              	.LVL262:
1295:Drivers/STM32H7xx_HAL_Driver/Src/stm32h7xx_ll_usb.c ****   tmpreg = USBx_INEP((uint32_t)epnum)->DIEPINT & msk;
 3262              		.loc 1 1295 3 is_stmt 1 view .LVU1047
1295:Drivers/STM32H7xx_HAL_Driver/Src/stm32h7xx_ll_usb.c ****   tmpreg = USBx_INEP((uint32_t)epnum)->DIEPINT & msk;
 3263              		.loc 1 1295 26 is_stmt 0 view .LVU1048
 3264 000a 01F00F02 		and	r2, r1, #15
1295:Drivers/STM32H7xx_HAL_Driver/Src/stm32h7xx_ll_usb.c ****   tmpreg = USBx_INEP((uint32_t)epnum)->DIEPINT & msk;
 3265              		.loc 1 1295 16 view .LVU1049
 3266 000e D340     		lsrs	r3, r3, r2
ARM GAS  /tmp/ccdP7LVA.s 			page 100


 3267              	.LVL263:
1295:Drivers/STM32H7xx_HAL_Driver/Src/stm32h7xx_ll_usb.c ****   tmpreg = USBx_INEP((uint32_t)epnum)->DIEPINT & msk;
 3268              		.loc 1 1295 50 view .LVU1050
 3269 0010 DB01     		lsls	r3, r3, #7
 3270 0012 DBB2     		uxtb	r3, r3
1295:Drivers/STM32H7xx_HAL_Driver/Src/stm32h7xx_ll_usb.c ****   tmpreg = USBx_INEP((uint32_t)epnum)->DIEPINT & msk;
 3271              		.loc 1 1295 7 view .LVU1051
 3272 0014 2343     		orrs	r3, r3, r4
 3273              	.LVL264:
1296:Drivers/STM32H7xx_HAL_Driver/Src/stm32h7xx_ll_usb.c **** 
 3274              		.loc 1 1296 3 is_stmt 1 view .LVU1052
1296:Drivers/STM32H7xx_HAL_Driver/Src/stm32h7xx_ll_usb.c **** 
 3275              		.loc 1 1296 12 is_stmt 0 view .LVU1053
 3276 0016 00EB4110 		add	r0, r0, r1, lsl #5
 3277              	.LVL265:
1296:Drivers/STM32H7xx_HAL_Driver/Src/stm32h7xx_ll_usb.c **** 
 3278              		.loc 1 1296 12 view .LVU1054
 3279 001a 00F51060 		add	r0, r0, #2304
1296:Drivers/STM32H7xx_HAL_Driver/Src/stm32h7xx_ll_usb.c **** 
 3280              		.loc 1 1296 38 view .LVU1055
 3281 001e 8068     		ldr	r0, [r0, #8]
 3282              	.LVL266:
1298:Drivers/STM32H7xx_HAL_Driver/Src/stm32h7xx_ll_usb.c **** }
 3283              		.loc 1 1298 3 is_stmt 1 view .LVU1056
1299:Drivers/STM32H7xx_HAL_Driver/Src/stm32h7xx_ll_usb.c **** 
 3284              		.loc 1 1299 1 is_stmt 0 view .LVU1057
 3285 0020 1840     		ands	r0, r0, r3
 3286              	.LVL267:
1299:Drivers/STM32H7xx_HAL_Driver/Src/stm32h7xx_ll_usb.c **** 
 3287              		.loc 1 1299 1 view .LVU1058
 3288 0022 5DF8044B 		ldr	r4, [sp], #4
 3289              	.LCFI45:
 3290              		.cfi_restore 4
 3291              		.cfi_def_cfa_offset 0
 3292 0026 7047     		bx	lr
 3293              		.cfi_endproc
 3294              	.LFE173:
 3296              		.section	.text.USB_ClearInterrupts,"ax",%progbits
 3297              		.align	1
 3298              		.global	USB_ClearInterrupts
 3299              		.syntax unified
 3300              		.thumb
 3301              		.thumb_func
 3302              		.fpu fpv5-d16
 3304              	USB_ClearInterrupts:
 3305              	.LVL268:
 3306              	.LFB174:
1308:Drivers/STM32H7xx_HAL_Driver/Src/stm32h7xx_ll_usb.c ****   USBx->GINTSTS &= interrupt;
 3307              		.loc 1 1308 1 is_stmt 1 view -0
 3308              		.cfi_startproc
 3309              		@ args = 0, pretend = 0, frame = 0
 3310              		@ frame_needed = 0, uses_anonymous_args = 0
 3311              		@ link register save eliminated.
1309:Drivers/STM32H7xx_HAL_Driver/Src/stm32h7xx_ll_usb.c **** }
 3312              		.loc 1 1309 3 view .LVU1060
1309:Drivers/STM32H7xx_HAL_Driver/Src/stm32h7xx_ll_usb.c **** }
 3313              		.loc 1 1309 17 is_stmt 0 view .LVU1061
ARM GAS  /tmp/ccdP7LVA.s 			page 101


 3314 0000 4369     		ldr	r3, [r0, #20]
 3315 0002 0B40     		ands	r3, r3, r1
 3316 0004 4361     		str	r3, [r0, #20]
1310:Drivers/STM32H7xx_HAL_Driver/Src/stm32h7xx_ll_usb.c **** 
 3317              		.loc 1 1310 1 view .LVU1062
 3318 0006 7047     		bx	lr
 3319              		.cfi_endproc
 3320              	.LFE174:
 3322              		.section	.text.USB_GetMode,"ax",%progbits
 3323              		.align	1
 3324              		.global	USB_GetMode
 3325              		.syntax unified
 3326              		.thumb
 3327              		.thumb_func
 3328              		.fpu fpv5-d16
 3330              	USB_GetMode:
 3331              	.LVL269:
 3332              	.LFB175:
1321:Drivers/STM32H7xx_HAL_Driver/Src/stm32h7xx_ll_usb.c ****   return ((USBx->GINTSTS) & 0x1U);
 3333              		.loc 1 1321 1 is_stmt 1 view -0
 3334              		.cfi_startproc
 3335              		@ args = 0, pretend = 0, frame = 0
 3336              		@ frame_needed = 0, uses_anonymous_args = 0
 3337              		@ link register save eliminated.
1322:Drivers/STM32H7xx_HAL_Driver/Src/stm32h7xx_ll_usb.c **** }
 3338              		.loc 1 1322 3 view .LVU1064
1322:Drivers/STM32H7xx_HAL_Driver/Src/stm32h7xx_ll_usb.c **** }
 3339              		.loc 1 1322 16 is_stmt 0 view .LVU1065
 3340 0000 4069     		ldr	r0, [r0, #20]
 3341              	.LVL270:
1323:Drivers/STM32H7xx_HAL_Driver/Src/stm32h7xx_ll_usb.c **** 
 3342              		.loc 1 1323 1 view .LVU1066
 3343 0002 00F00100 		and	r0, r0, #1
 3344 0006 7047     		bx	lr
 3345              		.cfi_endproc
 3346              	.LFE175:
 3348              		.section	.text.USB_SetCurrentMode,"ax",%progbits
 3349              		.align	1
 3350              		.global	USB_SetCurrentMode
 3351              		.syntax unified
 3352              		.thumb
 3353              		.thumb_func
 3354              		.fpu fpv5-d16
 3356              	USB_SetCurrentMode:
 3357              	.LVL271:
 3358              	.LFB148:
 254:Drivers/STM32H7xx_HAL_Driver/Src/stm32h7xx_ll_usb.c ****   uint32_t ms = 0U;
 3359              		.loc 1 254 1 is_stmt 1 view -0
 3360              		.cfi_startproc
 3361              		@ args = 0, pretend = 0, frame = 0
 3362              		@ frame_needed = 0, uses_anonymous_args = 0
 254:Drivers/STM32H7xx_HAL_Driver/Src/stm32h7xx_ll_usb.c ****   uint32_t ms = 0U;
 3363              		.loc 1 254 1 is_stmt 0 view .LVU1068
 3364 0000 38B5     		push	{r3, r4, r5, lr}
 3365              	.LCFI46:
 3366              		.cfi_def_cfa_offset 16
 3367              		.cfi_offset 3, -16
ARM GAS  /tmp/ccdP7LVA.s 			page 102


 3368              		.cfi_offset 4, -12
 3369              		.cfi_offset 5, -8
 3370              		.cfi_offset 14, -4
 3371 0002 0546     		mov	r5, r0
 255:Drivers/STM32H7xx_HAL_Driver/Src/stm32h7xx_ll_usb.c **** 
 3372              		.loc 1 255 3 is_stmt 1 view .LVU1069
 3373              	.LVL272:
 257:Drivers/STM32H7xx_HAL_Driver/Src/stm32h7xx_ll_usb.c **** 
 3374              		.loc 1 257 3 view .LVU1070
 257:Drivers/STM32H7xx_HAL_Driver/Src/stm32h7xx_ll_usb.c **** 
 3375              		.loc 1 257 17 is_stmt 0 view .LVU1071
 3376 0004 C368     		ldr	r3, [r0, #12]
 3377 0006 23F0C043 		bic	r3, r3, #1610612736
 3378 000a C360     		str	r3, [r0, #12]
 259:Drivers/STM32H7xx_HAL_Driver/Src/stm32h7xx_ll_usb.c ****   {
 3379              		.loc 1 259 3 is_stmt 1 view .LVU1072
 259:Drivers/STM32H7xx_HAL_Driver/Src/stm32h7xx_ll_usb.c ****   {
 3380              		.loc 1 259 6 is_stmt 0 view .LVU1073
 3381 000c 0129     		cmp	r1, #1
 3382 000e 13D0     		beq	.L216
 269:Drivers/STM32H7xx_HAL_Driver/Src/stm32h7xx_ll_usb.c ****   {
 3383              		.loc 1 269 8 is_stmt 1 view .LVU1074
 269:Drivers/STM32H7xx_HAL_Driver/Src/stm32h7xx_ll_usb.c ****   {
 3384              		.loc 1 269 11 is_stmt 0 view .LVU1075
 3385 0010 19BB     		cbnz	r1, .L213
 271:Drivers/STM32H7xx_HAL_Driver/Src/stm32h7xx_ll_usb.c **** 
 3386              		.loc 1 271 5 is_stmt 1 view .LVU1076
 271:Drivers/STM32H7xx_HAL_Driver/Src/stm32h7xx_ll_usb.c **** 
 3387              		.loc 1 271 19 is_stmt 0 view .LVU1077
 3388 0012 C368     		ldr	r3, [r0, #12]
 3389 0014 43F08043 		orr	r3, r3, #1073741824
 3390 0018 C360     		str	r3, [r0, #12]
 255:Drivers/STM32H7xx_HAL_Driver/Src/stm32h7xx_ll_usb.c **** 
 3391              		.loc 1 255 12 view .LVU1078
 3392 001a 0024     		movs	r4, #0
 3393              	.LVL273:
 3394              	.L212:
 273:Drivers/STM32H7xx_HAL_Driver/Src/stm32h7xx_ll_usb.c ****     {
 3395              		.loc 1 273 5 is_stmt 1 discriminator 2 view .LVU1079
 275:Drivers/STM32H7xx_HAL_Driver/Src/stm32h7xx_ll_usb.c ****       ms += 10U;
 3396              		.loc 1 275 7 discriminator 2 view .LVU1080
 3397 001c 0A20     		movs	r0, #10
 3398 001e FFF7FEFF 		bl	HAL_Delay
 3399              	.LVL274:
 276:Drivers/STM32H7xx_HAL_Driver/Src/stm32h7xx_ll_usb.c ****     } while ((USB_GetMode(USBx) != (uint32_t)USB_DEVICE_MODE) && (ms < HAL_USB_CURRENT_MODE_MAX_DEL
 3400              		.loc 1 276 7 discriminator 2 view .LVU1081
 276:Drivers/STM32H7xx_HAL_Driver/Src/stm32h7xx_ll_usb.c ****     } while ((USB_GetMode(USBx) != (uint32_t)USB_DEVICE_MODE) && (ms < HAL_USB_CURRENT_MODE_MAX_DEL
 3401              		.loc 1 276 10 is_stmt 0 discriminator 2 view .LVU1082
 3402 0022 0A34     		adds	r4, r4, #10
 3403              	.LVL275:
 277:Drivers/STM32H7xx_HAL_Driver/Src/stm32h7xx_ll_usb.c ****   }
 3404              		.loc 1 277 13 is_stmt 1 discriminator 2 view .LVU1083
 277:Drivers/STM32H7xx_HAL_Driver/Src/stm32h7xx_ll_usb.c ****   }
 3405              		.loc 1 277 15 is_stmt 0 discriminator 2 view .LVU1084
 3406 0024 2846     		mov	r0, r5
 3407 0026 FFF7FEFF 		bl	USB_GetMode
 3408              	.LVL276:
ARM GAS  /tmp/ccdP7LVA.s 			page 103


 277:Drivers/STM32H7xx_HAL_Driver/Src/stm32h7xx_ll_usb.c ****   }
 3409              		.loc 1 277 5 discriminator 2 view .LVU1085
 3410 002a 08B1     		cbz	r0, .L209
 277:Drivers/STM32H7xx_HAL_Driver/Src/stm32h7xx_ll_usb.c ****   }
 3411              		.loc 1 277 63 discriminator 1 view .LVU1086
 3412 002c C72C     		cmp	r4, #199
 3413 002e F5D9     		bls	.L212
 3414              	.L209:
 284:Drivers/STM32H7xx_HAL_Driver/Src/stm32h7xx_ll_usb.c ****   {
 3415              		.loc 1 284 3 is_stmt 1 view .LVU1087
 284:Drivers/STM32H7xx_HAL_Driver/Src/stm32h7xx_ll_usb.c ****   {
 3416              		.loc 1 284 6 is_stmt 0 view .LVU1088
 3417 0030 C82C     		cmp	r4, #200
 3418 0032 14D0     		beq	.L214
 289:Drivers/STM32H7xx_HAL_Driver/Src/stm32h7xx_ll_usb.c **** }
 3419              		.loc 1 289 10 view .LVU1089
 3420 0034 0020     		movs	r0, #0
 3421              	.LVL277:
 3422              	.L211:
 290:Drivers/STM32H7xx_HAL_Driver/Src/stm32h7xx_ll_usb.c **** 
 3423              		.loc 1 290 1 view .LVU1090
 3424 0036 38BD     		pop	{r3, r4, r5, pc}
 3425              	.LVL278:
 3426              	.L216:
 261:Drivers/STM32H7xx_HAL_Driver/Src/stm32h7xx_ll_usb.c **** 
 3427              		.loc 1 261 5 is_stmt 1 view .LVU1091
 261:Drivers/STM32H7xx_HAL_Driver/Src/stm32h7xx_ll_usb.c **** 
 3428              		.loc 1 261 19 is_stmt 0 view .LVU1092
 3429 0038 C368     		ldr	r3, [r0, #12]
 3430 003a 43F00053 		orr	r3, r3, #536870912
 3431 003e C360     		str	r3, [r0, #12]
 255:Drivers/STM32H7xx_HAL_Driver/Src/stm32h7xx_ll_usb.c **** 
 3432              		.loc 1 255 12 view .LVU1093
 3433 0040 0024     		movs	r4, #0
 3434              	.LVL279:
 3435              	.L210:
 263:Drivers/STM32H7xx_HAL_Driver/Src/stm32h7xx_ll_usb.c ****     {
 3436              		.loc 1 263 5 is_stmt 1 discriminator 2 view .LVU1094
 265:Drivers/STM32H7xx_HAL_Driver/Src/stm32h7xx_ll_usb.c ****       ms += 10U;
 3437              		.loc 1 265 7 discriminator 2 view .LVU1095
 3438 0042 0A20     		movs	r0, #10
 3439 0044 FFF7FEFF 		bl	HAL_Delay
 3440              	.LVL280:
 266:Drivers/STM32H7xx_HAL_Driver/Src/stm32h7xx_ll_usb.c ****     } while ((USB_GetMode(USBx) != (uint32_t)USB_HOST_MODE) && (ms < HAL_USB_CURRENT_MODE_MAX_DELAY
 3441              		.loc 1 266 7 discriminator 2 view .LVU1096
 266:Drivers/STM32H7xx_HAL_Driver/Src/stm32h7xx_ll_usb.c ****     } while ((USB_GetMode(USBx) != (uint32_t)USB_HOST_MODE) && (ms < HAL_USB_CURRENT_MODE_MAX_DELAY
 3442              		.loc 1 266 10 is_stmt 0 discriminator 2 view .LVU1097
 3443 0048 0A34     		adds	r4, r4, #10
 3444              	.LVL281:
 267:Drivers/STM32H7xx_HAL_Driver/Src/stm32h7xx_ll_usb.c ****   }
 3445              		.loc 1 267 13 is_stmt 1 discriminator 2 view .LVU1098
 267:Drivers/STM32H7xx_HAL_Driver/Src/stm32h7xx_ll_usb.c ****   }
 3446              		.loc 1 267 15 is_stmt 0 discriminator 2 view .LVU1099
 3447 004a 2846     		mov	r0, r5
 3448 004c FFF7FEFF 		bl	USB_GetMode
 3449              	.LVL282:
 267:Drivers/STM32H7xx_HAL_Driver/Src/stm32h7xx_ll_usb.c ****   }
ARM GAS  /tmp/ccdP7LVA.s 			page 104


 3450              		.loc 1 267 5 discriminator 2 view .LVU1100
 3451 0050 0128     		cmp	r0, #1
 3452 0052 EDD0     		beq	.L209
 267:Drivers/STM32H7xx_HAL_Driver/Src/stm32h7xx_ll_usb.c ****   }
 3453              		.loc 1 267 61 discriminator 1 view .LVU1101
 3454 0054 C72C     		cmp	r4, #199
 3455 0056 F4D9     		bls	.L210
 3456 0058 EAE7     		b	.L209
 3457              	.LVL283:
 3458              	.L213:
 281:Drivers/STM32H7xx_HAL_Driver/Src/stm32h7xx_ll_usb.c ****   }
 3459              		.loc 1 281 12 view .LVU1102
 3460 005a 0120     		movs	r0, #1
 3461              	.LVL284:
 281:Drivers/STM32H7xx_HAL_Driver/Src/stm32h7xx_ll_usb.c ****   }
 3462              		.loc 1 281 12 view .LVU1103
 3463 005c EBE7     		b	.L211
 3464              	.LVL285:
 3465              	.L214:
 286:Drivers/STM32H7xx_HAL_Driver/Src/stm32h7xx_ll_usb.c ****   }
 3466              		.loc 1 286 12 view .LVU1104
 3467 005e 0120     		movs	r0, #1
 3468 0060 E9E7     		b	.L211
 3469              		.cfi_endproc
 3470              	.LFE148:
 3472              		.section	.text.USB_ActivateSetup,"ax",%progbits
 3473              		.align	1
 3474              		.global	USB_ActivateSetup
 3475              		.syntax unified
 3476              		.thumb
 3477              		.thumb_func
 3478              		.fpu fpv5-d16
 3480              	USB_ActivateSetup:
 3481              	.LVL286:
 3482              	.LFB176:
1331:Drivers/STM32H7xx_HAL_Driver/Src/stm32h7xx_ll_usb.c ****   uint32_t USBx_BASE = (uint32_t)USBx;
 3483              		.loc 1 1331 1 is_stmt 1 view -0
 3484              		.cfi_startproc
 3485              		@ args = 0, pretend = 0, frame = 0
 3486              		@ frame_needed = 0, uses_anonymous_args = 0
 3487              		@ link register save eliminated.
1332:Drivers/STM32H7xx_HAL_Driver/Src/stm32h7xx_ll_usb.c **** 
 3488              		.loc 1 1332 3 view .LVU1106
1335:Drivers/STM32H7xx_HAL_Driver/Src/stm32h7xx_ll_usb.c **** 
 3489              		.loc 1 1335 3 view .LVU1107
1335:Drivers/STM32H7xx_HAL_Driver/Src/stm32h7xx_ll_usb.c **** 
 3490              		.loc 1 1335 26 is_stmt 0 view .LVU1108
 3491 0000 D0F80029 		ldr	r2, [r0, #2304]
 3492 0004 054B     		ldr	r3, .L218
 3493 0006 1340     		ands	r3, r3, r2
 3494 0008 C0F80039 		str	r3, [r0, #2304]
1337:Drivers/STM32H7xx_HAL_Driver/Src/stm32h7xx_ll_usb.c **** 
 3495              		.loc 1 1337 3 is_stmt 1 view .LVU1109
1337:Drivers/STM32H7xx_HAL_Driver/Src/stm32h7xx_ll_usb.c **** 
 3496              		.loc 1 1337 21 is_stmt 0 view .LVU1110
 3497 000c D0F80438 		ldr	r3, [r0, #2052]
 3498 0010 43F48073 		orr	r3, r3, #256
ARM GAS  /tmp/ccdP7LVA.s 			page 105


 3499 0014 C0F80438 		str	r3, [r0, #2052]
1339:Drivers/STM32H7xx_HAL_Driver/Src/stm32h7xx_ll_usb.c **** }
 3500              		.loc 1 1339 3 is_stmt 1 view .LVU1111
1340:Drivers/STM32H7xx_HAL_Driver/Src/stm32h7xx_ll_usb.c **** 
 3501              		.loc 1 1340 1 is_stmt 0 view .LVU1112
 3502 0018 0020     		movs	r0, #0
 3503              	.LVL287:
1340:Drivers/STM32H7xx_HAL_Driver/Src/stm32h7xx_ll_usb.c **** 
 3504              		.loc 1 1340 1 view .LVU1113
 3505 001a 7047     		bx	lr
 3506              	.L219:
 3507              		.align	2
 3508              	.L218:
 3509 001c 00F8FFFF 		.word	-2048
 3510              		.cfi_endproc
 3511              	.LFE176:
 3513              		.section	.text.USB_EP0_OutStart,"ax",%progbits
 3514              		.align	1
 3515              		.global	USB_EP0_OutStart
 3516              		.syntax unified
 3517              		.thumb
 3518              		.thumb_func
 3519              		.fpu fpv5-d16
 3521              	USB_EP0_OutStart:
 3522              	.LVL288:
 3523              	.LFB177:
1353:Drivers/STM32H7xx_HAL_Driver/Src/stm32h7xx_ll_usb.c ****   uint32_t USBx_BASE = (uint32_t)USBx;
 3524              		.loc 1 1353 1 is_stmt 1 view -0
 3525              		.cfi_startproc
 3526              		@ args = 0, pretend = 0, frame = 0
 3527              		@ frame_needed = 0, uses_anonymous_args = 0
 3528              		@ link register save eliminated.
1353:Drivers/STM32H7xx_HAL_Driver/Src/stm32h7xx_ll_usb.c ****   uint32_t USBx_BASE = (uint32_t)USBx;
 3529              		.loc 1 1353 1 is_stmt 0 view .LVU1115
 3530 0000 10B4     		push	{r4}
 3531              	.LCFI47:
 3532              		.cfi_def_cfa_offset 4
 3533              		.cfi_offset 4, -4
1354:Drivers/STM32H7xx_HAL_Driver/Src/stm32h7xx_ll_usb.c ****   uint32_t gSNPSiD = *(__IO const uint32_t *)(&USBx->CID + 0x1U);
 3534              		.loc 1 1354 3 is_stmt 1 view .LVU1116
 3535              	.LVL289:
1355:Drivers/STM32H7xx_HAL_Driver/Src/stm32h7xx_ll_usb.c **** 
 3536              		.loc 1 1355 3 view .LVU1117
1355:Drivers/STM32H7xx_HAL_Driver/Src/stm32h7xx_ll_usb.c **** 
 3537              		.loc 1 1355 12 is_stmt 0 view .LVU1118
 3538 0002 046C     		ldr	r4, [r0, #64]
 3539              	.LVL290:
1357:Drivers/STM32H7xx_HAL_Driver/Src/stm32h7xx_ll_usb.c ****   {
 3540              		.loc 1 1357 3 is_stmt 1 view .LVU1119
1357:Drivers/STM32H7xx_HAL_Driver/Src/stm32h7xx_ll_usb.c ****   {
 3541              		.loc 1 1357 6 is_stmt 0 view .LVU1120
 3542 0004 154B     		ldr	r3, .L225
 3543 0006 9C42     		cmp	r4, r3
 3544 0008 03D9     		bls	.L221
1359:Drivers/STM32H7xx_HAL_Driver/Src/stm32h7xx_ll_usb.c ****     {
 3545              		.loc 1 1359 5 is_stmt 1 view .LVU1121
1359:Drivers/STM32H7xx_HAL_Driver/Src/stm32h7xx_ll_usb.c ****     {
ARM GAS  /tmp/ccdP7LVA.s 			page 106


 3546              		.loc 1 1359 24 is_stmt 0 view .LVU1122
 3547 000a D0F8003B 		ldr	r3, [r0, #2816]
1359:Drivers/STM32H7xx_HAL_Driver/Src/stm32h7xx_ll_usb.c ****     {
 3548              		.loc 1 1359 8 view .LVU1123
 3549 000e 002B     		cmp	r3, #0
 3550 0010 16DB     		blt	.L222
 3551              	.L221:
1365:Drivers/STM32H7xx_HAL_Driver/Src/stm32h7xx_ll_usb.c ****   USBx_OUTEP(0U)->DOEPTSIZ |= (USB_OTG_DOEPTSIZ_PKTCNT & (1U << 19));
 3552              		.loc 1 1365 3 is_stmt 1 view .LVU1124
1365:Drivers/STM32H7xx_HAL_Driver/Src/stm32h7xx_ll_usb.c ****   USBx_OUTEP(0U)->DOEPTSIZ |= (USB_OTG_DOEPTSIZ_PKTCNT & (1U << 19));
 3553              		.loc 1 1365 28 is_stmt 0 view .LVU1125
 3554 0012 0024     		movs	r4, #0
 3555              	.LVL291:
1365:Drivers/STM32H7xx_HAL_Driver/Src/stm32h7xx_ll_usb.c ****   USBx_OUTEP(0U)->DOEPTSIZ |= (USB_OTG_DOEPTSIZ_PKTCNT & (1U << 19));
 3556              		.loc 1 1365 28 view .LVU1126
 3557 0014 C0F8104B 		str	r4, [r0, #2832]
1366:Drivers/STM32H7xx_HAL_Driver/Src/stm32h7xx_ll_usb.c ****   USBx_OUTEP(0U)->DOEPTSIZ |= (3U * 8U);
 3558              		.loc 1 1366 3 is_stmt 1 view .LVU1127
1366:Drivers/STM32H7xx_HAL_Driver/Src/stm32h7xx_ll_usb.c ****   USBx_OUTEP(0U)->DOEPTSIZ |= (3U * 8U);
 3559              		.loc 1 1366 28 is_stmt 0 view .LVU1128
 3560 0018 D0F8104B 		ldr	r4, [r0, #2832]
 3561 001c 44F40024 		orr	r4, r4, #524288
 3562 0020 C0F8104B 		str	r4, [r0, #2832]
1367:Drivers/STM32H7xx_HAL_Driver/Src/stm32h7xx_ll_usb.c ****   USBx_OUTEP(0U)->DOEPTSIZ |=  USB_OTG_DOEPTSIZ_STUPCNT;
 3563              		.loc 1 1367 3 is_stmt 1 view .LVU1129
1367:Drivers/STM32H7xx_HAL_Driver/Src/stm32h7xx_ll_usb.c ****   USBx_OUTEP(0U)->DOEPTSIZ |=  USB_OTG_DOEPTSIZ_STUPCNT;
 3564              		.loc 1 1367 28 is_stmt 0 view .LVU1130
 3565 0024 D0F8104B 		ldr	r4, [r0, #2832]
 3566 0028 44F01804 		orr	r4, r4, #24
 3567 002c C0F8104B 		str	r4, [r0, #2832]
1368:Drivers/STM32H7xx_HAL_Driver/Src/stm32h7xx_ll_usb.c **** 
 3568              		.loc 1 1368 3 is_stmt 1 view .LVU1131
1368:Drivers/STM32H7xx_HAL_Driver/Src/stm32h7xx_ll_usb.c **** 
 3569              		.loc 1 1368 28 is_stmt 0 view .LVU1132
 3570 0030 D0F8104B 		ldr	r4, [r0, #2832]
 3571 0034 44F0C044 		orr	r4, r4, #1610612736
 3572 0038 C0F8104B 		str	r4, [r0, #2832]
1370:Drivers/STM32H7xx_HAL_Driver/Src/stm32h7xx_ll_usb.c ****   {
 3573              		.loc 1 1370 3 is_stmt 1 view .LVU1133
1370:Drivers/STM32H7xx_HAL_Driver/Src/stm32h7xx_ll_usb.c ****   {
 3574              		.loc 1 1370 6 is_stmt 0 view .LVU1134
 3575 003c 0129     		cmp	r1, #1
 3576 003e 03D0     		beq	.L224
 3577              	.L222:
1378:Drivers/STM32H7xx_HAL_Driver/Src/stm32h7xx_ll_usb.c **** 
 3578              		.loc 1 1378 1 view .LVU1135
 3579 0040 0020     		movs	r0, #0
 3580              	.LVL292:
1378:Drivers/STM32H7xx_HAL_Driver/Src/stm32h7xx_ll_usb.c **** 
 3581              		.loc 1 1378 1 view .LVU1136
 3582 0042 5DF8044B 		ldr	r4, [sp], #4
 3583              	.LCFI48:
 3584              		.cfi_remember_state
 3585              		.cfi_restore 4
 3586              		.cfi_def_cfa_offset 0
 3587 0046 7047     		bx	lr
 3588              	.LVL293:
ARM GAS  /tmp/ccdP7LVA.s 			page 107


 3589              	.L224:
 3590              	.LCFI49:
 3591              		.cfi_restore_state
1372:Drivers/STM32H7xx_HAL_Driver/Src/stm32h7xx_ll_usb.c ****     /* EP enable */
 3592              		.loc 1 1372 5 is_stmt 1 view .LVU1137
1372:Drivers/STM32H7xx_HAL_Driver/Src/stm32h7xx_ll_usb.c ****     /* EP enable */
 3593              		.loc 1 1372 29 is_stmt 0 view .LVU1138
 3594 0048 C0F8142B 		str	r2, [r0, #2836]
1374:Drivers/STM32H7xx_HAL_Driver/Src/stm32h7xx_ll_usb.c ****   }
 3595              		.loc 1 1374 5 is_stmt 1 view .LVU1139
1374:Drivers/STM32H7xx_HAL_Driver/Src/stm32h7xx_ll_usb.c ****   }
 3596              		.loc 1 1374 29 is_stmt 0 view .LVU1140
 3597 004c D0F8003B 		ldr	r3, [r0, #2816]
 3598 0050 43F08023 		orr	r3, r3, #-2147450880
 3599 0054 C0F8003B 		str	r3, [r0, #2816]
 3600 0058 F2E7     		b	.L222
 3601              	.L226:
 3602 005a 00BF     		.align	2
 3603              	.L225:
 3604 005c 0A30544F 		.word	1330917386
 3605              		.cfi_endproc
 3606              	.LFE177:
 3608              		.section	.text.USB_HostInit,"ax",%progbits
 3609              		.align	1
 3610              		.global	USB_HostInit
 3611              		.syntax unified
 3612              		.thumb
 3613              		.thumb_func
 3614              		.fpu fpv5-d16
 3616              	USB_HostInit:
 3617              	.LVL294:
 3618              	.LFB179:
1416:Drivers/STM32H7xx_HAL_Driver/Src/stm32h7xx_ll_usb.c **** 
1417:Drivers/STM32H7xx_HAL_Driver/Src/stm32h7xx_ll_usb.c **** /**
1418:Drivers/STM32H7xx_HAL_Driver/Src/stm32h7xx_ll_usb.c ****   * @brief  USB_HostInit : Initializes the USB OTG controller registers
1419:Drivers/STM32H7xx_HAL_Driver/Src/stm32h7xx_ll_usb.c ****   *         for Host mode
1420:Drivers/STM32H7xx_HAL_Driver/Src/stm32h7xx_ll_usb.c ****   * @param  USBx  Selected device
1421:Drivers/STM32H7xx_HAL_Driver/Src/stm32h7xx_ll_usb.c ****   * @param  cfg   pointer to a USB_OTG_CfgTypeDef structure that contains
1422:Drivers/STM32H7xx_HAL_Driver/Src/stm32h7xx_ll_usb.c ****   *         the configuration information for the specified USBx peripheral.
1423:Drivers/STM32H7xx_HAL_Driver/Src/stm32h7xx_ll_usb.c ****   * @retval HAL status
1424:Drivers/STM32H7xx_HAL_Driver/Src/stm32h7xx_ll_usb.c ****   */
1425:Drivers/STM32H7xx_HAL_Driver/Src/stm32h7xx_ll_usb.c **** HAL_StatusTypeDef USB_HostInit(USB_OTG_GlobalTypeDef *USBx, USB_OTG_CfgTypeDef cfg)
1426:Drivers/STM32H7xx_HAL_Driver/Src/stm32h7xx_ll_usb.c **** {
 3619              		.loc 1 1426 1 is_stmt 1 view -0
 3620              		.cfi_startproc
 3621              		@ args = 20, pretend = 16, frame = 0
 3622              		@ frame_needed = 0, uses_anonymous_args = 0
 3623              		.loc 1 1426 1 is_stmt 0 view .LVU1142
 3624 0000 84B0     		sub	sp, sp, #16
 3625              	.LCFI50:
 3626              		.cfi_def_cfa_offset 16
 3627 0002 70B5     		push	{r4, r5, r6, lr}
 3628              	.LCFI51:
 3629              		.cfi_def_cfa_offset 32
 3630              		.cfi_offset 4, -32
 3631              		.cfi_offset 5, -28
 3632              		.cfi_offset 6, -24
ARM GAS  /tmp/ccdP7LVA.s 			page 108


 3633              		.cfi_offset 14, -20
 3634 0004 0446     		mov	r4, r0
 3635 0006 05A8     		add	r0, sp, #20
 3636              	.LVL295:
 3637              		.loc 1 1426 1 view .LVU1143
 3638 0008 80E80E00 		stm	r0, {r1, r2, r3}
1427:Drivers/STM32H7xx_HAL_Driver/Src/stm32h7xx_ll_usb.c ****   HAL_StatusTypeDef ret = HAL_OK;
 3639              		.loc 1 1427 3 is_stmt 1 view .LVU1144
 3640              	.LVL296:
1428:Drivers/STM32H7xx_HAL_Driver/Src/stm32h7xx_ll_usb.c ****   uint32_t USBx_BASE = (uint32_t)USBx;
 3641              		.loc 1 1428 3 view .LVU1145
 3642              		.loc 1 1428 12 is_stmt 0 view .LVU1146
 3643 000c 2546     		mov	r5, r4
 3644              	.LVL297:
1429:Drivers/STM32H7xx_HAL_Driver/Src/stm32h7xx_ll_usb.c ****   uint32_t i;
 3645              		.loc 1 1429 3 is_stmt 1 view .LVU1147
1430:Drivers/STM32H7xx_HAL_Driver/Src/stm32h7xx_ll_usb.c **** 
1431:Drivers/STM32H7xx_HAL_Driver/Src/stm32h7xx_ll_usb.c ****   /* Restart the Phy Clock */
1432:Drivers/STM32H7xx_HAL_Driver/Src/stm32h7xx_ll_usb.c ****   USBx_PCGCCTL = 0U;
 3646              		.loc 1 1432 3 view .LVU1148
 3647              		.loc 1 1432 16 is_stmt 0 view .LVU1149
 3648 000e 0023     		movs	r3, #0
 3649 0010 C4F8003E 		str	r3, [r4, #3584]
1433:Drivers/STM32H7xx_HAL_Driver/Src/stm32h7xx_ll_usb.c **** 
1434:Drivers/STM32H7xx_HAL_Driver/Src/stm32h7xx_ll_usb.c ****   /* Disable VBUS sensing */
1435:Drivers/STM32H7xx_HAL_Driver/Src/stm32h7xx_ll_usb.c ****   USBx->GCCFG &= ~(USB_OTG_GCCFG_VBDEN);
 3650              		.loc 1 1435 3 is_stmt 1 view .LVU1150
 3651              		.loc 1 1435 15 is_stmt 0 view .LVU1151
 3652 0014 A36B     		ldr	r3, [r4, #56]
 3653 0016 23F40013 		bic	r3, r3, #2097152
 3654 001a A363     		str	r3, [r4, #56]
1436:Drivers/STM32H7xx_HAL_Driver/Src/stm32h7xx_ll_usb.c **** 
1437:Drivers/STM32H7xx_HAL_Driver/Src/stm32h7xx_ll_usb.c ****   /* Disable Battery chargin detector */
1438:Drivers/STM32H7xx_HAL_Driver/Src/stm32h7xx_ll_usb.c ****   USBx->GCCFG &= ~(USB_OTG_GCCFG_BCDEN);
 3655              		.loc 1 1438 3 is_stmt 1 view .LVU1152
 3656              		.loc 1 1438 15 is_stmt 0 view .LVU1153
 3657 001c A36B     		ldr	r3, [r4, #56]
 3658 001e 23F40033 		bic	r3, r3, #131072
 3659 0022 A363     		str	r3, [r4, #56]
1439:Drivers/STM32H7xx_HAL_Driver/Src/stm32h7xx_ll_usb.c **** 
1440:Drivers/STM32H7xx_HAL_Driver/Src/stm32h7xx_ll_usb.c **** 
1441:Drivers/STM32H7xx_HAL_Driver/Src/stm32h7xx_ll_usb.c ****   if ((USBx->GUSBCFG & USB_OTG_GUSBCFG_PHYSEL) == 0U)
 3660              		.loc 1 1441 3 is_stmt 1 view .LVU1154
 3661              		.loc 1 1441 12 is_stmt 0 view .LVU1155
 3662 0024 E368     		ldr	r3, [r4, #12]
 3663              		.loc 1 1441 6 view .LVU1156
 3664 0026 13F0400F 		tst	r3, #64
 3665 002a 11D1     		bne	.L228
1442:Drivers/STM32H7xx_HAL_Driver/Src/stm32h7xx_ll_usb.c ****   {
1443:Drivers/STM32H7xx_HAL_Driver/Src/stm32h7xx_ll_usb.c ****     if (cfg.speed == USBH_FSLS_SPEED)
 3666              		.loc 1 1443 5 is_stmt 1 view .LVU1157
 3667              		.loc 1 1443 12 is_stmt 0 view .LVU1158
 3668 002c 9DF81730 		ldrb	r3, [sp, #23]	@ zero_extendqisi2
 3669              		.loc 1 1443 8 view .LVU1159
 3670 0030 012B     		cmp	r3, #1
 3671 0032 06D0     		beq	.L239
1444:Drivers/STM32H7xx_HAL_Driver/Src/stm32h7xx_ll_usb.c ****     {
ARM GAS  /tmp/ccdP7LVA.s 			page 109


1445:Drivers/STM32H7xx_HAL_Driver/Src/stm32h7xx_ll_usb.c ****       /* Force Device Enumeration to FS/LS mode only */
1446:Drivers/STM32H7xx_HAL_Driver/Src/stm32h7xx_ll_usb.c ****       USBx_HOST->HCFG |= USB_OTG_HCFG_FSLSS;
1447:Drivers/STM32H7xx_HAL_Driver/Src/stm32h7xx_ll_usb.c ****     }
1448:Drivers/STM32H7xx_HAL_Driver/Src/stm32h7xx_ll_usb.c ****     else
1449:Drivers/STM32H7xx_HAL_Driver/Src/stm32h7xx_ll_usb.c ****     {
1450:Drivers/STM32H7xx_HAL_Driver/Src/stm32h7xx_ll_usb.c ****       /* Set default Max speed support */
1451:Drivers/STM32H7xx_HAL_Driver/Src/stm32h7xx_ll_usb.c ****       USBx_HOST->HCFG &= ~(USB_OTG_HCFG_FSLSS);
 3672              		.loc 1 1451 7 is_stmt 1 view .LVU1160
 3673              		.loc 1 1451 23 is_stmt 0 view .LVU1161
 3674 0034 D4F80034 		ldr	r3, [r4, #1024]
 3675 0038 23F00403 		bic	r3, r3, #4
 3676 003c C4F80034 		str	r3, [r4, #1024]
 3677 0040 0CE0     		b	.L230
 3678              	.L239:
1446:Drivers/STM32H7xx_HAL_Driver/Src/stm32h7xx_ll_usb.c ****     }
 3679              		.loc 1 1446 7 is_stmt 1 view .LVU1162
1446:Drivers/STM32H7xx_HAL_Driver/Src/stm32h7xx_ll_usb.c ****     }
 3680              		.loc 1 1446 23 is_stmt 0 view .LVU1163
 3681 0042 D4F80034 		ldr	r3, [r4, #1024]
 3682 0046 43F00403 		orr	r3, r3, #4
 3683 004a C4F80034 		str	r3, [r4, #1024]
 3684 004e 05E0     		b	.L230
 3685              	.L228:
1452:Drivers/STM32H7xx_HAL_Driver/Src/stm32h7xx_ll_usb.c ****     }
1453:Drivers/STM32H7xx_HAL_Driver/Src/stm32h7xx_ll_usb.c ****   }
1454:Drivers/STM32H7xx_HAL_Driver/Src/stm32h7xx_ll_usb.c ****   else
1455:Drivers/STM32H7xx_HAL_Driver/Src/stm32h7xx_ll_usb.c ****   {
1456:Drivers/STM32H7xx_HAL_Driver/Src/stm32h7xx_ll_usb.c ****     /* Set default Max speed support */
1457:Drivers/STM32H7xx_HAL_Driver/Src/stm32h7xx_ll_usb.c ****     USBx_HOST->HCFG &= ~(USB_OTG_HCFG_FSLSS);
 3686              		.loc 1 1457 5 is_stmt 1 view .LVU1164
 3687              		.loc 1 1457 21 is_stmt 0 view .LVU1165
 3688 0050 D4F80034 		ldr	r3, [r4, #1024]
 3689 0054 23F00403 		bic	r3, r3, #4
 3690 0058 C4F80034 		str	r3, [r4, #1024]
 3691              	.L230:
1458:Drivers/STM32H7xx_HAL_Driver/Src/stm32h7xx_ll_usb.c ****   }
1459:Drivers/STM32H7xx_HAL_Driver/Src/stm32h7xx_ll_usb.c **** 
1460:Drivers/STM32H7xx_HAL_Driver/Src/stm32h7xx_ll_usb.c ****   /* Make sure the FIFOs are flushed. */
1461:Drivers/STM32H7xx_HAL_Driver/Src/stm32h7xx_ll_usb.c ****   if (USB_FlushTxFifo(USBx, 0x10U) != HAL_OK) /* all Tx FIFOs */
 3692              		.loc 1 1461 3 is_stmt 1 view .LVU1166
 3693              		.loc 1 1461 7 is_stmt 0 view .LVU1167
 3694 005c 1021     		movs	r1, #16
 3695 005e 2046     		mov	r0, r4
 3696 0060 FFF7FEFF 		bl	USB_FlushTxFifo
 3697              	.LVL298:
 3698              		.loc 1 1461 6 view .LVU1168
 3699 0064 0646     		mov	r6, r0
 3700 0066 00B1     		cbz	r0, .L231
1462:Drivers/STM32H7xx_HAL_Driver/Src/stm32h7xx_ll_usb.c ****   {
1463:Drivers/STM32H7xx_HAL_Driver/Src/stm32h7xx_ll_usb.c ****     ret = HAL_ERROR;
 3701              		.loc 1 1463 9 view .LVU1169
 3702 0068 0126     		movs	r6, #1
 3703              	.L231:
 3704              	.LVL299:
1464:Drivers/STM32H7xx_HAL_Driver/Src/stm32h7xx_ll_usb.c ****   }
1465:Drivers/STM32H7xx_HAL_Driver/Src/stm32h7xx_ll_usb.c **** 
1466:Drivers/STM32H7xx_HAL_Driver/Src/stm32h7xx_ll_usb.c ****   if (USB_FlushRxFifo(USBx) != HAL_OK)
ARM GAS  /tmp/ccdP7LVA.s 			page 110


 3705              		.loc 1 1466 3 is_stmt 1 view .LVU1170
 3706              		.loc 1 1466 7 is_stmt 0 view .LVU1171
 3707 006a 2046     		mov	r0, r4
 3708 006c FFF7FEFF 		bl	USB_FlushRxFifo
 3709              	.LVL300:
 3710              		.loc 1 1466 6 view .LVU1172
 3711 0070 00B1     		cbz	r0, .L232
1467:Drivers/STM32H7xx_HAL_Driver/Src/stm32h7xx_ll_usb.c ****   {
1468:Drivers/STM32H7xx_HAL_Driver/Src/stm32h7xx_ll_usb.c ****     ret = HAL_ERROR;
 3712              		.loc 1 1468 9 view .LVU1173
 3713 0072 0126     		movs	r6, #1
 3714              	.LVL301:
 3715              	.L232:
1469:Drivers/STM32H7xx_HAL_Driver/Src/stm32h7xx_ll_usb.c ****   }
1470:Drivers/STM32H7xx_HAL_Driver/Src/stm32h7xx_ll_usb.c **** 
1471:Drivers/STM32H7xx_HAL_Driver/Src/stm32h7xx_ll_usb.c ****   /* Clear all pending HC Interrupts */
1472:Drivers/STM32H7xx_HAL_Driver/Src/stm32h7xx_ll_usb.c ****   for (i = 0U; i < cfg.Host_channels; i++)
 3716              		.loc 1 1472 3 is_stmt 1 view .LVU1174
 3717              		.loc 1 1472 10 is_stmt 0 view .LVU1175
 3718 0074 0022     		movs	r2, #0
 3719              	.LVL302:
 3720              	.L233:
 3721              		.loc 1 1472 16 is_stmt 1 discriminator 1 view .LVU1176
 3722              		.loc 1 1472 23 is_stmt 0 discriminator 1 view .LVU1177
 3723 0076 9DF81530 		ldrb	r3, [sp, #21]	@ zero_extendqisi2
 3724              		.loc 1 1472 3 discriminator 1 view .LVU1178
 3725 007a 9342     		cmp	r3, r2
 3726 007c 0AD9     		bls	.L240
1473:Drivers/STM32H7xx_HAL_Driver/Src/stm32h7xx_ll_usb.c ****   {
1474:Drivers/STM32H7xx_HAL_Driver/Src/stm32h7xx_ll_usb.c ****     USBx_HC(i)->HCINT = CLEAR_INTERRUPT_MASK;
 3727              		.loc 1 1474 5 is_stmt 1 discriminator 3 view .LVU1179
 3728 007e 05EB4213 		add	r3, r5, r2, lsl #5
 3729              		.loc 1 1474 23 is_stmt 0 discriminator 3 view .LVU1180
 3730 0082 4FF0FF31 		mov	r1, #-1
 3731 0086 C3F80815 		str	r1, [r3, #1288]
1475:Drivers/STM32H7xx_HAL_Driver/Src/stm32h7xx_ll_usb.c ****     USBx_HC(i)->HCINTMSK = 0U;
 3732              		.loc 1 1475 5 is_stmt 1 discriminator 3 view .LVU1181
 3733              		.loc 1 1475 26 is_stmt 0 discriminator 3 view .LVU1182
 3734 008a 0021     		movs	r1, #0
 3735 008c C3F80C15 		str	r1, [r3, #1292]
1472:Drivers/STM32H7xx_HAL_Driver/Src/stm32h7xx_ll_usb.c ****   {
 3736              		.loc 1 1472 39 is_stmt 1 discriminator 3 view .LVU1183
1472:Drivers/STM32H7xx_HAL_Driver/Src/stm32h7xx_ll_usb.c ****   {
 3737              		.loc 1 1472 40 is_stmt 0 discriminator 3 view .LVU1184
 3738 0090 0132     		adds	r2, r2, #1
 3739              	.LVL303:
1472:Drivers/STM32H7xx_HAL_Driver/Src/stm32h7xx_ll_usb.c ****   {
 3740              		.loc 1 1472 40 discriminator 3 view .LVU1185
 3741 0092 F0E7     		b	.L233
 3742              	.L240:
1476:Drivers/STM32H7xx_HAL_Driver/Src/stm32h7xx_ll_usb.c ****   }
1477:Drivers/STM32H7xx_HAL_Driver/Src/stm32h7xx_ll_usb.c **** 
1478:Drivers/STM32H7xx_HAL_Driver/Src/stm32h7xx_ll_usb.c ****   /* Disable all interrupts. */
1479:Drivers/STM32H7xx_HAL_Driver/Src/stm32h7xx_ll_usb.c ****   USBx->GINTMSK = 0U;
 3743              		.loc 1 1479 3 is_stmt 1 view .LVU1186
 3744              		.loc 1 1479 17 is_stmt 0 view .LVU1187
 3745 0094 0023     		movs	r3, #0
ARM GAS  /tmp/ccdP7LVA.s 			page 111


 3746 0096 A361     		str	r3, [r4, #24]
1480:Drivers/STM32H7xx_HAL_Driver/Src/stm32h7xx_ll_usb.c **** 
1481:Drivers/STM32H7xx_HAL_Driver/Src/stm32h7xx_ll_usb.c ****   /* Clear any pending interrupts */
1482:Drivers/STM32H7xx_HAL_Driver/Src/stm32h7xx_ll_usb.c ****   USBx->GINTSTS = CLEAR_INTERRUPT_MASK;
 3747              		.loc 1 1482 3 is_stmt 1 view .LVU1188
 3748              		.loc 1 1482 17 is_stmt 0 view .LVU1189
 3749 0098 4FF0FF33 		mov	r3, #-1
 3750 009c 6361     		str	r3, [r4, #20]
1483:Drivers/STM32H7xx_HAL_Driver/Src/stm32h7xx_ll_usb.c ****   /* set Rx FIFO size */
1484:Drivers/STM32H7xx_HAL_Driver/Src/stm32h7xx_ll_usb.c ****   USBx->GRXFSIZ  = 0x200U;
 3751              		.loc 1 1484 3 is_stmt 1 view .LVU1190
 3752              		.loc 1 1484 18 is_stmt 0 view .LVU1191
 3753 009e 4FF40073 		mov	r3, #512
 3754 00a2 6362     		str	r3, [r4, #36]
1485:Drivers/STM32H7xx_HAL_Driver/Src/stm32h7xx_ll_usb.c ****   USBx->DIEPTXF0_HNPTXFSIZ = (uint32_t)(((0x100U << 16) & USB_OTG_NPTXFD) | 0x200U);
 3755              		.loc 1 1485 3 is_stmt 1 view .LVU1192
 3756              		.loc 1 1485 28 is_stmt 0 view .LVU1193
 3757 00a4 03F18073 		add	r3, r3, #16777216
 3758 00a8 A362     		str	r3, [r4, #40]
1486:Drivers/STM32H7xx_HAL_Driver/Src/stm32h7xx_ll_usb.c ****   USBx->HPTXFSIZ = (uint32_t)(((0xE0U << 16) & USB_OTG_HPTXFSIZ_PTXFD) | 0x300U);
 3759              		.loc 1 1486 3 is_stmt 1 view .LVU1194
 3760              		.loc 1 1486 18 is_stmt 0 view .LVU1195
 3761 00aa 094B     		ldr	r3, .L241
 3762 00ac C4F80031 		str	r3, [r4, #256]
1487:Drivers/STM32H7xx_HAL_Driver/Src/stm32h7xx_ll_usb.c **** 
1488:Drivers/STM32H7xx_HAL_Driver/Src/stm32h7xx_ll_usb.c ****   /* Enable the common interrupts */
1489:Drivers/STM32H7xx_HAL_Driver/Src/stm32h7xx_ll_usb.c ****   if (cfg.dma_enable == 0U)
 3763              		.loc 1 1489 3 is_stmt 1 view .LVU1196
 3764              		.loc 1 1489 10 is_stmt 0 view .LVU1197
 3765 00b0 9DF81630 		ldrb	r3, [sp, #22]	@ zero_extendqisi2
 3766              		.loc 1 1489 6 view .LVU1198
 3767 00b4 1BB9     		cbnz	r3, .L235
1490:Drivers/STM32H7xx_HAL_Driver/Src/stm32h7xx_ll_usb.c ****   {
1491:Drivers/STM32H7xx_HAL_Driver/Src/stm32h7xx_ll_usb.c ****     USBx->GINTMSK |= USB_OTG_GINTMSK_RXFLVLM;
 3768              		.loc 1 1491 5 is_stmt 1 view .LVU1199
 3769              		.loc 1 1491 19 is_stmt 0 view .LVU1200
 3770 00b6 A369     		ldr	r3, [r4, #24]
 3771 00b8 43F01003 		orr	r3, r3, #16
 3772 00bc A361     		str	r3, [r4, #24]
 3773              	.L235:
1492:Drivers/STM32H7xx_HAL_Driver/Src/stm32h7xx_ll_usb.c ****   }
1493:Drivers/STM32H7xx_HAL_Driver/Src/stm32h7xx_ll_usb.c **** 
1494:Drivers/STM32H7xx_HAL_Driver/Src/stm32h7xx_ll_usb.c ****   /* Enable interrupts matching to the Host mode ONLY */
1495:Drivers/STM32H7xx_HAL_Driver/Src/stm32h7xx_ll_usb.c ****   USBx->GINTMSK |= (USB_OTG_GINTMSK_PRTIM            | USB_OTG_GINTMSK_HCIM | \
 3774              		.loc 1 1495 3 is_stmt 1 view .LVU1201
 3775              		.loc 1 1495 17 is_stmt 0 view .LVU1202
 3776 00be A269     		ldr	r2, [r4, #24]
 3777              	.LVL304:
 3778              		.loc 1 1495 17 view .LVU1203
 3779 00c0 044B     		ldr	r3, .L241+4
 3780 00c2 1343     		orrs	r3, r3, r2
 3781 00c4 A361     		str	r3, [r4, #24]
1496:Drivers/STM32H7xx_HAL_Driver/Src/stm32h7xx_ll_usb.c ****                     USB_OTG_GINTMSK_SOFM             | USB_OTG_GINTSTS_DISCINT | \
1497:Drivers/STM32H7xx_HAL_Driver/Src/stm32h7xx_ll_usb.c ****                     USB_OTG_GINTMSK_PXFRM_IISOOXFRM  | USB_OTG_GINTMSK_WUIM);
1498:Drivers/STM32H7xx_HAL_Driver/Src/stm32h7xx_ll_usb.c **** 
1499:Drivers/STM32H7xx_HAL_Driver/Src/stm32h7xx_ll_usb.c ****   return ret;
 3782              		.loc 1 1499 3 is_stmt 1 view .LVU1204
ARM GAS  /tmp/ccdP7LVA.s 			page 112


1500:Drivers/STM32H7xx_HAL_Driver/Src/stm32h7xx_ll_usb.c **** }
 3783              		.loc 1 1500 1 is_stmt 0 view .LVU1205
 3784 00c6 3046     		mov	r0, r6
 3785 00c8 BDE87040 		pop	{r4, r5, r6, lr}
 3786              	.LCFI52:
 3787              		.cfi_restore 14
 3788              		.cfi_restore 6
 3789              		.cfi_restore 5
 3790              		.cfi_restore 4
 3791              		.cfi_def_cfa_offset 16
 3792              	.LVL305:
 3793              		.loc 1 1500 1 view .LVU1206
 3794 00cc 04B0     		add	sp, sp, #16
 3795              	.LCFI53:
 3796              		.cfi_def_cfa_offset 0
 3797 00ce 7047     		bx	lr
 3798              	.L242:
 3799              		.align	2
 3800              	.L241:
 3801 00d0 0003E000 		.word	14680832
 3802 00d4 080020A3 		.word	-1558183928
 3803              		.cfi_endproc
 3804              	.LFE179:
 3806              		.section	.text.USB_InitFSLSPClkSel,"ax",%progbits
 3807              		.align	1
 3808              		.global	USB_InitFSLSPClkSel
 3809              		.syntax unified
 3810              		.thumb
 3811              		.thumb_func
 3812              		.fpu fpv5-d16
 3814              	USB_InitFSLSPClkSel:
 3815              	.LVL306:
 3816              	.LFB180:
1501:Drivers/STM32H7xx_HAL_Driver/Src/stm32h7xx_ll_usb.c **** 
1502:Drivers/STM32H7xx_HAL_Driver/Src/stm32h7xx_ll_usb.c **** /**
1503:Drivers/STM32H7xx_HAL_Driver/Src/stm32h7xx_ll_usb.c ****   * @brief  USB_InitFSLSPClkSel : Initializes the FSLSPClkSel field of the
1504:Drivers/STM32H7xx_HAL_Driver/Src/stm32h7xx_ll_usb.c ****   *         HCFG register on the PHY type and set the right frame interval
1505:Drivers/STM32H7xx_HAL_Driver/Src/stm32h7xx_ll_usb.c ****   * @param  USBx  Selected device
1506:Drivers/STM32H7xx_HAL_Driver/Src/stm32h7xx_ll_usb.c ****   * @param  freq  clock frequency
1507:Drivers/STM32H7xx_HAL_Driver/Src/stm32h7xx_ll_usb.c ****   *          This parameter can be one of these values:
1508:Drivers/STM32H7xx_HAL_Driver/Src/stm32h7xx_ll_usb.c ****   *           HCFG_48_MHZ : Full Speed 48 MHz Clock
1509:Drivers/STM32H7xx_HAL_Driver/Src/stm32h7xx_ll_usb.c ****   *           HCFG_6_MHZ : Low Speed 6 MHz Clock
1510:Drivers/STM32H7xx_HAL_Driver/Src/stm32h7xx_ll_usb.c ****   * @retval HAL status
1511:Drivers/STM32H7xx_HAL_Driver/Src/stm32h7xx_ll_usb.c ****   */
1512:Drivers/STM32H7xx_HAL_Driver/Src/stm32h7xx_ll_usb.c **** HAL_StatusTypeDef USB_InitFSLSPClkSel(const USB_OTG_GlobalTypeDef *USBx, uint8_t freq)
1513:Drivers/STM32H7xx_HAL_Driver/Src/stm32h7xx_ll_usb.c **** {
 3817              		.loc 1 1513 1 is_stmt 1 view -0
 3818              		.cfi_startproc
 3819              		@ args = 0, pretend = 0, frame = 0
 3820              		@ frame_needed = 0, uses_anonymous_args = 0
 3821              		@ link register save eliminated.
 3822              		.loc 1 1513 1 is_stmt 0 view .LVU1208
 3823 0000 10B4     		push	{r4}
 3824              	.LCFI54:
 3825              		.cfi_def_cfa_offset 4
 3826              		.cfi_offset 4, -4
1514:Drivers/STM32H7xx_HAL_Driver/Src/stm32h7xx_ll_usb.c ****   uint32_t USBx_BASE = (uint32_t)USBx;
ARM GAS  /tmp/ccdP7LVA.s 			page 113


 3827              		.loc 1 1514 3 is_stmt 1 view .LVU1209
 3828              	.LVL307:
1515:Drivers/STM32H7xx_HAL_Driver/Src/stm32h7xx_ll_usb.c **** 
1516:Drivers/STM32H7xx_HAL_Driver/Src/stm32h7xx_ll_usb.c ****   USBx_HOST->HCFG &= ~(USB_OTG_HCFG_FSLSPCS);
 3829              		.loc 1 1516 3 view .LVU1210
 3830              		.loc 1 1516 19 is_stmt 0 view .LVU1211
 3831 0002 00F58064 		add	r4, r0, #1024
 3832 0006 D0F80034 		ldr	r3, [r0, #1024]
 3833 000a 23F00303 		bic	r3, r3, #3
 3834 000e C0F80034 		str	r3, [r0, #1024]
1517:Drivers/STM32H7xx_HAL_Driver/Src/stm32h7xx_ll_usb.c ****   USBx_HOST->HCFG |= (uint32_t)freq & USB_OTG_HCFG_FSLSPCS;
 3835              		.loc 1 1517 3 is_stmt 1 view .LVU1212
 3836              		.loc 1 1517 19 is_stmt 0 view .LVU1213
 3837 0012 D0F80034 		ldr	r3, [r0, #1024]
 3838              		.loc 1 1517 37 view .LVU1214
 3839 0016 01F00302 		and	r2, r1, #3
 3840              		.loc 1 1517 19 view .LVU1215
 3841 001a 1343     		orrs	r3, r3, r2
 3842 001c C0F80034 		str	r3, [r0, #1024]
1518:Drivers/STM32H7xx_HAL_Driver/Src/stm32h7xx_ll_usb.c **** 
1519:Drivers/STM32H7xx_HAL_Driver/Src/stm32h7xx_ll_usb.c ****   if (freq == HCFG_48_MHZ)
 3843              		.loc 1 1519 3 is_stmt 1 view .LVU1216
 3844              		.loc 1 1519 6 is_stmt 0 view .LVU1217
 3845 0020 0129     		cmp	r1, #1
 3846 0022 06D0     		beq	.L248
1520:Drivers/STM32H7xx_HAL_Driver/Src/stm32h7xx_ll_usb.c ****   {
1521:Drivers/STM32H7xx_HAL_Driver/Src/stm32h7xx_ll_usb.c ****     USBx_HOST->HFIR = HFIR_48_MHZ;
1522:Drivers/STM32H7xx_HAL_Driver/Src/stm32h7xx_ll_usb.c ****   }
1523:Drivers/STM32H7xx_HAL_Driver/Src/stm32h7xx_ll_usb.c ****   else if (freq == HCFG_6_MHZ)
 3847              		.loc 1 1523 8 is_stmt 1 view .LVU1218
 3848              		.loc 1 1523 11 is_stmt 0 view .LVU1219
 3849 0024 0229     		cmp	r1, #2
 3850 0026 0BD1     		bne	.L246
1524:Drivers/STM32H7xx_HAL_Driver/Src/stm32h7xx_ll_usb.c ****   {
1525:Drivers/STM32H7xx_HAL_Driver/Src/stm32h7xx_ll_usb.c ****     USBx_HOST->HFIR = HFIR_6_MHZ;
 3851              		.loc 1 1525 5 is_stmt 1 view .LVU1220
 3852              		.loc 1 1525 21 is_stmt 0 view .LVU1221
 3853 0028 41F27073 		movw	r3, #6000
 3854 002c 6360     		str	r3, [r4, #4]
1526:Drivers/STM32H7xx_HAL_Driver/Src/stm32h7xx_ll_usb.c ****   }
1527:Drivers/STM32H7xx_HAL_Driver/Src/stm32h7xx_ll_usb.c ****   else
1528:Drivers/STM32H7xx_HAL_Driver/Src/stm32h7xx_ll_usb.c ****   {
1529:Drivers/STM32H7xx_HAL_Driver/Src/stm32h7xx_ll_usb.c ****     return HAL_ERROR;
1530:Drivers/STM32H7xx_HAL_Driver/Src/stm32h7xx_ll_usb.c ****   }
1531:Drivers/STM32H7xx_HAL_Driver/Src/stm32h7xx_ll_usb.c **** 
1532:Drivers/STM32H7xx_HAL_Driver/Src/stm32h7xx_ll_usb.c ****   return HAL_OK;
 3855              		.loc 1 1532 10 view .LVU1222
 3856 002e 0020     		movs	r0, #0
 3857              	.LVL308:
 3858              		.loc 1 1532 10 view .LVU1223
 3859 0030 03E0     		b	.L245
 3860              	.LVL309:
 3861              	.L248:
1521:Drivers/STM32H7xx_HAL_Driver/Src/stm32h7xx_ll_usb.c ****   }
 3862              		.loc 1 1521 5 is_stmt 1 view .LVU1224
1521:Drivers/STM32H7xx_HAL_Driver/Src/stm32h7xx_ll_usb.c ****   }
 3863              		.loc 1 1521 21 is_stmt 0 view .LVU1225
ARM GAS  /tmp/ccdP7LVA.s 			page 114


 3864 0032 4BF68033 		movw	r3, #48000
 3865 0036 6360     		str	r3, [r4, #4]
 3866              		.loc 1 1532 10 view .LVU1226
 3867 0038 0020     		movs	r0, #0
 3868              	.LVL310:
 3869              	.L245:
1533:Drivers/STM32H7xx_HAL_Driver/Src/stm32h7xx_ll_usb.c **** }
 3870              		.loc 1 1533 1 view .LVU1227
 3871 003a 5DF8044B 		ldr	r4, [sp], #4
 3872              	.LCFI55:
 3873              		.cfi_remember_state
 3874              		.cfi_restore 4
 3875              		.cfi_def_cfa_offset 0
 3876              	.LVL311:
 3877              		.loc 1 1533 1 view .LVU1228
 3878 003e 7047     		bx	lr
 3879              	.LVL312:
 3880              	.L246:
 3881              	.LCFI56:
 3882              		.cfi_restore_state
1529:Drivers/STM32H7xx_HAL_Driver/Src/stm32h7xx_ll_usb.c ****   }
 3883              		.loc 1 1529 12 view .LVU1229
 3884 0040 0120     		movs	r0, #1
 3885              	.LVL313:
1529:Drivers/STM32H7xx_HAL_Driver/Src/stm32h7xx_ll_usb.c ****   }
 3886              		.loc 1 1529 12 view .LVU1230
 3887 0042 FAE7     		b	.L245
 3888              		.cfi_endproc
 3889              	.LFE180:
 3891              		.section	.text.USB_ResetPort,"ax",%progbits
 3892              		.align	1
 3893              		.global	USB_ResetPort
 3894              		.syntax unified
 3895              		.thumb
 3896              		.thumb_func
 3897              		.fpu fpv5-d16
 3899              	USB_ResetPort:
 3900              	.LVL314:
 3901              	.LFB181:
1534:Drivers/STM32H7xx_HAL_Driver/Src/stm32h7xx_ll_usb.c **** 
1535:Drivers/STM32H7xx_HAL_Driver/Src/stm32h7xx_ll_usb.c **** /**
1536:Drivers/STM32H7xx_HAL_Driver/Src/stm32h7xx_ll_usb.c ****   * @brief  USB_OTG_ResetPort : Reset Host Port
1537:Drivers/STM32H7xx_HAL_Driver/Src/stm32h7xx_ll_usb.c ****   * @param  USBx  Selected device
1538:Drivers/STM32H7xx_HAL_Driver/Src/stm32h7xx_ll_usb.c ****   * @retval HAL status
1539:Drivers/STM32H7xx_HAL_Driver/Src/stm32h7xx_ll_usb.c ****   * @note (1)The application must wait at least 10 ms
1540:Drivers/STM32H7xx_HAL_Driver/Src/stm32h7xx_ll_usb.c ****   *   before clearing the reset bit.
1541:Drivers/STM32H7xx_HAL_Driver/Src/stm32h7xx_ll_usb.c ****   */
1542:Drivers/STM32H7xx_HAL_Driver/Src/stm32h7xx_ll_usb.c **** HAL_StatusTypeDef USB_ResetPort(const USB_OTG_GlobalTypeDef *USBx)
1543:Drivers/STM32H7xx_HAL_Driver/Src/stm32h7xx_ll_usb.c **** {
 3902              		.loc 1 1543 1 is_stmt 1 view -0
 3903              		.cfi_startproc
 3904              		@ args = 0, pretend = 0, frame = 8
 3905              		@ frame_needed = 0, uses_anonymous_args = 0
 3906              		.loc 1 1543 1 is_stmt 0 view .LVU1232
 3907 0000 30B5     		push	{r4, r5, lr}
 3908              	.LCFI57:
 3909              		.cfi_def_cfa_offset 12
ARM GAS  /tmp/ccdP7LVA.s 			page 115


 3910              		.cfi_offset 4, -12
 3911              		.cfi_offset 5, -8
 3912              		.cfi_offset 14, -4
 3913 0002 83B0     		sub	sp, sp, #12
 3914              	.LCFI58:
 3915              		.cfi_def_cfa_offset 24
 3916 0004 0446     		mov	r4, r0
1544:Drivers/STM32H7xx_HAL_Driver/Src/stm32h7xx_ll_usb.c ****   uint32_t USBx_BASE = (uint32_t)USBx;
 3917              		.loc 1 1544 3 is_stmt 1 view .LVU1233
 3918              	.LVL315:
1545:Drivers/STM32H7xx_HAL_Driver/Src/stm32h7xx_ll_usb.c **** 
1546:Drivers/STM32H7xx_HAL_Driver/Src/stm32h7xx_ll_usb.c ****   __IO uint32_t hprt0 = 0U;
 3919              		.loc 1 1546 3 view .LVU1234
 3920              		.loc 1 1546 17 is_stmt 0 view .LVU1235
 3921 0006 0025     		movs	r5, #0
 3922 0008 0195     		str	r5, [sp, #4]
1547:Drivers/STM32H7xx_HAL_Driver/Src/stm32h7xx_ll_usb.c **** 
1548:Drivers/STM32H7xx_HAL_Driver/Src/stm32h7xx_ll_usb.c ****   hprt0 = USBx_HPRT0;
 3923              		.loc 1 1548 3 is_stmt 1 view .LVU1236
 3924              		.loc 1 1548 11 is_stmt 0 view .LVU1237
 3925 000a D0F84034 		ldr	r3, [r0, #1088]
 3926              		.loc 1 1548 9 view .LVU1238
 3927 000e 0193     		str	r3, [sp, #4]
1549:Drivers/STM32H7xx_HAL_Driver/Src/stm32h7xx_ll_usb.c **** 
1550:Drivers/STM32H7xx_HAL_Driver/Src/stm32h7xx_ll_usb.c ****   hprt0 &= ~(USB_OTG_HPRT_PENA | USB_OTG_HPRT_PCDET |
 3928              		.loc 1 1550 3 is_stmt 1 view .LVU1239
 3929              		.loc 1 1550 9 is_stmt 0 view .LVU1240
 3930 0010 019B     		ldr	r3, [sp, #4]
 3931 0012 23F02E03 		bic	r3, r3, #46
 3932 0016 0193     		str	r3, [sp, #4]
1551:Drivers/STM32H7xx_HAL_Driver/Src/stm32h7xx_ll_usb.c ****              USB_OTG_HPRT_PENCHNG | USB_OTG_HPRT_POCCHNG);
1552:Drivers/STM32H7xx_HAL_Driver/Src/stm32h7xx_ll_usb.c **** 
1553:Drivers/STM32H7xx_HAL_Driver/Src/stm32h7xx_ll_usb.c ****   USBx_HPRT0 = (USB_OTG_HPRT_PRST | hprt0);
 3933              		.loc 1 1553 3 is_stmt 1 view .LVU1241
 3934              		.loc 1 1553 35 is_stmt 0 view .LVU1242
 3935 0018 019B     		ldr	r3, [sp, #4]
 3936 001a 43F48073 		orr	r3, r3, #256
 3937              		.loc 1 1553 14 view .LVU1243
 3938 001e C0F84034 		str	r3, [r0, #1088]
1554:Drivers/STM32H7xx_HAL_Driver/Src/stm32h7xx_ll_usb.c ****   HAL_Delay(100U);                                 /* See Note #1 */
 3939              		.loc 1 1554 3 is_stmt 1 view .LVU1244
 3940 0022 6420     		movs	r0, #100
 3941              	.LVL316:
 3942              		.loc 1 1554 3 is_stmt 0 view .LVU1245
 3943 0024 FFF7FEFF 		bl	HAL_Delay
 3944              	.LVL317:
1555:Drivers/STM32H7xx_HAL_Driver/Src/stm32h7xx_ll_usb.c ****   USBx_HPRT0 = ((~USB_OTG_HPRT_PRST) & hprt0);
 3945              		.loc 1 1555 3 is_stmt 1 view .LVU1246
 3946              		.loc 1 1555 38 is_stmt 0 view .LVU1247
 3947 0028 019B     		ldr	r3, [sp, #4]
 3948 002a 23F48073 		bic	r3, r3, #256
 3949              		.loc 1 1555 14 view .LVU1248
 3950 002e C4F84034 		str	r3, [r4, #1088]
1556:Drivers/STM32H7xx_HAL_Driver/Src/stm32h7xx_ll_usb.c ****   HAL_Delay(10U);
 3951              		.loc 1 1556 3 is_stmt 1 view .LVU1249
 3952 0032 0A20     		movs	r0, #10
 3953 0034 FFF7FEFF 		bl	HAL_Delay
ARM GAS  /tmp/ccdP7LVA.s 			page 116


 3954              	.LVL318:
1557:Drivers/STM32H7xx_HAL_Driver/Src/stm32h7xx_ll_usb.c **** 
1558:Drivers/STM32H7xx_HAL_Driver/Src/stm32h7xx_ll_usb.c ****   return HAL_OK;
 3955              		.loc 1 1558 3 view .LVU1250
1559:Drivers/STM32H7xx_HAL_Driver/Src/stm32h7xx_ll_usb.c **** }
 3956              		.loc 1 1559 1 is_stmt 0 view .LVU1251
 3957 0038 2846     		mov	r0, r5
 3958 003a 03B0     		add	sp, sp, #12
 3959              	.LCFI59:
 3960              		.cfi_def_cfa_offset 12
 3961              		@ sp needed
 3962 003c 30BD     		pop	{r4, r5, pc}
 3963              		.loc 1 1559 1 view .LVU1252
 3964              		.cfi_endproc
 3965              	.LFE181:
 3967              		.section	.text.USB_DriveVbus,"ax",%progbits
 3968              		.align	1
 3969              		.global	USB_DriveVbus
 3970              		.syntax unified
 3971              		.thumb
 3972              		.thumb_func
 3973              		.fpu fpv5-d16
 3975              	USB_DriveVbus:
 3976              	.LVL319:
 3977              	.LFB182:
1560:Drivers/STM32H7xx_HAL_Driver/Src/stm32h7xx_ll_usb.c **** 
1561:Drivers/STM32H7xx_HAL_Driver/Src/stm32h7xx_ll_usb.c **** /**
1562:Drivers/STM32H7xx_HAL_Driver/Src/stm32h7xx_ll_usb.c ****   * @brief  USB_DriveVbus : activate or de-activate vbus
1563:Drivers/STM32H7xx_HAL_Driver/Src/stm32h7xx_ll_usb.c ****   * @param  state  VBUS state
1564:Drivers/STM32H7xx_HAL_Driver/Src/stm32h7xx_ll_usb.c ****   *          This parameter can be one of these values:
1565:Drivers/STM32H7xx_HAL_Driver/Src/stm32h7xx_ll_usb.c ****   *           0 : Deactivate VBUS
1566:Drivers/STM32H7xx_HAL_Driver/Src/stm32h7xx_ll_usb.c ****   *           1 : Activate VBUS
1567:Drivers/STM32H7xx_HAL_Driver/Src/stm32h7xx_ll_usb.c ****   * @retval HAL status
1568:Drivers/STM32H7xx_HAL_Driver/Src/stm32h7xx_ll_usb.c ****   */
1569:Drivers/STM32H7xx_HAL_Driver/Src/stm32h7xx_ll_usb.c **** HAL_StatusTypeDef USB_DriveVbus(const USB_OTG_GlobalTypeDef *USBx, uint8_t state)
1570:Drivers/STM32H7xx_HAL_Driver/Src/stm32h7xx_ll_usb.c **** {
 3978              		.loc 1 1570 1 is_stmt 1 view -0
 3979              		.cfi_startproc
 3980              		@ args = 0, pretend = 0, frame = 8
 3981              		@ frame_needed = 0, uses_anonymous_args = 0
 3982              		@ link register save eliminated.
 3983              		.loc 1 1570 1 is_stmt 0 view .LVU1254
 3984 0000 82B0     		sub	sp, sp, #8
 3985              	.LCFI60:
 3986              		.cfi_def_cfa_offset 8
1571:Drivers/STM32H7xx_HAL_Driver/Src/stm32h7xx_ll_usb.c ****   uint32_t USBx_BASE = (uint32_t)USBx;
 3987              		.loc 1 1571 3 is_stmt 1 view .LVU1255
 3988              	.LVL320:
1572:Drivers/STM32H7xx_HAL_Driver/Src/stm32h7xx_ll_usb.c ****   __IO uint32_t hprt0 = 0U;
 3989              		.loc 1 1572 3 view .LVU1256
 3990              		.loc 1 1572 17 is_stmt 0 view .LVU1257
 3991 0002 0023     		movs	r3, #0
 3992 0004 0193     		str	r3, [sp, #4]
1573:Drivers/STM32H7xx_HAL_Driver/Src/stm32h7xx_ll_usb.c **** 
1574:Drivers/STM32H7xx_HAL_Driver/Src/stm32h7xx_ll_usb.c ****   hprt0 = USBx_HPRT0;
 3993              		.loc 1 1574 3 is_stmt 1 view .LVU1258
 3994              		.loc 1 1574 11 is_stmt 0 view .LVU1259
ARM GAS  /tmp/ccdP7LVA.s 			page 117


 3995 0006 D0F84034 		ldr	r3, [r0, #1088]
 3996              		.loc 1 1574 9 view .LVU1260
 3997 000a 0193     		str	r3, [sp, #4]
1575:Drivers/STM32H7xx_HAL_Driver/Src/stm32h7xx_ll_usb.c **** 
1576:Drivers/STM32H7xx_HAL_Driver/Src/stm32h7xx_ll_usb.c ****   hprt0 &= ~(USB_OTG_HPRT_PENA | USB_OTG_HPRT_PCDET |
 3998              		.loc 1 1576 3 is_stmt 1 view .LVU1261
 3999              		.loc 1 1576 9 is_stmt 0 view .LVU1262
 4000 000c 019B     		ldr	r3, [sp, #4]
 4001 000e 23F02E03 		bic	r3, r3, #46
 4002 0012 0193     		str	r3, [sp, #4]
1577:Drivers/STM32H7xx_HAL_Driver/Src/stm32h7xx_ll_usb.c ****              USB_OTG_HPRT_PENCHNG | USB_OTG_HPRT_POCCHNG);
1578:Drivers/STM32H7xx_HAL_Driver/Src/stm32h7xx_ll_usb.c **** 
1579:Drivers/STM32H7xx_HAL_Driver/Src/stm32h7xx_ll_usb.c ****   if (((hprt0 & USB_OTG_HPRT_PPWR) == 0U) && (state == 1U))
 4003              		.loc 1 1579 3 is_stmt 1 view .LVU1263
 4004              		.loc 1 1579 15 is_stmt 0 view .LVU1264
 4005 0014 019B     		ldr	r3, [sp, #4]
 4006              		.loc 1 1579 6 view .LVU1265
 4007 0016 13F4805F 		tst	r3, #4096
 4008 001a 01D1     		bne	.L252
 4009              		.loc 1 1579 43 discriminator 1 view .LVU1266
 4010 001c 0129     		cmp	r1, #1
 4011 001e 0CD0     		beq	.L255
 4012              	.L252:
1580:Drivers/STM32H7xx_HAL_Driver/Src/stm32h7xx_ll_usb.c ****   {
1581:Drivers/STM32H7xx_HAL_Driver/Src/stm32h7xx_ll_usb.c ****     USBx_HPRT0 = (USB_OTG_HPRT_PPWR | hprt0);
1582:Drivers/STM32H7xx_HAL_Driver/Src/stm32h7xx_ll_usb.c ****   }
1583:Drivers/STM32H7xx_HAL_Driver/Src/stm32h7xx_ll_usb.c ****   if (((hprt0 & USB_OTG_HPRT_PPWR) == USB_OTG_HPRT_PPWR) && (state == 0U))
 4013              		.loc 1 1583 3 is_stmt 1 view .LVU1267
 4014              		.loc 1 1583 15 is_stmt 0 view .LVU1268
 4015 0020 019B     		ldr	r3, [sp, #4]
 4016              		.loc 1 1583 6 view .LVU1269
 4017 0022 13F4805F 		tst	r3, #4096
 4018 0026 05D0     		beq	.L253
 4019              		.loc 1 1583 58 discriminator 1 view .LVU1270
 4020 0028 21B9     		cbnz	r1, .L253
1584:Drivers/STM32H7xx_HAL_Driver/Src/stm32h7xx_ll_usb.c ****   {
1585:Drivers/STM32H7xx_HAL_Driver/Src/stm32h7xx_ll_usb.c ****     USBx_HPRT0 = ((~USB_OTG_HPRT_PPWR) & hprt0);
 4021              		.loc 1 1585 5 is_stmt 1 view .LVU1271
 4022              		.loc 1 1585 40 is_stmt 0 view .LVU1272
 4023 002a 019B     		ldr	r3, [sp, #4]
 4024 002c 23F48053 		bic	r3, r3, #4096
 4025              		.loc 1 1585 16 view .LVU1273
 4026 0030 C0F84034 		str	r3, [r0, #1088]
 4027              	.L253:
1586:Drivers/STM32H7xx_HAL_Driver/Src/stm32h7xx_ll_usb.c ****   }
1587:Drivers/STM32H7xx_HAL_Driver/Src/stm32h7xx_ll_usb.c ****   return HAL_OK;
 4028              		.loc 1 1587 3 is_stmt 1 view .LVU1274
1588:Drivers/STM32H7xx_HAL_Driver/Src/stm32h7xx_ll_usb.c **** }
 4029              		.loc 1 1588 1 is_stmt 0 view .LVU1275
 4030 0034 0020     		movs	r0, #0
 4031              	.LVL321:
 4032              		.loc 1 1588 1 view .LVU1276
 4033 0036 02B0     		add	sp, sp, #8
 4034              	.LCFI61:
 4035              		.cfi_remember_state
 4036              		.cfi_def_cfa_offset 0
 4037              		@ sp needed
ARM GAS  /tmp/ccdP7LVA.s 			page 118


 4038 0038 7047     		bx	lr
 4039              	.LVL322:
 4040              	.L255:
 4041              	.LCFI62:
 4042              		.cfi_restore_state
1581:Drivers/STM32H7xx_HAL_Driver/Src/stm32h7xx_ll_usb.c ****   }
 4043              		.loc 1 1581 5 is_stmt 1 view .LVU1277
1581:Drivers/STM32H7xx_HAL_Driver/Src/stm32h7xx_ll_usb.c ****   }
 4044              		.loc 1 1581 37 is_stmt 0 view .LVU1278
 4045 003a 019B     		ldr	r3, [sp, #4]
 4046 003c 43F48053 		orr	r3, r3, #4096
1581:Drivers/STM32H7xx_HAL_Driver/Src/stm32h7xx_ll_usb.c ****   }
 4047              		.loc 1 1581 16 view .LVU1279
 4048 0040 C0F84034 		str	r3, [r0, #1088]
 4049 0044 ECE7     		b	.L252
 4050              		.cfi_endproc
 4051              	.LFE182:
 4053              		.section	.text.USB_GetHostSpeed,"ax",%progbits
 4054              		.align	1
 4055              		.global	USB_GetHostSpeed
 4056              		.syntax unified
 4057              		.thumb
 4058              		.thumb_func
 4059              		.fpu fpv5-d16
 4061              	USB_GetHostSpeed:
 4062              	.LVL323:
 4063              	.LFB183:
1589:Drivers/STM32H7xx_HAL_Driver/Src/stm32h7xx_ll_usb.c **** 
1590:Drivers/STM32H7xx_HAL_Driver/Src/stm32h7xx_ll_usb.c **** /**
1591:Drivers/STM32H7xx_HAL_Driver/Src/stm32h7xx_ll_usb.c ****   * @brief  Return Host Core speed
1592:Drivers/STM32H7xx_HAL_Driver/Src/stm32h7xx_ll_usb.c ****   * @param  USBx  Selected device
1593:Drivers/STM32H7xx_HAL_Driver/Src/stm32h7xx_ll_usb.c ****   * @retval speed : Host speed
1594:Drivers/STM32H7xx_HAL_Driver/Src/stm32h7xx_ll_usb.c ****   *          This parameter can be one of these values:
1595:Drivers/STM32H7xx_HAL_Driver/Src/stm32h7xx_ll_usb.c ****   *            @arg HCD_SPEED_HIGH: High speed mode
1596:Drivers/STM32H7xx_HAL_Driver/Src/stm32h7xx_ll_usb.c ****   *            @arg HCD_SPEED_FULL: Full speed mode
1597:Drivers/STM32H7xx_HAL_Driver/Src/stm32h7xx_ll_usb.c ****   *            @arg HCD_SPEED_LOW: Low speed mode
1598:Drivers/STM32H7xx_HAL_Driver/Src/stm32h7xx_ll_usb.c ****   */
1599:Drivers/STM32H7xx_HAL_Driver/Src/stm32h7xx_ll_usb.c **** uint32_t USB_GetHostSpeed(USB_OTG_GlobalTypeDef const *USBx)
1600:Drivers/STM32H7xx_HAL_Driver/Src/stm32h7xx_ll_usb.c **** {
 4064              		.loc 1 1600 1 is_stmt 1 view -0
 4065              		.cfi_startproc
 4066              		@ args = 0, pretend = 0, frame = 8
 4067              		@ frame_needed = 0, uses_anonymous_args = 0
 4068              		@ link register save eliminated.
 4069              		.loc 1 1600 1 is_stmt 0 view .LVU1281
 4070 0000 82B0     		sub	sp, sp, #8
 4071              	.LCFI63:
 4072              		.cfi_def_cfa_offset 8
1601:Drivers/STM32H7xx_HAL_Driver/Src/stm32h7xx_ll_usb.c ****   uint32_t USBx_BASE = (uint32_t)USBx;
 4073              		.loc 1 1601 3 is_stmt 1 view .LVU1282
 4074              	.LVL324:
1602:Drivers/STM32H7xx_HAL_Driver/Src/stm32h7xx_ll_usb.c ****   __IO uint32_t hprt0 = 0U;
 4075              		.loc 1 1602 3 view .LVU1283
 4076              		.loc 1 1602 17 is_stmt 0 view .LVU1284
 4077 0002 0023     		movs	r3, #0
 4078 0004 0193     		str	r3, [sp, #4]
1603:Drivers/STM32H7xx_HAL_Driver/Src/stm32h7xx_ll_usb.c **** 
ARM GAS  /tmp/ccdP7LVA.s 			page 119


1604:Drivers/STM32H7xx_HAL_Driver/Src/stm32h7xx_ll_usb.c ****   hprt0 = USBx_HPRT0;
 4079              		.loc 1 1604 3 is_stmt 1 view .LVU1285
 4080              		.loc 1 1604 11 is_stmt 0 view .LVU1286
 4081 0006 D0F84034 		ldr	r3, [r0, #1088]
 4082              		.loc 1 1604 9 view .LVU1287
 4083 000a 0193     		str	r3, [sp, #4]
1605:Drivers/STM32H7xx_HAL_Driver/Src/stm32h7xx_ll_usb.c ****   return ((hprt0 & USB_OTG_HPRT_PSPD) >> 17);
 4084              		.loc 1 1605 3 is_stmt 1 view .LVU1288
 4085              		.loc 1 1605 39 is_stmt 0 view .LVU1289
 4086 000c 0198     		ldr	r0, [sp, #4]
 4087              	.LVL325:
1606:Drivers/STM32H7xx_HAL_Driver/Src/stm32h7xx_ll_usb.c **** }
 4088              		.loc 1 1606 1 view .LVU1290
 4089 000e C0F34140 		ubfx	r0, r0, #17, #2
 4090 0012 02B0     		add	sp, sp, #8
 4091              	.LCFI64:
 4092              		.cfi_def_cfa_offset 0
 4093              		@ sp needed
 4094 0014 7047     		bx	lr
 4095              		.cfi_endproc
 4096              	.LFE183:
 4098              		.section	.text.USB_GetCurrentFrame,"ax",%progbits
 4099              		.align	1
 4100              		.global	USB_GetCurrentFrame
 4101              		.syntax unified
 4102              		.thumb
 4103              		.thumb_func
 4104              		.fpu fpv5-d16
 4106              	USB_GetCurrentFrame:
 4107              	.LVL326:
 4108              	.LFB184:
1607:Drivers/STM32H7xx_HAL_Driver/Src/stm32h7xx_ll_usb.c **** 
1608:Drivers/STM32H7xx_HAL_Driver/Src/stm32h7xx_ll_usb.c **** /**
1609:Drivers/STM32H7xx_HAL_Driver/Src/stm32h7xx_ll_usb.c ****   * @brief  Return Host Current Frame number
1610:Drivers/STM32H7xx_HAL_Driver/Src/stm32h7xx_ll_usb.c ****   * @param  USBx  Selected device
1611:Drivers/STM32H7xx_HAL_Driver/Src/stm32h7xx_ll_usb.c ****   * @retval current frame number
1612:Drivers/STM32H7xx_HAL_Driver/Src/stm32h7xx_ll_usb.c ****   */
1613:Drivers/STM32H7xx_HAL_Driver/Src/stm32h7xx_ll_usb.c **** uint32_t USB_GetCurrentFrame(USB_OTG_GlobalTypeDef const *USBx)
1614:Drivers/STM32H7xx_HAL_Driver/Src/stm32h7xx_ll_usb.c **** {
 4109              		.loc 1 1614 1 is_stmt 1 view -0
 4110              		.cfi_startproc
 4111              		@ args = 0, pretend = 0, frame = 0
 4112              		@ frame_needed = 0, uses_anonymous_args = 0
 4113              		@ link register save eliminated.
1615:Drivers/STM32H7xx_HAL_Driver/Src/stm32h7xx_ll_usb.c ****   uint32_t USBx_BASE = (uint32_t)USBx;
 4114              		.loc 1 1615 3 view .LVU1292
1616:Drivers/STM32H7xx_HAL_Driver/Src/stm32h7xx_ll_usb.c **** 
1617:Drivers/STM32H7xx_HAL_Driver/Src/stm32h7xx_ll_usb.c ****   return (USBx_HOST->HFNUM & USB_OTG_HFNUM_FRNUM);
 4115              		.loc 1 1617 3 view .LVU1293
 4116              		.loc 1 1617 11 is_stmt 0 view .LVU1294
 4117 0000 00F58060 		add	r0, r0, #1024
 4118              	.LVL327:
 4119              		.loc 1 1617 20 view .LVU1295
 4120 0004 8068     		ldr	r0, [r0, #8]
 4121              	.LVL328:
1618:Drivers/STM32H7xx_HAL_Driver/Src/stm32h7xx_ll_usb.c **** }
 4122              		.loc 1 1618 1 view .LVU1296
ARM GAS  /tmp/ccdP7LVA.s 			page 120


 4123 0006 80B2     		uxth	r0, r0
 4124 0008 7047     		bx	lr
 4125              		.cfi_endproc
 4126              	.LFE184:
 4128              		.section	.text.USB_HC_Init,"ax",%progbits
 4129              		.align	1
 4130              		.global	USB_HC_Init
 4131              		.syntax unified
 4132              		.thumb
 4133              		.thumb_func
 4134              		.fpu fpv5-d16
 4136              	USB_HC_Init:
 4137              	.LVL329:
 4138              	.LFB185:
1619:Drivers/STM32H7xx_HAL_Driver/Src/stm32h7xx_ll_usb.c **** 
1620:Drivers/STM32H7xx_HAL_Driver/Src/stm32h7xx_ll_usb.c **** /**
1621:Drivers/STM32H7xx_HAL_Driver/Src/stm32h7xx_ll_usb.c ****   * @brief  Initialize a host channel
1622:Drivers/STM32H7xx_HAL_Driver/Src/stm32h7xx_ll_usb.c ****   * @param  USBx  Selected device
1623:Drivers/STM32H7xx_HAL_Driver/Src/stm32h7xx_ll_usb.c ****   * @param  ch_num  Channel number
1624:Drivers/STM32H7xx_HAL_Driver/Src/stm32h7xx_ll_usb.c ****   *         This parameter can be a value from 1 to 15
1625:Drivers/STM32H7xx_HAL_Driver/Src/stm32h7xx_ll_usb.c ****   * @param  epnum  Endpoint number
1626:Drivers/STM32H7xx_HAL_Driver/Src/stm32h7xx_ll_usb.c ****   *          This parameter can be a value from 1 to 15
1627:Drivers/STM32H7xx_HAL_Driver/Src/stm32h7xx_ll_usb.c ****   * @param  dev_address  Current device address
1628:Drivers/STM32H7xx_HAL_Driver/Src/stm32h7xx_ll_usb.c ****   *          This parameter can be a value from 0 to 255
1629:Drivers/STM32H7xx_HAL_Driver/Src/stm32h7xx_ll_usb.c ****   * @param  speed  Current device speed
1630:Drivers/STM32H7xx_HAL_Driver/Src/stm32h7xx_ll_usb.c ****   *          This parameter can be one of these values:
1631:Drivers/STM32H7xx_HAL_Driver/Src/stm32h7xx_ll_usb.c ****   *            @arg USB_OTG_SPEED_HIGH: High speed mode
1632:Drivers/STM32H7xx_HAL_Driver/Src/stm32h7xx_ll_usb.c ****   *            @arg USB_OTG_SPEED_FULL: Full speed mode
1633:Drivers/STM32H7xx_HAL_Driver/Src/stm32h7xx_ll_usb.c ****   *            @arg USB_OTG_SPEED_LOW: Low speed mode
1634:Drivers/STM32H7xx_HAL_Driver/Src/stm32h7xx_ll_usb.c ****   * @param  ep_type  Endpoint Type
1635:Drivers/STM32H7xx_HAL_Driver/Src/stm32h7xx_ll_usb.c ****   *          This parameter can be one of these values:
1636:Drivers/STM32H7xx_HAL_Driver/Src/stm32h7xx_ll_usb.c ****   *            @arg EP_TYPE_CTRL: Control type
1637:Drivers/STM32H7xx_HAL_Driver/Src/stm32h7xx_ll_usb.c ****   *            @arg EP_TYPE_ISOC: Isochronous type
1638:Drivers/STM32H7xx_HAL_Driver/Src/stm32h7xx_ll_usb.c ****   *            @arg EP_TYPE_BULK: Bulk type
1639:Drivers/STM32H7xx_HAL_Driver/Src/stm32h7xx_ll_usb.c ****   *            @arg EP_TYPE_INTR: Interrupt type
1640:Drivers/STM32H7xx_HAL_Driver/Src/stm32h7xx_ll_usb.c ****   * @param  mps  Max Packet Size
1641:Drivers/STM32H7xx_HAL_Driver/Src/stm32h7xx_ll_usb.c ****   *          This parameter can be a value from 0 to 32K
1642:Drivers/STM32H7xx_HAL_Driver/Src/stm32h7xx_ll_usb.c ****   * @retval HAL state
1643:Drivers/STM32H7xx_HAL_Driver/Src/stm32h7xx_ll_usb.c ****   */
1644:Drivers/STM32H7xx_HAL_Driver/Src/stm32h7xx_ll_usb.c **** HAL_StatusTypeDef USB_HC_Init(USB_OTG_GlobalTypeDef *USBx, uint8_t ch_num,
1645:Drivers/STM32H7xx_HAL_Driver/Src/stm32h7xx_ll_usb.c ****                               uint8_t epnum, uint8_t dev_address, uint8_t speed,
1646:Drivers/STM32H7xx_HAL_Driver/Src/stm32h7xx_ll_usb.c ****                               uint8_t ep_type, uint16_t mps)
1647:Drivers/STM32H7xx_HAL_Driver/Src/stm32h7xx_ll_usb.c **** {
 4139              		.loc 1 1647 1 is_stmt 1 view -0
 4140              		.cfi_startproc
 4141              		@ args = 12, pretend = 0, frame = 0
 4142              		@ frame_needed = 0, uses_anonymous_args = 0
 4143              		.loc 1 1647 1 is_stmt 0 view .LVU1298
 4144 0000 2DE9F843 		push	{r3, r4, r5, r6, r7, r8, r9, lr}
 4145              	.LCFI65:
 4146              		.cfi_def_cfa_offset 32
 4147              		.cfi_offset 3, -32
 4148              		.cfi_offset 4, -28
 4149              		.cfi_offset 5, -24
 4150              		.cfi_offset 6, -20
 4151              		.cfi_offset 7, -16
 4152              		.cfi_offset 8, -12
ARM GAS  /tmp/ccdP7LVA.s 			page 121


 4153              		.cfi_offset 9, -8
 4154              		.cfi_offset 14, -4
 4155 0004 9146     		mov	r9, r2
 4156 0006 1C46     		mov	r4, r3
 4157 0008 9DF82450 		ldrb	r5, [sp, #36]	@ zero_extendqisi2
1648:Drivers/STM32H7xx_HAL_Driver/Src/stm32h7xx_ll_usb.c ****   HAL_StatusTypeDef ret = HAL_OK;
 4158              		.loc 1 1648 3 is_stmt 1 view .LVU1299
 4159              	.LVL330:
1649:Drivers/STM32H7xx_HAL_Driver/Src/stm32h7xx_ll_usb.c ****   uint32_t USBx_BASE = (uint32_t)USBx;
 4160              		.loc 1 1649 3 view .LVU1300
1650:Drivers/STM32H7xx_HAL_Driver/Src/stm32h7xx_ll_usb.c ****   uint32_t HCcharEpDir;
 4161              		.loc 1 1650 3 view .LVU1301
1651:Drivers/STM32H7xx_HAL_Driver/Src/stm32h7xx_ll_usb.c ****   uint32_t HCcharLowSpeed;
 4162              		.loc 1 1651 3 view .LVU1302
1652:Drivers/STM32H7xx_HAL_Driver/Src/stm32h7xx_ll_usb.c ****   uint32_t HostCoreSpeed;
 4163              		.loc 1 1652 3 view .LVU1303
1653:Drivers/STM32H7xx_HAL_Driver/Src/stm32h7xx_ll_usb.c **** 
1654:Drivers/STM32H7xx_HAL_Driver/Src/stm32h7xx_ll_usb.c ****   /* Clear old interrupt conditions for this host channel. */
1655:Drivers/STM32H7xx_HAL_Driver/Src/stm32h7xx_ll_usb.c ****   USBx_HC((uint32_t)ch_num)->HCINT = CLEAR_INTERRUPT_MASK;
 4164              		.loc 1 1655 3 view .LVU1304
 4165 000c 00EB4116 		add	r6, r0, r1, lsl #5
 4166 0010 06F5A063 		add	r3, r6, #1280
 4167              	.LVL331:
 4168              		.loc 1 1655 36 is_stmt 0 view .LVU1305
 4169 0014 4FF0FF32 		mov	r2, #-1
 4170              	.LVL332:
 4171              		.loc 1 1655 36 view .LVU1306
 4172 0018 9A60     		str	r2, [r3, #8]
1656:Drivers/STM32H7xx_HAL_Driver/Src/stm32h7xx_ll_usb.c **** 
1657:Drivers/STM32H7xx_HAL_Driver/Src/stm32h7xx_ll_usb.c ****   /* Enable channel interrupts required for this transfer. */
1658:Drivers/STM32H7xx_HAL_Driver/Src/stm32h7xx_ll_usb.c ****   switch (ep_type)
 4173              		.loc 1 1658 3 is_stmt 1 view .LVU1307
 4174 001a 032D     		cmp	r5, #3
 4175 001c 7ED8     		bhi	.L269
 4176 001e DFE805F0 		tbb	[pc, r5]
 4177              	.L262:
 4178 0022 02       		.byte	(.L263-.L262)/2
 4179 0023 6F       		.byte	(.L264-.L262)/2
 4180 0024 02       		.byte	(.L263-.L262)/2
 4181 0025 14       		.byte	(.L261-.L262)/2
 4182              		.p2align 1
 4183              	.L263:
1659:Drivers/STM32H7xx_HAL_Driver/Src/stm32h7xx_ll_usb.c ****   {
1660:Drivers/STM32H7xx_HAL_Driver/Src/stm32h7xx_ll_usb.c ****     case EP_TYPE_CTRL:
1661:Drivers/STM32H7xx_HAL_Driver/Src/stm32h7xx_ll_usb.c ****     case EP_TYPE_BULK:
1662:Drivers/STM32H7xx_HAL_Driver/Src/stm32h7xx_ll_usb.c ****       USBx_HC((uint32_t)ch_num)->HCINTMSK = USB_OTG_HCINTMSK_XFRCM  |
 4184              		.loc 1 1662 7 view .LVU1308
 4185              		.loc 1 1662 43 is_stmt 0 view .LVU1309
 4186 0026 40F29D42 		movw	r2, #1181
 4187 002a DA60     		str	r2, [r3, #12]
1663:Drivers/STM32H7xx_HAL_Driver/Src/stm32h7xx_ll_usb.c ****                                             USB_OTG_HCINTMSK_STALLM |
1664:Drivers/STM32H7xx_HAL_Driver/Src/stm32h7xx_ll_usb.c ****                                             USB_OTG_HCINTMSK_TXERRM |
1665:Drivers/STM32H7xx_HAL_Driver/Src/stm32h7xx_ll_usb.c ****                                             USB_OTG_HCINTMSK_DTERRM |
1666:Drivers/STM32H7xx_HAL_Driver/Src/stm32h7xx_ll_usb.c ****                                             USB_OTG_HCINTMSK_AHBERR |
1667:Drivers/STM32H7xx_HAL_Driver/Src/stm32h7xx_ll_usb.c ****                                             USB_OTG_HCINTMSK_NAKM;
1668:Drivers/STM32H7xx_HAL_Driver/Src/stm32h7xx_ll_usb.c **** 
1669:Drivers/STM32H7xx_HAL_Driver/Src/stm32h7xx_ll_usb.c ****       if ((epnum & 0x80U) == 0x80U)
ARM GAS  /tmp/ccdP7LVA.s 			page 122


 4188              		.loc 1 1669 7 is_stmt 1 view .LVU1310
 4189              		.loc 1 1669 10 is_stmt 0 view .LVU1311
 4190 002c 19F0800F 		tst	r9, #128
 4191 0030 05D1     		bne	.L275
1670:Drivers/STM32H7xx_HAL_Driver/Src/stm32h7xx_ll_usb.c ****       {
1671:Drivers/STM32H7xx_HAL_Driver/Src/stm32h7xx_ll_usb.c ****         USBx_HC((uint32_t)ch_num)->HCINTMSK |= USB_OTG_HCINTMSK_BBERRM;
1672:Drivers/STM32H7xx_HAL_Driver/Src/stm32h7xx_ll_usb.c ****       }
1673:Drivers/STM32H7xx_HAL_Driver/Src/stm32h7xx_ll_usb.c ****       else
1674:Drivers/STM32H7xx_HAL_Driver/Src/stm32h7xx_ll_usb.c ****       {
1675:Drivers/STM32H7xx_HAL_Driver/Src/stm32h7xx_ll_usb.c ****         USBx_HC((uint32_t)ch_num)->HCINTMSK |= USB_OTG_HCINTMSK_NYET |
 4192              		.loc 1 1675 9 is_stmt 1 view .LVU1312
 4193              		.loc 1 1675 45 is_stmt 0 view .LVU1313
 4194 0032 DA68     		ldr	r2, [r3, #12]
 4195 0034 42F06002 		orr	r2, r2, #96
 4196 0038 DA60     		str	r2, [r3, #12]
1648:Drivers/STM32H7xx_HAL_Driver/Src/stm32h7xx_ll_usb.c ****   uint32_t USBx_BASE = (uint32_t)USBx;
 4197              		.loc 1 1648 21 view .LVU1314
 4198 003a 0027     		movs	r7, #0
 4199 003c 0CE0     		b	.L260
 4200              	.L275:
1671:Drivers/STM32H7xx_HAL_Driver/Src/stm32h7xx_ll_usb.c ****       }
 4201              		.loc 1 1671 9 is_stmt 1 view .LVU1315
1671:Drivers/STM32H7xx_HAL_Driver/Src/stm32h7xx_ll_usb.c ****       }
 4202              		.loc 1 1671 45 is_stmt 0 view .LVU1316
 4203 003e DA68     		ldr	r2, [r3, #12]
 4204 0040 42F48072 		orr	r2, r2, #256
 4205 0044 DA60     		str	r2, [r3, #12]
1648:Drivers/STM32H7xx_HAL_Driver/Src/stm32h7xx_ll_usb.c ****   uint32_t USBx_BASE = (uint32_t)USBx;
 4206              		.loc 1 1648 21 view .LVU1317
 4207 0046 0027     		movs	r7, #0
 4208 0048 06E0     		b	.L260
 4209              	.L261:
1676:Drivers/STM32H7xx_HAL_Driver/Src/stm32h7xx_ll_usb.c ****                                                USB_OTG_HCINTMSK_ACKM;
1677:Drivers/STM32H7xx_HAL_Driver/Src/stm32h7xx_ll_usb.c ****       }
1678:Drivers/STM32H7xx_HAL_Driver/Src/stm32h7xx_ll_usb.c ****       break;
1679:Drivers/STM32H7xx_HAL_Driver/Src/stm32h7xx_ll_usb.c **** 
1680:Drivers/STM32H7xx_HAL_Driver/Src/stm32h7xx_ll_usb.c ****     case EP_TYPE_INTR:
1681:Drivers/STM32H7xx_HAL_Driver/Src/stm32h7xx_ll_usb.c ****       USBx_HC((uint32_t)ch_num)->HCINTMSK = USB_OTG_HCINTMSK_XFRCM  |
 4210              		.loc 1 1681 7 is_stmt 1 view .LVU1318
 4211              		.loc 1 1681 43 is_stmt 0 view .LVU1319
 4212 004a 40F29D62 		movw	r2, #1693
 4213 004e DA60     		str	r2, [r3, #12]
1682:Drivers/STM32H7xx_HAL_Driver/Src/stm32h7xx_ll_usb.c ****                                             USB_OTG_HCINTMSK_STALLM |
1683:Drivers/STM32H7xx_HAL_Driver/Src/stm32h7xx_ll_usb.c ****                                             USB_OTG_HCINTMSK_TXERRM |
1684:Drivers/STM32H7xx_HAL_Driver/Src/stm32h7xx_ll_usb.c ****                                             USB_OTG_HCINTMSK_DTERRM |
1685:Drivers/STM32H7xx_HAL_Driver/Src/stm32h7xx_ll_usb.c ****                                             USB_OTG_HCINTMSK_NAKM   |
1686:Drivers/STM32H7xx_HAL_Driver/Src/stm32h7xx_ll_usb.c ****                                             USB_OTG_HCINTMSK_AHBERR |
1687:Drivers/STM32H7xx_HAL_Driver/Src/stm32h7xx_ll_usb.c ****                                             USB_OTG_HCINTMSK_FRMORM;
1688:Drivers/STM32H7xx_HAL_Driver/Src/stm32h7xx_ll_usb.c **** 
1689:Drivers/STM32H7xx_HAL_Driver/Src/stm32h7xx_ll_usb.c ****       if ((epnum & 0x80U) == 0x80U)
 4214              		.loc 1 1689 7 is_stmt 1 view .LVU1320
 4215              		.loc 1 1689 10 is_stmt 0 view .LVU1321
 4216 0050 19F0800F 		tst	r9, #128
 4217 0054 4ED1     		bne	.L276
1648:Drivers/STM32H7xx_HAL_Driver/Src/stm32h7xx_ll_usb.c ****   uint32_t USBx_BASE = (uint32_t)USBx;
 4218              		.loc 1 1648 21 view .LVU1322
 4219 0056 0027     		movs	r7, #0
ARM GAS  /tmp/ccdP7LVA.s 			page 123


 4220              	.L260:
 4221              	.LVL333:
1690:Drivers/STM32H7xx_HAL_Driver/Src/stm32h7xx_ll_usb.c ****       {
1691:Drivers/STM32H7xx_HAL_Driver/Src/stm32h7xx_ll_usb.c ****         USBx_HC((uint32_t)ch_num)->HCINTMSK |= USB_OTG_HCINTMSK_BBERRM;
1692:Drivers/STM32H7xx_HAL_Driver/Src/stm32h7xx_ll_usb.c ****       }
1693:Drivers/STM32H7xx_HAL_Driver/Src/stm32h7xx_ll_usb.c **** 
1694:Drivers/STM32H7xx_HAL_Driver/Src/stm32h7xx_ll_usb.c ****       break;
1695:Drivers/STM32H7xx_HAL_Driver/Src/stm32h7xx_ll_usb.c **** 
1696:Drivers/STM32H7xx_HAL_Driver/Src/stm32h7xx_ll_usb.c ****     case EP_TYPE_ISOC:
1697:Drivers/STM32H7xx_HAL_Driver/Src/stm32h7xx_ll_usb.c ****       USBx_HC((uint32_t)ch_num)->HCINTMSK = USB_OTG_HCINTMSK_XFRCM  |
1698:Drivers/STM32H7xx_HAL_Driver/Src/stm32h7xx_ll_usb.c ****                                             USB_OTG_HCINTMSK_ACKM   |
1699:Drivers/STM32H7xx_HAL_Driver/Src/stm32h7xx_ll_usb.c ****                                             USB_OTG_HCINTMSK_AHBERR |
1700:Drivers/STM32H7xx_HAL_Driver/Src/stm32h7xx_ll_usb.c ****                                             USB_OTG_HCINTMSK_FRMORM;
1701:Drivers/STM32H7xx_HAL_Driver/Src/stm32h7xx_ll_usb.c **** 
1702:Drivers/STM32H7xx_HAL_Driver/Src/stm32h7xx_ll_usb.c ****       if ((epnum & 0x80U) == 0x80U)
1703:Drivers/STM32H7xx_HAL_Driver/Src/stm32h7xx_ll_usb.c ****       {
1704:Drivers/STM32H7xx_HAL_Driver/Src/stm32h7xx_ll_usb.c ****         USBx_HC((uint32_t)ch_num)->HCINTMSK |= (USB_OTG_HCINTMSK_TXERRM | USB_OTG_HCINTMSK_BBERRM);
1705:Drivers/STM32H7xx_HAL_Driver/Src/stm32h7xx_ll_usb.c ****       }
1706:Drivers/STM32H7xx_HAL_Driver/Src/stm32h7xx_ll_usb.c ****       break;
1707:Drivers/STM32H7xx_HAL_Driver/Src/stm32h7xx_ll_usb.c **** 
1708:Drivers/STM32H7xx_HAL_Driver/Src/stm32h7xx_ll_usb.c ****     default:
1709:Drivers/STM32H7xx_HAL_Driver/Src/stm32h7xx_ll_usb.c ****       ret = HAL_ERROR;
1710:Drivers/STM32H7xx_HAL_Driver/Src/stm32h7xx_ll_usb.c ****       break;
1711:Drivers/STM32H7xx_HAL_Driver/Src/stm32h7xx_ll_usb.c ****   }
1712:Drivers/STM32H7xx_HAL_Driver/Src/stm32h7xx_ll_usb.c **** 
1713:Drivers/STM32H7xx_HAL_Driver/Src/stm32h7xx_ll_usb.c ****   /* Clear Hub Start Split transaction */
1714:Drivers/STM32H7xx_HAL_Driver/Src/stm32h7xx_ll_usb.c ****   USBx_HC((uint32_t)ch_num)->HCSPLT = 0U;
 4222              		.loc 1 1714 3 is_stmt 1 view .LVU1323
 4223              		.loc 1 1714 37 is_stmt 0 view .LVU1324
 4224 0058 0022     		movs	r2, #0
 4225 005a 5A60     		str	r2, [r3, #4]
1715:Drivers/STM32H7xx_HAL_Driver/Src/stm32h7xx_ll_usb.c **** 
1716:Drivers/STM32H7xx_HAL_Driver/Src/stm32h7xx_ll_usb.c ****   /* Enable host channel Halt interrupt */
1717:Drivers/STM32H7xx_HAL_Driver/Src/stm32h7xx_ll_usb.c ****   USBx_HC((uint32_t)ch_num)->HCINTMSK |= USB_OTG_HCINTMSK_CHHM;
 4226              		.loc 1 1717 3 is_stmt 1 view .LVU1325
 4227              		.loc 1 1717 39 is_stmt 0 view .LVU1326
 4228 005c DA68     		ldr	r2, [r3, #12]
 4229 005e 42F00202 		orr	r2, r2, #2
 4230 0062 DA60     		str	r2, [r3, #12]
1718:Drivers/STM32H7xx_HAL_Driver/Src/stm32h7xx_ll_usb.c **** 
1719:Drivers/STM32H7xx_HAL_Driver/Src/stm32h7xx_ll_usb.c ****   /* Enable the top level host channel interrupt. */
1720:Drivers/STM32H7xx_HAL_Driver/Src/stm32h7xx_ll_usb.c ****   USBx_HOST->HAINTMSK |= 1UL << (ch_num & 0xFU);
 4231              		.loc 1 1720 3 is_stmt 1 view .LVU1327
 4232              		.loc 1 1720 23 is_stmt 0 view .LVU1328
 4233 0064 D0F81834 		ldr	r3, [r0, #1048]
 4234              		.loc 1 1720 41 view .LVU1329
 4235 0068 01F00F01 		and	r1, r1, #15
 4236              	.LVL334:
 4237              		.loc 1 1720 30 view .LVU1330
 4238 006c 0122     		movs	r2, #1
 4239 006e 02FA01F1 		lsl	r1, r2, r1
 4240              		.loc 1 1720 23 view .LVU1331
 4241 0072 1943     		orrs	r1, r1, r3
 4242 0074 C0F81814 		str	r1, [r0, #1048]
1721:Drivers/STM32H7xx_HAL_Driver/Src/stm32h7xx_ll_usb.c **** 
1722:Drivers/STM32H7xx_HAL_Driver/Src/stm32h7xx_ll_usb.c ****   /* Make sure host channel interrupts are enabled. */
1723:Drivers/STM32H7xx_HAL_Driver/Src/stm32h7xx_ll_usb.c ****   USBx->GINTMSK |= USB_OTG_GINTMSK_HCIM;
ARM GAS  /tmp/ccdP7LVA.s 			page 124


 4243              		.loc 1 1723 3 is_stmt 1 view .LVU1332
 4244              		.loc 1 1723 17 is_stmt 0 view .LVU1333
 4245 0078 8369     		ldr	r3, [r0, #24]
 4246 007a 43F00073 		orr	r3, r3, #33554432
 4247 007e 8361     		str	r3, [r0, #24]
1724:Drivers/STM32H7xx_HAL_Driver/Src/stm32h7xx_ll_usb.c **** 
1725:Drivers/STM32H7xx_HAL_Driver/Src/stm32h7xx_ll_usb.c ****   /* Program the HCCHAR register */
1726:Drivers/STM32H7xx_HAL_Driver/Src/stm32h7xx_ll_usb.c ****   if ((epnum & 0x80U) == 0x80U)
 4248              		.loc 1 1726 3 is_stmt 1 view .LVU1334
 4249              		.loc 1 1726 6 is_stmt 0 view .LVU1335
 4250 0080 19F0800F 		tst	r9, #128
 4251 0084 4CD1     		bne	.L277
1727:Drivers/STM32H7xx_HAL_Driver/Src/stm32h7xx_ll_usb.c ****   {
1728:Drivers/STM32H7xx_HAL_Driver/Src/stm32h7xx_ll_usb.c ****     HCcharEpDir = (0x1U << 15) & USB_OTG_HCCHAR_EPDIR;
1729:Drivers/STM32H7xx_HAL_Driver/Src/stm32h7xx_ll_usb.c ****   }
1730:Drivers/STM32H7xx_HAL_Driver/Src/stm32h7xx_ll_usb.c ****   else
1731:Drivers/STM32H7xx_HAL_Driver/Src/stm32h7xx_ll_usb.c ****   {
1732:Drivers/STM32H7xx_HAL_Driver/Src/stm32h7xx_ll_usb.c ****     HCcharEpDir = 0U;
 4252              		.loc 1 1732 17 view .LVU1336
 4253 0086 4FF00008 		mov	r8, #0
 4254              	.L266:
 4255              	.LVL335:
1733:Drivers/STM32H7xx_HAL_Driver/Src/stm32h7xx_ll_usb.c ****   }
1734:Drivers/STM32H7xx_HAL_Driver/Src/stm32h7xx_ll_usb.c **** 
1735:Drivers/STM32H7xx_HAL_Driver/Src/stm32h7xx_ll_usb.c ****   HostCoreSpeed = USB_GetHostSpeed(USBx);
 4256              		.loc 1 1735 3 is_stmt 1 view .LVU1337
 4257              		.loc 1 1735 19 is_stmt 0 view .LVU1338
 4258 008a FFF7FEFF 		bl	USB_GetHostSpeed
 4259              	.LVL336:
1736:Drivers/STM32H7xx_HAL_Driver/Src/stm32h7xx_ll_usb.c **** 
1737:Drivers/STM32H7xx_HAL_Driver/Src/stm32h7xx_ll_usb.c ****   /* LS device plugged to HUB */
1738:Drivers/STM32H7xx_HAL_Driver/Src/stm32h7xx_ll_usb.c ****   if ((speed == HPRT0_PRTSPD_LOW_SPEED) && (HostCoreSpeed != HPRT0_PRTSPD_LOW_SPEED))
 4260              		.loc 1 1738 3 is_stmt 1 view .LVU1339
 4261              		.loc 1 1738 41 is_stmt 0 view .LVU1340
 4262 008e 9DF82030 		ldrb	r3, [sp, #32]	@ zero_extendqisi2
 4263 0092 022B     		cmp	r3, #2
 4264 0094 14BF     		ite	ne
 4265 0096 0023     		movne	r3, #0
 4266 0098 0123     		moveq	r3, #1
 4267 009a 0228     		cmp	r0, #2
 4268 009c 08BF     		it	eq
 4269 009e 0023     		moveq	r3, #0
 4270              		.loc 1 1738 6 view .LVU1341
 4271 00a0 002B     		cmp	r3, #0
 4272 00a2 40D0     		beq	.L273
1739:Drivers/STM32H7xx_HAL_Driver/Src/stm32h7xx_ll_usb.c ****   {
1740:Drivers/STM32H7xx_HAL_Driver/Src/stm32h7xx_ll_usb.c ****     HCcharLowSpeed = (0x1U << 17) & USB_OTG_HCCHAR_LSDEV;
 4273              		.loc 1 1740 20 view .LVU1342
 4274 00a4 4FF40031 		mov	r1, #131072
 4275              	.L267:
 4276              	.LVL337:
1741:Drivers/STM32H7xx_HAL_Driver/Src/stm32h7xx_ll_usb.c ****   }
1742:Drivers/STM32H7xx_HAL_Driver/Src/stm32h7xx_ll_usb.c ****   else
1743:Drivers/STM32H7xx_HAL_Driver/Src/stm32h7xx_ll_usb.c ****   {
1744:Drivers/STM32H7xx_HAL_Driver/Src/stm32h7xx_ll_usb.c ****     HCcharLowSpeed = 0U;
1745:Drivers/STM32H7xx_HAL_Driver/Src/stm32h7xx_ll_usb.c ****   }
1746:Drivers/STM32H7xx_HAL_Driver/Src/stm32h7xx_ll_usb.c **** 
ARM GAS  /tmp/ccdP7LVA.s 			page 125


1747:Drivers/STM32H7xx_HAL_Driver/Src/stm32h7xx_ll_usb.c ****   USBx_HC((uint32_t)ch_num)->HCCHAR = (((uint32_t)dev_address << 22) & USB_OTG_HCCHAR_DAD) |
 4277              		.loc 1 1747 3 is_stmt 1 view .LVU1343
 4278              		.loc 1 1747 63 is_stmt 0 view .LVU1344
 4279 00a8 A305     		lsls	r3, r4, #22
 4280              		.loc 1 1747 70 view .LVU1345
 4281 00aa 03F0FE53 		and	r3, r3, #532676608
1748:Drivers/STM32H7xx_HAL_Driver/Src/stm32h7xx_ll_usb.c ****                                       ((((uint32_t)epnum & 0x7FU) << 11) & USB_OTG_HCCHAR_EPNUM) |
 4282              		.loc 1 1748 67 view .LVU1346
 4283 00ae 4FEAC929 		lsl	r9, r9, #11
 4284              		.loc 1 1748 74 view .LVU1347
 4285 00b2 09F4F049 		and	r9, r9, #30720
1747:Drivers/STM32H7xx_HAL_Driver/Src/stm32h7xx_ll_usb.c ****                                       ((((uint32_t)epnum & 0x7FU) << 11) & USB_OTG_HCCHAR_EPNUM) |
 4286              		.loc 1 1747 92 view .LVU1348
 4287 00b6 43EA0903 		orr	r3, r3, r9
1749:Drivers/STM32H7xx_HAL_Driver/Src/stm32h7xx_ll_usb.c ****                                       (((uint32_t)ep_type << 18) & USB_OTG_HCCHAR_EPTYP) |
 4288              		.loc 1 1749 59 view .LVU1349
 4289 00ba AC04     		lsls	r4, r5, #18
 4290              		.loc 1 1749 66 view .LVU1350
 4291 00bc 04F44024 		and	r4, r4, #786432
1748:Drivers/STM32H7xx_HAL_Driver/Src/stm32h7xx_ll_usb.c ****                                       ((((uint32_t)epnum & 0x7FU) << 11) & USB_OTG_HCCHAR_EPNUM) |
 4292              		.loc 1 1748 98 view .LVU1351
 4293 00c0 2343     		orrs	r3, r3, r4
1750:Drivers/STM32H7xx_HAL_Driver/Src/stm32h7xx_ll_usb.c ****                                       ((uint32_t)mps & USB_OTG_HCCHAR_MPSIZ) |
 4294              		.loc 1 1750 54 view .LVU1352
 4295 00c2 BDF82820 		ldrh	r2, [sp, #40]
 4296 00c6 C2F30A02 		ubfx	r2, r2, #0, #11
1749:Drivers/STM32H7xx_HAL_Driver/Src/stm32h7xx_ll_usb.c ****                                       (((uint32_t)ep_type << 18) & USB_OTG_HCCHAR_EPTYP) |
 4297              		.loc 1 1749 90 view .LVU1353
 4298 00ca 1343     		orrs	r3, r3, r2
1751:Drivers/STM32H7xx_HAL_Driver/Src/stm32h7xx_ll_usb.c ****                                       USB_OTG_HCCHAR_MC_0 | HCcharEpDir | HCcharLowSpeed;
 4299              		.loc 1 1751 59 view .LVU1354
 4300 00cc 43EA0803 		orr	r3, r3, r8
 4301              		.loc 1 1751 73 view .LVU1355
 4302 00d0 0B43     		orrs	r3, r3, r1
 4303 00d2 43F48013 		orr	r3, r3, #1048576
1747:Drivers/STM32H7xx_HAL_Driver/Src/stm32h7xx_ll_usb.c ****                                       ((((uint32_t)epnum & 0x7FU) << 11) & USB_OTG_HCCHAR_EPNUM) |
 4304              		.loc 1 1747 37 view .LVU1356
 4305 00d6 C6F80035 		str	r3, [r6, #1280]
1752:Drivers/STM32H7xx_HAL_Driver/Src/stm32h7xx_ll_usb.c **** 
1753:Drivers/STM32H7xx_HAL_Driver/Src/stm32h7xx_ll_usb.c ****   if ((ep_type == EP_TYPE_INTR) || (ep_type == EP_TYPE_ISOC))
 4306              		.loc 1 1753 3 is_stmt 1 view .LVU1357
 4307              		.loc 1 1753 6 is_stmt 0 view .LVU1358
 4308 00da 012D     		cmp	r5, #1
 4309 00dc 18BF     		it	ne
 4310 00de 032D     		cmpne	r5, #3
 4311 00e0 05D1     		bne	.L268
1754:Drivers/STM32H7xx_HAL_Driver/Src/stm32h7xx_ll_usb.c ****   {
1755:Drivers/STM32H7xx_HAL_Driver/Src/stm32h7xx_ll_usb.c ****     USBx_HC((uint32_t)ch_num)->HCCHAR |= USB_OTG_HCCHAR_ODDFRM;
 4312              		.loc 1 1755 5 is_stmt 1 view .LVU1359
 4313              		.loc 1 1755 39 is_stmt 0 view .LVU1360
 4314 00e2 D6F80035 		ldr	r3, [r6, #1280]
 4315 00e6 43F00053 		orr	r3, r3, #536870912
 4316 00ea C6F80035 		str	r3, [r6, #1280]
 4317              	.L268:
1756:Drivers/STM32H7xx_HAL_Driver/Src/stm32h7xx_ll_usb.c ****   }
1757:Drivers/STM32H7xx_HAL_Driver/Src/stm32h7xx_ll_usb.c **** 
1758:Drivers/STM32H7xx_HAL_Driver/Src/stm32h7xx_ll_usb.c ****   return ret;
ARM GAS  /tmp/ccdP7LVA.s 			page 126


 4318              		.loc 1 1758 3 is_stmt 1 view .LVU1361
1759:Drivers/STM32H7xx_HAL_Driver/Src/stm32h7xx_ll_usb.c **** }
 4319              		.loc 1 1759 1 is_stmt 0 view .LVU1362
 4320 00ee 3846     		mov	r0, r7
 4321              	.LVL338:
 4322              		.loc 1 1759 1 view .LVU1363
 4323 00f0 BDE8F883 		pop	{r3, r4, r5, r6, r7, r8, r9, pc}
 4324              	.LVL339:
 4325              	.L276:
1691:Drivers/STM32H7xx_HAL_Driver/Src/stm32h7xx_ll_usb.c ****       }
 4326              		.loc 1 1691 9 is_stmt 1 view .LVU1364
1691:Drivers/STM32H7xx_HAL_Driver/Src/stm32h7xx_ll_usb.c ****       }
 4327              		.loc 1 1691 45 is_stmt 0 view .LVU1365
 4328 00f4 DA68     		ldr	r2, [r3, #12]
 4329 00f6 42F48072 		orr	r2, r2, #256
 4330 00fa DA60     		str	r2, [r3, #12]
1648:Drivers/STM32H7xx_HAL_Driver/Src/stm32h7xx_ll_usb.c ****   uint32_t USBx_BASE = (uint32_t)USBx;
 4331              		.loc 1 1648 21 view .LVU1366
 4332 00fc 0027     		movs	r7, #0
 4333 00fe ABE7     		b	.L260
 4334              	.L264:
1697:Drivers/STM32H7xx_HAL_Driver/Src/stm32h7xx_ll_usb.c ****                                             USB_OTG_HCINTMSK_ACKM   |
 4335              		.loc 1 1697 7 is_stmt 1 view .LVU1367
1697:Drivers/STM32H7xx_HAL_Driver/Src/stm32h7xx_ll_usb.c ****                                             USB_OTG_HCINTMSK_ACKM   |
 4336              		.loc 1 1697 43 is_stmt 0 view .LVU1368
 4337 0100 40F22522 		movw	r2, #549
 4338 0104 DA60     		str	r2, [r3, #12]
1702:Drivers/STM32H7xx_HAL_Driver/Src/stm32h7xx_ll_usb.c ****       {
 4339              		.loc 1 1702 7 is_stmt 1 view .LVU1369
1702:Drivers/STM32H7xx_HAL_Driver/Src/stm32h7xx_ll_usb.c ****       {
 4340              		.loc 1 1702 10 is_stmt 0 view .LVU1370
 4341 0106 19F0800F 		tst	r9, #128
 4342 010a 01D1     		bne	.L278
1648:Drivers/STM32H7xx_HAL_Driver/Src/stm32h7xx_ll_usb.c ****   uint32_t USBx_BASE = (uint32_t)USBx;
 4343              		.loc 1 1648 21 view .LVU1371
 4344 010c 0027     		movs	r7, #0
 4345 010e A3E7     		b	.L260
 4346              	.L278:
1704:Drivers/STM32H7xx_HAL_Driver/Src/stm32h7xx_ll_usb.c ****       }
 4347              		.loc 1 1704 9 is_stmt 1 view .LVU1372
1704:Drivers/STM32H7xx_HAL_Driver/Src/stm32h7xx_ll_usb.c ****       }
 4348              		.loc 1 1704 45 is_stmt 0 view .LVU1373
 4349 0110 DA68     		ldr	r2, [r3, #12]
 4350 0112 42F4C072 		orr	r2, r2, #384
 4351 0116 DA60     		str	r2, [r3, #12]
1648:Drivers/STM32H7xx_HAL_Driver/Src/stm32h7xx_ll_usb.c ****   uint32_t USBx_BASE = (uint32_t)USBx;
 4352              		.loc 1 1648 21 view .LVU1374
 4353 0118 0027     		movs	r7, #0
 4354 011a 9DE7     		b	.L260
 4355              	.L269:
1655:Drivers/STM32H7xx_HAL_Driver/Src/stm32h7xx_ll_usb.c **** 
 4356              		.loc 1 1655 36 view .LVU1375
 4357 011c 0127     		movs	r7, #1
 4358 011e 9BE7     		b	.L260
 4359              	.LVL340:
 4360              	.L277:
1728:Drivers/STM32H7xx_HAL_Driver/Src/stm32h7xx_ll_usb.c ****   }
ARM GAS  /tmp/ccdP7LVA.s 			page 127


 4361              		.loc 1 1728 17 view .LVU1376
 4362 0120 4FF40048 		mov	r8, #32768
 4363 0124 B1E7     		b	.L266
 4364              	.LVL341:
 4365              	.L273:
1744:Drivers/STM32H7xx_HAL_Driver/Src/stm32h7xx_ll_usb.c ****   }
 4366              		.loc 1 1744 20 view .LVU1377
 4367 0126 0021     		movs	r1, #0
 4368 0128 BEE7     		b	.L267
 4369              		.cfi_endproc
 4370              	.LFE185:
 4372              		.section	.text.USB_HC_ReadInterrupt,"ax",%progbits
 4373              		.align	1
 4374              		.global	USB_HC_ReadInterrupt
 4375              		.syntax unified
 4376              		.thumb
 4377              		.thumb_func
 4378              		.fpu fpv5-d16
 4380              	USB_HC_ReadInterrupt:
 4381              	.LVL342:
 4382              	.LFB187:
1760:Drivers/STM32H7xx_HAL_Driver/Src/stm32h7xx_ll_usb.c **** 
1761:Drivers/STM32H7xx_HAL_Driver/Src/stm32h7xx_ll_usb.c **** /**
1762:Drivers/STM32H7xx_HAL_Driver/Src/stm32h7xx_ll_usb.c ****   * @brief  Start a transfer over a host channel
1763:Drivers/STM32H7xx_HAL_Driver/Src/stm32h7xx_ll_usb.c ****   * @param  USBx  Selected device
1764:Drivers/STM32H7xx_HAL_Driver/Src/stm32h7xx_ll_usb.c ****   * @param  hc  pointer to host channel structure
1765:Drivers/STM32H7xx_HAL_Driver/Src/stm32h7xx_ll_usb.c ****   * @param  dma USB dma enabled or disabled
1766:Drivers/STM32H7xx_HAL_Driver/Src/stm32h7xx_ll_usb.c ****   *          This parameter can be one of these values:
1767:Drivers/STM32H7xx_HAL_Driver/Src/stm32h7xx_ll_usb.c ****   *           0 : DMA feature not used
1768:Drivers/STM32H7xx_HAL_Driver/Src/stm32h7xx_ll_usb.c ****   *           1 : DMA feature used
1769:Drivers/STM32H7xx_HAL_Driver/Src/stm32h7xx_ll_usb.c ****   * @retval HAL state
1770:Drivers/STM32H7xx_HAL_Driver/Src/stm32h7xx_ll_usb.c ****   */
1771:Drivers/STM32H7xx_HAL_Driver/Src/stm32h7xx_ll_usb.c **** HAL_StatusTypeDef USB_HC_StartXfer(USB_OTG_GlobalTypeDef *USBx, USB_OTG_HCTypeDef *hc, uint8_t dma)
1772:Drivers/STM32H7xx_HAL_Driver/Src/stm32h7xx_ll_usb.c **** {
1773:Drivers/STM32H7xx_HAL_Driver/Src/stm32h7xx_ll_usb.c ****   uint32_t USBx_BASE = (uint32_t)USBx;
1774:Drivers/STM32H7xx_HAL_Driver/Src/stm32h7xx_ll_usb.c ****   uint32_t ch_num = (uint32_t)hc->ch_num;
1775:Drivers/STM32H7xx_HAL_Driver/Src/stm32h7xx_ll_usb.c ****   __IO uint32_t tmpreg;
1776:Drivers/STM32H7xx_HAL_Driver/Src/stm32h7xx_ll_usb.c ****   uint8_t  is_oddframe;
1777:Drivers/STM32H7xx_HAL_Driver/Src/stm32h7xx_ll_usb.c ****   uint16_t len_words;
1778:Drivers/STM32H7xx_HAL_Driver/Src/stm32h7xx_ll_usb.c ****   uint16_t num_packets;
1779:Drivers/STM32H7xx_HAL_Driver/Src/stm32h7xx_ll_usb.c ****   uint16_t max_hc_pkt_count = HC_MAX_PKT_CNT;
1780:Drivers/STM32H7xx_HAL_Driver/Src/stm32h7xx_ll_usb.c **** 
1781:Drivers/STM32H7xx_HAL_Driver/Src/stm32h7xx_ll_usb.c ****   /* in DMA mode host Core automatically issues ping in case of NYET/NAK */
1782:Drivers/STM32H7xx_HAL_Driver/Src/stm32h7xx_ll_usb.c ****   if (dma == 1U)
1783:Drivers/STM32H7xx_HAL_Driver/Src/stm32h7xx_ll_usb.c ****   {
1784:Drivers/STM32H7xx_HAL_Driver/Src/stm32h7xx_ll_usb.c ****     if ((hc->ep_type == EP_TYPE_CTRL) || (hc->ep_type == EP_TYPE_BULK))
1785:Drivers/STM32H7xx_HAL_Driver/Src/stm32h7xx_ll_usb.c ****     {
1786:Drivers/STM32H7xx_HAL_Driver/Src/stm32h7xx_ll_usb.c **** 
1787:Drivers/STM32H7xx_HAL_Driver/Src/stm32h7xx_ll_usb.c ****       USBx_HC((uint32_t)ch_num)->HCINTMSK &= ~(USB_OTG_HCINTMSK_NYET |
1788:Drivers/STM32H7xx_HAL_Driver/Src/stm32h7xx_ll_usb.c ****                                                USB_OTG_HCINTMSK_ACKM |
1789:Drivers/STM32H7xx_HAL_Driver/Src/stm32h7xx_ll_usb.c ****                                                USB_OTG_HCINTMSK_NAKM);
1790:Drivers/STM32H7xx_HAL_Driver/Src/stm32h7xx_ll_usb.c ****     }
1791:Drivers/STM32H7xx_HAL_Driver/Src/stm32h7xx_ll_usb.c ****   }
1792:Drivers/STM32H7xx_HAL_Driver/Src/stm32h7xx_ll_usb.c ****   else
1793:Drivers/STM32H7xx_HAL_Driver/Src/stm32h7xx_ll_usb.c ****   {
1794:Drivers/STM32H7xx_HAL_Driver/Src/stm32h7xx_ll_usb.c ****     if ((hc->speed == USBH_HS_SPEED) && (hc->do_ping == 1U))
1795:Drivers/STM32H7xx_HAL_Driver/Src/stm32h7xx_ll_usb.c ****     {
ARM GAS  /tmp/ccdP7LVA.s 			page 128


1796:Drivers/STM32H7xx_HAL_Driver/Src/stm32h7xx_ll_usb.c ****       (void)USB_DoPing(USBx, hc->ch_num);
1797:Drivers/STM32H7xx_HAL_Driver/Src/stm32h7xx_ll_usb.c ****       return HAL_OK;
1798:Drivers/STM32H7xx_HAL_Driver/Src/stm32h7xx_ll_usb.c ****     }
1799:Drivers/STM32H7xx_HAL_Driver/Src/stm32h7xx_ll_usb.c ****   }
1800:Drivers/STM32H7xx_HAL_Driver/Src/stm32h7xx_ll_usb.c **** 
1801:Drivers/STM32H7xx_HAL_Driver/Src/stm32h7xx_ll_usb.c ****   if (hc->do_ssplit == 1U)
1802:Drivers/STM32H7xx_HAL_Driver/Src/stm32h7xx_ll_usb.c ****   {
1803:Drivers/STM32H7xx_HAL_Driver/Src/stm32h7xx_ll_usb.c ****     /* Set number of packet to 1 for Split transaction */
1804:Drivers/STM32H7xx_HAL_Driver/Src/stm32h7xx_ll_usb.c ****     num_packets = 1U;
1805:Drivers/STM32H7xx_HAL_Driver/Src/stm32h7xx_ll_usb.c **** 
1806:Drivers/STM32H7xx_HAL_Driver/Src/stm32h7xx_ll_usb.c ****     if (hc->ep_is_in != 0U)
1807:Drivers/STM32H7xx_HAL_Driver/Src/stm32h7xx_ll_usb.c ****     {
1808:Drivers/STM32H7xx_HAL_Driver/Src/stm32h7xx_ll_usb.c ****       hc->XferSize = (uint32_t)num_packets * hc->max_packet;
1809:Drivers/STM32H7xx_HAL_Driver/Src/stm32h7xx_ll_usb.c ****     }
1810:Drivers/STM32H7xx_HAL_Driver/Src/stm32h7xx_ll_usb.c ****     else
1811:Drivers/STM32H7xx_HAL_Driver/Src/stm32h7xx_ll_usb.c ****     {
1812:Drivers/STM32H7xx_HAL_Driver/Src/stm32h7xx_ll_usb.c ****       if (hc->ep_type == EP_TYPE_ISOC)
1813:Drivers/STM32H7xx_HAL_Driver/Src/stm32h7xx_ll_usb.c ****       {
1814:Drivers/STM32H7xx_HAL_Driver/Src/stm32h7xx_ll_usb.c ****         if (hc->xfer_len > ISO_SPLT_MPS)
1815:Drivers/STM32H7xx_HAL_Driver/Src/stm32h7xx_ll_usb.c ****         {
1816:Drivers/STM32H7xx_HAL_Driver/Src/stm32h7xx_ll_usb.c ****           /* Isochrone Max Packet Size for Split mode */
1817:Drivers/STM32H7xx_HAL_Driver/Src/stm32h7xx_ll_usb.c ****           hc->XferSize = hc->max_packet;
1818:Drivers/STM32H7xx_HAL_Driver/Src/stm32h7xx_ll_usb.c ****           hc->xfer_len = hc->XferSize;
1819:Drivers/STM32H7xx_HAL_Driver/Src/stm32h7xx_ll_usb.c **** 
1820:Drivers/STM32H7xx_HAL_Driver/Src/stm32h7xx_ll_usb.c ****           if ((hc->iso_splt_xactPos == HCSPLT_BEGIN) || (hc->iso_splt_xactPos == HCSPLT_MIDDLE))
1821:Drivers/STM32H7xx_HAL_Driver/Src/stm32h7xx_ll_usb.c ****           {
1822:Drivers/STM32H7xx_HAL_Driver/Src/stm32h7xx_ll_usb.c ****             hc->iso_splt_xactPos = HCSPLT_MIDDLE;
1823:Drivers/STM32H7xx_HAL_Driver/Src/stm32h7xx_ll_usb.c ****           }
1824:Drivers/STM32H7xx_HAL_Driver/Src/stm32h7xx_ll_usb.c ****           else
1825:Drivers/STM32H7xx_HAL_Driver/Src/stm32h7xx_ll_usb.c ****           {
1826:Drivers/STM32H7xx_HAL_Driver/Src/stm32h7xx_ll_usb.c ****             hc->iso_splt_xactPos = HCSPLT_BEGIN;
1827:Drivers/STM32H7xx_HAL_Driver/Src/stm32h7xx_ll_usb.c ****           }
1828:Drivers/STM32H7xx_HAL_Driver/Src/stm32h7xx_ll_usb.c ****         }
1829:Drivers/STM32H7xx_HAL_Driver/Src/stm32h7xx_ll_usb.c ****         else
1830:Drivers/STM32H7xx_HAL_Driver/Src/stm32h7xx_ll_usb.c ****         {
1831:Drivers/STM32H7xx_HAL_Driver/Src/stm32h7xx_ll_usb.c ****           hc->XferSize = hc->xfer_len;
1832:Drivers/STM32H7xx_HAL_Driver/Src/stm32h7xx_ll_usb.c **** 
1833:Drivers/STM32H7xx_HAL_Driver/Src/stm32h7xx_ll_usb.c ****           if ((hc->iso_splt_xactPos != HCSPLT_BEGIN) && (hc->iso_splt_xactPos != HCSPLT_MIDDLE))
1834:Drivers/STM32H7xx_HAL_Driver/Src/stm32h7xx_ll_usb.c ****           {
1835:Drivers/STM32H7xx_HAL_Driver/Src/stm32h7xx_ll_usb.c ****             hc->iso_splt_xactPos = HCSPLT_FULL;
1836:Drivers/STM32H7xx_HAL_Driver/Src/stm32h7xx_ll_usb.c ****           }
1837:Drivers/STM32H7xx_HAL_Driver/Src/stm32h7xx_ll_usb.c ****           else
1838:Drivers/STM32H7xx_HAL_Driver/Src/stm32h7xx_ll_usb.c ****           {
1839:Drivers/STM32H7xx_HAL_Driver/Src/stm32h7xx_ll_usb.c ****             hc->iso_splt_xactPos = HCSPLT_END;
1840:Drivers/STM32H7xx_HAL_Driver/Src/stm32h7xx_ll_usb.c ****           }
1841:Drivers/STM32H7xx_HAL_Driver/Src/stm32h7xx_ll_usb.c ****         }
1842:Drivers/STM32H7xx_HAL_Driver/Src/stm32h7xx_ll_usb.c ****       }
1843:Drivers/STM32H7xx_HAL_Driver/Src/stm32h7xx_ll_usb.c ****       else
1844:Drivers/STM32H7xx_HAL_Driver/Src/stm32h7xx_ll_usb.c ****       {
1845:Drivers/STM32H7xx_HAL_Driver/Src/stm32h7xx_ll_usb.c ****         if ((dma == 1U) && (hc->xfer_len > hc->max_packet))
1846:Drivers/STM32H7xx_HAL_Driver/Src/stm32h7xx_ll_usb.c ****         {
1847:Drivers/STM32H7xx_HAL_Driver/Src/stm32h7xx_ll_usb.c ****           hc->XferSize = (uint32_t)num_packets * hc->max_packet;
1848:Drivers/STM32H7xx_HAL_Driver/Src/stm32h7xx_ll_usb.c ****         }
1849:Drivers/STM32H7xx_HAL_Driver/Src/stm32h7xx_ll_usb.c ****         else
1850:Drivers/STM32H7xx_HAL_Driver/Src/stm32h7xx_ll_usb.c ****         {
1851:Drivers/STM32H7xx_HAL_Driver/Src/stm32h7xx_ll_usb.c ****           hc->XferSize = hc->xfer_len;
1852:Drivers/STM32H7xx_HAL_Driver/Src/stm32h7xx_ll_usb.c ****         }
ARM GAS  /tmp/ccdP7LVA.s 			page 129


1853:Drivers/STM32H7xx_HAL_Driver/Src/stm32h7xx_ll_usb.c ****       }
1854:Drivers/STM32H7xx_HAL_Driver/Src/stm32h7xx_ll_usb.c ****     }
1855:Drivers/STM32H7xx_HAL_Driver/Src/stm32h7xx_ll_usb.c ****   }
1856:Drivers/STM32H7xx_HAL_Driver/Src/stm32h7xx_ll_usb.c ****   else
1857:Drivers/STM32H7xx_HAL_Driver/Src/stm32h7xx_ll_usb.c ****   {
1858:Drivers/STM32H7xx_HAL_Driver/Src/stm32h7xx_ll_usb.c ****     /* Compute the expected number of packets associated to the transfer */
1859:Drivers/STM32H7xx_HAL_Driver/Src/stm32h7xx_ll_usb.c ****     if (hc->xfer_len > 0U)
1860:Drivers/STM32H7xx_HAL_Driver/Src/stm32h7xx_ll_usb.c ****     {
1861:Drivers/STM32H7xx_HAL_Driver/Src/stm32h7xx_ll_usb.c ****       num_packets = (uint16_t)((hc->xfer_len + hc->max_packet - 1U) / hc->max_packet);
1862:Drivers/STM32H7xx_HAL_Driver/Src/stm32h7xx_ll_usb.c **** 
1863:Drivers/STM32H7xx_HAL_Driver/Src/stm32h7xx_ll_usb.c ****       if (num_packets > max_hc_pkt_count)
1864:Drivers/STM32H7xx_HAL_Driver/Src/stm32h7xx_ll_usb.c ****       {
1865:Drivers/STM32H7xx_HAL_Driver/Src/stm32h7xx_ll_usb.c ****         num_packets = max_hc_pkt_count;
1866:Drivers/STM32H7xx_HAL_Driver/Src/stm32h7xx_ll_usb.c ****         hc->XferSize = (uint32_t)num_packets * hc->max_packet;
1867:Drivers/STM32H7xx_HAL_Driver/Src/stm32h7xx_ll_usb.c ****       }
1868:Drivers/STM32H7xx_HAL_Driver/Src/stm32h7xx_ll_usb.c ****     }
1869:Drivers/STM32H7xx_HAL_Driver/Src/stm32h7xx_ll_usb.c ****     else
1870:Drivers/STM32H7xx_HAL_Driver/Src/stm32h7xx_ll_usb.c ****     {
1871:Drivers/STM32H7xx_HAL_Driver/Src/stm32h7xx_ll_usb.c ****       num_packets = 1U;
1872:Drivers/STM32H7xx_HAL_Driver/Src/stm32h7xx_ll_usb.c ****     }
1873:Drivers/STM32H7xx_HAL_Driver/Src/stm32h7xx_ll_usb.c **** 
1874:Drivers/STM32H7xx_HAL_Driver/Src/stm32h7xx_ll_usb.c ****     /*
1875:Drivers/STM32H7xx_HAL_Driver/Src/stm32h7xx_ll_usb.c ****     * For IN channel HCTSIZ.XferSize is expected to be an integer multiple of
1876:Drivers/STM32H7xx_HAL_Driver/Src/stm32h7xx_ll_usb.c ****     * max_packet size.
1877:Drivers/STM32H7xx_HAL_Driver/Src/stm32h7xx_ll_usb.c ****     */
1878:Drivers/STM32H7xx_HAL_Driver/Src/stm32h7xx_ll_usb.c ****     if (hc->ep_is_in != 0U)
1879:Drivers/STM32H7xx_HAL_Driver/Src/stm32h7xx_ll_usb.c ****     {
1880:Drivers/STM32H7xx_HAL_Driver/Src/stm32h7xx_ll_usb.c ****       hc->XferSize = (uint32_t)num_packets * hc->max_packet;
1881:Drivers/STM32H7xx_HAL_Driver/Src/stm32h7xx_ll_usb.c ****     }
1882:Drivers/STM32H7xx_HAL_Driver/Src/stm32h7xx_ll_usb.c ****     else
1883:Drivers/STM32H7xx_HAL_Driver/Src/stm32h7xx_ll_usb.c ****     {
1884:Drivers/STM32H7xx_HAL_Driver/Src/stm32h7xx_ll_usb.c ****       hc->XferSize = hc->xfer_len;
1885:Drivers/STM32H7xx_HAL_Driver/Src/stm32h7xx_ll_usb.c ****     }
1886:Drivers/STM32H7xx_HAL_Driver/Src/stm32h7xx_ll_usb.c ****   }
1887:Drivers/STM32H7xx_HAL_Driver/Src/stm32h7xx_ll_usb.c **** 
1888:Drivers/STM32H7xx_HAL_Driver/Src/stm32h7xx_ll_usb.c ****   /* Initialize the HCTSIZn register */
1889:Drivers/STM32H7xx_HAL_Driver/Src/stm32h7xx_ll_usb.c ****   USBx_HC(ch_num)->HCTSIZ = (hc->XferSize & USB_OTG_HCTSIZ_XFRSIZ) |
1890:Drivers/STM32H7xx_HAL_Driver/Src/stm32h7xx_ll_usb.c ****                             (((uint32_t)num_packets << 19) & USB_OTG_HCTSIZ_PKTCNT) |
1891:Drivers/STM32H7xx_HAL_Driver/Src/stm32h7xx_ll_usb.c ****                             (((uint32_t)hc->data_pid << 29) & USB_OTG_HCTSIZ_DPID);
1892:Drivers/STM32H7xx_HAL_Driver/Src/stm32h7xx_ll_usb.c **** 
1893:Drivers/STM32H7xx_HAL_Driver/Src/stm32h7xx_ll_usb.c ****   if (dma != 0U)
1894:Drivers/STM32H7xx_HAL_Driver/Src/stm32h7xx_ll_usb.c ****   {
1895:Drivers/STM32H7xx_HAL_Driver/Src/stm32h7xx_ll_usb.c ****     /* xfer_buff MUST be 32-bits aligned */
1896:Drivers/STM32H7xx_HAL_Driver/Src/stm32h7xx_ll_usb.c ****     USBx_HC(ch_num)->HCDMA = (uint32_t)hc->xfer_buff;
1897:Drivers/STM32H7xx_HAL_Driver/Src/stm32h7xx_ll_usb.c ****   }
1898:Drivers/STM32H7xx_HAL_Driver/Src/stm32h7xx_ll_usb.c **** 
1899:Drivers/STM32H7xx_HAL_Driver/Src/stm32h7xx_ll_usb.c ****   is_oddframe = (((uint32_t)USBx_HOST->HFNUM & 0x01U) != 0U) ? 0U : 1U;
1900:Drivers/STM32H7xx_HAL_Driver/Src/stm32h7xx_ll_usb.c ****   USBx_HC(ch_num)->HCCHAR &= ~USB_OTG_HCCHAR_ODDFRM;
1901:Drivers/STM32H7xx_HAL_Driver/Src/stm32h7xx_ll_usb.c ****   USBx_HC(ch_num)->HCCHAR |= (uint32_t)is_oddframe << 29;
1902:Drivers/STM32H7xx_HAL_Driver/Src/stm32h7xx_ll_usb.c **** 
1903:Drivers/STM32H7xx_HAL_Driver/Src/stm32h7xx_ll_usb.c ****   if (hc->do_ssplit == 1U)
1904:Drivers/STM32H7xx_HAL_Driver/Src/stm32h7xx_ll_usb.c ****   {
1905:Drivers/STM32H7xx_HAL_Driver/Src/stm32h7xx_ll_usb.c ****     /* Set Hub start Split transaction */
1906:Drivers/STM32H7xx_HAL_Driver/Src/stm32h7xx_ll_usb.c ****     USBx_HC((uint32_t)ch_num)->HCSPLT = ((uint32_t)hc->hub_addr << USB_OTG_HCSPLT_HUBADDR_Pos) |
1907:Drivers/STM32H7xx_HAL_Driver/Src/stm32h7xx_ll_usb.c ****                                         (uint32_t)hc->hub_port_nbr | USB_OTG_HCSPLT_SPLITEN;
1908:Drivers/STM32H7xx_HAL_Driver/Src/stm32h7xx_ll_usb.c **** 
1909:Drivers/STM32H7xx_HAL_Driver/Src/stm32h7xx_ll_usb.c ****     /* unmask ack & nyet for IN/OUT transactions */
ARM GAS  /tmp/ccdP7LVA.s 			page 130


1910:Drivers/STM32H7xx_HAL_Driver/Src/stm32h7xx_ll_usb.c ****     USBx_HC((uint32_t)ch_num)->HCINTMSK |= (USB_OTG_HCINTMSK_ACKM |
1911:Drivers/STM32H7xx_HAL_Driver/Src/stm32h7xx_ll_usb.c ****                                             USB_OTG_HCINTMSK_NYET);
1912:Drivers/STM32H7xx_HAL_Driver/Src/stm32h7xx_ll_usb.c **** 
1913:Drivers/STM32H7xx_HAL_Driver/Src/stm32h7xx_ll_usb.c ****     if ((hc->do_csplit == 1U) && (hc->ep_is_in == 0U))
1914:Drivers/STM32H7xx_HAL_Driver/Src/stm32h7xx_ll_usb.c ****     {
1915:Drivers/STM32H7xx_HAL_Driver/Src/stm32h7xx_ll_usb.c ****       USBx_HC((uint32_t)ch_num)->HCSPLT |= USB_OTG_HCSPLT_COMPLSPLT;
1916:Drivers/STM32H7xx_HAL_Driver/Src/stm32h7xx_ll_usb.c ****       USBx_HC((uint32_t)ch_num)->HCINTMSK |= USB_OTG_HCINTMSK_NYET;
1917:Drivers/STM32H7xx_HAL_Driver/Src/stm32h7xx_ll_usb.c ****     }
1918:Drivers/STM32H7xx_HAL_Driver/Src/stm32h7xx_ll_usb.c **** 
1919:Drivers/STM32H7xx_HAL_Driver/Src/stm32h7xx_ll_usb.c ****     if (((hc->ep_type == EP_TYPE_ISOC) || (hc->ep_type == EP_TYPE_INTR)) &&
1920:Drivers/STM32H7xx_HAL_Driver/Src/stm32h7xx_ll_usb.c ****         (hc->do_csplit == 1U) && (hc->ep_is_in == 1U))
1921:Drivers/STM32H7xx_HAL_Driver/Src/stm32h7xx_ll_usb.c ****     {
1922:Drivers/STM32H7xx_HAL_Driver/Src/stm32h7xx_ll_usb.c ****       USBx_HC((uint32_t)ch_num)->HCSPLT |= USB_OTG_HCSPLT_COMPLSPLT;
1923:Drivers/STM32H7xx_HAL_Driver/Src/stm32h7xx_ll_usb.c ****     }
1924:Drivers/STM32H7xx_HAL_Driver/Src/stm32h7xx_ll_usb.c **** 
1925:Drivers/STM32H7xx_HAL_Driver/Src/stm32h7xx_ll_usb.c ****     /* Position management for iso out transaction on split mode */
1926:Drivers/STM32H7xx_HAL_Driver/Src/stm32h7xx_ll_usb.c ****     if ((hc->ep_type == EP_TYPE_ISOC) && (hc->ep_is_in == 0U))
1927:Drivers/STM32H7xx_HAL_Driver/Src/stm32h7xx_ll_usb.c ****     {
1928:Drivers/STM32H7xx_HAL_Driver/Src/stm32h7xx_ll_usb.c ****       /* Set data payload position */
1929:Drivers/STM32H7xx_HAL_Driver/Src/stm32h7xx_ll_usb.c ****       switch (hc->iso_splt_xactPos)
1930:Drivers/STM32H7xx_HAL_Driver/Src/stm32h7xx_ll_usb.c ****       {
1931:Drivers/STM32H7xx_HAL_Driver/Src/stm32h7xx_ll_usb.c ****         case HCSPLT_BEGIN:
1932:Drivers/STM32H7xx_HAL_Driver/Src/stm32h7xx_ll_usb.c ****           /* First data payload for OUT Transaction */
1933:Drivers/STM32H7xx_HAL_Driver/Src/stm32h7xx_ll_usb.c ****           USBx_HC((uint32_t)ch_num)->HCSPLT |= USB_OTG_HCSPLT_XACTPOS_1;
1934:Drivers/STM32H7xx_HAL_Driver/Src/stm32h7xx_ll_usb.c ****           break;
1935:Drivers/STM32H7xx_HAL_Driver/Src/stm32h7xx_ll_usb.c **** 
1936:Drivers/STM32H7xx_HAL_Driver/Src/stm32h7xx_ll_usb.c ****         case HCSPLT_MIDDLE:
1937:Drivers/STM32H7xx_HAL_Driver/Src/stm32h7xx_ll_usb.c ****           /* Middle data payload for OUT Transaction */
1938:Drivers/STM32H7xx_HAL_Driver/Src/stm32h7xx_ll_usb.c ****           USBx_HC((uint32_t)ch_num)->HCSPLT |= USB_OTG_HCSPLT_XACTPOS_Pos;
1939:Drivers/STM32H7xx_HAL_Driver/Src/stm32h7xx_ll_usb.c ****           break;
1940:Drivers/STM32H7xx_HAL_Driver/Src/stm32h7xx_ll_usb.c **** 
1941:Drivers/STM32H7xx_HAL_Driver/Src/stm32h7xx_ll_usb.c ****         case HCSPLT_END:
1942:Drivers/STM32H7xx_HAL_Driver/Src/stm32h7xx_ll_usb.c ****           /* End data payload for OUT Transaction */
1943:Drivers/STM32H7xx_HAL_Driver/Src/stm32h7xx_ll_usb.c ****           USBx_HC((uint32_t)ch_num)->HCSPLT |= USB_OTG_HCSPLT_XACTPOS_0;
1944:Drivers/STM32H7xx_HAL_Driver/Src/stm32h7xx_ll_usb.c ****           break;
1945:Drivers/STM32H7xx_HAL_Driver/Src/stm32h7xx_ll_usb.c **** 
1946:Drivers/STM32H7xx_HAL_Driver/Src/stm32h7xx_ll_usb.c ****         case HCSPLT_FULL:
1947:Drivers/STM32H7xx_HAL_Driver/Src/stm32h7xx_ll_usb.c ****           /* Entire data payload for OUT Transaction */
1948:Drivers/STM32H7xx_HAL_Driver/Src/stm32h7xx_ll_usb.c ****           USBx_HC((uint32_t)ch_num)->HCSPLT |= USB_OTG_HCSPLT_XACTPOS;
1949:Drivers/STM32H7xx_HAL_Driver/Src/stm32h7xx_ll_usb.c ****           break;
1950:Drivers/STM32H7xx_HAL_Driver/Src/stm32h7xx_ll_usb.c **** 
1951:Drivers/STM32H7xx_HAL_Driver/Src/stm32h7xx_ll_usb.c ****         default:
1952:Drivers/STM32H7xx_HAL_Driver/Src/stm32h7xx_ll_usb.c ****           break;
1953:Drivers/STM32H7xx_HAL_Driver/Src/stm32h7xx_ll_usb.c ****       }
1954:Drivers/STM32H7xx_HAL_Driver/Src/stm32h7xx_ll_usb.c ****     }
1955:Drivers/STM32H7xx_HAL_Driver/Src/stm32h7xx_ll_usb.c ****   }
1956:Drivers/STM32H7xx_HAL_Driver/Src/stm32h7xx_ll_usb.c ****   else
1957:Drivers/STM32H7xx_HAL_Driver/Src/stm32h7xx_ll_usb.c ****   {
1958:Drivers/STM32H7xx_HAL_Driver/Src/stm32h7xx_ll_usb.c ****     /* Clear Hub Start Split transaction */
1959:Drivers/STM32H7xx_HAL_Driver/Src/stm32h7xx_ll_usb.c ****     USBx_HC((uint32_t)ch_num)->HCSPLT = 0U;
1960:Drivers/STM32H7xx_HAL_Driver/Src/stm32h7xx_ll_usb.c ****   }
1961:Drivers/STM32H7xx_HAL_Driver/Src/stm32h7xx_ll_usb.c **** 
1962:Drivers/STM32H7xx_HAL_Driver/Src/stm32h7xx_ll_usb.c ****   /* Set host channel enable */
1963:Drivers/STM32H7xx_HAL_Driver/Src/stm32h7xx_ll_usb.c ****   tmpreg = USBx_HC(ch_num)->HCCHAR;
1964:Drivers/STM32H7xx_HAL_Driver/Src/stm32h7xx_ll_usb.c ****   tmpreg &= ~USB_OTG_HCCHAR_CHDIS;
1965:Drivers/STM32H7xx_HAL_Driver/Src/stm32h7xx_ll_usb.c **** 
1966:Drivers/STM32H7xx_HAL_Driver/Src/stm32h7xx_ll_usb.c ****   /* make sure to set the correct ep direction */
ARM GAS  /tmp/ccdP7LVA.s 			page 131


1967:Drivers/STM32H7xx_HAL_Driver/Src/stm32h7xx_ll_usb.c ****   if (hc->ep_is_in != 0U)
1968:Drivers/STM32H7xx_HAL_Driver/Src/stm32h7xx_ll_usb.c ****   {
1969:Drivers/STM32H7xx_HAL_Driver/Src/stm32h7xx_ll_usb.c ****     tmpreg |= USB_OTG_HCCHAR_EPDIR;
1970:Drivers/STM32H7xx_HAL_Driver/Src/stm32h7xx_ll_usb.c ****   }
1971:Drivers/STM32H7xx_HAL_Driver/Src/stm32h7xx_ll_usb.c ****   else
1972:Drivers/STM32H7xx_HAL_Driver/Src/stm32h7xx_ll_usb.c ****   {
1973:Drivers/STM32H7xx_HAL_Driver/Src/stm32h7xx_ll_usb.c ****     tmpreg &= ~USB_OTG_HCCHAR_EPDIR;
1974:Drivers/STM32H7xx_HAL_Driver/Src/stm32h7xx_ll_usb.c ****   }
1975:Drivers/STM32H7xx_HAL_Driver/Src/stm32h7xx_ll_usb.c ****   tmpreg |= USB_OTG_HCCHAR_CHENA;
1976:Drivers/STM32H7xx_HAL_Driver/Src/stm32h7xx_ll_usb.c ****   USBx_HC(ch_num)->HCCHAR = tmpreg;
1977:Drivers/STM32H7xx_HAL_Driver/Src/stm32h7xx_ll_usb.c **** 
1978:Drivers/STM32H7xx_HAL_Driver/Src/stm32h7xx_ll_usb.c ****   if (dma != 0U) /* dma mode */
1979:Drivers/STM32H7xx_HAL_Driver/Src/stm32h7xx_ll_usb.c ****   {
1980:Drivers/STM32H7xx_HAL_Driver/Src/stm32h7xx_ll_usb.c ****     return HAL_OK;
1981:Drivers/STM32H7xx_HAL_Driver/Src/stm32h7xx_ll_usb.c ****   }
1982:Drivers/STM32H7xx_HAL_Driver/Src/stm32h7xx_ll_usb.c **** 
1983:Drivers/STM32H7xx_HAL_Driver/Src/stm32h7xx_ll_usb.c ****   if ((hc->ep_is_in == 0U) && (hc->xfer_len > 0U) && (hc->do_csplit == 0U))
1984:Drivers/STM32H7xx_HAL_Driver/Src/stm32h7xx_ll_usb.c ****   {
1985:Drivers/STM32H7xx_HAL_Driver/Src/stm32h7xx_ll_usb.c ****     switch (hc->ep_type)
1986:Drivers/STM32H7xx_HAL_Driver/Src/stm32h7xx_ll_usb.c ****     {
1987:Drivers/STM32H7xx_HAL_Driver/Src/stm32h7xx_ll_usb.c ****       /* Non periodic transfer */
1988:Drivers/STM32H7xx_HAL_Driver/Src/stm32h7xx_ll_usb.c ****       case EP_TYPE_CTRL:
1989:Drivers/STM32H7xx_HAL_Driver/Src/stm32h7xx_ll_usb.c ****       case EP_TYPE_BULK:
1990:Drivers/STM32H7xx_HAL_Driver/Src/stm32h7xx_ll_usb.c **** 
1991:Drivers/STM32H7xx_HAL_Driver/Src/stm32h7xx_ll_usb.c ****         len_words = (uint16_t)((hc->xfer_len + 3U) / 4U);
1992:Drivers/STM32H7xx_HAL_Driver/Src/stm32h7xx_ll_usb.c **** 
1993:Drivers/STM32H7xx_HAL_Driver/Src/stm32h7xx_ll_usb.c ****         /* check if there is enough space in FIFO space */
1994:Drivers/STM32H7xx_HAL_Driver/Src/stm32h7xx_ll_usb.c ****         if (len_words > (USBx->HNPTXSTS & 0xFFFFU))
1995:Drivers/STM32H7xx_HAL_Driver/Src/stm32h7xx_ll_usb.c ****         {
1996:Drivers/STM32H7xx_HAL_Driver/Src/stm32h7xx_ll_usb.c ****           /* need to process data in nptxfempty interrupt */
1997:Drivers/STM32H7xx_HAL_Driver/Src/stm32h7xx_ll_usb.c ****           USBx->GINTMSK |= USB_OTG_GINTMSK_NPTXFEM;
1998:Drivers/STM32H7xx_HAL_Driver/Src/stm32h7xx_ll_usb.c ****         }
1999:Drivers/STM32H7xx_HAL_Driver/Src/stm32h7xx_ll_usb.c ****         break;
2000:Drivers/STM32H7xx_HAL_Driver/Src/stm32h7xx_ll_usb.c **** 
2001:Drivers/STM32H7xx_HAL_Driver/Src/stm32h7xx_ll_usb.c ****       /* Periodic transfer */
2002:Drivers/STM32H7xx_HAL_Driver/Src/stm32h7xx_ll_usb.c ****       case EP_TYPE_INTR:
2003:Drivers/STM32H7xx_HAL_Driver/Src/stm32h7xx_ll_usb.c ****       case EP_TYPE_ISOC:
2004:Drivers/STM32H7xx_HAL_Driver/Src/stm32h7xx_ll_usb.c ****         len_words = (uint16_t)((hc->xfer_len + 3U) / 4U);
2005:Drivers/STM32H7xx_HAL_Driver/Src/stm32h7xx_ll_usb.c ****         /* check if there is enough space in FIFO space */
2006:Drivers/STM32H7xx_HAL_Driver/Src/stm32h7xx_ll_usb.c ****         if (len_words > (USBx_HOST->HPTXSTS & 0xFFFFU)) /* split the transfer */
2007:Drivers/STM32H7xx_HAL_Driver/Src/stm32h7xx_ll_usb.c ****         {
2008:Drivers/STM32H7xx_HAL_Driver/Src/stm32h7xx_ll_usb.c ****           /* need to process data in ptxfempty interrupt */
2009:Drivers/STM32H7xx_HAL_Driver/Src/stm32h7xx_ll_usb.c ****           USBx->GINTMSK |= USB_OTG_GINTMSK_PTXFEM;
2010:Drivers/STM32H7xx_HAL_Driver/Src/stm32h7xx_ll_usb.c ****         }
2011:Drivers/STM32H7xx_HAL_Driver/Src/stm32h7xx_ll_usb.c ****         break;
2012:Drivers/STM32H7xx_HAL_Driver/Src/stm32h7xx_ll_usb.c **** 
2013:Drivers/STM32H7xx_HAL_Driver/Src/stm32h7xx_ll_usb.c ****       default:
2014:Drivers/STM32H7xx_HAL_Driver/Src/stm32h7xx_ll_usb.c ****         break;
2015:Drivers/STM32H7xx_HAL_Driver/Src/stm32h7xx_ll_usb.c ****     }
2016:Drivers/STM32H7xx_HAL_Driver/Src/stm32h7xx_ll_usb.c **** 
2017:Drivers/STM32H7xx_HAL_Driver/Src/stm32h7xx_ll_usb.c ****     /* Write packet into the Tx FIFO. */
2018:Drivers/STM32H7xx_HAL_Driver/Src/stm32h7xx_ll_usb.c ****     (void)USB_WritePacket(USBx, hc->xfer_buff, hc->ch_num, (uint16_t)hc->xfer_len, 0);
2019:Drivers/STM32H7xx_HAL_Driver/Src/stm32h7xx_ll_usb.c ****   }
2020:Drivers/STM32H7xx_HAL_Driver/Src/stm32h7xx_ll_usb.c **** 
2021:Drivers/STM32H7xx_HAL_Driver/Src/stm32h7xx_ll_usb.c ****   return HAL_OK;
2022:Drivers/STM32H7xx_HAL_Driver/Src/stm32h7xx_ll_usb.c **** }
2023:Drivers/STM32H7xx_HAL_Driver/Src/stm32h7xx_ll_usb.c **** 
ARM GAS  /tmp/ccdP7LVA.s 			page 132


2024:Drivers/STM32H7xx_HAL_Driver/Src/stm32h7xx_ll_usb.c **** /**
2025:Drivers/STM32H7xx_HAL_Driver/Src/stm32h7xx_ll_usb.c ****   * @brief Read all host channel interrupts status
2026:Drivers/STM32H7xx_HAL_Driver/Src/stm32h7xx_ll_usb.c ****   * @param  USBx  Selected device
2027:Drivers/STM32H7xx_HAL_Driver/Src/stm32h7xx_ll_usb.c ****   * @retval HAL state
2028:Drivers/STM32H7xx_HAL_Driver/Src/stm32h7xx_ll_usb.c ****   */
2029:Drivers/STM32H7xx_HAL_Driver/Src/stm32h7xx_ll_usb.c **** uint32_t USB_HC_ReadInterrupt(const USB_OTG_GlobalTypeDef *USBx)
2030:Drivers/STM32H7xx_HAL_Driver/Src/stm32h7xx_ll_usb.c **** {
 4383              		.loc 1 2030 1 is_stmt 1 view -0
 4384              		.cfi_startproc
 4385              		@ args = 0, pretend = 0, frame = 0
 4386              		@ frame_needed = 0, uses_anonymous_args = 0
 4387              		@ link register save eliminated.
2031:Drivers/STM32H7xx_HAL_Driver/Src/stm32h7xx_ll_usb.c ****   uint32_t USBx_BASE = (uint32_t)USBx;
 4388              		.loc 1 2031 3 view .LVU1379
2032:Drivers/STM32H7xx_HAL_Driver/Src/stm32h7xx_ll_usb.c **** 
2033:Drivers/STM32H7xx_HAL_Driver/Src/stm32h7xx_ll_usb.c ****   return ((USBx_HOST->HAINT) & 0xFFFFU);
 4389              		.loc 1 2033 3 view .LVU1380
 4390              		.loc 1 2033 12 is_stmt 0 view .LVU1381
 4391 0000 00F58060 		add	r0, r0, #1024
 4392              	.LVL343:
 4393              		.loc 1 2033 21 view .LVU1382
 4394 0004 4069     		ldr	r0, [r0, #20]
 4395              	.LVL344:
2034:Drivers/STM32H7xx_HAL_Driver/Src/stm32h7xx_ll_usb.c **** }
 4396              		.loc 1 2034 1 view .LVU1383
 4397 0006 80B2     		uxth	r0, r0
 4398 0008 7047     		bx	lr
 4399              		.cfi_endproc
 4400              	.LFE187:
 4402              		.section	.text.USB_HC_Halt,"ax",%progbits
 4403              		.align	1
 4404              		.global	USB_HC_Halt
 4405              		.syntax unified
 4406              		.thumb
 4407              		.thumb_func
 4408              		.fpu fpv5-d16
 4410              	USB_HC_Halt:
 4411              	.LVL345:
 4412              	.LFB188:
2035:Drivers/STM32H7xx_HAL_Driver/Src/stm32h7xx_ll_usb.c **** 
2036:Drivers/STM32H7xx_HAL_Driver/Src/stm32h7xx_ll_usb.c **** /**
2037:Drivers/STM32H7xx_HAL_Driver/Src/stm32h7xx_ll_usb.c ****   * @brief  Halt a host channel
2038:Drivers/STM32H7xx_HAL_Driver/Src/stm32h7xx_ll_usb.c ****   * @param  USBx  Selected device
2039:Drivers/STM32H7xx_HAL_Driver/Src/stm32h7xx_ll_usb.c ****   * @param  hc_num  Host Channel number
2040:Drivers/STM32H7xx_HAL_Driver/Src/stm32h7xx_ll_usb.c ****   *         This parameter can be a value from 1 to 15
2041:Drivers/STM32H7xx_HAL_Driver/Src/stm32h7xx_ll_usb.c ****   * @retval HAL state
2042:Drivers/STM32H7xx_HAL_Driver/Src/stm32h7xx_ll_usb.c ****   */
2043:Drivers/STM32H7xx_HAL_Driver/Src/stm32h7xx_ll_usb.c **** HAL_StatusTypeDef USB_HC_Halt(const USB_OTG_GlobalTypeDef *USBx, uint8_t hc_num)
2044:Drivers/STM32H7xx_HAL_Driver/Src/stm32h7xx_ll_usb.c **** {
 4413              		.loc 1 2044 1 is_stmt 1 view -0
 4414              		.cfi_startproc
 4415              		@ args = 0, pretend = 0, frame = 8
 4416              		@ frame_needed = 0, uses_anonymous_args = 0
 4417              		@ link register save eliminated.
 4418              		.loc 1 2044 1 is_stmt 0 view .LVU1385
 4419 0000 70B4     		push	{r4, r5, r6}
 4420              	.LCFI66:
ARM GAS  /tmp/ccdP7LVA.s 			page 133


 4421              		.cfi_def_cfa_offset 12
 4422              		.cfi_offset 4, -12
 4423              		.cfi_offset 5, -8
 4424              		.cfi_offset 6, -4
 4425 0002 83B0     		sub	sp, sp, #12
 4426              	.LCFI67:
 4427              		.cfi_def_cfa_offset 24
2045:Drivers/STM32H7xx_HAL_Driver/Src/stm32h7xx_ll_usb.c ****   uint32_t USBx_BASE = (uint32_t)USBx;
 4428              		.loc 1 2045 3 is_stmt 1 view .LVU1386
 4429              	.LVL346:
2046:Drivers/STM32H7xx_HAL_Driver/Src/stm32h7xx_ll_usb.c ****   uint32_t hcnum = (uint32_t)hc_num;
 4430              		.loc 1 2046 3 view .LVU1387
2047:Drivers/STM32H7xx_HAL_Driver/Src/stm32h7xx_ll_usb.c ****   __IO uint32_t count = 0U;
 4431              		.loc 1 2047 3 view .LVU1388
 4432              		.loc 1 2047 17 is_stmt 0 view .LVU1389
 4433 0004 0023     		movs	r3, #0
 4434 0006 0193     		str	r3, [sp, #4]
2048:Drivers/STM32H7xx_HAL_Driver/Src/stm32h7xx_ll_usb.c ****   uint32_t HcEpType = (USBx_HC(hcnum)->HCCHAR & USB_OTG_HCCHAR_EPTYP) >> 18;
 4435              		.loc 1 2048 3 is_stmt 1 view .LVU1390
 4436              		.loc 1 2048 24 is_stmt 0 view .LVU1391
 4437 0008 00EB4111 		add	r1, r0, r1, lsl #5
 4438              	.LVL347:
 4439              		.loc 1 2048 24 view .LVU1392
 4440 000c 01F5A062 		add	r2, r1, #1280
 4441              		.loc 1 2048 38 view .LVU1393
 4442 0010 D1F80035 		ldr	r3, [r1, #1280]
 4443              		.loc 1 2048 12 view .LVU1394
 4444 0014 C3F38143 		ubfx	r3, r3, #18, #2
 4445              	.LVL348:
2049:Drivers/STM32H7xx_HAL_Driver/Src/stm32h7xx_ll_usb.c ****   uint32_t ChannelEna = (USBx_HC(hcnum)->HCCHAR & USB_OTG_HCCHAR_CHENA) >> 31;
 4446              		.loc 1 2049 3 is_stmt 1 view .LVU1395
 4447              		.loc 1 2049 40 is_stmt 0 view .LVU1396
 4448 0018 D1F80055 		ldr	r5, [r1, #1280]
 4449              	.LVL349:
2050:Drivers/STM32H7xx_HAL_Driver/Src/stm32h7xx_ll_usb.c ****   uint32_t SplitEna = (USBx_HC(hcnum)->HCSPLT & USB_OTG_HCSPLT_SPLITEN) >> 31;
 4450              		.loc 1 2050 3 is_stmt 1 view .LVU1397
 4451              		.loc 1 2050 38 is_stmt 0 view .LVU1398
 4452 001c 5468     		ldr	r4, [r2, #4]
 4453              		.loc 1 2050 73 view .LVU1399
 4454 001e E40F     		lsrs	r4, r4, #31
 4455              	.LVL350:
2051:Drivers/STM32H7xx_HAL_Driver/Src/stm32h7xx_ll_usb.c **** 
2052:Drivers/STM32H7xx_HAL_Driver/Src/stm32h7xx_ll_usb.c ****   /* In buffer DMA, Channel disable must not be programmed for non-split periodic channels.
2053:Drivers/STM32H7xx_HAL_Driver/Src/stm32h7xx_ll_usb.c ****      At the end of the next uframe/frame (in the worst case), the core generates a channel halted
2054:Drivers/STM32H7xx_HAL_Driver/Src/stm32h7xx_ll_usb.c ****      and disables the channel automatically. */
2055:Drivers/STM32H7xx_HAL_Driver/Src/stm32h7xx_ll_usb.c **** 
2056:Drivers/STM32H7xx_HAL_Driver/Src/stm32h7xx_ll_usb.c ****   if ((((USBx->GAHBCFG & USB_OTG_GAHBCFG_DMAEN) == USB_OTG_GAHBCFG_DMAEN) && (SplitEna == 0U)) &&
 4456              		.loc 1 2056 3 is_stmt 1 view .LVU1400
 4457              		.loc 1 2056 14 is_stmt 0 view .LVU1401
 4458 0020 8668     		ldr	r6, [r0, #8]
 4459              		.loc 1 2056 6 view .LVU1402
 4460 0022 16F0200F 		tst	r6, #32
 4461 0026 07D0     		beq	.L281
 4462 0028 ED0F     		lsrs	r5, r5, #31
 4463              	.LVL351:
 4464              		.loc 1 2056 75 discriminator 1 view .LVU1403
 4465 002a 2CB9     		cbnz	r4, .L281
ARM GAS  /tmp/ccdP7LVA.s 			page 134


 4466              		.loc 1 2056 96 discriminator 2 view .LVU1404
 4467 002c 002D     		cmp	r5, #0
 4468 002e 3ED0     		beq	.L282
2057:Drivers/STM32H7xx_HAL_Driver/Src/stm32h7xx_ll_usb.c ****       ((ChannelEna == 0U) || (((HcEpType == HCCHAR_ISOC) || (HcEpType == HCCHAR_INTR)))))
 4469              		.loc 1 2057 27 view .LVU1405
 4470 0030 032B     		cmp	r3, #3
 4471 0032 18BF     		it	ne
 4472 0034 012B     		cmpne	r3, #1
 4473 0036 3AD0     		beq	.L282
 4474              	.LVL352:
 4475              	.L281:
2058:Drivers/STM32H7xx_HAL_Driver/Src/stm32h7xx_ll_usb.c ****   {
2059:Drivers/STM32H7xx_HAL_Driver/Src/stm32h7xx_ll_usb.c ****     return HAL_OK;
2060:Drivers/STM32H7xx_HAL_Driver/Src/stm32h7xx_ll_usb.c ****   }
2061:Drivers/STM32H7xx_HAL_Driver/Src/stm32h7xx_ll_usb.c **** 
2062:Drivers/STM32H7xx_HAL_Driver/Src/stm32h7xx_ll_usb.c ****   /* Check for space in the request queue to issue the halt. */
2063:Drivers/STM32H7xx_HAL_Driver/Src/stm32h7xx_ll_usb.c ****   if ((HcEpType == HCCHAR_CTRL) || (HcEpType == HCCHAR_BULK))
 4476              		.loc 1 2063 3 is_stmt 1 view .LVU1406
 4477              		.loc 1 2063 46 is_stmt 0 view .LVU1407
 4478 0038 022B     		cmp	r3, #2
 4479 003a 14BF     		ite	ne
 4480 003c 0024     		movne	r4, #0
 4481              	.LVL353:
 4482              		.loc 1 2063 46 view .LVU1408
 4483 003e 0124     		moveq	r4, #1
 4484              		.loc 1 2063 33 view .LVU1409
 4485 0040 002B     		cmp	r3, #0
 4486 0042 14BF     		ite	ne
 4487 0044 2346     		movne	r3, r4
 4488 0046 0123     		moveq	r3, #1
 4489              	.LVL354:
 4490              		.loc 1 2063 6 view .LVU1410
 4491 0048 ABB3     		cbz	r3, .L283
2064:Drivers/STM32H7xx_HAL_Driver/Src/stm32h7xx_ll_usb.c ****   {
2065:Drivers/STM32H7xx_HAL_Driver/Src/stm32h7xx_ll_usb.c ****     USBx_HC(hcnum)->HCCHAR |= USB_OTG_HCCHAR_CHDIS;
 4492              		.loc 1 2065 5 is_stmt 1 view .LVU1411
 4493              		.loc 1 2065 28 is_stmt 0 view .LVU1412
 4494 004a D1F80035 		ldr	r3, [r1, #1280]
 4495 004e 43F08043 		orr	r3, r3, #1073741824
 4496 0052 C1F80035 		str	r3, [r1, #1280]
2066:Drivers/STM32H7xx_HAL_Driver/Src/stm32h7xx_ll_usb.c **** 
2067:Drivers/STM32H7xx_HAL_Driver/Src/stm32h7xx_ll_usb.c ****     if ((USBx->GAHBCFG & USB_OTG_GAHBCFG_DMAEN) == 0U)
 4497              		.loc 1 2067 5 is_stmt 1 view .LVU1413
 4498              		.loc 1 2067 14 is_stmt 0 view .LVU1414
 4499 0056 8368     		ldr	r3, [r0, #8]
 4500              		.loc 1 2067 8 view .LVU1415
 4501 0058 13F0200F 		tst	r3, #32
 4502 005c 21D1     		bne	.L284
2068:Drivers/STM32H7xx_HAL_Driver/Src/stm32h7xx_ll_usb.c ****     {
2069:Drivers/STM32H7xx_HAL_Driver/Src/stm32h7xx_ll_usb.c ****       if ((USBx->HNPTXSTS & (0xFFU << 16)) == 0U)
 4503              		.loc 1 2069 7 is_stmt 1 view .LVU1416
 4504              		.loc 1 2069 16 is_stmt 0 view .LVU1417
 4505 005e C36A     		ldr	r3, [r0, #44]
 4506              		.loc 1 2069 10 view .LVU1418
 4507 0060 13F47F0F 		tst	r3, #16711680
 4508 0064 16D1     		bne	.L285
2070:Drivers/STM32H7xx_HAL_Driver/Src/stm32h7xx_ll_usb.c ****       {
ARM GAS  /tmp/ccdP7LVA.s 			page 135


2071:Drivers/STM32H7xx_HAL_Driver/Src/stm32h7xx_ll_usb.c ****         USBx_HC(hcnum)->HCCHAR &= ~USB_OTG_HCCHAR_CHENA;
 4509              		.loc 1 2071 9 is_stmt 1 view .LVU1419
 4510              		.loc 1 2071 32 is_stmt 0 view .LVU1420
 4511 0066 D1F80035 		ldr	r3, [r1, #1280]
 4512 006a 23F00043 		bic	r3, r3, #-2147483648
 4513 006e C1F80035 		str	r3, [r1, #1280]
2072:Drivers/STM32H7xx_HAL_Driver/Src/stm32h7xx_ll_usb.c ****         USBx_HC(hcnum)->HCCHAR |= USB_OTG_HCCHAR_CHENA;
 4514              		.loc 1 2072 9 is_stmt 1 view .LVU1421
 4515              		.loc 1 2072 32 is_stmt 0 view .LVU1422
 4516 0072 D1F80035 		ldr	r3, [r1, #1280]
 4517 0076 43F00043 		orr	r3, r3, #-2147483648
 4518 007a C1F80035 		str	r3, [r1, #1280]
 4519              	.L286:
2073:Drivers/STM32H7xx_HAL_Driver/Src/stm32h7xx_ll_usb.c ****         do
 4520              		.loc 1 2073 9 is_stmt 1 view .LVU1423
2074:Drivers/STM32H7xx_HAL_Driver/Src/stm32h7xx_ll_usb.c ****         {
2075:Drivers/STM32H7xx_HAL_Driver/Src/stm32h7xx_ll_usb.c ****           count++;
 4521              		.loc 1 2075 11 view .LVU1424
 4522              		.loc 1 2075 16 is_stmt 0 view .LVU1425
 4523 007e 019B     		ldr	r3, [sp, #4]
 4524 0080 0133     		adds	r3, r3, #1
 4525 0082 0193     		str	r3, [sp, #4]
2076:Drivers/STM32H7xx_HAL_Driver/Src/stm32h7xx_ll_usb.c **** 
2077:Drivers/STM32H7xx_HAL_Driver/Src/stm32h7xx_ll_usb.c ****           if (count > 1000U)
 4526              		.loc 1 2077 11 is_stmt 1 view .LVU1426
 4527              		.loc 1 2077 21 is_stmt 0 view .LVU1427
 4528 0084 019B     		ldr	r3, [sp, #4]
 4529              		.loc 1 2077 14 view .LVU1428
 4530 0086 B3F57A7F 		cmp	r3, #1000
 4531 008a 10D8     		bhi	.L282
2078:Drivers/STM32H7xx_HAL_Driver/Src/stm32h7xx_ll_usb.c ****           {
2079:Drivers/STM32H7xx_HAL_Driver/Src/stm32h7xx_ll_usb.c ****             break;
2080:Drivers/STM32H7xx_HAL_Driver/Src/stm32h7xx_ll_usb.c ****           }
2081:Drivers/STM32H7xx_HAL_Driver/Src/stm32h7xx_ll_usb.c ****         } while ((USBx_HC(hcnum)->HCCHAR & USB_OTG_HCCHAR_CHENA) == USB_OTG_HCCHAR_CHENA);
 4532              		.loc 1 2081 17 is_stmt 1 view .LVU1429
 4533              		.loc 1 2081 33 is_stmt 0 view .LVU1430
 4534 008c 1368     		ldr	r3, [r2]
 4535              		.loc 1 2081 9 view .LVU1431
 4536 008e 002B     		cmp	r3, #0
 4537 0090 F5DB     		blt	.L286
 4538 0092 0CE0     		b	.L282
 4539              	.L285:
2082:Drivers/STM32H7xx_HAL_Driver/Src/stm32h7xx_ll_usb.c ****       }
2083:Drivers/STM32H7xx_HAL_Driver/Src/stm32h7xx_ll_usb.c ****       else
2084:Drivers/STM32H7xx_HAL_Driver/Src/stm32h7xx_ll_usb.c ****       {
2085:Drivers/STM32H7xx_HAL_Driver/Src/stm32h7xx_ll_usb.c ****         USBx_HC(hcnum)->HCCHAR |= USB_OTG_HCCHAR_CHENA;
 4540              		.loc 1 2085 9 is_stmt 1 view .LVU1432
 4541              		.loc 1 2085 32 is_stmt 0 view .LVU1433
 4542 0094 D1F80035 		ldr	r3, [r1, #1280]
 4543 0098 43F00043 		orr	r3, r3, #-2147483648
 4544 009c C1F80035 		str	r3, [r1, #1280]
 4545 00a0 05E0     		b	.L282
 4546              	.L284:
2086:Drivers/STM32H7xx_HAL_Driver/Src/stm32h7xx_ll_usb.c ****       }
2087:Drivers/STM32H7xx_HAL_Driver/Src/stm32h7xx_ll_usb.c ****     }
2088:Drivers/STM32H7xx_HAL_Driver/Src/stm32h7xx_ll_usb.c ****     else
2089:Drivers/STM32H7xx_HAL_Driver/Src/stm32h7xx_ll_usb.c ****     {
ARM GAS  /tmp/ccdP7LVA.s 			page 136


2090:Drivers/STM32H7xx_HAL_Driver/Src/stm32h7xx_ll_usb.c ****       USBx_HC(hcnum)->HCCHAR |= USB_OTG_HCCHAR_CHENA;
 4547              		.loc 1 2090 7 is_stmt 1 view .LVU1434
 4548              		.loc 1 2090 30 is_stmt 0 view .LVU1435
 4549 00a2 D1F80035 		ldr	r3, [r1, #1280]
 4550 00a6 43F00043 		orr	r3, r3, #-2147483648
 4551 00aa C1F80035 		str	r3, [r1, #1280]
 4552              	.L282:
2091:Drivers/STM32H7xx_HAL_Driver/Src/stm32h7xx_ll_usb.c ****     }
2092:Drivers/STM32H7xx_HAL_Driver/Src/stm32h7xx_ll_usb.c ****   }
2093:Drivers/STM32H7xx_HAL_Driver/Src/stm32h7xx_ll_usb.c ****   else
2094:Drivers/STM32H7xx_HAL_Driver/Src/stm32h7xx_ll_usb.c ****   {
2095:Drivers/STM32H7xx_HAL_Driver/Src/stm32h7xx_ll_usb.c ****     USBx_HC(hcnum)->HCCHAR |= USB_OTG_HCCHAR_CHDIS;
2096:Drivers/STM32H7xx_HAL_Driver/Src/stm32h7xx_ll_usb.c **** 
2097:Drivers/STM32H7xx_HAL_Driver/Src/stm32h7xx_ll_usb.c ****     if ((USBx_HOST->HPTXSTS & (0xFFU << 16)) == 0U)
2098:Drivers/STM32H7xx_HAL_Driver/Src/stm32h7xx_ll_usb.c ****     {
2099:Drivers/STM32H7xx_HAL_Driver/Src/stm32h7xx_ll_usb.c ****       USBx_HC(hcnum)->HCCHAR &= ~USB_OTG_HCCHAR_CHENA;
2100:Drivers/STM32H7xx_HAL_Driver/Src/stm32h7xx_ll_usb.c ****       USBx_HC(hcnum)->HCCHAR |= USB_OTG_HCCHAR_CHENA;
2101:Drivers/STM32H7xx_HAL_Driver/Src/stm32h7xx_ll_usb.c ****       do
2102:Drivers/STM32H7xx_HAL_Driver/Src/stm32h7xx_ll_usb.c ****       {
2103:Drivers/STM32H7xx_HAL_Driver/Src/stm32h7xx_ll_usb.c ****         count++;
2104:Drivers/STM32H7xx_HAL_Driver/Src/stm32h7xx_ll_usb.c **** 
2105:Drivers/STM32H7xx_HAL_Driver/Src/stm32h7xx_ll_usb.c ****         if (count > 1000U)
2106:Drivers/STM32H7xx_HAL_Driver/Src/stm32h7xx_ll_usb.c ****         {
2107:Drivers/STM32H7xx_HAL_Driver/Src/stm32h7xx_ll_usb.c ****           break;
2108:Drivers/STM32H7xx_HAL_Driver/Src/stm32h7xx_ll_usb.c ****         }
2109:Drivers/STM32H7xx_HAL_Driver/Src/stm32h7xx_ll_usb.c ****       } while ((USBx_HC(hcnum)->HCCHAR & USB_OTG_HCCHAR_CHENA) == USB_OTG_HCCHAR_CHENA);
2110:Drivers/STM32H7xx_HAL_Driver/Src/stm32h7xx_ll_usb.c ****     }
2111:Drivers/STM32H7xx_HAL_Driver/Src/stm32h7xx_ll_usb.c ****     else
2112:Drivers/STM32H7xx_HAL_Driver/Src/stm32h7xx_ll_usb.c ****     {
2113:Drivers/STM32H7xx_HAL_Driver/Src/stm32h7xx_ll_usb.c ****       USBx_HC(hcnum)->HCCHAR |= USB_OTG_HCCHAR_CHENA;
2114:Drivers/STM32H7xx_HAL_Driver/Src/stm32h7xx_ll_usb.c ****     }
2115:Drivers/STM32H7xx_HAL_Driver/Src/stm32h7xx_ll_usb.c ****   }
2116:Drivers/STM32H7xx_HAL_Driver/Src/stm32h7xx_ll_usb.c **** 
2117:Drivers/STM32H7xx_HAL_Driver/Src/stm32h7xx_ll_usb.c ****   return HAL_OK;
2118:Drivers/STM32H7xx_HAL_Driver/Src/stm32h7xx_ll_usb.c **** }
 4553              		.loc 1 2118 1 view .LVU1436
 4554 00ae 0020     		movs	r0, #0
 4555              	.LVL355:
 4556              		.loc 1 2118 1 view .LVU1437
 4557 00b0 03B0     		add	sp, sp, #12
 4558              	.LCFI68:
 4559              		.cfi_remember_state
 4560              		.cfi_def_cfa_offset 12
 4561              		@ sp needed
 4562 00b2 70BC     		pop	{r4, r5, r6}
 4563              	.LCFI69:
 4564              		.cfi_restore 6
 4565              		.cfi_restore 5
 4566              		.cfi_restore 4
 4567              		.cfi_def_cfa_offset 0
 4568 00b4 7047     		bx	lr
 4569              	.LVL356:
 4570              	.L283:
 4571              	.LCFI70:
 4572              		.cfi_restore_state
2095:Drivers/STM32H7xx_HAL_Driver/Src/stm32h7xx_ll_usb.c **** 
 4573              		.loc 1 2095 5 is_stmt 1 view .LVU1438
ARM GAS  /tmp/ccdP7LVA.s 			page 137


2095:Drivers/STM32H7xx_HAL_Driver/Src/stm32h7xx_ll_usb.c **** 
 4574              		.loc 1 2095 28 is_stmt 0 view .LVU1439
 4575 00b6 D1F80035 		ldr	r3, [r1, #1280]
 4576 00ba 43F08043 		orr	r3, r3, #1073741824
 4577 00be C1F80035 		str	r3, [r1, #1280]
2097:Drivers/STM32H7xx_HAL_Driver/Src/stm32h7xx_ll_usb.c ****     {
 4578              		.loc 1 2097 5 is_stmt 1 view .LVU1440
2097:Drivers/STM32H7xx_HAL_Driver/Src/stm32h7xx_ll_usb.c ****     {
 4579              		.loc 1 2097 19 is_stmt 0 view .LVU1441
 4580 00c2 D0F81034 		ldr	r3, [r0, #1040]
2097:Drivers/STM32H7xx_HAL_Driver/Src/stm32h7xx_ll_usb.c ****     {
 4581              		.loc 1 2097 8 view .LVU1442
 4582 00c6 13F47F0F 		tst	r3, #16711680
 4583 00ca 16D1     		bne	.L287
2099:Drivers/STM32H7xx_HAL_Driver/Src/stm32h7xx_ll_usb.c ****       USBx_HC(hcnum)->HCCHAR |= USB_OTG_HCCHAR_CHENA;
 4584              		.loc 1 2099 7 is_stmt 1 view .LVU1443
2099:Drivers/STM32H7xx_HAL_Driver/Src/stm32h7xx_ll_usb.c ****       USBx_HC(hcnum)->HCCHAR |= USB_OTG_HCCHAR_CHENA;
 4585              		.loc 1 2099 30 is_stmt 0 view .LVU1444
 4586 00cc D1F80035 		ldr	r3, [r1, #1280]
 4587 00d0 23F00043 		bic	r3, r3, #-2147483648
 4588 00d4 C1F80035 		str	r3, [r1, #1280]
2100:Drivers/STM32H7xx_HAL_Driver/Src/stm32h7xx_ll_usb.c ****       do
 4589              		.loc 1 2100 7 is_stmt 1 view .LVU1445
2100:Drivers/STM32H7xx_HAL_Driver/Src/stm32h7xx_ll_usb.c ****       do
 4590              		.loc 1 2100 30 is_stmt 0 view .LVU1446
 4591 00d8 D1F80035 		ldr	r3, [r1, #1280]
 4592 00dc 43F00043 		orr	r3, r3, #-2147483648
 4593 00e0 C1F80035 		str	r3, [r1, #1280]
 4594              	.L288:
2101:Drivers/STM32H7xx_HAL_Driver/Src/stm32h7xx_ll_usb.c ****       {
 4595              		.loc 1 2101 7 is_stmt 1 view .LVU1447
2103:Drivers/STM32H7xx_HAL_Driver/Src/stm32h7xx_ll_usb.c **** 
 4596              		.loc 1 2103 9 view .LVU1448
2103:Drivers/STM32H7xx_HAL_Driver/Src/stm32h7xx_ll_usb.c **** 
 4597              		.loc 1 2103 14 is_stmt 0 view .LVU1449
 4598 00e4 019B     		ldr	r3, [sp, #4]
 4599 00e6 0133     		adds	r3, r3, #1
 4600 00e8 0193     		str	r3, [sp, #4]
2105:Drivers/STM32H7xx_HAL_Driver/Src/stm32h7xx_ll_usb.c ****         {
 4601              		.loc 1 2105 9 is_stmt 1 view .LVU1450
2105:Drivers/STM32H7xx_HAL_Driver/Src/stm32h7xx_ll_usb.c ****         {
 4602              		.loc 1 2105 19 is_stmt 0 view .LVU1451
 4603 00ea 019B     		ldr	r3, [sp, #4]
2105:Drivers/STM32H7xx_HAL_Driver/Src/stm32h7xx_ll_usb.c ****         {
 4604              		.loc 1 2105 12 view .LVU1452
 4605 00ec B3F57A7F 		cmp	r3, #1000
 4606 00f0 DDD8     		bhi	.L282
2109:Drivers/STM32H7xx_HAL_Driver/Src/stm32h7xx_ll_usb.c ****     }
 4607              		.loc 1 2109 15 is_stmt 1 view .LVU1453
2109:Drivers/STM32H7xx_HAL_Driver/Src/stm32h7xx_ll_usb.c ****     }
 4608              		.loc 1 2109 31 is_stmt 0 view .LVU1454
 4609 00f2 1368     		ldr	r3, [r2]
2109:Drivers/STM32H7xx_HAL_Driver/Src/stm32h7xx_ll_usb.c ****     }
 4610              		.loc 1 2109 7 view .LVU1455
 4611 00f4 002B     		cmp	r3, #0
 4612 00f6 F5DB     		blt	.L288
 4613 00f8 D9E7     		b	.L282
ARM GAS  /tmp/ccdP7LVA.s 			page 138


 4614              	.L287:
2113:Drivers/STM32H7xx_HAL_Driver/Src/stm32h7xx_ll_usb.c ****     }
 4615              		.loc 1 2113 7 is_stmt 1 view .LVU1456
2113:Drivers/STM32H7xx_HAL_Driver/Src/stm32h7xx_ll_usb.c ****     }
 4616              		.loc 1 2113 30 is_stmt 0 view .LVU1457
 4617 00fa D1F80035 		ldr	r3, [r1, #1280]
 4618 00fe 43F00043 		orr	r3, r3, #-2147483648
 4619 0102 C1F80035 		str	r3, [r1, #1280]
 4620 0106 D2E7     		b	.L282
 4621              		.cfi_endproc
 4622              	.LFE188:
 4624              		.section	.text.USB_DoPing,"ax",%progbits
 4625              		.align	1
 4626              		.global	USB_DoPing
 4627              		.syntax unified
 4628              		.thumb
 4629              		.thumb_func
 4630              		.fpu fpv5-d16
 4632              	USB_DoPing:
 4633              	.LVL357:
 4634              	.LFB189:
2119:Drivers/STM32H7xx_HAL_Driver/Src/stm32h7xx_ll_usb.c **** 
2120:Drivers/STM32H7xx_HAL_Driver/Src/stm32h7xx_ll_usb.c **** /**
2121:Drivers/STM32H7xx_HAL_Driver/Src/stm32h7xx_ll_usb.c ****   * @brief  Initiate Do Ping protocol
2122:Drivers/STM32H7xx_HAL_Driver/Src/stm32h7xx_ll_usb.c ****   * @param  USBx  Selected device
2123:Drivers/STM32H7xx_HAL_Driver/Src/stm32h7xx_ll_usb.c ****   * @param  hc_num  Host Channel number
2124:Drivers/STM32H7xx_HAL_Driver/Src/stm32h7xx_ll_usb.c ****   *         This parameter can be a value from 1 to 15
2125:Drivers/STM32H7xx_HAL_Driver/Src/stm32h7xx_ll_usb.c ****   * @retval HAL state
2126:Drivers/STM32H7xx_HAL_Driver/Src/stm32h7xx_ll_usb.c ****   */
2127:Drivers/STM32H7xx_HAL_Driver/Src/stm32h7xx_ll_usb.c **** HAL_StatusTypeDef USB_DoPing(const USB_OTG_GlobalTypeDef *USBx, uint8_t ch_num)
2128:Drivers/STM32H7xx_HAL_Driver/Src/stm32h7xx_ll_usb.c **** {
 4635              		.loc 1 2128 1 is_stmt 1 view -0
 4636              		.cfi_startproc
 4637              		@ args = 0, pretend = 0, frame = 0
 4638              		@ frame_needed = 0, uses_anonymous_args = 0
 4639              		@ link register save eliminated.
2129:Drivers/STM32H7xx_HAL_Driver/Src/stm32h7xx_ll_usb.c ****   uint32_t USBx_BASE = (uint32_t)USBx;
 4640              		.loc 1 2129 3 view .LVU1459
2130:Drivers/STM32H7xx_HAL_Driver/Src/stm32h7xx_ll_usb.c ****   uint32_t chnum = (uint32_t)ch_num;
 4641              		.loc 1 2130 3 view .LVU1460
2131:Drivers/STM32H7xx_HAL_Driver/Src/stm32h7xx_ll_usb.c ****   uint32_t num_packets = 1U;
 4642              		.loc 1 2131 3 view .LVU1461
2132:Drivers/STM32H7xx_HAL_Driver/Src/stm32h7xx_ll_usb.c ****   uint32_t tmpreg;
 4643              		.loc 1 2132 3 view .LVU1462
2133:Drivers/STM32H7xx_HAL_Driver/Src/stm32h7xx_ll_usb.c **** 
2134:Drivers/STM32H7xx_HAL_Driver/Src/stm32h7xx_ll_usb.c ****   USBx_HC(chnum)->HCTSIZ = ((num_packets << 19) & USB_OTG_HCTSIZ_PKTCNT) |
 4644              		.loc 1 2134 3 view .LVU1463
 4645 0000 00EB4111 		add	r1, r0, r1, lsl #5
 4646              	.LVL358:
 4647              		.loc 1 2134 26 is_stmt 0 view .LVU1464
 4648 0004 064A     		ldr	r2, .L291
 4649 0006 C1F81025 		str	r2, [r1, #1296]
2135:Drivers/STM32H7xx_HAL_Driver/Src/stm32h7xx_ll_usb.c ****                            USB_OTG_HCTSIZ_DOPING;
2136:Drivers/STM32H7xx_HAL_Driver/Src/stm32h7xx_ll_usb.c **** 
2137:Drivers/STM32H7xx_HAL_Driver/Src/stm32h7xx_ll_usb.c ****   /* Set host channel enable */
2138:Drivers/STM32H7xx_HAL_Driver/Src/stm32h7xx_ll_usb.c ****   tmpreg = USBx_HC(chnum)->HCCHAR;
 4650              		.loc 1 2138 3 is_stmt 1 view .LVU1465
ARM GAS  /tmp/ccdP7LVA.s 			page 139


 4651              		.loc 1 2138 10 is_stmt 0 view .LVU1466
 4652 000a D1F80035 		ldr	r3, [r1, #1280]
 4653              	.LVL359:
2139:Drivers/STM32H7xx_HAL_Driver/Src/stm32h7xx_ll_usb.c ****   tmpreg &= ~USB_OTG_HCCHAR_CHDIS;
 4654              		.loc 1 2139 3 is_stmt 1 view .LVU1467
 4655              		.loc 1 2139 10 is_stmt 0 view .LVU1468
 4656 000e 23F08043 		bic	r3, r3, #1073741824
 4657              	.LVL360:
2140:Drivers/STM32H7xx_HAL_Driver/Src/stm32h7xx_ll_usb.c ****   tmpreg |= USB_OTG_HCCHAR_CHENA;
 4658              		.loc 1 2140 3 is_stmt 1 view .LVU1469
 4659              		.loc 1 2140 10 is_stmt 0 view .LVU1470
 4660 0012 43F00043 		orr	r3, r3, #-2147483648
 4661              	.LVL361:
2141:Drivers/STM32H7xx_HAL_Driver/Src/stm32h7xx_ll_usb.c ****   USBx_HC(chnum)->HCCHAR = tmpreg;
 4662              		.loc 1 2141 3 is_stmt 1 view .LVU1471
 4663              		.loc 1 2141 26 is_stmt 0 view .LVU1472
 4664 0016 C1F80035 		str	r3, [r1, #1280]
2142:Drivers/STM32H7xx_HAL_Driver/Src/stm32h7xx_ll_usb.c **** 
2143:Drivers/STM32H7xx_HAL_Driver/Src/stm32h7xx_ll_usb.c ****   return HAL_OK;
 4665              		.loc 1 2143 3 is_stmt 1 view .LVU1473
2144:Drivers/STM32H7xx_HAL_Driver/Src/stm32h7xx_ll_usb.c **** }
 4666              		.loc 1 2144 1 is_stmt 0 view .LVU1474
 4667 001a 0020     		movs	r0, #0
 4668              	.LVL362:
 4669              		.loc 1 2144 1 view .LVU1475
 4670 001c 7047     		bx	lr
 4671              	.L292:
 4672 001e 00BF     		.align	2
 4673              	.L291:
 4674 0020 00000880 		.word	-2146959360
 4675              		.cfi_endproc
 4676              	.LFE189:
 4678              		.section	.text.USB_HC_StartXfer,"ax",%progbits
 4679              		.align	1
 4680              		.global	USB_HC_StartXfer
 4681              		.syntax unified
 4682              		.thumb
 4683              		.thumb_func
 4684              		.fpu fpv5-d16
 4686              	USB_HC_StartXfer:
 4687              	.LVL363:
 4688              	.LFB186:
1772:Drivers/STM32H7xx_HAL_Driver/Src/stm32h7xx_ll_usb.c ****   uint32_t USBx_BASE = (uint32_t)USBx;
 4689              		.loc 1 1772 1 is_stmt 1 view -0
 4690              		.cfi_startproc
 4691              		@ args = 0, pretend = 0, frame = 8
 4692              		@ frame_needed = 0, uses_anonymous_args = 0
1772:Drivers/STM32H7xx_HAL_Driver/Src/stm32h7xx_ll_usb.c ****   uint32_t USBx_BASE = (uint32_t)USBx;
 4693              		.loc 1 1772 1 is_stmt 0 view .LVU1477
 4694 0000 F0B5     		push	{r4, r5, r6, r7, lr}
 4695              	.LCFI71:
 4696              		.cfi_def_cfa_offset 20
 4697              		.cfi_offset 4, -20
 4698              		.cfi_offset 5, -16
 4699              		.cfi_offset 6, -12
 4700              		.cfi_offset 7, -8
 4701              		.cfi_offset 14, -4
ARM GAS  /tmp/ccdP7LVA.s 			page 140


 4702 0002 85B0     		sub	sp, sp, #20
 4703              	.LCFI72:
 4704              		.cfi_def_cfa_offset 40
1773:Drivers/STM32H7xx_HAL_Driver/Src/stm32h7xx_ll_usb.c ****   uint32_t ch_num = (uint32_t)hc->ch_num;
 4705              		.loc 1 1773 3 is_stmt 1 view .LVU1478
 4706              	.LVL364:
1774:Drivers/STM32H7xx_HAL_Driver/Src/stm32h7xx_ll_usb.c ****   __IO uint32_t tmpreg;
 4707              		.loc 1 1774 3 view .LVU1479
1774:Drivers/STM32H7xx_HAL_Driver/Src/stm32h7xx_ll_usb.c ****   __IO uint32_t tmpreg;
 4708              		.loc 1 1774 33 is_stmt 0 view .LVU1480
 4709 0004 4B78     		ldrb	r3, [r1, #1]	@ zero_extendqisi2
 4710              	.LVL365:
1775:Drivers/STM32H7xx_HAL_Driver/Src/stm32h7xx_ll_usb.c ****   uint8_t  is_oddframe;
 4711              		.loc 1 1775 3 is_stmt 1 view .LVU1481
1776:Drivers/STM32H7xx_HAL_Driver/Src/stm32h7xx_ll_usb.c ****   uint16_t len_words;
 4712              		.loc 1 1776 3 view .LVU1482
1777:Drivers/STM32H7xx_HAL_Driver/Src/stm32h7xx_ll_usb.c ****   uint16_t num_packets;
 4713              		.loc 1 1777 3 view .LVU1483
1778:Drivers/STM32H7xx_HAL_Driver/Src/stm32h7xx_ll_usb.c ****   uint16_t max_hc_pkt_count = HC_MAX_PKT_CNT;
 4714              		.loc 1 1778 3 view .LVU1484
1779:Drivers/STM32H7xx_HAL_Driver/Src/stm32h7xx_ll_usb.c **** 
 4715              		.loc 1 1779 3 view .LVU1485
1782:Drivers/STM32H7xx_HAL_Driver/Src/stm32h7xx_ll_usb.c ****   {
 4716              		.loc 1 1782 3 view .LVU1486
1782:Drivers/STM32H7xx_HAL_Driver/Src/stm32h7xx_ll_usb.c ****   {
 4717              		.loc 1 1782 6 is_stmt 0 view .LVU1487
 4718 0006 012A     		cmp	r2, #1
 4719 0008 15D0     		beq	.L326
1794:Drivers/STM32H7xx_HAL_Driver/Src/stm32h7xx_ll_usb.c ****     {
 4720              		.loc 1 1794 5 is_stmt 1 view .LVU1488
1794:Drivers/STM32H7xx_HAL_Driver/Src/stm32h7xx_ll_usb.c ****     {
 4721              		.loc 1 1794 38 is_stmt 0 view .LVU1489
 4722 000a 8C88     		ldrh	r4, [r1, #4]
1794:Drivers/STM32H7xx_HAL_Driver/Src/stm32h7xx_ll_usb.c ****     {
 4723              		.loc 1 1794 8 view .LVU1490
 4724 000c B4F5807F 		cmp	r4, #256
 4725 0010 24D0     		beq	.L327
 4726              	.L295:
1801:Drivers/STM32H7xx_HAL_Driver/Src/stm32h7xx_ll_usb.c ****   {
 4727              		.loc 1 1801 3 is_stmt 1 view .LVU1491
1801:Drivers/STM32H7xx_HAL_Driver/Src/stm32h7xx_ll_usb.c ****   {
 4728              		.loc 1 1801 9 is_stmt 0 view .LVU1492
 4729 0012 8C79     		ldrb	r4, [r1, #6]	@ zero_extendqisi2
1801:Drivers/STM32H7xx_HAL_Driver/Src/stm32h7xx_ll_usb.c ****   {
 4730              		.loc 1 1801 6 view .LVU1493
 4731 0014 012C     		cmp	r4, #1
 4732 0016 27D0     		beq	.L328
1859:Drivers/STM32H7xx_HAL_Driver/Src/stm32h7xx_ll_usb.c ****     {
 4733              		.loc 1 1859 5 is_stmt 1 view .LVU1494
1859:Drivers/STM32H7xx_HAL_Driver/Src/stm32h7xx_ll_usb.c ****     {
 4734              		.loc 1 1859 11 is_stmt 0 view .LVU1495
 4735 0018 0E6A     		ldr	r6, [r1, #32]
1859:Drivers/STM32H7xx_HAL_Driver/Src/stm32h7xx_ll_usb.c ****     {
 4736              		.loc 1 1859 8 view .LVU1496
 4737 001a 002E     		cmp	r6, #0
 4738 001c 58D0     		beq	.L323
1861:Drivers/STM32H7xx_HAL_Driver/Src/stm32h7xx_ll_usb.c **** 
ARM GAS  /tmp/ccdP7LVA.s 			page 141


 4739              		.loc 1 1861 7 is_stmt 1 view .LVU1497
1861:Drivers/STM32H7xx_HAL_Driver/Src/stm32h7xx_ll_usb.c **** 
 4740              		.loc 1 1861 50 is_stmt 0 view .LVU1498
 4741 001e 8C8A     		ldrh	r4, [r1, #20]
1861:Drivers/STM32H7xx_HAL_Driver/Src/stm32h7xx_ll_usb.c **** 
 4742              		.loc 1 1861 46 view .LVU1499
 4743 0020 3519     		adds	r5, r6, r4
1861:Drivers/STM32H7xx_HAL_Driver/Src/stm32h7xx_ll_usb.c **** 
 4744              		.loc 1 1861 63 view .LVU1500
 4745 0022 013D     		subs	r5, r5, #1
1861:Drivers/STM32H7xx_HAL_Driver/Src/stm32h7xx_ll_usb.c **** 
 4746              		.loc 1 1861 69 view .LVU1501
 4747 0024 B5FBF4F5 		udiv	r5, r5, r4
1861:Drivers/STM32H7xx_HAL_Driver/Src/stm32h7xx_ll_usb.c **** 
 4748              		.loc 1 1861 19 view .LVU1502
 4749 0028 ADB2     		uxth	r5, r5
 4750              	.LVL366:
1863:Drivers/STM32H7xx_HAL_Driver/Src/stm32h7xx_ll_usb.c ****       {
 4751              		.loc 1 1863 7 is_stmt 1 view .LVU1503
1863:Drivers/STM32H7xx_HAL_Driver/Src/stm32h7xx_ll_usb.c ****       {
 4752              		.loc 1 1863 10 is_stmt 0 view .LVU1504
 4753 002a B5F5807F 		cmp	r5, #256
 4754 002e 50D9     		bls	.L305
1865:Drivers/STM32H7xx_HAL_Driver/Src/stm32h7xx_ll_usb.c ****         hc->XferSize = (uint32_t)num_packets * hc->max_packet;
 4755              		.loc 1 1865 21 view .LVU1505
 4756 0030 4FF48075 		mov	r5, #256
 4757              	.LVL367:
1865:Drivers/STM32H7xx_HAL_Driver/Src/stm32h7xx_ll_usb.c ****         hc->XferSize = (uint32_t)num_packets * hc->max_packet;
 4758              		.loc 1 1865 21 view .LVU1506
 4759 0034 4DE0     		b	.L305
 4760              	.LVL368:
 4761              	.L326:
1784:Drivers/STM32H7xx_HAL_Driver/Src/stm32h7xx_ll_usb.c ****     {
 4762              		.loc 1 1784 5 is_stmt 1 view .LVU1507
1784:Drivers/STM32H7xx_HAL_Driver/Src/stm32h7xx_ll_usb.c ****     {
 4763              		.loc 1 1784 12 is_stmt 0 view .LVU1508
 4764 0036 8D7C     		ldrb	r5, [r1, #18]	@ zero_extendqisi2
1784:Drivers/STM32H7xx_HAL_Driver/Src/stm32h7xx_ll_usb.c ****     {
 4765              		.loc 1 1784 39 view .LVU1509
 4766 0038 022D     		cmp	r5, #2
 4767 003a 14BF     		ite	ne
 4768 003c 0024     		movne	r4, #0
 4769 003e 0124     		moveq	r4, #1
 4770 0040 002D     		cmp	r5, #0
 4771 0042 08BF     		it	eq
 4772 0044 0124     		moveq	r4, #1
1784:Drivers/STM32H7xx_HAL_Driver/Src/stm32h7xx_ll_usb.c ****     {
 4773              		.loc 1 1784 8 view .LVU1510
 4774 0046 002C     		cmp	r4, #0
 4775 0048 E3D0     		beq	.L295
1787:Drivers/STM32H7xx_HAL_Driver/Src/stm32h7xx_ll_usb.c ****                                                USB_OTG_HCINTMSK_ACKM |
 4776              		.loc 1 1787 7 is_stmt 1 view .LVU1511
1787:Drivers/STM32H7xx_HAL_Driver/Src/stm32h7xx_ll_usb.c ****                                                USB_OTG_HCINTMSK_ACKM |
 4777              		.loc 1 1787 43 is_stmt 0 view .LVU1512
 4778 004a 00EB4314 		add	r4, r0, r3, lsl #5
 4779 004e D4F80C55 		ldr	r5, [r4, #1292]
 4780 0052 25F07005 		bic	r5, r5, #112
ARM GAS  /tmp/ccdP7LVA.s 			page 142


 4781 0056 C4F80C55 		str	r5, [r4, #1292]
 4782 005a DAE7     		b	.L295
 4783              	.L327:
1796:Drivers/STM32H7xx_HAL_Driver/Src/stm32h7xx_ll_usb.c ****       return HAL_OK;
 4784              		.loc 1 1796 7 is_stmt 1 view .LVU1513
1796:Drivers/STM32H7xx_HAL_Driver/Src/stm32h7xx_ll_usb.c ****       return HAL_OK;
 4785              		.loc 1 1796 13 is_stmt 0 view .LVU1514
 4786 005c 1946     		mov	r1, r3
 4787              	.LVL369:
1796:Drivers/STM32H7xx_HAL_Driver/Src/stm32h7xx_ll_usb.c ****       return HAL_OK;
 4788              		.loc 1 1796 13 view .LVU1515
 4789 005e FFF7FEFF 		bl	USB_DoPing
 4790              	.LVL370:
1797:Drivers/STM32H7xx_HAL_Driver/Src/stm32h7xx_ll_usb.c ****     }
 4791              		.loc 1 1797 7 is_stmt 1 view .LVU1516
 4792              	.L296:
2022:Drivers/STM32H7xx_HAL_Driver/Src/stm32h7xx_ll_usb.c **** 
 4793              		.loc 1 2022 1 is_stmt 0 view .LVU1517
 4794 0062 0020     		movs	r0, #0
 4795 0064 05B0     		add	sp, sp, #20
 4796              	.LCFI73:
 4797              		.cfi_remember_state
 4798              		.cfi_def_cfa_offset 20
 4799              		@ sp needed
 4800 0066 F0BD     		pop	{r4, r5, r6, r7, pc}
 4801              	.LVL371:
 4802              	.L328:
 4803              	.LCFI74:
 4804              		.cfi_restore_state
1804:Drivers/STM32H7xx_HAL_Driver/Src/stm32h7xx_ll_usb.c **** 
 4805              		.loc 1 1804 5 is_stmt 1 view .LVU1518
1806:Drivers/STM32H7xx_HAL_Driver/Src/stm32h7xx_ll_usb.c ****     {
 4806              		.loc 1 1806 5 view .LVU1519
1806:Drivers/STM32H7xx_HAL_Driver/Src/stm32h7xx_ll_usb.c ****     {
 4807              		.loc 1 1806 11 is_stmt 0 view .LVU1520
 4808 0068 CC78     		ldrb	r4, [r1, #3]	@ zero_extendqisi2
1806:Drivers/STM32H7xx_HAL_Driver/Src/stm32h7xx_ll_usb.c ****     {
 4809              		.loc 1 1806 8 view .LVU1521
 4810 006a 1CB1     		cbz	r4, .L298
1808:Drivers/STM32H7xx_HAL_Driver/Src/stm32h7xx_ll_usb.c ****     }
 4811              		.loc 1 1808 7 is_stmt 1 view .LVU1522
1808:Drivers/STM32H7xx_HAL_Driver/Src/stm32h7xx_ll_usb.c ****     }
 4812              		.loc 1 1808 48 is_stmt 0 view .LVU1523
 4813 006c 8C8A     		ldrh	r4, [r1, #20]
1808:Drivers/STM32H7xx_HAL_Driver/Src/stm32h7xx_ll_usb.c ****     }
 4814              		.loc 1 1808 20 view .LVU1524
 4815 006e CC61     		str	r4, [r1, #28]
1804:Drivers/STM32H7xx_HAL_Driver/Src/stm32h7xx_ll_usb.c **** 
 4816              		.loc 1 1804 17 view .LVU1525
 4817 0070 0125     		movs	r5, #1
 4818 0072 35E0     		b	.L299
 4819              	.L298:
1812:Drivers/STM32H7xx_HAL_Driver/Src/stm32h7xx_ll_usb.c ****       {
 4820              		.loc 1 1812 7 is_stmt 1 view .LVU1526
1812:Drivers/STM32H7xx_HAL_Driver/Src/stm32h7xx_ll_usb.c ****       {
 4821              		.loc 1 1812 13 is_stmt 0 view .LVU1527
 4822 0074 8C7C     		ldrb	r4, [r1, #18]	@ zero_extendqisi2
ARM GAS  /tmp/ccdP7LVA.s 			page 143


1812:Drivers/STM32H7xx_HAL_Driver/Src/stm32h7xx_ll_usb.c ****       {
 4823              		.loc 1 1812 10 view .LVU1528
 4824 0076 012C     		cmp	r4, #1
 4825 0078 05D0     		beq	.L329
1845:Drivers/STM32H7xx_HAL_Driver/Src/stm32h7xx_ll_usb.c ****         {
 4826              		.loc 1 1845 9 is_stmt 1 view .LVU1529
1845:Drivers/STM32H7xx_HAL_Driver/Src/stm32h7xx_ll_usb.c ****         {
 4827              		.loc 1 1845 12 is_stmt 0 view .LVU1530
 4828 007a 012A     		cmp	r2, #1
 4829 007c 21D0     		beq	.L330
 4830              	.L304:
1851:Drivers/STM32H7xx_HAL_Driver/Src/stm32h7xx_ll_usb.c ****         }
 4831              		.loc 1 1851 11 is_stmt 1 view .LVU1531
1851:Drivers/STM32H7xx_HAL_Driver/Src/stm32h7xx_ll_usb.c ****         }
 4832              		.loc 1 1851 28 is_stmt 0 view .LVU1532
 4833 007e 0C6A     		ldr	r4, [r1, #32]
1851:Drivers/STM32H7xx_HAL_Driver/Src/stm32h7xx_ll_usb.c ****         }
 4834              		.loc 1 1851 24 view .LVU1533
 4835 0080 CC61     		str	r4, [r1, #28]
1804:Drivers/STM32H7xx_HAL_Driver/Src/stm32h7xx_ll_usb.c **** 
 4836              		.loc 1 1804 17 view .LVU1534
 4837 0082 0125     		movs	r5, #1
 4838 0084 2CE0     		b	.L299
 4839              	.L329:
1814:Drivers/STM32H7xx_HAL_Driver/Src/stm32h7xx_ll_usb.c ****         {
 4840              		.loc 1 1814 9 is_stmt 1 view .LVU1535
1814:Drivers/STM32H7xx_HAL_Driver/Src/stm32h7xx_ll_usb.c ****         {
 4841              		.loc 1 1814 15 is_stmt 0 view .LVU1536
 4842 0086 0C6A     		ldr	r4, [r1, #32]
1814:Drivers/STM32H7xx_HAL_Driver/Src/stm32h7xx_ll_usb.c ****         {
 4843              		.loc 1 1814 12 view .LVU1537
 4844 0088 BC2C     		cmp	r4, #188
 4845 008a 0DD9     		bls	.L301
1817:Drivers/STM32H7xx_HAL_Driver/Src/stm32h7xx_ll_usb.c ****           hc->xfer_len = hc->XferSize;
 4846              		.loc 1 1817 11 is_stmt 1 view .LVU1538
1817:Drivers/STM32H7xx_HAL_Driver/Src/stm32h7xx_ll_usb.c ****           hc->xfer_len = hc->XferSize;
 4847              		.loc 1 1817 28 is_stmt 0 view .LVU1539
 4848 008c 8C8A     		ldrh	r4, [r1, #20]
1817:Drivers/STM32H7xx_HAL_Driver/Src/stm32h7xx_ll_usb.c ****           hc->xfer_len = hc->XferSize;
 4849              		.loc 1 1817 24 view .LVU1540
 4850 008e CC61     		str	r4, [r1, #28]
1818:Drivers/STM32H7xx_HAL_Driver/Src/stm32h7xx_ll_usb.c **** 
 4851              		.loc 1 1818 11 is_stmt 1 view .LVU1541
1818:Drivers/STM32H7xx_HAL_Driver/Src/stm32h7xx_ll_usb.c **** 
 4852              		.loc 1 1818 24 is_stmt 0 view .LVU1542
 4853 0090 0C62     		str	r4, [r1, #32]
1820:Drivers/STM32H7xx_HAL_Driver/Src/stm32h7xx_ll_usb.c ****           {
 4854              		.loc 1 1820 11 is_stmt 1 view .LVU1543
1820:Drivers/STM32H7xx_HAL_Driver/Src/stm32h7xx_ll_usb.c ****           {
 4855              		.loc 1 1820 18 is_stmt 0 view .LVU1544
 4856 0092 CC68     		ldr	r4, [r1, #12]
1820:Drivers/STM32H7xx_HAL_Driver/Src/stm32h7xx_ll_usb.c ****           {
 4857              		.loc 1 1820 54 view .LVU1545
 4858 0094 013C     		subs	r4, r4, #1
1820:Drivers/STM32H7xx_HAL_Driver/Src/stm32h7xx_ll_usb.c ****           {
 4859              		.loc 1 1820 14 view .LVU1546
 4860 0096 012C     		cmp	r4, #1
ARM GAS  /tmp/ccdP7LVA.s 			page 144


 4861 0098 02D9     		bls	.L331
1826:Drivers/STM32H7xx_HAL_Driver/Src/stm32h7xx_ll_usb.c ****           }
 4862              		.loc 1 1826 13 is_stmt 1 view .LVU1547
1826:Drivers/STM32H7xx_HAL_Driver/Src/stm32h7xx_ll_usb.c ****           }
 4863              		.loc 1 1826 34 is_stmt 0 view .LVU1548
 4864 009a 0125     		movs	r5, #1
 4865 009c CD60     		str	r5, [r1, #12]
 4866 009e 1FE0     		b	.L299
 4867              	.L331:
1822:Drivers/STM32H7xx_HAL_Driver/Src/stm32h7xx_ll_usb.c ****           }
 4868              		.loc 1 1822 13 is_stmt 1 view .LVU1549
1822:Drivers/STM32H7xx_HAL_Driver/Src/stm32h7xx_ll_usb.c ****           }
 4869              		.loc 1 1822 34 is_stmt 0 view .LVU1550
 4870 00a0 0224     		movs	r4, #2
 4871 00a2 CC60     		str	r4, [r1, #12]
1804:Drivers/STM32H7xx_HAL_Driver/Src/stm32h7xx_ll_usb.c **** 
 4872              		.loc 1 1804 17 view .LVU1551
 4873 00a4 0125     		movs	r5, #1
 4874 00a6 1BE0     		b	.L299
 4875              	.L301:
1831:Drivers/STM32H7xx_HAL_Driver/Src/stm32h7xx_ll_usb.c **** 
 4876              		.loc 1 1831 11 is_stmt 1 view .LVU1552
1831:Drivers/STM32H7xx_HAL_Driver/Src/stm32h7xx_ll_usb.c **** 
 4877              		.loc 1 1831 24 is_stmt 0 view .LVU1553
 4878 00a8 CC61     		str	r4, [r1, #28]
1833:Drivers/STM32H7xx_HAL_Driver/Src/stm32h7xx_ll_usb.c ****           {
 4879              		.loc 1 1833 11 is_stmt 1 view .LVU1554
1833:Drivers/STM32H7xx_HAL_Driver/Src/stm32h7xx_ll_usb.c ****           {
 4880              		.loc 1 1833 18 is_stmt 0 view .LVU1555
 4881 00aa CC68     		ldr	r4, [r1, #12]
1833:Drivers/STM32H7xx_HAL_Driver/Src/stm32h7xx_ll_usb.c ****           {
 4882              		.loc 1 1833 54 view .LVU1556
 4883 00ac 013C     		subs	r4, r4, #1
1833:Drivers/STM32H7xx_HAL_Driver/Src/stm32h7xx_ll_usb.c ****           {
 4884              		.loc 1 1833 14 view .LVU1557
 4885 00ae 012C     		cmp	r4, #1
 4886 00b0 03D9     		bls	.L303
1835:Drivers/STM32H7xx_HAL_Driver/Src/stm32h7xx_ll_usb.c ****           }
 4887              		.loc 1 1835 13 is_stmt 1 view .LVU1558
1835:Drivers/STM32H7xx_HAL_Driver/Src/stm32h7xx_ll_usb.c ****           }
 4888              		.loc 1 1835 34 is_stmt 0 view .LVU1559
 4889 00b2 0424     		movs	r4, #4
 4890 00b4 CC60     		str	r4, [r1, #12]
1804:Drivers/STM32H7xx_HAL_Driver/Src/stm32h7xx_ll_usb.c **** 
 4891              		.loc 1 1804 17 view .LVU1560
 4892 00b6 0125     		movs	r5, #1
 4893 00b8 12E0     		b	.L299
 4894              	.L303:
1839:Drivers/STM32H7xx_HAL_Driver/Src/stm32h7xx_ll_usb.c ****           }
 4895              		.loc 1 1839 13 is_stmt 1 view .LVU1561
1839:Drivers/STM32H7xx_HAL_Driver/Src/stm32h7xx_ll_usb.c ****           }
 4896              		.loc 1 1839 34 is_stmt 0 view .LVU1562
 4897 00ba 0324     		movs	r4, #3
 4898 00bc CC60     		str	r4, [r1, #12]
1804:Drivers/STM32H7xx_HAL_Driver/Src/stm32h7xx_ll_usb.c **** 
 4899              		.loc 1 1804 17 view .LVU1563
 4900 00be 0125     		movs	r5, #1
ARM GAS  /tmp/ccdP7LVA.s 			page 145


 4901 00c0 0EE0     		b	.L299
 4902              	.L330:
1845:Drivers/STM32H7xx_HAL_Driver/Src/stm32h7xx_ll_usb.c ****         {
 4903              		.loc 1 1845 31 discriminator 1 view .LVU1564
 4904 00c2 0D6A     		ldr	r5, [r1, #32]
1845:Drivers/STM32H7xx_HAL_Driver/Src/stm32h7xx_ll_usb.c ****         {
 4905              		.loc 1 1845 46 discriminator 1 view .LVU1565
 4906 00c4 8C8A     		ldrh	r4, [r1, #20]
1845:Drivers/STM32H7xx_HAL_Driver/Src/stm32h7xx_ll_usb.c ****         {
 4907              		.loc 1 1845 25 discriminator 1 view .LVU1566
 4908 00c6 A542     		cmp	r5, r4
 4909 00c8 D9D9     		bls	.L304
1847:Drivers/STM32H7xx_HAL_Driver/Src/stm32h7xx_ll_usb.c ****         }
 4910              		.loc 1 1847 11 is_stmt 1 view .LVU1567
1847:Drivers/STM32H7xx_HAL_Driver/Src/stm32h7xx_ll_usb.c ****         }
 4911              		.loc 1 1847 24 is_stmt 0 view .LVU1568
 4912 00ca CC61     		str	r4, [r1, #28]
1804:Drivers/STM32H7xx_HAL_Driver/Src/stm32h7xx_ll_usb.c **** 
 4913              		.loc 1 1804 17 view .LVU1569
 4914 00cc 0125     		movs	r5, #1
1847:Drivers/STM32H7xx_HAL_Driver/Src/stm32h7xx_ll_usb.c ****         }
 4915              		.loc 1 1847 24 view .LVU1570
 4916 00ce 07E0     		b	.L299
 4917              	.LVL372:
 4918              	.L323:
1871:Drivers/STM32H7xx_HAL_Driver/Src/stm32h7xx_ll_usb.c ****     }
 4919              		.loc 1 1871 19 view .LVU1571
 4920 00d0 0125     		movs	r5, #1
 4921              	.L305:
 4922              	.LVL373:
1878:Drivers/STM32H7xx_HAL_Driver/Src/stm32h7xx_ll_usb.c ****     {
 4923              		.loc 1 1878 5 is_stmt 1 view .LVU1572
1878:Drivers/STM32H7xx_HAL_Driver/Src/stm32h7xx_ll_usb.c ****     {
 4924              		.loc 1 1878 11 is_stmt 0 view .LVU1573
 4925 00d2 CC78     		ldrb	r4, [r1, #3]	@ zero_extendqisi2
1878:Drivers/STM32H7xx_HAL_Driver/Src/stm32h7xx_ll_usb.c ****     {
 4926              		.loc 1 1878 8 view .LVU1574
 4927 00d4 002C     		cmp	r4, #0
 4928 00d6 5BD0     		beq	.L306
1880:Drivers/STM32H7xx_HAL_Driver/Src/stm32h7xx_ll_usb.c ****     }
 4929              		.loc 1 1880 7 is_stmt 1 view .LVU1575
1880:Drivers/STM32H7xx_HAL_Driver/Src/stm32h7xx_ll_usb.c ****     }
 4930              		.loc 1 1880 48 is_stmt 0 view .LVU1576
 4931 00d8 8C8A     		ldrh	r4, [r1, #20]
1880:Drivers/STM32H7xx_HAL_Driver/Src/stm32h7xx_ll_usb.c ****     }
 4932              		.loc 1 1880 44 view .LVU1577
 4933 00da 04FB05F4 		mul	r4, r4, r5
1880:Drivers/STM32H7xx_HAL_Driver/Src/stm32h7xx_ll_usb.c ****     }
 4934              		.loc 1 1880 20 view .LVU1578
 4935 00de CC61     		str	r4, [r1, #28]
 4936              	.LVL374:
 4937              	.L299:
1889:Drivers/STM32H7xx_HAL_Driver/Src/stm32h7xx_ll_usb.c ****                             (((uint32_t)num_packets << 19) & USB_OTG_HCTSIZ_PKTCNT) |
 4938              		.loc 1 1889 3 is_stmt 1 view .LVU1579
1889:Drivers/STM32H7xx_HAL_Driver/Src/stm32h7xx_ll_usb.c ****                             (((uint32_t)num_packets << 19) & USB_OTG_HCTSIZ_PKTCNT) |
 4939              		.loc 1 1889 32 is_stmt 0 view .LVU1580
 4940 00e0 CC69     		ldr	r4, [r1, #28]
ARM GAS  /tmp/ccdP7LVA.s 			page 146


1889:Drivers/STM32H7xx_HAL_Driver/Src/stm32h7xx_ll_usb.c ****                             (((uint32_t)num_packets << 19) & USB_OTG_HCTSIZ_PKTCNT) |
 4941              		.loc 1 1889 43 view .LVU1581
 4942 00e2 C4F31204 		ubfx	r4, r4, #0, #19
1890:Drivers/STM32H7xx_HAL_Driver/Src/stm32h7xx_ll_usb.c ****                             (((uint32_t)hc->data_pid << 29) & USB_OTG_HCTSIZ_DPID);
 4943              		.loc 1 1890 60 view .LVU1582
 4944 00e6 634E     		ldr	r6, .L335
 4945 00e8 06EAC545 		and	r5, r6, r5, lsl #19
 4946              	.LVL375:
1889:Drivers/STM32H7xx_HAL_Driver/Src/stm32h7xx_ll_usb.c ****                             (((uint32_t)num_packets << 19) & USB_OTG_HCTSIZ_PKTCNT) |
 4947              		.loc 1 1889 68 view .LVU1583
 4948 00ec 2C43     		orrs	r4, r4, r5
1891:Drivers/STM32H7xx_HAL_Driver/Src/stm32h7xx_ll_usb.c **** 
 4949              		.loc 1 1891 43 view .LVU1584
 4950 00ee 8D7D     		ldrb	r5, [r1, #22]	@ zero_extendqisi2
1891:Drivers/STM32H7xx_HAL_Driver/Src/stm32h7xx_ll_usb.c **** 
 4951              		.loc 1 1891 54 view .LVU1585
 4952 00f0 6D07     		lsls	r5, r5, #29
1891:Drivers/STM32H7xx_HAL_Driver/Src/stm32h7xx_ll_usb.c **** 
 4953              		.loc 1 1891 61 view .LVU1586
 4954 00f2 05F0C045 		and	r5, r5, #1610612736
1889:Drivers/STM32H7xx_HAL_Driver/Src/stm32h7xx_ll_usb.c ****                             (((uint32_t)num_packets << 19) & USB_OTG_HCTSIZ_PKTCNT) |
 4955              		.loc 1 1889 3 view .LVU1587
 4956 00f6 00EB4313 		add	r3, r0, r3, lsl #5
 4957              	.LVL376:
1889:Drivers/STM32H7xx_HAL_Driver/Src/stm32h7xx_ll_usb.c ****                             (((uint32_t)num_packets << 19) & USB_OTG_HCTSIZ_PKTCNT) |
 4958              		.loc 1 1889 3 view .LVU1588
 4959 00fa 03F5A066 		add	r6, r3, #1280
1890:Drivers/STM32H7xx_HAL_Driver/Src/stm32h7xx_ll_usb.c ****                             (((uint32_t)hc->data_pid << 29) & USB_OTG_HCTSIZ_DPID);
 4960              		.loc 1 1890 85 view .LVU1589
 4961 00fe 2C43     		orrs	r4, r4, r5
1889:Drivers/STM32H7xx_HAL_Driver/Src/stm32h7xx_ll_usb.c ****                             (((uint32_t)num_packets << 19) & USB_OTG_HCTSIZ_PKTCNT) |
 4962              		.loc 1 1889 27 view .LVU1590
 4963 0100 3461     		str	r4, [r6, #16]
1893:Drivers/STM32H7xx_HAL_Driver/Src/stm32h7xx_ll_usb.c ****   {
 4964              		.loc 1 1893 3 is_stmt 1 view .LVU1591
1893:Drivers/STM32H7xx_HAL_Driver/Src/stm32h7xx_ll_usb.c ****   {
 4965              		.loc 1 1893 6 is_stmt 0 view .LVU1592
 4966 0102 0AB1     		cbz	r2, .L307
1896:Drivers/STM32H7xx_HAL_Driver/Src/stm32h7xx_ll_usb.c ****   }
 4967              		.loc 1 1896 5 is_stmt 1 view .LVU1593
1896:Drivers/STM32H7xx_HAL_Driver/Src/stm32h7xx_ll_usb.c ****   }
 4968              		.loc 1 1896 42 is_stmt 0 view .LVU1594
 4969 0104 8C69     		ldr	r4, [r1, #24]
1896:Drivers/STM32H7xx_HAL_Driver/Src/stm32h7xx_ll_usb.c ****   }
 4970              		.loc 1 1896 28 view .LVU1595
 4971 0106 7461     		str	r4, [r6, #20]
 4972              	.L307:
1899:Drivers/STM32H7xx_HAL_Driver/Src/stm32h7xx_ll_usb.c ****   USBx_HC(ch_num)->HCCHAR &= ~USB_OTG_HCCHAR_ODDFRM;
 4973              		.loc 1 1899 3 is_stmt 1 view .LVU1596
1899:Drivers/STM32H7xx_HAL_Driver/Src/stm32h7xx_ll_usb.c ****   USBx_HC(ch_num)->HCCHAR &= ~USB_OTG_HCCHAR_ODDFRM;
 4974              		.loc 1 1899 29 is_stmt 0 view .LVU1597
 4975 0108 00F58065 		add	r5, r0, #1024
1899:Drivers/STM32H7xx_HAL_Driver/Src/stm32h7xx_ll_usb.c ****   USBx_HC(ch_num)->HCCHAR &= ~USB_OTG_HCCHAR_ODDFRM;
 4976              		.loc 1 1899 38 view .LVU1598
 4977 010c AC68     		ldr	r4, [r5, #8]
1899:Drivers/STM32H7xx_HAL_Driver/Src/stm32h7xx_ll_usb.c ****   USBx_HC(ch_num)->HCCHAR &= ~USB_OTG_HCCHAR_ODDFRM;
 4978              		.loc 1 1899 67 view .LVU1599
ARM GAS  /tmp/ccdP7LVA.s 			page 147


 4979 010e 14F0010F 		tst	r4, #1
 4980              	.LVL377:
1900:Drivers/STM32H7xx_HAL_Driver/Src/stm32h7xx_ll_usb.c ****   USBx_HC(ch_num)->HCCHAR |= (uint32_t)is_oddframe << 29;
 4981              		.loc 1 1900 3 is_stmt 1 view .LVU1600
1900:Drivers/STM32H7xx_HAL_Driver/Src/stm32h7xx_ll_usb.c ****   USBx_HC(ch_num)->HCCHAR |= (uint32_t)is_oddframe << 29;
 4982              		.loc 1 1900 27 is_stmt 0 view .LVU1601
 4983 0112 D3F80045 		ldr	r4, [r3, #1280]
 4984 0116 24F00054 		bic	r4, r4, #536870912
 4985 011a C3F80045 		str	r4, [r3, #1280]
1901:Drivers/STM32H7xx_HAL_Driver/Src/stm32h7xx_ll_usb.c **** 
 4986              		.loc 1 1901 3 is_stmt 1 view .LVU1602
1901:Drivers/STM32H7xx_HAL_Driver/Src/stm32h7xx_ll_usb.c **** 
 4987              		.loc 1 1901 27 is_stmt 0 view .LVU1603
 4988 011e D3F80045 		ldr	r4, [r3, #1280]
1901:Drivers/STM32H7xx_HAL_Driver/Src/stm32h7xx_ll_usb.c **** 
 4989              		.loc 1 1901 52 view .LVU1604
 4990 0122 0CBF     		ite	eq
 4991 0124 4FF00057 		moveq	r7, #536870912
 4992 0128 0027     		movne	r7, #0
1901:Drivers/STM32H7xx_HAL_Driver/Src/stm32h7xx_ll_usb.c **** 
 4993              		.loc 1 1901 27 view .LVU1605
 4994 012a 3C43     		orrs	r4, r4, r7
 4995 012c C3F80045 		str	r4, [r3, #1280]
1903:Drivers/STM32H7xx_HAL_Driver/Src/stm32h7xx_ll_usb.c ****   {
 4996              		.loc 1 1903 3 is_stmt 1 view .LVU1606
1903:Drivers/STM32H7xx_HAL_Driver/Src/stm32h7xx_ll_usb.c ****   {
 4997              		.loc 1 1903 9 is_stmt 0 view .LVU1607
 4998 0130 8C79     		ldrb	r4, [r1, #6]	@ zero_extendqisi2
1903:Drivers/STM32H7xx_HAL_Driver/Src/stm32h7xx_ll_usb.c ****   {
 4999              		.loc 1 1903 6 view .LVU1608
 5000 0132 012C     		cmp	r4, #1
 5001              	.LVL378:
1903:Drivers/STM32H7xx_HAL_Driver/Src/stm32h7xx_ll_usb.c ****   {
 5002              		.loc 1 1903 6 view .LVU1609
 5003 0134 2ED0     		beq	.L332
1959:Drivers/STM32H7xx_HAL_Driver/Src/stm32h7xx_ll_usb.c ****   }
 5004              		.loc 1 1959 5 is_stmt 1 view .LVU1610
1959:Drivers/STM32H7xx_HAL_Driver/Src/stm32h7xx_ll_usb.c ****   }
 5005              		.loc 1 1959 39 is_stmt 0 view .LVU1611
 5006 0136 0024     		movs	r4, #0
 5007 0138 7460     		str	r4, [r6, #4]
 5008              	.L311:
1963:Drivers/STM32H7xx_HAL_Driver/Src/stm32h7xx_ll_usb.c ****   tmpreg &= ~USB_OTG_HCCHAR_CHDIS;
 5009              		.loc 1 1963 3 is_stmt 1 view .LVU1612
1963:Drivers/STM32H7xx_HAL_Driver/Src/stm32h7xx_ll_usb.c ****   tmpreg &= ~USB_OTG_HCCHAR_CHDIS;
 5010              		.loc 1 1963 27 is_stmt 0 view .LVU1613
 5011 013a D3F80045 		ldr	r4, [r3, #1280]
1963:Drivers/STM32H7xx_HAL_Driver/Src/stm32h7xx_ll_usb.c ****   tmpreg &= ~USB_OTG_HCCHAR_CHDIS;
 5012              		.loc 1 1963 10 view .LVU1614
 5013 013e 0394     		str	r4, [sp, #12]
1964:Drivers/STM32H7xx_HAL_Driver/Src/stm32h7xx_ll_usb.c **** 
 5014              		.loc 1 1964 3 is_stmt 1 view .LVU1615
1964:Drivers/STM32H7xx_HAL_Driver/Src/stm32h7xx_ll_usb.c **** 
 5015              		.loc 1 1964 10 is_stmt 0 view .LVU1616
 5016 0140 039C     		ldr	r4, [sp, #12]
 5017 0142 24F08044 		bic	r4, r4, #1073741824
 5018 0146 0394     		str	r4, [sp, #12]
ARM GAS  /tmp/ccdP7LVA.s 			page 148


1967:Drivers/STM32H7xx_HAL_Driver/Src/stm32h7xx_ll_usb.c ****   {
 5019              		.loc 1 1967 3 is_stmt 1 view .LVU1617
1967:Drivers/STM32H7xx_HAL_Driver/Src/stm32h7xx_ll_usb.c ****   {
 5020              		.loc 1 1967 9 is_stmt 0 view .LVU1618
 5021 0148 CC78     		ldrb	r4, [r1, #3]	@ zero_extendqisi2
1967:Drivers/STM32H7xx_HAL_Driver/Src/stm32h7xx_ll_usb.c ****   {
 5022              		.loc 1 1967 6 view .LVU1619
 5023 014a 002C     		cmp	r4, #0
 5024 014c 6ED0     		beq	.L317
1969:Drivers/STM32H7xx_HAL_Driver/Src/stm32h7xx_ll_usb.c ****   }
 5025              		.loc 1 1969 5 is_stmt 1 view .LVU1620
1969:Drivers/STM32H7xx_HAL_Driver/Src/stm32h7xx_ll_usb.c ****   }
 5026              		.loc 1 1969 12 is_stmt 0 view .LVU1621
 5027 014e 039C     		ldr	r4, [sp, #12]
 5028 0150 44F40044 		orr	r4, r4, #32768
 5029 0154 0394     		str	r4, [sp, #12]
 5030              	.L318:
1975:Drivers/STM32H7xx_HAL_Driver/Src/stm32h7xx_ll_usb.c ****   USBx_HC(ch_num)->HCCHAR = tmpreg;
 5031              		.loc 1 1975 3 is_stmt 1 view .LVU1622
1975:Drivers/STM32H7xx_HAL_Driver/Src/stm32h7xx_ll_usb.c ****   USBx_HC(ch_num)->HCCHAR = tmpreg;
 5032              		.loc 1 1975 10 is_stmt 0 view .LVU1623
 5033 0156 039C     		ldr	r4, [sp, #12]
 5034 0158 44F00044 		orr	r4, r4, #-2147483648
 5035 015c 0394     		str	r4, [sp, #12]
1976:Drivers/STM32H7xx_HAL_Driver/Src/stm32h7xx_ll_usb.c **** 
 5036              		.loc 1 1976 3 is_stmt 1 view .LVU1624
1976:Drivers/STM32H7xx_HAL_Driver/Src/stm32h7xx_ll_usb.c **** 
 5037              		.loc 1 1976 27 is_stmt 0 view .LVU1625
 5038 015e 039C     		ldr	r4, [sp, #12]
 5039 0160 C3F80045 		str	r4, [r3, #1280]
1978:Drivers/STM32H7xx_HAL_Driver/Src/stm32h7xx_ll_usb.c ****   {
 5040              		.loc 1 1978 3 is_stmt 1 view .LVU1626
1978:Drivers/STM32H7xx_HAL_Driver/Src/stm32h7xx_ll_usb.c ****   {
 5041              		.loc 1 1978 6 is_stmt 0 view .LVU1627
 5042 0164 002A     		cmp	r2, #0
 5043 0166 7FF47CAF 		bne	.L296
1983:Drivers/STM32H7xx_HAL_Driver/Src/stm32h7xx_ll_usb.c ****   {
 5044              		.loc 1 1983 3 is_stmt 1 view .LVU1628
1983:Drivers/STM32H7xx_HAL_Driver/Src/stm32h7xx_ll_usb.c ****   {
 5045              		.loc 1 1983 10 is_stmt 0 view .LVU1629
 5046 016a CB78     		ldrb	r3, [r1, #3]	@ zero_extendqisi2
1983:Drivers/STM32H7xx_HAL_Driver/Src/stm32h7xx_ll_usb.c ****   {
 5047              		.loc 1 1983 6 view .LVU1630
 5048 016c 002B     		cmp	r3, #0
 5049 016e 7FF478AF 		bne	.L296
1983:Drivers/STM32H7xx_HAL_Driver/Src/stm32h7xx_ll_usb.c ****   {
 5050              		.loc 1 1983 34 discriminator 1 view .LVU1631
 5051 0172 0B6A     		ldr	r3, [r1, #32]
1983:Drivers/STM32H7xx_HAL_Driver/Src/stm32h7xx_ll_usb.c ****   {
 5052              		.loc 1 1983 28 discriminator 1 view .LVU1632
 5053 0174 002B     		cmp	r3, #0
 5054 0176 3FF474AF 		beq	.L296
1983:Drivers/STM32H7xx_HAL_Driver/Src/stm32h7xx_ll_usb.c ****   {
 5055              		.loc 1 1983 57 discriminator 2 view .LVU1633
 5056 017a CA79     		ldrb	r2, [r1, #7]	@ zero_extendqisi2
 5057              	.LVL379:
1983:Drivers/STM32H7xx_HAL_Driver/Src/stm32h7xx_ll_usb.c ****   {
ARM GAS  /tmp/ccdP7LVA.s 			page 149


 5058              		.loc 1 1983 51 discriminator 2 view .LVU1634
 5059 017c 002A     		cmp	r2, #0
 5060 017e 7FF470AF 		bne	.L296
1985:Drivers/STM32H7xx_HAL_Driver/Src/stm32h7xx_ll_usb.c ****     {
 5061              		.loc 1 1985 5 is_stmt 1 view .LVU1635
1985:Drivers/STM32H7xx_HAL_Driver/Src/stm32h7xx_ll_usb.c ****     {
 5062              		.loc 1 1985 15 is_stmt 0 view .LVU1636
 5063 0182 8A7C     		ldrb	r2, [r1, #18]	@ zero_extendqisi2
 5064 0184 032A     		cmp	r2, #3
 5065 0186 61D8     		bhi	.L319
 5066 0188 DFE802F0 		tbb	[pc, r2]
 5067              	.L321:
 5068 018c 55       		.byte	(.L322-.L321)/2
 5069 018d 68       		.byte	(.L320-.L321)/2
 5070 018e 55       		.byte	(.L322-.L321)/2
 5071 018f 68       		.byte	(.L320-.L321)/2
 5072              	.LVL380:
 5073              		.p2align 1
 5074              	.L306:
1884:Drivers/STM32H7xx_HAL_Driver/Src/stm32h7xx_ll_usb.c ****     }
 5075              		.loc 1 1884 7 is_stmt 1 view .LVU1637
1884:Drivers/STM32H7xx_HAL_Driver/Src/stm32h7xx_ll_usb.c ****     }
 5076              		.loc 1 1884 20 is_stmt 0 view .LVU1638
 5077 0190 CE61     		str	r6, [r1, #28]
 5078 0192 A5E7     		b	.L299
 5079              	.LVL381:
 5080              	.L332:
1906:Drivers/STM32H7xx_HAL_Driver/Src/stm32h7xx_ll_usb.c ****                                         (uint32_t)hc->hub_port_nbr | USB_OTG_HCSPLT_SPLITEN;
 5081              		.loc 1 1906 5 is_stmt 1 view .LVU1639
1906:Drivers/STM32H7xx_HAL_Driver/Src/stm32h7xx_ll_usb.c ****                                         (uint32_t)hc->hub_port_nbr | USB_OTG_HCSPLT_SPLITEN;
 5082              		.loc 1 1906 54 is_stmt 0 view .LVU1640
 5083 0194 4F7C     		ldrb	r7, [r1, #17]	@ zero_extendqisi2
1907:Drivers/STM32H7xx_HAL_Driver/Src/stm32h7xx_ll_usb.c **** 
 5084              		.loc 1 1907 53 view .LVU1641
 5085 0196 0C7C     		ldrb	r4, [r1, #16]	@ zero_extendqisi2
1906:Drivers/STM32H7xx_HAL_Driver/Src/stm32h7xx_ll_usb.c ****                                         (uint32_t)hc->hub_port_nbr | USB_OTG_HCSPLT_SPLITEN;
 5086              		.loc 1 1906 96 view .LVU1642
 5087 0198 44EAC714 		orr	r4, r4, r7, lsl #7
1907:Drivers/STM32H7xx_HAL_Driver/Src/stm32h7xx_ll_usb.c **** 
 5088              		.loc 1 1907 68 view .LVU1643
 5089 019c 44F00044 		orr	r4, r4, #-2147483648
1906:Drivers/STM32H7xx_HAL_Driver/Src/stm32h7xx_ll_usb.c ****                                         (uint32_t)hc->hub_port_nbr | USB_OTG_HCSPLT_SPLITEN;
 5090              		.loc 1 1906 39 view .LVU1644
 5091 01a0 7460     		str	r4, [r6, #4]
1910:Drivers/STM32H7xx_HAL_Driver/Src/stm32h7xx_ll_usb.c ****                                             USB_OTG_HCINTMSK_NYET);
 5092              		.loc 1 1910 5 is_stmt 1 view .LVU1645
1910:Drivers/STM32H7xx_HAL_Driver/Src/stm32h7xx_ll_usb.c ****                                             USB_OTG_HCINTMSK_NYET);
 5093              		.loc 1 1910 41 is_stmt 0 view .LVU1646
 5094 01a2 F468     		ldr	r4, [r6, #12]
 5095 01a4 44F06004 		orr	r4, r4, #96
 5096 01a8 F460     		str	r4, [r6, #12]
1913:Drivers/STM32H7xx_HAL_Driver/Src/stm32h7xx_ll_usb.c ****     {
 5097              		.loc 1 1913 5 is_stmt 1 view .LVU1647
1913:Drivers/STM32H7xx_HAL_Driver/Src/stm32h7xx_ll_usb.c ****     {
 5098              		.loc 1 1913 12 is_stmt 0 view .LVU1648
 5099 01aa CC79     		ldrb	r4, [r1, #7]	@ zero_extendqisi2
1913:Drivers/STM32H7xx_HAL_Driver/Src/stm32h7xx_ll_usb.c ****     {
ARM GAS  /tmp/ccdP7LVA.s 			page 150


 5100              		.loc 1 1913 8 view .LVU1649
 5101 01ac 012C     		cmp	r4, #1
 5102 01ae 15D0     		beq	.L333
 5103              	.L309:
1919:Drivers/STM32H7xx_HAL_Driver/Src/stm32h7xx_ll_usb.c ****         (hc->do_csplit == 1U) && (hc->ep_is_in == 1U))
 5104              		.loc 1 1919 5 is_stmt 1 view .LVU1650
1919:Drivers/STM32H7xx_HAL_Driver/Src/stm32h7xx_ll_usb.c ****         (hc->do_csplit == 1U) && (hc->ep_is_in == 1U))
 5105              		.loc 1 1919 13 is_stmt 0 view .LVU1651
 5106 01b0 8C7C     		ldrb	r4, [r1, #18]	@ zero_extendqisi2
1919:Drivers/STM32H7xx_HAL_Driver/Src/stm32h7xx_ll_usb.c ****         (hc->do_csplit == 1U) && (hc->ep_is_in == 1U))
 5107              		.loc 1 1919 8 view .LVU1652
 5108 01b2 032C     		cmp	r4, #3
 5109 01b4 18BF     		it	ne
 5110 01b6 012C     		cmpne	r4, #1
 5111 01b8 02D1     		bne	.L310
1920:Drivers/STM32H7xx_HAL_Driver/Src/stm32h7xx_ll_usb.c ****     {
 5112              		.loc 1 1920 12 discriminator 1 view .LVU1653
 5113 01ba CC79     		ldrb	r4, [r1, #7]	@ zero_extendqisi2
1919:Drivers/STM32H7xx_HAL_Driver/Src/stm32h7xx_ll_usb.c ****         (hc->do_csplit == 1U) && (hc->ep_is_in == 1U))
 5114              		.loc 1 1919 74 discriminator 1 view .LVU1654
 5115 01bc 012C     		cmp	r4, #1
 5116 01be 19D0     		beq	.L334
 5117              	.L310:
1926:Drivers/STM32H7xx_HAL_Driver/Src/stm32h7xx_ll_usb.c ****     {
 5118              		.loc 1 1926 5 is_stmt 1 view .LVU1655
1926:Drivers/STM32H7xx_HAL_Driver/Src/stm32h7xx_ll_usb.c ****     {
 5119              		.loc 1 1926 12 is_stmt 0 view .LVU1656
 5120 01c0 8C7C     		ldrb	r4, [r1, #18]	@ zero_extendqisi2
1926:Drivers/STM32H7xx_HAL_Driver/Src/stm32h7xx_ll_usb.c ****     {
 5121              		.loc 1 1926 8 view .LVU1657
 5122 01c2 012C     		cmp	r4, #1
 5123 01c4 B9D1     		bne	.L311
1926:Drivers/STM32H7xx_HAL_Driver/Src/stm32h7xx_ll_usb.c ****     {
 5124              		.loc 1 1926 45 discriminator 1 view .LVU1658
 5125 01c6 CC78     		ldrb	r4, [r1, #3]	@ zero_extendqisi2
1926:Drivers/STM32H7xx_HAL_Driver/Src/stm32h7xx_ll_usb.c ****     {
 5126              		.loc 1 1926 39 discriminator 1 view .LVU1659
 5127 01c8 002C     		cmp	r4, #0
 5128 01ca B6D1     		bne	.L311
1929:Drivers/STM32H7xx_HAL_Driver/Src/stm32h7xx_ll_usb.c ****       {
 5129              		.loc 1 1929 7 is_stmt 1 view .LVU1660
1929:Drivers/STM32H7xx_HAL_Driver/Src/stm32h7xx_ll_usb.c ****       {
 5130              		.loc 1 1929 17 is_stmt 0 view .LVU1661
 5131 01cc CC68     		ldr	r4, [r1, #12]
 5132 01ce 013C     		subs	r4, r4, #1
 5133 01d0 032C     		cmp	r4, #3
 5134 01d2 B2D8     		bhi	.L311
 5135 01d4 DFE804F0 		tbb	[pc, r4]
 5136              	.L313:
 5137 01d8 16       		.byte	(.L316-.L313)/2
 5138 01d9 1B       		.byte	(.L315-.L313)/2
 5139 01da 20       		.byte	(.L314-.L313)/2
 5140 01db 25       		.byte	(.L312-.L313)/2
 5141              		.p2align 1
 5142              	.L333:
1913:Drivers/STM32H7xx_HAL_Driver/Src/stm32h7xx_ll_usb.c ****     {
 5143              		.loc 1 1913 37 discriminator 1 view .LVU1662
ARM GAS  /tmp/ccdP7LVA.s 			page 151


 5144 01dc CC78     		ldrb	r4, [r1, #3]	@ zero_extendqisi2
1913:Drivers/STM32H7xx_HAL_Driver/Src/stm32h7xx_ll_usb.c ****     {
 5145              		.loc 1 1913 31 discriminator 1 view .LVU1663
 5146 01de 002C     		cmp	r4, #0
 5147 01e0 E6D1     		bne	.L309
1915:Drivers/STM32H7xx_HAL_Driver/Src/stm32h7xx_ll_usb.c ****       USBx_HC((uint32_t)ch_num)->HCINTMSK |= USB_OTG_HCINTMSK_NYET;
 5148              		.loc 1 1915 7 is_stmt 1 view .LVU1664
1915:Drivers/STM32H7xx_HAL_Driver/Src/stm32h7xx_ll_usb.c ****       USBx_HC((uint32_t)ch_num)->HCINTMSK |= USB_OTG_HCINTMSK_NYET;
 5149              		.loc 1 1915 41 is_stmt 0 view .LVU1665
 5150 01e2 7468     		ldr	r4, [r6, #4]
 5151 01e4 44F48034 		orr	r4, r4, #65536
 5152 01e8 7460     		str	r4, [r6, #4]
1916:Drivers/STM32H7xx_HAL_Driver/Src/stm32h7xx_ll_usb.c ****     }
 5153              		.loc 1 1916 7 is_stmt 1 view .LVU1666
1916:Drivers/STM32H7xx_HAL_Driver/Src/stm32h7xx_ll_usb.c ****     }
 5154              		.loc 1 1916 43 is_stmt 0 view .LVU1667
 5155 01ea F468     		ldr	r4, [r6, #12]
 5156 01ec 44F04004 		orr	r4, r4, #64
 5157 01f0 F460     		str	r4, [r6, #12]
 5158 01f2 DDE7     		b	.L309
 5159              	.L334:
1920:Drivers/STM32H7xx_HAL_Driver/Src/stm32h7xx_ll_usb.c ****     {
 5160              		.loc 1 1920 37 view .LVU1668
 5161 01f4 CC78     		ldrb	r4, [r1, #3]	@ zero_extendqisi2
1920:Drivers/STM32H7xx_HAL_Driver/Src/stm32h7xx_ll_usb.c ****     {
 5162              		.loc 1 1920 31 view .LVU1669
 5163 01f6 012C     		cmp	r4, #1
 5164 01f8 E2D1     		bne	.L310
1922:Drivers/STM32H7xx_HAL_Driver/Src/stm32h7xx_ll_usb.c ****     }
 5165              		.loc 1 1922 7 is_stmt 1 view .LVU1670
1922:Drivers/STM32H7xx_HAL_Driver/Src/stm32h7xx_ll_usb.c ****     }
 5166              		.loc 1 1922 41 is_stmt 0 view .LVU1671
 5167 01fa 7468     		ldr	r4, [r6, #4]
 5168 01fc 44F48034 		orr	r4, r4, #65536
 5169 0200 7460     		str	r4, [r6, #4]
 5170 0202 DDE7     		b	.L310
 5171              	.L316:
1933:Drivers/STM32H7xx_HAL_Driver/Src/stm32h7xx_ll_usb.c ****           break;
 5172              		.loc 1 1933 11 is_stmt 1 view .LVU1672
1933:Drivers/STM32H7xx_HAL_Driver/Src/stm32h7xx_ll_usb.c ****           break;
 5173              		.loc 1 1933 45 is_stmt 0 view .LVU1673
 5174 0204 7468     		ldr	r4, [r6, #4]
 5175 0206 44F40044 		orr	r4, r4, #32768
 5176 020a 7460     		str	r4, [r6, #4]
1934:Drivers/STM32H7xx_HAL_Driver/Src/stm32h7xx_ll_usb.c **** 
 5177              		.loc 1 1934 11 is_stmt 1 view .LVU1674
 5178 020c 95E7     		b	.L311
 5179              	.L315:
1938:Drivers/STM32H7xx_HAL_Driver/Src/stm32h7xx_ll_usb.c ****           break;
 5180              		.loc 1 1938 11 view .LVU1675
1938:Drivers/STM32H7xx_HAL_Driver/Src/stm32h7xx_ll_usb.c ****           break;
 5181              		.loc 1 1938 45 is_stmt 0 view .LVU1676
 5182 020e 7468     		ldr	r4, [r6, #4]
 5183 0210 44F00E04 		orr	r4, r4, #14
 5184 0214 7460     		str	r4, [r6, #4]
1939:Drivers/STM32H7xx_HAL_Driver/Src/stm32h7xx_ll_usb.c **** 
 5185              		.loc 1 1939 11 is_stmt 1 view .LVU1677
ARM GAS  /tmp/ccdP7LVA.s 			page 152


 5186 0216 90E7     		b	.L311
 5187              	.L314:
1943:Drivers/STM32H7xx_HAL_Driver/Src/stm32h7xx_ll_usb.c ****           break;
 5188              		.loc 1 1943 11 view .LVU1678
1943:Drivers/STM32H7xx_HAL_Driver/Src/stm32h7xx_ll_usb.c ****           break;
 5189              		.loc 1 1943 45 is_stmt 0 view .LVU1679
 5190 0218 7468     		ldr	r4, [r6, #4]
 5191 021a 44F48044 		orr	r4, r4, #16384
 5192 021e 7460     		str	r4, [r6, #4]
1944:Drivers/STM32H7xx_HAL_Driver/Src/stm32h7xx_ll_usb.c **** 
 5193              		.loc 1 1944 11 is_stmt 1 view .LVU1680
 5194 0220 8BE7     		b	.L311
 5195              	.L312:
1948:Drivers/STM32H7xx_HAL_Driver/Src/stm32h7xx_ll_usb.c ****           break;
 5196              		.loc 1 1948 11 view .LVU1681
1948:Drivers/STM32H7xx_HAL_Driver/Src/stm32h7xx_ll_usb.c ****           break;
 5197              		.loc 1 1948 45 is_stmt 0 view .LVU1682
 5198 0222 7468     		ldr	r4, [r6, #4]
 5199 0224 44F44044 		orr	r4, r4, #49152
 5200 0228 7460     		str	r4, [r6, #4]
1949:Drivers/STM32H7xx_HAL_Driver/Src/stm32h7xx_ll_usb.c **** 
 5201              		.loc 1 1949 11 is_stmt 1 view .LVU1683
 5202 022a 86E7     		b	.L311
 5203              	.L317:
1973:Drivers/STM32H7xx_HAL_Driver/Src/stm32h7xx_ll_usb.c ****   }
 5204              		.loc 1 1973 5 view .LVU1684
1973:Drivers/STM32H7xx_HAL_Driver/Src/stm32h7xx_ll_usb.c ****   }
 5205              		.loc 1 1973 12 is_stmt 0 view .LVU1685
 5206 022c 039C     		ldr	r4, [sp, #12]
 5207 022e 24F40044 		bic	r4, r4, #32768
 5208 0232 0394     		str	r4, [sp, #12]
 5209 0234 8FE7     		b	.L318
 5210              	.LVL382:
 5211              	.L322:
1991:Drivers/STM32H7xx_HAL_Driver/Src/stm32h7xx_ll_usb.c **** 
 5212              		.loc 1 1991 9 is_stmt 1 view .LVU1686
1991:Drivers/STM32H7xx_HAL_Driver/Src/stm32h7xx_ll_usb.c **** 
 5213              		.loc 1 1991 46 is_stmt 0 view .LVU1687
 5214 0236 0333     		adds	r3, r3, #3
 5215              	.LVL383:
1994:Drivers/STM32H7xx_HAL_Driver/Src/stm32h7xx_ll_usb.c ****         {
 5216              		.loc 1 1994 9 is_stmt 1 view .LVU1688
1994:Drivers/STM32H7xx_HAL_Driver/Src/stm32h7xx_ll_usb.c ****         {
 5217              		.loc 1 1994 30 is_stmt 0 view .LVU1689
 5218 0238 C26A     		ldr	r2, [r0, #44]
1994:Drivers/STM32H7xx_HAL_Driver/Src/stm32h7xx_ll_usb.c ****         {
 5219              		.loc 1 1994 41 view .LVU1690
 5220 023a 92B2     		uxth	r2, r2
1994:Drivers/STM32H7xx_HAL_Driver/Src/stm32h7xx_ll_usb.c ****         {
 5221              		.loc 1 1994 12 view .LVU1691
 5222 023c C3F38F03 		ubfx	r3, r3, #2, #16
 5223              	.LVL384:
1994:Drivers/STM32H7xx_HAL_Driver/Src/stm32h7xx_ll_usb.c ****         {
 5224              		.loc 1 1994 12 view .LVU1692
 5225 0240 9342     		cmp	r3, r2
 5226 0242 03D9     		bls	.L319
1997:Drivers/STM32H7xx_HAL_Driver/Src/stm32h7xx_ll_usb.c ****         }
ARM GAS  /tmp/ccdP7LVA.s 			page 153


 5227              		.loc 1 1997 11 is_stmt 1 view .LVU1693
1997:Drivers/STM32H7xx_HAL_Driver/Src/stm32h7xx_ll_usb.c ****         }
 5228              		.loc 1 1997 25 is_stmt 0 view .LVU1694
 5229 0244 8369     		ldr	r3, [r0, #24]
 5230 0246 43F02003 		orr	r3, r3, #32
 5231 024a 8361     		str	r3, [r0, #24]
 5232              	.LVL385:
 5233              	.L319:
2018:Drivers/STM32H7xx_HAL_Driver/Src/stm32h7xx_ll_usb.c ****   }
 5234              		.loc 1 2018 5 is_stmt 1 view .LVU1695
2018:Drivers/STM32H7xx_HAL_Driver/Src/stm32h7xx_ll_usb.c ****   }
 5235              		.loc 1 2018 11 is_stmt 0 view .LVU1696
 5236 024c 0023     		movs	r3, #0
 5237 024e 0093     		str	r3, [sp]
 5238 0250 0B8C     		ldrh	r3, [r1, #32]
 5239 0252 4A78     		ldrb	r2, [r1, #1]	@ zero_extendqisi2
 5240 0254 8969     		ldr	r1, [r1, #24]
 5241              	.LVL386:
2018:Drivers/STM32H7xx_HAL_Driver/Src/stm32h7xx_ll_usb.c ****   }
 5242              		.loc 1 2018 11 view .LVU1697
 5243 0256 FFF7FEFF 		bl	USB_WritePacket
 5244              	.LVL387:
2018:Drivers/STM32H7xx_HAL_Driver/Src/stm32h7xx_ll_usb.c ****   }
 5245              		.loc 1 2018 11 view .LVU1698
 5246 025a 02E7     		b	.L296
 5247              	.LVL388:
 5248              	.L320:
2004:Drivers/STM32H7xx_HAL_Driver/Src/stm32h7xx_ll_usb.c ****         /* check if there is enough space in FIFO space */
 5249              		.loc 1 2004 9 is_stmt 1 view .LVU1699
2004:Drivers/STM32H7xx_HAL_Driver/Src/stm32h7xx_ll_usb.c ****         /* check if there is enough space in FIFO space */
 5250              		.loc 1 2004 46 is_stmt 0 view .LVU1700
 5251 025c 0333     		adds	r3, r3, #3
 5252              	.LVL389:
2006:Drivers/STM32H7xx_HAL_Driver/Src/stm32h7xx_ll_usb.c ****         {
 5253              		.loc 1 2006 9 is_stmt 1 view .LVU1701
2006:Drivers/STM32H7xx_HAL_Driver/Src/stm32h7xx_ll_usb.c ****         {
 5254              		.loc 1 2006 35 is_stmt 0 view .LVU1702
 5255 025e 2A69     		ldr	r2, [r5, #16]
2006:Drivers/STM32H7xx_HAL_Driver/Src/stm32h7xx_ll_usb.c ****         {
 5256              		.loc 1 2006 45 view .LVU1703
 5257 0260 92B2     		uxth	r2, r2
2006:Drivers/STM32H7xx_HAL_Driver/Src/stm32h7xx_ll_usb.c ****         {
 5258              		.loc 1 2006 12 view .LVU1704
 5259 0262 C3F38F03 		ubfx	r3, r3, #2, #16
 5260              	.LVL390:
2006:Drivers/STM32H7xx_HAL_Driver/Src/stm32h7xx_ll_usb.c ****         {
 5261              		.loc 1 2006 12 view .LVU1705
 5262 0266 9A42     		cmp	r2, r3
 5263 0268 F0D2     		bcs	.L319
2009:Drivers/STM32H7xx_HAL_Driver/Src/stm32h7xx_ll_usb.c ****         }
 5264              		.loc 1 2009 11 is_stmt 1 view .LVU1706
2009:Drivers/STM32H7xx_HAL_Driver/Src/stm32h7xx_ll_usb.c ****         }
 5265              		.loc 1 2009 25 is_stmt 0 view .LVU1707
 5266 026a 8369     		ldr	r3, [r0, #24]
 5267 026c 43F08063 		orr	r3, r3, #67108864
 5268 0270 8361     		str	r3, [r0, #24]
 5269              	.LVL391:
ARM GAS  /tmp/ccdP7LVA.s 			page 154


2009:Drivers/STM32H7xx_HAL_Driver/Src/stm32h7xx_ll_usb.c ****         }
 5270              		.loc 1 2009 25 view .LVU1708
 5271 0272 EBE7     		b	.L319
 5272              	.L336:
 5273              		.align	2
 5274              	.L335:
 5275 0274 0000F81F 		.word	536346624
 5276              		.cfi_endproc
 5277              	.LFE186:
 5279              		.section	.text.USB_StopHost,"ax",%progbits
 5280              		.align	1
 5281              		.global	USB_StopHost
 5282              		.syntax unified
 5283              		.thumb
 5284              		.thumb_func
 5285              		.fpu fpv5-d16
 5287              	USB_StopHost:
 5288              	.LVL392:
 5289              	.LFB190:
2145:Drivers/STM32H7xx_HAL_Driver/Src/stm32h7xx_ll_usb.c **** 
2146:Drivers/STM32H7xx_HAL_Driver/Src/stm32h7xx_ll_usb.c **** /**
2147:Drivers/STM32H7xx_HAL_Driver/Src/stm32h7xx_ll_usb.c ****   * @brief  Stop Host Core
2148:Drivers/STM32H7xx_HAL_Driver/Src/stm32h7xx_ll_usb.c ****   * @param  USBx  Selected device
2149:Drivers/STM32H7xx_HAL_Driver/Src/stm32h7xx_ll_usb.c ****   * @retval HAL state
2150:Drivers/STM32H7xx_HAL_Driver/Src/stm32h7xx_ll_usb.c ****   */
2151:Drivers/STM32H7xx_HAL_Driver/Src/stm32h7xx_ll_usb.c **** HAL_StatusTypeDef USB_StopHost(USB_OTG_GlobalTypeDef *USBx)
2152:Drivers/STM32H7xx_HAL_Driver/Src/stm32h7xx_ll_usb.c **** {
 5290              		.loc 1 2152 1 is_stmt 1 view -0
 5291              		.cfi_startproc
 5292              		@ args = 0, pretend = 0, frame = 8
 5293              		@ frame_needed = 0, uses_anonymous_args = 0
 5294              		.loc 1 2152 1 is_stmt 0 view .LVU1710
 5295 0000 70B5     		push	{r4, r5, r6, lr}
 5296              	.LCFI75:
 5297              		.cfi_def_cfa_offset 16
 5298              		.cfi_offset 4, -16
 5299              		.cfi_offset 5, -12
 5300              		.cfi_offset 6, -8
 5301              		.cfi_offset 14, -4
 5302 0002 82B0     		sub	sp, sp, #8
 5303              	.LCFI76:
 5304              		.cfi_def_cfa_offset 24
 5305 0004 0546     		mov	r5, r0
2153:Drivers/STM32H7xx_HAL_Driver/Src/stm32h7xx_ll_usb.c ****   HAL_StatusTypeDef ret = HAL_OK;
 5306              		.loc 1 2153 3 is_stmt 1 view .LVU1711
 5307              	.LVL393:
2154:Drivers/STM32H7xx_HAL_Driver/Src/stm32h7xx_ll_usb.c ****   uint32_t USBx_BASE = (uint32_t)USBx;
 5308              		.loc 1 2154 3 view .LVU1712
 5309              		.loc 1 2154 12 is_stmt 0 view .LVU1713
 5310 0006 0446     		mov	r4, r0
 5311              	.LVL394:
2155:Drivers/STM32H7xx_HAL_Driver/Src/stm32h7xx_ll_usb.c ****   __IO uint32_t count = 0U;
 5312              		.loc 1 2155 3 is_stmt 1 view .LVU1714
 5313              		.loc 1 2155 17 is_stmt 0 view .LVU1715
 5314 0008 0023     		movs	r3, #0
 5315 000a 0193     		str	r3, [sp, #4]
2156:Drivers/STM32H7xx_HAL_Driver/Src/stm32h7xx_ll_usb.c ****   uint32_t value;
ARM GAS  /tmp/ccdP7LVA.s 			page 155


 5316              		.loc 1 2156 3 is_stmt 1 view .LVU1716
2157:Drivers/STM32H7xx_HAL_Driver/Src/stm32h7xx_ll_usb.c ****   uint32_t i;
 5317              		.loc 1 2157 3 view .LVU1717
2158:Drivers/STM32H7xx_HAL_Driver/Src/stm32h7xx_ll_usb.c **** 
2159:Drivers/STM32H7xx_HAL_Driver/Src/stm32h7xx_ll_usb.c ****   (void)USB_DisableGlobalInt(USBx);
 5318              		.loc 1 2159 3 view .LVU1718
 5319              		.loc 1 2159 9 is_stmt 0 view .LVU1719
 5320 000c FFF7FEFF 		bl	USB_DisableGlobalInt
 5321              	.LVL395:
2160:Drivers/STM32H7xx_HAL_Driver/Src/stm32h7xx_ll_usb.c **** 
2161:Drivers/STM32H7xx_HAL_Driver/Src/stm32h7xx_ll_usb.c ****   /* Flush USB FIFO */
2162:Drivers/STM32H7xx_HAL_Driver/Src/stm32h7xx_ll_usb.c ****   if (USB_FlushTxFifo(USBx, 0x10U) != HAL_OK) /* all Tx FIFOs */
 5322              		.loc 1 2162 3 is_stmt 1 view .LVU1720
 5323              		.loc 1 2162 7 is_stmt 0 view .LVU1721
 5324 0010 1021     		movs	r1, #16
 5325 0012 2846     		mov	r0, r5
 5326 0014 FFF7FEFF 		bl	USB_FlushTxFifo
 5327              	.LVL396:
 5328              		.loc 1 2162 6 view .LVU1722
 5329 0018 0646     		mov	r6, r0
 5330 001a 00B1     		cbz	r0, .L338
2163:Drivers/STM32H7xx_HAL_Driver/Src/stm32h7xx_ll_usb.c ****   {
2164:Drivers/STM32H7xx_HAL_Driver/Src/stm32h7xx_ll_usb.c ****     ret = HAL_ERROR;
 5331              		.loc 1 2164 9 view .LVU1723
 5332 001c 0126     		movs	r6, #1
 5333              	.L338:
 5334              	.LVL397:
2165:Drivers/STM32H7xx_HAL_Driver/Src/stm32h7xx_ll_usb.c ****   }
2166:Drivers/STM32H7xx_HAL_Driver/Src/stm32h7xx_ll_usb.c **** 
2167:Drivers/STM32H7xx_HAL_Driver/Src/stm32h7xx_ll_usb.c ****   if (USB_FlushRxFifo(USBx) != HAL_OK)
 5335              		.loc 1 2167 3 is_stmt 1 view .LVU1724
 5336              		.loc 1 2167 7 is_stmt 0 view .LVU1725
 5337 001e 2846     		mov	r0, r5
 5338 0020 FFF7FEFF 		bl	USB_FlushRxFifo
 5339              	.LVL398:
 5340              		.loc 1 2167 6 view .LVU1726
 5341 0024 00B1     		cbz	r0, .L339
2168:Drivers/STM32H7xx_HAL_Driver/Src/stm32h7xx_ll_usb.c ****   {
2169:Drivers/STM32H7xx_HAL_Driver/Src/stm32h7xx_ll_usb.c ****     ret = HAL_ERROR;
 5342              		.loc 1 2169 9 view .LVU1727
 5343 0026 0126     		movs	r6, #1
 5344              	.LVL399:
 5345              	.L339:
2170:Drivers/STM32H7xx_HAL_Driver/Src/stm32h7xx_ll_usb.c ****   }
2171:Drivers/STM32H7xx_HAL_Driver/Src/stm32h7xx_ll_usb.c **** 
2172:Drivers/STM32H7xx_HAL_Driver/Src/stm32h7xx_ll_usb.c ****   /* Flush out any leftover queued requests. */
2173:Drivers/STM32H7xx_HAL_Driver/Src/stm32h7xx_ll_usb.c ****   for (i = 0U; i <= 15U; i++)
 5346              		.loc 1 2173 3 is_stmt 1 view .LVU1728
 5347              		.loc 1 2173 10 is_stmt 0 view .LVU1729
 5348 0028 0022     		movs	r2, #0
 5349              		.loc 1 2173 3 view .LVU1730
 5350 002a 0AE0     		b	.L340
 5351              	.LVL400:
 5352              	.L341:
2174:Drivers/STM32H7xx_HAL_Driver/Src/stm32h7xx_ll_usb.c ****   {
2175:Drivers/STM32H7xx_HAL_Driver/Src/stm32h7xx_ll_usb.c ****     value = USBx_HC(i)->HCCHAR;
 5353              		.loc 1 2175 5 is_stmt 1 discriminator 3 view .LVU1731
ARM GAS  /tmp/ccdP7LVA.s 			page 156


 5354              		.loc 1 2175 13 is_stmt 0 discriminator 3 view .LVU1732
 5355 002c 04EB4211 		add	r1, r4, r2, lsl #5
 5356              		.loc 1 2175 11 discriminator 3 view .LVU1733
 5357 0030 D1F80035 		ldr	r3, [r1, #1280]
 5358              	.LVL401:
2176:Drivers/STM32H7xx_HAL_Driver/Src/stm32h7xx_ll_usb.c ****     value |=  USB_OTG_HCCHAR_CHDIS;
 5359              		.loc 1 2176 5 is_stmt 1 discriminator 3 view .LVU1734
2177:Drivers/STM32H7xx_HAL_Driver/Src/stm32h7xx_ll_usb.c ****     value &= ~USB_OTG_HCCHAR_CHENA;
 5360              		.loc 1 2177 5 discriminator 3 view .LVU1735
2178:Drivers/STM32H7xx_HAL_Driver/Src/stm32h7xx_ll_usb.c ****     value &= ~USB_OTG_HCCHAR_EPDIR;
 5361              		.loc 1 2178 5 discriminator 3 view .LVU1736
 5362 0034 23F08023 		bic	r3, r3, #-2147450880
 5363              	.LVL402:
 5364              		.loc 1 2178 11 is_stmt 0 discriminator 3 view .LVU1737
 5365 0038 43F08043 		orr	r3, r3, #1073741824
 5366              	.LVL403:
2179:Drivers/STM32H7xx_HAL_Driver/Src/stm32h7xx_ll_usb.c ****     USBx_HC(i)->HCCHAR = value;
 5367              		.loc 1 2179 5 is_stmt 1 discriminator 3 view .LVU1738
 5368              		.loc 1 2179 24 is_stmt 0 discriminator 3 view .LVU1739
 5369 003c C1F80035 		str	r3, [r1, #1280]
2173:Drivers/STM32H7xx_HAL_Driver/Src/stm32h7xx_ll_usb.c ****   {
 5370              		.loc 1 2173 26 is_stmt 1 discriminator 3 view .LVU1740
2173:Drivers/STM32H7xx_HAL_Driver/Src/stm32h7xx_ll_usb.c ****   {
 5371              		.loc 1 2173 27 is_stmt 0 discriminator 3 view .LVU1741
 5372 0040 0132     		adds	r2, r2, #1
 5373              	.LVL404:
 5374              	.L340:
2173:Drivers/STM32H7xx_HAL_Driver/Src/stm32h7xx_ll_usb.c ****   {
 5375              		.loc 1 2173 16 is_stmt 1 discriminator 1 view .LVU1742
2173:Drivers/STM32H7xx_HAL_Driver/Src/stm32h7xx_ll_usb.c ****   {
 5376              		.loc 1 2173 3 is_stmt 0 discriminator 1 view .LVU1743
 5377 0042 0F2A     		cmp	r2, #15
 5378 0044 F2D9     		bls	.L341
2180:Drivers/STM32H7xx_HAL_Driver/Src/stm32h7xx_ll_usb.c ****   }
2181:Drivers/STM32H7xx_HAL_Driver/Src/stm32h7xx_ll_usb.c **** 
2182:Drivers/STM32H7xx_HAL_Driver/Src/stm32h7xx_ll_usb.c ****   /* Halt all channels to put them into a known state. */
2183:Drivers/STM32H7xx_HAL_Driver/Src/stm32h7xx_ll_usb.c ****   for (i = 0U; i <= 15U; i++)
 5379              		.loc 1 2183 10 view .LVU1744
 5380 0046 0021     		movs	r1, #0
 5381 0048 00E0     		b	.L342
 5382              	.LVL405:
 5383              	.L343:
 5384              		.loc 1 2183 26 is_stmt 1 discriminator 2 view .LVU1745
 5385              		.loc 1 2183 27 is_stmt 0 discriminator 2 view .LVU1746
 5386 004a 0131     		adds	r1, r1, #1
 5387              	.LVL406:
 5388              	.L342:
 5389              		.loc 1 2183 16 is_stmt 1 discriminator 1 view .LVU1747
 5390              		.loc 1 2183 3 is_stmt 0 discriminator 1 view .LVU1748
 5391 004c 0F29     		cmp	r1, #15
 5392 004e 16D8     		bhi	.L349
2184:Drivers/STM32H7xx_HAL_Driver/Src/stm32h7xx_ll_usb.c ****   {
2185:Drivers/STM32H7xx_HAL_Driver/Src/stm32h7xx_ll_usb.c ****     value = USBx_HC(i)->HCCHAR;
 5393              		.loc 1 2185 5 is_stmt 1 view .LVU1749
 5394              		.loc 1 2185 13 is_stmt 0 view .LVU1750
 5395 0050 04EB4110 		add	r0, r4, r1, lsl #5
 5396 0054 00F5A062 		add	r2, r0, #1280
ARM GAS  /tmp/ccdP7LVA.s 			page 157


 5397              		.loc 1 2185 11 view .LVU1751
 5398 0058 D0F80035 		ldr	r3, [r0, #1280]
 5399              	.LVL407:
2186:Drivers/STM32H7xx_HAL_Driver/Src/stm32h7xx_ll_usb.c ****     value |= USB_OTG_HCCHAR_CHDIS;
 5400              		.loc 1 2186 5 is_stmt 1 view .LVU1752
2187:Drivers/STM32H7xx_HAL_Driver/Src/stm32h7xx_ll_usb.c ****     value |= USB_OTG_HCCHAR_CHENA;
 5401              		.loc 1 2187 5 view .LVU1753
2188:Drivers/STM32H7xx_HAL_Driver/Src/stm32h7xx_ll_usb.c ****     value &= ~USB_OTG_HCCHAR_EPDIR;
 5402              		.loc 1 2188 5 view .LVU1754
 5403 005c 23F40043 		bic	r3, r3, #32768
 5404              	.LVL408:
 5405              		.loc 1 2188 11 is_stmt 0 view .LVU1755
 5406 0060 43F04043 		orr	r3, r3, #-1073741824
 5407              	.LVL409:
2189:Drivers/STM32H7xx_HAL_Driver/Src/stm32h7xx_ll_usb.c ****     USBx_HC(i)->HCCHAR = value;
 5408              		.loc 1 2189 5 is_stmt 1 view .LVU1756
 5409              		.loc 1 2189 24 is_stmt 0 view .LVU1757
 5410 0064 C0F80035 		str	r3, [r0, #1280]
 5411              	.LVL410:
 5412              	.L344:
2190:Drivers/STM32H7xx_HAL_Driver/Src/stm32h7xx_ll_usb.c **** 
2191:Drivers/STM32H7xx_HAL_Driver/Src/stm32h7xx_ll_usb.c ****     do
 5413              		.loc 1 2191 5 is_stmt 1 view .LVU1758
2192:Drivers/STM32H7xx_HAL_Driver/Src/stm32h7xx_ll_usb.c ****     {
2193:Drivers/STM32H7xx_HAL_Driver/Src/stm32h7xx_ll_usb.c ****       count++;
 5414              		.loc 1 2193 7 view .LVU1759
 5415              		.loc 1 2193 12 is_stmt 0 view .LVU1760
 5416 0068 019B     		ldr	r3, [sp, #4]
 5417 006a 0133     		adds	r3, r3, #1
 5418 006c 0193     		str	r3, [sp, #4]
2194:Drivers/STM32H7xx_HAL_Driver/Src/stm32h7xx_ll_usb.c **** 
2195:Drivers/STM32H7xx_HAL_Driver/Src/stm32h7xx_ll_usb.c ****       if (count > 1000U)
 5419              		.loc 1 2195 7 is_stmt 1 view .LVU1761
 5420              		.loc 1 2195 17 is_stmt 0 view .LVU1762
 5421 006e 019B     		ldr	r3, [sp, #4]
 5422              		.loc 1 2195 10 view .LVU1763
 5423 0070 B3F57A7F 		cmp	r3, #1000
 5424 0074 E9D8     		bhi	.L343
2196:Drivers/STM32H7xx_HAL_Driver/Src/stm32h7xx_ll_usb.c ****       {
2197:Drivers/STM32H7xx_HAL_Driver/Src/stm32h7xx_ll_usb.c ****         break;
2198:Drivers/STM32H7xx_HAL_Driver/Src/stm32h7xx_ll_usb.c ****       }
2199:Drivers/STM32H7xx_HAL_Driver/Src/stm32h7xx_ll_usb.c ****     } while ((USBx_HC(i)->HCCHAR & USB_OTG_HCCHAR_CHENA) == USB_OTG_HCCHAR_CHENA);
 5425              		.loc 1 2199 13 is_stmt 1 view .LVU1764
 5426              		.loc 1 2199 25 is_stmt 0 view .LVU1765
 5427 0076 1368     		ldr	r3, [r2]
 5428              		.loc 1 2199 5 view .LVU1766
 5429 0078 002B     		cmp	r3, #0
 5430 007a F5DB     		blt	.L344
 5431 007c E5E7     		b	.L343
 5432              	.L349:
2200:Drivers/STM32H7xx_HAL_Driver/Src/stm32h7xx_ll_usb.c ****   }
2201:Drivers/STM32H7xx_HAL_Driver/Src/stm32h7xx_ll_usb.c **** 
2202:Drivers/STM32H7xx_HAL_Driver/Src/stm32h7xx_ll_usb.c ****   /* Clear any pending Host interrupts */
2203:Drivers/STM32H7xx_HAL_Driver/Src/stm32h7xx_ll_usb.c ****   USBx_HOST->HAINT = CLEAR_INTERRUPT_MASK;
 5433              		.loc 1 2203 3 is_stmt 1 view .LVU1767
 5434              		.loc 1 2203 20 is_stmt 0 view .LVU1768
 5435 007e 4FF0FF33 		mov	r3, #-1
ARM GAS  /tmp/ccdP7LVA.s 			page 158


 5436 0082 C5F81434 		str	r3, [r5, #1044]
2204:Drivers/STM32H7xx_HAL_Driver/Src/stm32h7xx_ll_usb.c ****   USBx->GINTSTS = CLEAR_INTERRUPT_MASK;
 5437              		.loc 1 2204 3 is_stmt 1 view .LVU1769
 5438              		.loc 1 2204 17 is_stmt 0 view .LVU1770
 5439 0086 6B61     		str	r3, [r5, #20]
2205:Drivers/STM32H7xx_HAL_Driver/Src/stm32h7xx_ll_usb.c **** 
2206:Drivers/STM32H7xx_HAL_Driver/Src/stm32h7xx_ll_usb.c ****   (void)USB_EnableGlobalInt(USBx);
 5440              		.loc 1 2206 3 is_stmt 1 view .LVU1771
 5441              		.loc 1 2206 9 is_stmt 0 view .LVU1772
 5442 0088 2846     		mov	r0, r5
 5443 008a FFF7FEFF 		bl	USB_EnableGlobalInt
 5444              	.LVL411:
2207:Drivers/STM32H7xx_HAL_Driver/Src/stm32h7xx_ll_usb.c **** 
2208:Drivers/STM32H7xx_HAL_Driver/Src/stm32h7xx_ll_usb.c ****   return ret;
 5445              		.loc 1 2208 3 is_stmt 1 view .LVU1773
2209:Drivers/STM32H7xx_HAL_Driver/Src/stm32h7xx_ll_usb.c **** }
 5446              		.loc 1 2209 1 is_stmt 0 view .LVU1774
 5447 008e 3046     		mov	r0, r6
 5448 0090 02B0     		add	sp, sp, #8
 5449              	.LCFI77:
 5450              		.cfi_def_cfa_offset 16
 5451              		@ sp needed
 5452 0092 70BD     		pop	{r4, r5, r6, pc}
 5453              		.loc 1 2209 1 view .LVU1775
 5454              		.cfi_endproc
 5455              	.LFE190:
 5457              		.section	.text.USB_ActivateRemoteWakeup,"ax",%progbits
 5458              		.align	1
 5459              		.global	USB_ActivateRemoteWakeup
 5460              		.syntax unified
 5461              		.thumb
 5462              		.thumb_func
 5463              		.fpu fpv5-d16
 5465              	USB_ActivateRemoteWakeup:
 5466              	.LVL412:
 5467              	.LFB191:
2210:Drivers/STM32H7xx_HAL_Driver/Src/stm32h7xx_ll_usb.c **** 
2211:Drivers/STM32H7xx_HAL_Driver/Src/stm32h7xx_ll_usb.c **** /**
2212:Drivers/STM32H7xx_HAL_Driver/Src/stm32h7xx_ll_usb.c ****   * @brief  USB_ActivateRemoteWakeup active remote wakeup signalling
2213:Drivers/STM32H7xx_HAL_Driver/Src/stm32h7xx_ll_usb.c ****   * @param  USBx Selected device
2214:Drivers/STM32H7xx_HAL_Driver/Src/stm32h7xx_ll_usb.c ****   * @retval HAL status
2215:Drivers/STM32H7xx_HAL_Driver/Src/stm32h7xx_ll_usb.c ****   */
2216:Drivers/STM32H7xx_HAL_Driver/Src/stm32h7xx_ll_usb.c **** HAL_StatusTypeDef USB_ActivateRemoteWakeup(const USB_OTG_GlobalTypeDef *USBx)
2217:Drivers/STM32H7xx_HAL_Driver/Src/stm32h7xx_ll_usb.c **** {
 5468              		.loc 1 2217 1 is_stmt 1 view -0
 5469              		.cfi_startproc
 5470              		@ args = 0, pretend = 0, frame = 0
 5471              		@ frame_needed = 0, uses_anonymous_args = 0
 5472              		@ link register save eliminated.
2218:Drivers/STM32H7xx_HAL_Driver/Src/stm32h7xx_ll_usb.c ****   uint32_t USBx_BASE = (uint32_t)USBx;
 5473              		.loc 1 2218 3 view .LVU1777
2219:Drivers/STM32H7xx_HAL_Driver/Src/stm32h7xx_ll_usb.c **** 
2220:Drivers/STM32H7xx_HAL_Driver/Src/stm32h7xx_ll_usb.c ****   if ((USBx_DEVICE->DSTS & USB_OTG_DSTS_SUSPSTS) == USB_OTG_DSTS_SUSPSTS)
 5474              		.loc 1 2220 3 view .LVU1778
 5475              		.loc 1 2220 19 is_stmt 0 view .LVU1779
 5476 0000 D0F80838 		ldr	r3, [r0, #2056]
 5477              		.loc 1 2220 8 view .LVU1780
ARM GAS  /tmp/ccdP7LVA.s 			page 159


 5478 0004 00F50060 		add	r0, r0, #2048
 5479              	.LVL413:
 5480              		.loc 1 2220 6 view .LVU1781
 5481 0008 13F0010F 		tst	r3, #1
 5482 000c 03D0     		beq	.L351
2221:Drivers/STM32H7xx_HAL_Driver/Src/stm32h7xx_ll_usb.c ****   {
2222:Drivers/STM32H7xx_HAL_Driver/Src/stm32h7xx_ll_usb.c ****     /* active Remote wakeup signalling */
2223:Drivers/STM32H7xx_HAL_Driver/Src/stm32h7xx_ll_usb.c ****     USBx_DEVICE->DCTL |= USB_OTG_DCTL_RWUSIG;
 5483              		.loc 1 2223 5 is_stmt 1 view .LVU1782
 5484              		.loc 1 2223 23 is_stmt 0 view .LVU1783
 5485 000e 4368     		ldr	r3, [r0, #4]
 5486 0010 43F00103 		orr	r3, r3, #1
 5487 0014 4360     		str	r3, [r0, #4]
 5488              	.L351:
2224:Drivers/STM32H7xx_HAL_Driver/Src/stm32h7xx_ll_usb.c ****   }
2225:Drivers/STM32H7xx_HAL_Driver/Src/stm32h7xx_ll_usb.c **** 
2226:Drivers/STM32H7xx_HAL_Driver/Src/stm32h7xx_ll_usb.c ****   return HAL_OK;
 5489              		.loc 1 2226 3 is_stmt 1 view .LVU1784
2227:Drivers/STM32H7xx_HAL_Driver/Src/stm32h7xx_ll_usb.c **** }
 5490              		.loc 1 2227 1 is_stmt 0 view .LVU1785
 5491 0016 0020     		movs	r0, #0
 5492              	.LVL414:
 5493              		.loc 1 2227 1 view .LVU1786
 5494 0018 7047     		bx	lr
 5495              		.cfi_endproc
 5496              	.LFE191:
 5498              		.section	.text.USB_DeActivateRemoteWakeup,"ax",%progbits
 5499              		.align	1
 5500              		.global	USB_DeActivateRemoteWakeup
 5501              		.syntax unified
 5502              		.thumb
 5503              		.thumb_func
 5504              		.fpu fpv5-d16
 5506              	USB_DeActivateRemoteWakeup:
 5507              	.LVL415:
 5508              	.LFB192:
2228:Drivers/STM32H7xx_HAL_Driver/Src/stm32h7xx_ll_usb.c **** 
2229:Drivers/STM32H7xx_HAL_Driver/Src/stm32h7xx_ll_usb.c **** /**
2230:Drivers/STM32H7xx_HAL_Driver/Src/stm32h7xx_ll_usb.c ****   * @brief  USB_DeActivateRemoteWakeup de-active remote wakeup signalling
2231:Drivers/STM32H7xx_HAL_Driver/Src/stm32h7xx_ll_usb.c ****   * @param  USBx Selected device
2232:Drivers/STM32H7xx_HAL_Driver/Src/stm32h7xx_ll_usb.c ****   * @retval HAL status
2233:Drivers/STM32H7xx_HAL_Driver/Src/stm32h7xx_ll_usb.c ****   */
2234:Drivers/STM32H7xx_HAL_Driver/Src/stm32h7xx_ll_usb.c **** HAL_StatusTypeDef USB_DeActivateRemoteWakeup(const USB_OTG_GlobalTypeDef *USBx)
2235:Drivers/STM32H7xx_HAL_Driver/Src/stm32h7xx_ll_usb.c **** {
 5509              		.loc 1 2235 1 is_stmt 1 view -0
 5510              		.cfi_startproc
 5511              		@ args = 0, pretend = 0, frame = 0
 5512              		@ frame_needed = 0, uses_anonymous_args = 0
 5513              		@ link register save eliminated.
2236:Drivers/STM32H7xx_HAL_Driver/Src/stm32h7xx_ll_usb.c ****   uint32_t USBx_BASE = (uint32_t)USBx;
 5514              		.loc 1 2236 3 view .LVU1788
2237:Drivers/STM32H7xx_HAL_Driver/Src/stm32h7xx_ll_usb.c **** 
2238:Drivers/STM32H7xx_HAL_Driver/Src/stm32h7xx_ll_usb.c ****   /* active Remote wakeup signalling */
2239:Drivers/STM32H7xx_HAL_Driver/Src/stm32h7xx_ll_usb.c ****   USBx_DEVICE->DCTL &= ~(USB_OTG_DCTL_RWUSIG);
 5515              		.loc 1 2239 3 view .LVU1789
 5516              		.loc 1 2239 21 is_stmt 0 view .LVU1790
 5517 0000 D0F80438 		ldr	r3, [r0, #2052]
ARM GAS  /tmp/ccdP7LVA.s 			page 160


 5518 0004 23F00103 		bic	r3, r3, #1
 5519 0008 C0F80438 		str	r3, [r0, #2052]
2240:Drivers/STM32H7xx_HAL_Driver/Src/stm32h7xx_ll_usb.c **** 
2241:Drivers/STM32H7xx_HAL_Driver/Src/stm32h7xx_ll_usb.c ****   return HAL_OK;
 5520              		.loc 1 2241 3 is_stmt 1 view .LVU1791
2242:Drivers/STM32H7xx_HAL_Driver/Src/stm32h7xx_ll_usb.c **** }
 5521              		.loc 1 2242 1 is_stmt 0 view .LVU1792
 5522 000c 0020     		movs	r0, #0
 5523              	.LVL416:
 5524              		.loc 1 2242 1 view .LVU1793
 5525 000e 7047     		bx	lr
 5526              		.cfi_endproc
 5527              	.LFE192:
 5529              		.text
 5530              	.Letext0:
 5531              		.file 2 "/usr/lib/gcc/arm-none-eabi/9.2.1/include/stdint.h"
 5532              		.file 3 "Drivers/CMSIS/Include/cmsis_gcc.h"
 5533              		.file 4 "Drivers/CMSIS/Include/core_cm7.h"
 5534              		.file 5 "Drivers/CMSIS/Device/ST/STM32H7xx/Include/system_stm32h7xx.h"
 5535              		.file 6 "Drivers/CMSIS/Device/ST/STM32H7xx/Include/stm32h723xx.h"
 5536              		.file 7 "/usr/lib/gcc/arm-none-eabi/9.2.1/include/stddef.h"
 5537              		.file 8 "/usr/include/newlib/sys/_types.h"
 5538              		.file 9 "/usr/include/newlib/sys/reent.h"
 5539              		.file 10 "/usr/include/newlib/sys/lock.h"
 5540              		.file 11 "/usr/include/newlib/math.h"
 5541              		.file 12 "Drivers/STM32H7xx_HAL_Driver/Inc/stm32h7xx_hal_def.h"
 5542              		.file 13 "Drivers/STM32H7xx_HAL_Driver/Inc/stm32h7xx_hal_flash.h"
 5543              		.file 14 "Drivers/STM32H7xx_HAL_Driver/Inc/stm32h7xx_hal_uart.h"
 5544              		.file 15 "Drivers/STM32H7xx_HAL_Driver/Inc/stm32h7xx_ll_usb.h"
 5545              		.file 16 "Drivers/STM32H7xx_HAL_Driver/Inc/stm32h7xx_hal.h"
ARM GAS  /tmp/ccdP7LVA.s 			page 161


DEFINED SYMBOLS
                            *ABS*:0000000000000000 stm32h7xx_ll_usb.c
     /tmp/ccdP7LVA.s:17     .text.USB_CoreReset:0000000000000000 $t
     /tmp/ccdP7LVA.s:24     .text.USB_CoreReset:0000000000000000 USB_CoreReset
     /tmp/ccdP7LVA.s:119    .text.USB_CoreInit:0000000000000000 $t
     /tmp/ccdP7LVA.s:126    .text.USB_CoreInit:0000000000000000 USB_CoreInit
     /tmp/ccdP7LVA.s:269    .text.USB_CoreInit:000000000000009c $d
     /tmp/ccdP7LVA.s:275    .text.USB_SetTurnaroundTime:0000000000000000 $t
     /tmp/ccdP7LVA.s:282    .text.USB_SetTurnaroundTime:0000000000000000 USB_SetTurnaroundTime
     /tmp/ccdP7LVA.s:462    .text.USB_SetTurnaroundTime:000000000000009c $d
     /tmp/ccdP7LVA.s:484    .text.USB_EnableGlobalInt:0000000000000000 $t
     /tmp/ccdP7LVA.s:491    .text.USB_EnableGlobalInt:0000000000000000 USB_EnableGlobalInt
     /tmp/ccdP7LVA.s:514    .text.USB_DisableGlobalInt:0000000000000000 $t
     /tmp/ccdP7LVA.s:521    .text.USB_DisableGlobalInt:0000000000000000 USB_DisableGlobalInt
     /tmp/ccdP7LVA.s:544    .text.USB_FlushTxFifo:0000000000000000 $t
     /tmp/ccdP7LVA.s:551    .text.USB_FlushTxFifo:0000000000000000 USB_FlushTxFifo
     /tmp/ccdP7LVA.s:648    .text.USB_FlushRxFifo:0000000000000000 $t
     /tmp/ccdP7LVA.s:655    .text.USB_FlushRxFifo:0000000000000000 USB_FlushRxFifo
     /tmp/ccdP7LVA.s:748    .text.USB_SetDevSpeed:0000000000000000 $t
     /tmp/ccdP7LVA.s:755    .text.USB_SetDevSpeed:0000000000000000 USB_SetDevSpeed
     /tmp/ccdP7LVA.s:781    .text.USB_DevInit:0000000000000000 $t
     /tmp/ccdP7LVA.s:788    .text.USB_DevInit:0000000000000000 USB_DevInit
     /tmp/ccdP7LVA.s:1141   .text.USB_DevInit:0000000000000188 $d
     /tmp/ccdP7LVA.s:1147   .text.USB_GetDevSpeed:0000000000000000 $t
     /tmp/ccdP7LVA.s:1154   .text.USB_GetDevSpeed:0000000000000000 USB_GetDevSpeed
     /tmp/ccdP7LVA.s:1204   .text.USB_ActivateEndpoint:0000000000000000 $t
     /tmp/ccdP7LVA.s:1211   .text.USB_ActivateEndpoint:0000000000000000 USB_ActivateEndpoint
     /tmp/ccdP7LVA.s:1337   .text.USB_ActivateEndpoint:000000000000008c $d
     /tmp/ccdP7LVA.s:1342   .text.USB_ActivateDedicatedEndpoint:0000000000000000 $t
     /tmp/ccdP7LVA.s:1349   .text.USB_ActivateDedicatedEndpoint:0000000000000000 USB_ActivateDedicatedEndpoint
     /tmp/ccdP7LVA.s:1483   .text.USB_ActivateDedicatedEndpoint:0000000000000098 $d
     /tmp/ccdP7LVA.s:1488   .text.USB_DeactivateEndpoint:0000000000000000 $t
     /tmp/ccdP7LVA.s:1495   .text.USB_DeactivateEndpoint:0000000000000000 USB_DeactivateEndpoint
     /tmp/ccdP7LVA.s:1660   .text.USB_DeactivateEndpoint:00000000000000d4 $d
     /tmp/ccdP7LVA.s:1666   .text.USB_DeactivateDedicatedEndpoint:0000000000000000 $t
     /tmp/ccdP7LVA.s:1673   .text.USB_DeactivateDedicatedEndpoint:0000000000000000 USB_DeactivateDedicatedEndpoint
     /tmp/ccdP7LVA.s:1796   .text.USB_EPStopXfer:0000000000000000 $t
     /tmp/ccdP7LVA.s:1803   .text.USB_EPStopXfer:0000000000000000 USB_EPStopXfer
     /tmp/ccdP7LVA.s:1973   .text.USB_WritePacket:0000000000000000 $t
     /tmp/ccdP7LVA.s:1980   .text.USB_WritePacket:0000000000000000 USB_WritePacket
     /tmp/ccdP7LVA.s:2056   .text.USB_EPStartXfer:0000000000000000 $t
     /tmp/ccdP7LVA.s:2063   .text.USB_EPStartXfer:0000000000000000 USB_EPStartXfer
     /tmp/ccdP7LVA.s:2511   .text.USB_EPStartXfer:0000000000000230 $d
     /tmp/ccdP7LVA.s:2518   .text.USB_ReadPacket:0000000000000000 $t
     /tmp/ccdP7LVA.s:2525   .text.USB_ReadPacket:0000000000000000 USB_ReadPacket
     /tmp/ccdP7LVA.s:2650   .text.USB_EPSetStall:0000000000000000 $t
     /tmp/ccdP7LVA.s:2657   .text.USB_EPSetStall:0000000000000000 USB_EPSetStall
     /tmp/ccdP7LVA.s:2738   .text.USB_EPClearStall:0000000000000000 $t
     /tmp/ccdP7LVA.s:2745   .text.USB_EPClearStall:0000000000000000 USB_EPClearStall
     /tmp/ccdP7LVA.s:2828   .text.USB_StopDevice:0000000000000000 $t
     /tmp/ccdP7LVA.s:2835   .text.USB_StopDevice:0000000000000000 USB_StopDevice
     /tmp/ccdP7LVA.s:2922   .text.USB_SetDevAddress:0000000000000000 $t
     /tmp/ccdP7LVA.s:2929   .text.USB_SetDevAddress:0000000000000000 USB_SetDevAddress
     /tmp/ccdP7LVA.s:2964   .text.USB_DevConnect:0000000000000000 $t
     /tmp/ccdP7LVA.s:2971   .text.USB_DevConnect:0000000000000000 USB_DevConnect
     /tmp/ccdP7LVA.s:3000   .text.USB_DevDisconnect:0000000000000000 $t
     /tmp/ccdP7LVA.s:3007   .text.USB_DevDisconnect:0000000000000000 USB_DevDisconnect
ARM GAS  /tmp/ccdP7LVA.s 			page 162


     /tmp/ccdP7LVA.s:3036   .text.USB_ReadInterrupts:0000000000000000 $t
     /tmp/ccdP7LVA.s:3043   .text.USB_ReadInterrupts:0000000000000000 USB_ReadInterrupts
     /tmp/ccdP7LVA.s:3070   .text.USB_ReadChInterrupts:0000000000000000 $t
     /tmp/ccdP7LVA.s:3077   .text.USB_ReadChInterrupts:0000000000000000 USB_ReadChInterrupts
     /tmp/ccdP7LVA.s:3108   .text.USB_ReadDevAllOutEpInterrupt:0000000000000000 $t
     /tmp/ccdP7LVA.s:3115   .text.USB_ReadDevAllOutEpInterrupt:0000000000000000 USB_ReadDevAllOutEpInterrupt
     /tmp/ccdP7LVA.s:3148   .text.USB_ReadDevAllInEpInterrupt:0000000000000000 $t
     /tmp/ccdP7LVA.s:3155   .text.USB_ReadDevAllInEpInterrupt:0000000000000000 USB_ReadDevAllInEpInterrupt
     /tmp/ccdP7LVA.s:3188   .text.USB_ReadDevOutEPInterrupt:0000000000000000 $t
     /tmp/ccdP7LVA.s:3195   .text.USB_ReadDevOutEPInterrupt:0000000000000000 USB_ReadDevOutEPInterrupt
     /tmp/ccdP7LVA.s:3229   .text.USB_ReadDevInEPInterrupt:0000000000000000 $t
     /tmp/ccdP7LVA.s:3236   .text.USB_ReadDevInEPInterrupt:0000000000000000 USB_ReadDevInEPInterrupt
     /tmp/ccdP7LVA.s:3297   .text.USB_ClearInterrupts:0000000000000000 $t
     /tmp/ccdP7LVA.s:3304   .text.USB_ClearInterrupts:0000000000000000 USB_ClearInterrupts
     /tmp/ccdP7LVA.s:3323   .text.USB_GetMode:0000000000000000 $t
     /tmp/ccdP7LVA.s:3330   .text.USB_GetMode:0000000000000000 USB_GetMode
     /tmp/ccdP7LVA.s:3349   .text.USB_SetCurrentMode:0000000000000000 $t
     /tmp/ccdP7LVA.s:3356   .text.USB_SetCurrentMode:0000000000000000 USB_SetCurrentMode
     /tmp/ccdP7LVA.s:3473   .text.USB_ActivateSetup:0000000000000000 $t
     /tmp/ccdP7LVA.s:3480   .text.USB_ActivateSetup:0000000000000000 USB_ActivateSetup
     /tmp/ccdP7LVA.s:3509   .text.USB_ActivateSetup:000000000000001c $d
     /tmp/ccdP7LVA.s:3514   .text.USB_EP0_OutStart:0000000000000000 $t
     /tmp/ccdP7LVA.s:3521   .text.USB_EP0_OutStart:0000000000000000 USB_EP0_OutStart
     /tmp/ccdP7LVA.s:3604   .text.USB_EP0_OutStart:000000000000005c $d
     /tmp/ccdP7LVA.s:3609   .text.USB_HostInit:0000000000000000 $t
     /tmp/ccdP7LVA.s:3616   .text.USB_HostInit:0000000000000000 USB_HostInit
     /tmp/ccdP7LVA.s:3801   .text.USB_HostInit:00000000000000d0 $d
     /tmp/ccdP7LVA.s:3807   .text.USB_InitFSLSPClkSel:0000000000000000 $t
     /tmp/ccdP7LVA.s:3814   .text.USB_InitFSLSPClkSel:0000000000000000 USB_InitFSLSPClkSel
     /tmp/ccdP7LVA.s:3892   .text.USB_ResetPort:0000000000000000 $t
     /tmp/ccdP7LVA.s:3899   .text.USB_ResetPort:0000000000000000 USB_ResetPort
     /tmp/ccdP7LVA.s:3968   .text.USB_DriveVbus:0000000000000000 $t
     /tmp/ccdP7LVA.s:3975   .text.USB_DriveVbus:0000000000000000 USB_DriveVbus
     /tmp/ccdP7LVA.s:4054   .text.USB_GetHostSpeed:0000000000000000 $t
     /tmp/ccdP7LVA.s:4061   .text.USB_GetHostSpeed:0000000000000000 USB_GetHostSpeed
     /tmp/ccdP7LVA.s:4099   .text.USB_GetCurrentFrame:0000000000000000 $t
     /tmp/ccdP7LVA.s:4106   .text.USB_GetCurrentFrame:0000000000000000 USB_GetCurrentFrame
     /tmp/ccdP7LVA.s:4129   .text.USB_HC_Init:0000000000000000 $t
     /tmp/ccdP7LVA.s:4136   .text.USB_HC_Init:0000000000000000 USB_HC_Init
     /tmp/ccdP7LVA.s:4178   .text.USB_HC_Init:0000000000000022 $d
     /tmp/ccdP7LVA.s:4182   .text.USB_HC_Init:0000000000000026 $t
     /tmp/ccdP7LVA.s:4373   .text.USB_HC_ReadInterrupt:0000000000000000 $t
     /tmp/ccdP7LVA.s:4380   .text.USB_HC_ReadInterrupt:0000000000000000 USB_HC_ReadInterrupt
     /tmp/ccdP7LVA.s:4403   .text.USB_HC_Halt:0000000000000000 $t
     /tmp/ccdP7LVA.s:4410   .text.USB_HC_Halt:0000000000000000 USB_HC_Halt
     /tmp/ccdP7LVA.s:4625   .text.USB_DoPing:0000000000000000 $t
     /tmp/ccdP7LVA.s:4632   .text.USB_DoPing:0000000000000000 USB_DoPing
     /tmp/ccdP7LVA.s:4674   .text.USB_DoPing:0000000000000020 $d
     /tmp/ccdP7LVA.s:4679   .text.USB_HC_StartXfer:0000000000000000 $t
     /tmp/ccdP7LVA.s:4686   .text.USB_HC_StartXfer:0000000000000000 USB_HC_StartXfer
     /tmp/ccdP7LVA.s:5068   .text.USB_HC_StartXfer:000000000000018c $d
     /tmp/ccdP7LVA.s:5073   .text.USB_HC_StartXfer:0000000000000190 $t
     /tmp/ccdP7LVA.s:5137   .text.USB_HC_StartXfer:00000000000001d8 $d
     /tmp/ccdP7LVA.s:5141   .text.USB_HC_StartXfer:00000000000001dc $t
     /tmp/ccdP7LVA.s:5275   .text.USB_HC_StartXfer:0000000000000274 $d
     /tmp/ccdP7LVA.s:5280   .text.USB_StopHost:0000000000000000 $t
     /tmp/ccdP7LVA.s:5287   .text.USB_StopHost:0000000000000000 USB_StopHost
ARM GAS  /tmp/ccdP7LVA.s 			page 163


     /tmp/ccdP7LVA.s:5458   .text.USB_ActivateRemoteWakeup:0000000000000000 $t
     /tmp/ccdP7LVA.s:5465   .text.USB_ActivateRemoteWakeup:0000000000000000 USB_ActivateRemoteWakeup
     /tmp/ccdP7LVA.s:5499   .text.USB_DeActivateRemoteWakeup:0000000000000000 $t
     /tmp/ccdP7LVA.s:5506   .text.USB_DeActivateRemoteWakeup:0000000000000000 USB_DeActivateRemoteWakeup

UNDEFINED SYMBOLS
HAL_Delay
